 racermate

 Timestamp is 5294a367 (Tue Nov 26 08:34:31 2013)

 Preferred load address is 10000000

 Start         Length     Name                   Class
 0001:00000000 00031e8bH .text                   CODE
 0001:00031e90 00001b65H .text$x                 CODE
 0001:00033a00 00000368H .text$yc                CODE
 0001:00033d70 0000018aH .text$yd                CODE
 0002:00000000 000002f4H .idata$5                DATA
 0002:000002f4 00000004H .CRT$XCA                DATA
 0002:000002f8 00000028H .CRT$XCU                DATA
 0002:00000320 00000004H .CRT$XCZ                DATA
 0002:00000324 00000004H .CRT$XIA                DATA
 0002:00000328 00000004H .CRT$XIAA               DATA
 0002:0000032c 00000004H .CRT$XIC                DATA
 0002:00000330 00000004H .CRT$XIZ                DATA
 0002:00000338 00004950H .rdata                  DATA
 0002:00004c88 00000facH .rdata$r                DATA
 0002:00005c40 000001d4H .rdata$sxdata           DATA
 0002:00005e14 00000004H .rtc$IAA                DATA
 0002:00005e18 00000004H .rtc$IZZ                DATA
 0002:00005e1c 00000004H .rtc$TAA                DATA
 0002:00005e20 00000004H .rtc$TZZ                DATA
 0002:00005e28 00001ff0H .xdata$x                DATA
 0002:00007e18 0000008cH .idata$2                DATA
 0002:00007ea4 00000014H .idata$3                DATA
 0002:00007eb8 000002f4H .idata$4                DATA
 0002:000081ac 00000e88H .idata$6                DATA
 0002:00009040 0000316bH .edata                  DATA
 0003:00000000 00002380H .data                   DATA
 0003:00002380 00026c78H .bss                    DATA

  Address         Publics by Value              Rva+Base       Lib:Object

 0000:00000000       __except_list              00000000     <absolute>
 0000:00000075       ___safe_se_handler_count   00000075     <absolute>
 0000:00009876       __ldused                   00009876     <absolute>
 0000:00009876       __fltused                  00009876     <absolute>
 0000:00000000       ___ImageBase               10000000     <linker-defined>
 0001:00000000       ??1bad_alloc@std@@UAE@XZ   10001000 f i tlib:formula.obj
 0001:00000010       ??_Ebad_alloc@std@@UAEPAXI@Z 10001010 f i  CIL library: CIL module
 0001:00000010       ??_Gbad_alloc@std@@UAEPAXI@Z 10001010 f i tlib:formula.obj
 0001:00000040       ??0logic_error@std@@QAE@ABV?$basic_string@DU?$char_traits@D@std@@V?$allocator@D@2@@1@@Z 10001040 f i tlib:formula.obj
 0001:000000a0       ?what@logic_error@std@@UBEPBDXZ 100010a0 f i tlib:formula.obj
 0001:000000b0       ??_Glogic_error@std@@UAEPAXI@Z 100010b0 f i tlib:formula.obj
 0001:000000b0       ??_Elength_error@std@@UAEPAXI@Z 100010b0 f i  CIL library: CIL module
 0001:000000b0       ??_Elogic_error@std@@UAEPAXI@Z 100010b0 f i  CIL library: CIL module
 0001:000000b0       ??_Glength_error@std@@UAEPAXI@Z 100010b0 f i tlib:formula.obj
 0001:000000e0       ??1length_error@std@@UAE@XZ 100010e0 f i tlib:formula.obj
 0001:00000100       ?set_ftp@Formula@@QAEXM@Z  10001100 f i tlib:formula.obj
 0001:00000110       ?get_ftp@Formula@@QAEMXZ   10001110 f i tlib:formula.obj
 0001:00000120       ?get_x_np@Formula@@QAEMXZ  10001120 f i tlib:formula.obj
 0001:00000130       ?get_x_tss@Formula@@QAEMXZ 10001130 f i tlib:formula.obj
 0001:00000140       ?get_x_if@Formula@@QAEMXZ  10001140 f i tlib:formula.obj
 0001:00000150       ?get_avg_watts@Formula@@QAEMXZ 10001150 f i tlib:formula.obj
 0001:00000160       ??0Formula@@QAE@ABV0@@Z    10001160 f i tlib:formula.obj
 0001:00000220       ??4Formula@@QAEAAV0@ABV0@@Z 10001220 f i tlib:formula.obj
 0001:000002e0       ??_FFormula@@QAEXXZ        100012e0 f i tlib:formula.obj
 0001:000002f0       ??_EFormula@@UAEPAXI@Z     100012f0 f i tlib:formula.obj
 0001:00000350       ??0Formula@@QAE@M@Z        10001350 f   tlib:formula.obj
 0001:00000440       ??1Formula@@UAE@XZ         10001440 f   tlib:formula.obj
 0001:000004f0       ?reset@Formula@@QAEXXZ     100014f0 f   tlib:formula.obj
 0001:00000580       ?calc@Formula@@QAEXKM@Z    10001580 f   tlib:formula.obj
 0001:000007e0       ??0?$deque@UFORMULA_PAIR@@V?$allocator@UFORMULA_PAIR@@@std@@@std@@QAE@ABV01@@Z 100017e0 f i tlib:formula.obj
 0001:000008c0       ??1?$deque@UFORMULA_PAIR@@V?$allocator@UFORMULA_PAIR@@@std@@@std@@QAE@XZ 100018c0 f i tlib:formula.obj
 0001:000008c0       ??1?$deque@NV?$allocator@N@std@@@std@@QAE@XZ 100018c0 f i tlib:velotron.obj
 0001:000008e0       ??4?$deque@UFORMULA_PAIR@@V?$allocator@UFORMULA_PAIR@@@std@@@std@@QAEAAV01@ABV01@@Z 100018e0 f i tlib:formula.obj
 0001:00000a50       ?push_back@?$deque@UFORMULA_PAIR@@V?$allocator@UFORMULA_PAIR@@@std@@@std@@QAEXABUFORMULA_PAIR@@@Z 10001a50 f i tlib:formula.obj
 0001:00000ad0       ?pop_back@?$deque@NV?$allocator@N@std@@@std@@QAEXXZ 10001ad0 f i tlib:velotron.obj
 0001:00000ad0       ?pop_back@?$deque@UFORMULA_PAIR@@V?$allocator@UFORMULA_PAIR@@@std@@@std@@QAEXXZ 10001ad0 f i tlib:formula.obj
 0001:00000af0       ?begin@?$deque@NV?$allocator@N@std@@@std@@QAE?AV?$_Deque_iterator@NV?$allocator@N@std@@$00@2@XZ 10001af0 f i tlib:velotron.obj
 0001:00000af0       ?begin@?$deque@UFORMULA_PAIR@@V?$allocator@UFORMULA_PAIR@@@std@@@std@@QAE?AV?$_Deque_iterator@UFORMULA_PAIR@@V?$allocator@UFORMULA_PAIR@@@std@@$00@2@XZ 10001af0 f i tlib:formula.obj
 0001:00000af0       ?begin@?$deque@UFORMULA_PAIR@@V?$allocator@UFORMULA_PAIR@@@std@@@std@@QBE?AV?$_Deque_const_iterator@UFORMULA_PAIR@@V?$allocator@UFORMULA_PAIR@@@std@@$00@2@XZ 10001af0 f i tlib:formula.obj
 0001:00000af0       ?begin@?$deque@NV?$allocator@N@std@@@std@@QBE?AV?$_Deque_const_iterator@NV?$allocator@N@std@@$00@2@XZ 10001af0 f i tlib:velotron.obj
 0001:00000b20       ?end@?$deque@NV?$allocator@N@std@@@std@@QAE?AV?$_Deque_iterator@NV?$allocator@N@std@@$00@2@XZ 10001b20 f i tlib:velotron.obj
 0001:00000b20       ?end@?$deque@UFORMULA_PAIR@@V?$allocator@UFORMULA_PAIR@@@std@@@std@@QAE?AV?$_Deque_iterator@UFORMULA_PAIR@@V?$allocator@UFORMULA_PAIR@@@std@@$00@2@XZ 10001b20 f i tlib:formula.obj
 0001:00000b20       ?end@?$deque@UFORMULA_PAIR@@V?$allocator@UFORMULA_PAIR@@@std@@@std@@QBE?AV?$_Deque_const_iterator@UFORMULA_PAIR@@V?$allocator@UFORMULA_PAIR@@@std@@$00@2@XZ 10001b20 f i tlib:formula.obj
 0001:00000b20       ?end@?$deque@NV?$allocator@N@std@@@std@@QBE?AV?$_Deque_const_iterator@NV?$allocator@N@std@@$00@2@XZ 10001b20 f i tlib:velotron.obj
 0001:00000b50       ?erase@?$deque@UFORMULA_PAIR@@V?$allocator@UFORMULA_PAIR@@@std@@@std@@QAE?AV?$_Deque_iterator@UFORMULA_PAIR@@V?$allocator@UFORMULA_PAIR@@@std@@$00@2@V?$_Deque_const_iterator@UFORMULA_PAIR@@V?$allocator@UFORMULA_PAIR@@@std@@$00@2@0@Z 10001b50 f i tlib:formula.obj
 0001:00000d50       ?_Growmap@?$deque@NV?$allocator@N@std@@@std@@IAEXI@Z 10001d50 f i tlib:velotron.obj
 0001:00000d50       ?_Growmap@?$deque@UFORMULA_PAIR@@V?$allocator@UFORMULA_PAIR@@@std@@@std@@IAEXI@Z 10001d50 f i tlib:formula.obj
 0001:00000eb0       ?_Tidy@?$deque@UFORMULA_PAIR@@V?$allocator@UFORMULA_PAIR@@@std@@@std@@IAEXXZ 10001eb0 f i tlib:formula.obj
 0001:00000eb0       ?_Tidy@?$deque@NV?$allocator@N@std@@@std@@IAEXXZ 10001eb0 f i tlib:velotron.obj
 0001:00000f20       ?_Xlen@?$deque@UTCRF@@V?$allocator@UTCRF@@@std@@@std@@KAXXZ 10001f20 f i glib:crf.obj
 0001:00000f20       ?_Xlen@?$deque@UFORMULA_PAIR@@V?$allocator@UFORMULA_PAIR@@@std@@@std@@KAXXZ 10001f20 f i tlib:formula.obj
 0001:00000f20       ?_Xlen@?$deque@NV?$allocator@N@std@@@std@@KAXXZ 10001f20 f i tlib:velotron.obj
 0001:00000f90       ??0length_error@std@@QAE@ABV01@@Z 10001f90 f i tlib:formula.obj
 0001:00000fb0       ??0logic_error@std@@QAE@ABV01@@Z 10001fb0 f i tlib:formula.obj
 0001:00001020       ??$_Pow_int@M@@YAMMH@Z     10002020 f i tlib:formula.obj
 0001:00001060       ??$insert@V?$_Deque_const_iterator@UFORMULA_PAIR@@V?$allocator@UFORMULA_PAIR@@@std@@$00@std@@@?$deque@UFORMULA_PAIR@@V?$allocator@UFORMULA_PAIR@@@std@@@std@@QAEXV?$_Deque_const_iterator@UFORMULA_PAIR@@V?$allocator@UFORMULA_PAIR@@@std@@$00@1@00@Z 10002060 f i tlib:formula.obj
 0001:000010a0       ??$copy@V?$_Deque_const_iterator@UFORMULA_PAIR@@V?$allocator@UFORMULA_PAIR@@@std@@$00@std@@V?$_Deque_iterator@UFORMULA_PAIR@@V?$allocator@UFORMULA_PAIR@@@std@@$00@2@@std@@YA?AV?$_Deque_iterator@UFORMULA_PAIR@@V?$allocator@UFORMULA_PAIR@@@std@@$00@0@V?$_Deque_const_iterator@UFORMULA_PAIR@@V?$allocator@UFORMULA_PAIR@@@std@@$00@0@0V10@@Z 100020a0 f i tlib:formula.obj
 0001:00001110       ??$copy_backward@V?$_Deque_iterator@UFORMULA_PAIR@@V?$allocator@UFORMULA_PAIR@@@std@@$00@std@@V12@@std@@YA?AV?$_Deque_iterator@UFORMULA_PAIR@@V?$allocator@UFORMULA_PAIR@@@std@@$00@0@V10@00@Z 10002110 f i tlib:formula.obj
 0001:00001180       ??$copy@V?$_Deque_iterator@UFORMULA_PAIR@@V?$allocator@UFORMULA_PAIR@@@std@@$00@std@@V12@@std@@YA?AV?$_Deque_iterator@UFORMULA_PAIR@@V?$allocator@UFORMULA_PAIR@@@std@@$00@0@V10@00@Z 10002180 f i tlib:formula.obj
 0001:000011f0       ??$_Allocate@PAN@std@@YAPAPANIPAPAN@Z 100021f0 f i tlib:velotron.obj
 0001:000011f0       ??$_Allocate@PAUFORMULA_PAIR@@@std@@YAPAPAUFORMULA_PAIR@@IPAPAU1@@Z 100021f0 f i tlib:formula.obj
 0001:00001250       ??0bad_alloc@std@@QAE@ABV01@@Z 10002250 f i tlib:formula.obj
 0001:00001270       ??$_Insert@V?$_Deque_const_iterator@UFORMULA_PAIR@@V?$allocator@UFORMULA_PAIR@@@std@@$00@std@@@?$deque@UFORMULA_PAIR@@V?$allocator@UFORMULA_PAIR@@@std@@@std@@QAEXV?$_Deque_const_iterator@UFORMULA_PAIR@@V?$allocator@UFORMULA_PAIR@@@std@@$00@1@00Uinput_iterator_tag@1@@Z 10002270 f i tlib:formula.obj
 0001:00001480       ??$_Copy_opt@V?$_Deque_const_iterator@UFORMULA_PAIR@@V?$allocator@UFORMULA_PAIR@@@std@@$0A@@std@@V?$_Deque_iterator@UFORMULA_PAIR@@V?$allocator@UFORMULA_PAIR@@@std@@$00@2@@std@@YA?AV?$_Deque_iterator@UFORMULA_PAIR@@V?$allocator@UFORMULA_PAIR@@@std@@$00@0@V?$_Deque_const_iterator@UFORMULA_PAIR@@V?$allocator@UFORMULA_PAIR@@@std@@$0A@@0@0V10@Urandom_access_iterator_tag@0@U_Nonscalar_ptr_iterator_tag@0@U_Range_checked_iterator_tag@0@@Z 10002480 f i tlib:formula.obj
 0001:00001510       ??$_Copy_backward_opt@V?$_Deque_iterator@UFORMULA_PAIR@@V?$allocator@UFORMULA_PAIR@@@std@@$0A@@std@@V?$_Deque_iterator@UFORMULA_PAIR@@V?$allocator@UFORMULA_PAIR@@@std@@$00@2@@std@@YA?AV?$_Deque_iterator@UFORMULA_PAIR@@V?$allocator@UFORMULA_PAIR@@@std@@$00@0@V?$_Deque_iterator@UFORMULA_PAIR@@V?$allocator@UFORMULA_PAIR@@@std@@$0A@@0@0V10@Urandom_access_iterator_tag@0@U_Nonscalar_ptr_iterator_tag@0@U_Range_checked_iterator_tag@0@@Z 10002510 f i tlib:formula.obj
 0001:000015a0       ??$_Copy_opt@V?$_Deque_iterator@UFORMULA_PAIR@@V?$allocator@UFORMULA_PAIR@@@std@@$0A@@std@@V?$_Deque_iterator@UFORMULA_PAIR@@V?$allocator@UFORMULA_PAIR@@@std@@$00@2@@std@@YA?AV?$_Deque_iterator@UFORMULA_PAIR@@V?$allocator@UFORMULA_PAIR@@@std@@$00@0@V?$_Deque_iterator@UFORMULA_PAIR@@V?$allocator@UFORMULA_PAIR@@@std@@$0A@@0@0V10@Urandom_access_iterator_tag@0@U_Nonscalar_ptr_iterator_tag@0@U_Range_checked_iterator_tag@0@@Z 100025a0 f i tlib:formula.obj
 0001:00001630       ?push_front@?$deque@UFORMULA_PAIR@@V?$allocator@UFORMULA_PAIR@@@std@@@std@@QAEXABUFORMULA_PAIR@@@Z 10002630 f i tlib:formula.obj
 0001:000016b0       ?_Reverse@?$deque@UFORMULA_PAIR@@V?$allocator@UFORMULA_PAIR@@@std@@@std@@QAEXII@Z 100026b0 f i tlib:formula.obj
 0001:000017f0       ??$_Copy_opt@V?$_Deque_const_iterator@UFORMULA_PAIR@@V?$allocator@UFORMULA_PAIR@@@std@@$0A@@std@@V?$_Deque_iterator@UFORMULA_PAIR@@V?$allocator@UFORMULA_PAIR@@@std@@$0A@@2@Uforward_iterator_tag@2@@std@@YA?AV?$_Deque_iterator@UFORMULA_PAIR@@V?$allocator@UFORMULA_PAIR@@@std@@$0A@@0@V?$_Deque_const_iterator@UFORMULA_PAIR@@V?$allocator@UFORMULA_PAIR@@@std@@$0A@@0@0V10@Uforward_iterator_tag@0@U_Nonscalar_ptr_iterator_tag@0@U_Range_checked_iterator_tag@0@@Z 100027f0 f i tlib:formula.obj
 0001:00001850       ??$_Copy_backward_opt@V?$_Deque_iterator@UFORMULA_PAIR@@V?$allocator@UFORMULA_PAIR@@@std@@$0A@@std@@V12@Uforward_iterator_tag@2@@std@@YA?AV?$_Deque_iterator@UFORMULA_PAIR@@V?$allocator@UFORMULA_PAIR@@@std@@$0A@@0@V10@00Uforward_iterator_tag@0@U_Nonscalar_ptr_iterator_tag@0@U_Range_checked_iterator_tag@0@@Z 10002850 f i tlib:formula.obj
 0001:000018b0       ??$_Copy_opt@V?$_Deque_iterator@UFORMULA_PAIR@@V?$allocator@UFORMULA_PAIR@@@std@@$0A@@std@@V12@Uforward_iterator_tag@2@@std@@YA?AV?$_Deque_iterator@UFORMULA_PAIR@@V?$allocator@UFORMULA_PAIR@@@std@@$0A@@0@V10@00Uforward_iterator_tag@0@U_Nonscalar_ptr_iterator_tag@0@U_Range_checked_iterator_tag@0@@Z 100028b0 f i tlib:formula.obj
 0001:00001910       ??D?$_Deque_const_iterator@NV?$allocator@N@std@@$0A@@std@@QBEABNXZ 10002910 f i tlib:velotron.obj
 0001:00001910       ??D?$_Deque_const_iterator@NV?$allocator@N@std@@$00@std@@QBEABNXZ 10002910 f i tlib:velotron.obj
 0001:00001910       ??D?$_Deque_const_iterator@UFORMULA_PAIR@@V?$allocator@UFORMULA_PAIR@@@std@@$00@std@@QBEABUFORMULA_PAIR@@XZ 10002910 f i tlib:formula.obj
 0001:00001910       ??D?$_Deque_const_iterator@UFORMULA_PAIR@@V?$allocator@UFORMULA_PAIR@@@std@@$0A@@std@@QBEABUFORMULA_PAIR@@XZ 10002910 f i tlib:formula.obj
 0001:000019a0       ??0Monarch@@QAE@ABV0@@Z    100029a0 f i tlib:monarch.obj
 0001:00001a70       ??4Monarch@@QAEAAV0@ABV0@@Z 10002a70 f i tlib:monarch.obj
 0001:00001b30       ??_FMonarch@@QAEXXZ        10002b30 f i tlib:monarch.obj
 0001:00001b50       ??_EMonarch@@UAEPAXI@Z     10002b50 f i tlib:monarch.obj
 0001:00001bb0       ??0Monarch@@QAE@N@Z        10002bb0 f   tlib:monarch.obj
 0001:00001c60       ??1Monarch@@UAE@XZ         10002c60 f   tlib:monarch.obj
 0001:00001c70       ?set_dropped_weight@Monarch@@QAEXN@Z 10002c70 f   tlib:monarch.obj
 0001:00001c90       ??4SDIRS@@QAEAAV0@ABV0@@Z  10002c90 f i tlib:physics.obj
 0001:00001cb0       ?get_str@fatalError@@QAEPBDXZ 10002cb0 f i tlib:physics.obj
 0001:00001cc0       ?get_filename@fatalError@@QAEPBDXZ 10002cc0 f i tlib:physics.obj
 0001:00001cd0       ??0fatalError@@QAE@ABV0@@Z 10002cd0 f i tlib:physics.obj
 0001:00001d00       ??_EfatalError@@UAEPAXI@Z  10002d00 f i tlib:physics.obj
 0001:00001d60       ?getFullName@Person@@QAEPADXZ 10002d60 f i tlib:physics.obj
 0001:00001df0       ?get_xb_dob@Person@@QAEPADXZ 10002df0 f i tlib:physics.obj
 0001:00001e20       ?get_physics_mode_x@dataSource@@UAE?AW4MODE@Physics@@XZ 10002e20 f i tlib:datasource.obj
 0001:00001e20       ?getfnamesize@Person@@QAEHXZ 10002e20 f i tlib:physics.obj
 0001:00001e20       ?getlnamesize@Person@@QAEHXZ 10002e20 f i tlib:physics.obj
 0001:00001e30       ?getDOB@Person@@QAEPADXZ   10002e30 f i tlib:physics.obj
 0001:00001e40       ?getAge@Person@@QAENXZ     10002e40 f i tlib:physics.obj
 0001:00001e50       ?getpounds@Person@@QAEMXZ  10002e50 f i tlib:physics.obj
 0001:00001e70       ?getkgs@Person@@QAENXZ     10002e70 f i tlib:physics.obj
 0001:00001e80       ?get_firstname@Person@@QAEPBDXZ 10002e80 f i tlib:physics.obj
 0001:00001e80       ?getfname@Person@@QAEPBDXZ 10002e80 f i tlib:physics.obj
 0001:00001e90       ?getmname@Person@@QAEPADXZ 10002e90 f i tlib:physics.obj
 0001:00001ea0       ?getcm@Person@@QAEMXZ      10002ea0 f i tlib:physics.obj
 0001:00001eb0       ?getbmo@Person@@QAEHXZ     10002eb0 f i tlib:physics.obj
 0001:00001ec0       ?getbday@Person@@QAEHXZ    10002ec0 f i tlib:physics.obj
 0001:00001ed0       ?getbyear@Person@@QAEHXZ   10002ed0 f i tlib:physics.obj
 0001:00001ee0       ?getphone@Person@@QAEPADXZ 10002ee0 f i tlib:physics.obj
 0001:00001ef0       ?getaddress@Person@@QAEPADXZ 10002ef0 f i tlib:physics.obj
 0001:00001f00       ?getcity@Person@@QAEPBDXZ  10002f00 f i tlib:physics.obj
 0001:00001f20       ?getstate@Person@@QAEPBDXZ 10002f20 f i tlib:physics.obj
 0001:00001f40       ?getcountry@Person@@QAEPBDXZ 10002f40 f i tlib:physics.obj
 0001:00001f60       ?getzip@Person@@QAEPBDXZ   10002f60 f i tlib:physics.obj
 0001:00001f80       ?getemail@Person@@QAEPBDXZ 10002f80 f i tlib:physics.obj
 0001:00001fa0       ?getecontact@Person@@QAEPADXZ 10002fa0 f i tlib:physics.obj
 0001:00001fb0       ?getephone@Person@@QAEPADXZ 10002fb0 f i tlib:physics.obj
 0001:00001fc0       ?getsex@Person@@QAEDXZ     10002fc0 f i tlib:physics.obj
 0001:00001fd0       ?getsexString@Person@@QAEPBDXZ 10002fd0 f i tlib:physics.obj
 0001:00001ff0       ?getInitials@Person@@QAEPADXZ 10002ff0 f i tlib:physics.obj
 0001:00002000       ?getName2@Person@@QAEPADXZ 10003000 f i tlib:physics.obj
 0001:00002010       ?getmi@Person@@QAEPADXZ    10003010 f i tlib:physics.obj
 0001:00002020       ?getName@Person@@QAEPADXZ  10003020 f i tlib:physics.obj
 0001:000020c0       ?getInches@Person@@QAEMXZ  100030c0 f i tlib:physics.obj
 0001:000020e0       ?getlname@Person@@QAEPBDXZ 100030e0 f i tlib:physics.obj
 0001:000020e0       ?get_lastname@Person@@QAEPBDXZ 100030e0 f i tlib:physics.obj
 0001:000020f0       ?setDOB@Person@@QAEXPBD@Z  100030f0 f i tlib:physics.obj
 0001:00002120       ?setpounds@Person@@QAEXN@Z 10003120 f i tlib:physics.obj
 0001:00002130       ?setkgs@Person@@QAEXN@Z    10003130 f i tlib:physics.obj
 0001:00002140       ?setlname@Person@@QAEXPAD@Z 10003140 f i tlib:physics.obj
 0001:00002150       ?setfname@Person@@QAEXPAD@Z 10003150 f i tlib:physics.obj
 0001:00002160       ?setmname@Person@@QAEXPAD@Z 10003160 f i tlib:physics.obj
 0001:000021a0       ?setcm@Person@@QAEXM@Z     100031a0 f i tlib:physics.obj
 0001:000021a0       ?set_lower_hr@Decoder@@UAEXM@Z 100031a0 f i tlib:decoder.obj
 0001:000021b0       ?setInches@Person@@QAEXM@Z 100031b0 f i tlib:physics.obj
 0001:000021d0       ?setbmo@Person@@QAEXH@Z    100031d0 f i tlib:physics.obj
 0001:000021e0       ?setbday@Person@@QAEXH@Z   100031e0 f i tlib:physics.obj
 0001:000021f0       ?setbyear@Person@@QAEXH@Z  100031f0 f i tlib:physics.obj
 0001:00002200       ?setphone@Person@@QAEXPAD@Z 10003200 f i tlib:physics.obj
 0001:00002220       ?setaddress@Person@@QAEXPAD@Z 10003220 f i tlib:physics.obj
 0001:00002240       ?setsex@Person@@QAEXD@Z    10003240 f i tlib:physics.obj
 0001:00002250       ?setcity@Person@@QAEXPAD@Z 10003250 f i tlib:physics.obj
 0001:00002260       ?setstate@Person@@QAEXPAD@Z 10003260 f i tlib:physics.obj
 0001:00002270       ?setzip@Person@@QAEXPAD@Z  10003270 f i tlib:physics.obj
 0001:00002280       ?setemail@Person@@QAEXPAD@Z 10003280 f i tlib:physics.obj
 0001:00002290       ?setecontact@Person@@QAEXPAD@Z 10003290 f i tlib:physics.obj
 0001:000022b0       ?setephone@Person@@QAEXPAD@Z 100032b0 f i tlib:physics.obj
 0001:000022d0       ??0Person@@QAE@ABV0@@Z     100032d0 f i tlib:physics.obj
 0001:00002470       ??4Person@@QAEAAV0@ABV0@@Z 10003470 f i tlib:physics.obj
 0001:000026b0       ??_EPerson@@UAEPAXI@Z      100036b0 f i tlib:physics.obj
 0001:00002710       ??0PERSON_DATA@@QAE@ABU0@@Z 10003710 f i tlib:physics.obj
 0001:00002870       ??1PERSON_DATA@@QAE@XZ     10003870 f i tlib:physics.obj
 0001:00002940       ??4PERSON_DATA@@QAEAAU0@ABU0@@Z 10003940 f i tlib:physics.obj
 0001:00002a30       ?setDis@CRF@@QAEX_N@Z      10003a30 f i tlib:physics.obj
 0001:00002a40       ?getDis@CRF@@QAE_NXZ       10003a40 f i tlib:physics.obj
 0001:00002a50       ??_FCRF@@QAEXXZ            10003a50 f i tlib:physics.obj
 0001:00002a60       ?inc_factor@Physics@@QAEXXZ 10003a60 f i tlib:physics.obj
 0001:00002ac0       ?dec_factor@Physics@@QAEXXZ 10003ac0 f i tlib:physics.obj
 0001:00002b10       ?get_measured_ergo_watts@Physics@@QAENXZ 10003b10 f i tlib:physics.obj
 0001:00002b10       ?getfval@LPFilter@@QAENXZ  10003b10 f i tlib:physics.obj
 0001:00002b20       ?is_paused@Physics@@QAE_NXZ 10003b20 f i tlib:physics.obj
 0001:00002b30       ?set_paused@Physics@@QAEX_N@Z 10003b30 f i tlib:physics.obj
 0001:00002b40       ?getWindPowerConstant@Physics@@QAENXZ 10003b40 f i tlib:physics.obj
 0001:00002b50       ?getWindForceConstant@Physics@@QAENXZ 10003b50 f i tlib:physics.obj
 0001:00002b60       ?get_watts_factor@Physics@@QAENXZ 10003b60 f i tlib:physics.obj
 0001:00002b70       ?setwgif@Physics@@QAEX_N@Z 10003b70 f i tlib:physics.obj
 0001:00002b80       ?setflip@Physics@@QAEX_N@Z 10003b80 f i tlib:physics.obj
 0001:00002b90       ?setifgain@Physics@@QAEXN@Z 10003b90 f i tlib:physics.obj
 0001:00002ba0       ?set_watts_factor@Physics@@QAEXN@Z 10003ba0 f i tlib:physics.obj
 0001:00002c00       ?getGrade@Physics@@QAENXZ  10003c00 f i tlib:physics.obj
 0001:00002c10       ??0Physics@@QAE@ABV0@@Z    10003c10 f i tlib:physics.obj
 0001:000033f0       ??4Physics@@QAEAAV0@ABV0@@Z 100043f0 f i tlib:physics.obj
 0001:00003bd0       ??_EPhysics@@UAEPAXI@Z     10004bd0 f i tlib:physics.obj
 0001:00003c30       ??0Physics@@QAE@PAVBike@@NN@Z 10004c30 f   tlib:physics.obj
 0001:000047c0       ??1Physics@@UAE@XZ         100057c0 f   tlib:physics.obj
 0001:00004820       ?setDistance@Physics@@QAEXN@Z 10005820 f   tlib:physics.obj
 0001:00004850       ?setmiles@Physics@@QAEXN@Z 10005850 f   tlib:physics.obj
 0001:00004880       ?map@Physics@@AAEHNNNNPAN0@Z 10005880 f   tlib:physics.obj
 0001:000048e0       ?updatePicCurrent@Physics@@QAEXXZ 100058e0 f   tlib:physics.obj
 0001:00004930       ?computeMass@Physics@@QAEXXZ 10005930 f   tlib:physics.obj
 0001:00004950       ?run@Physics@@QAEXXZ       10005950 f   tlib:physics.obj
 0001:00004a90       ?computeAcceleration@Physics@@QAEHXZ 10005a90 f   tlib:physics.obj
 0001:00004d90       ?gradeUp@Physics@@QAEXXZ   10005d90 f   tlib:physics.obj
 0001:00004dc0       ?gradeDown@Physics@@QAEXXZ 10005dc0 f   tlib:physics.obj
 0001:00004df0       ?getTableCurrent3@Physics@@AAENNN@Z 10005df0 f   tlib:physics.obj
 0001:000054f0       ?reset@Physics@@QAEXXZ     100064f0 f   tlib:physics.obj
 0001:00005680       ?resetIntegrators@Physics@@QAEXXZ 10006680 f   tlib:physics.obj
 0001:00005720       ?pause@Physics@@QAEXXZ     10006720 f   tlib:physics.obj
 0001:00005740       ?resume@Physics@@QAEXXZ    10006740 f   tlib:physics.obj
 0001:00005760       ?adjustCurrent@Physics@@AAEXXZ 10006760 f   tlib:physics.obj
 0001:00005820       ?ergoDegauss@Physics@@AAEXXZ 10006820 f   tlib:physics.obj
 0001:000058b0       ?windDegauss@Physics@@AAEXXZ 100068b0 f   tlib:physics.obj
 0001:00005980       ?manualLoadControl@Physics@@AAEXXZ 10006980 f   tlib:physics.obj
 0001:00005c20       ?cleanup@Physics@@AAEXXZ   10006c20 f   tlib:physics.obj
 0001:00005d50       ?lowCurrent@Physics@@AAENNN@Z 10006d50 f   tlib:physics.obj
 0001:00005f20       ?getAcceleration@Physics@@QAENXZ 10006f20 f   tlib:physics.obj
 0001:00005f30       ?getRPM@Physics@@QAENXZ    10006f30 f   tlib:physics.obj
 0001:00005f40       ?getMPH@Physics@@QAENXZ    10006f40 f   tlib:physics.obj
 0001:00005f50       ?getWatts@Physics@@QAENXZ  10006f50 f   tlib:physics.obj
 0001:00005f60       ?getConstantWatts@Physics@@QAEMXZ 10006f60 f   tlib:physics.obj
 0001:00005f70       ?getDisplayedWatts@Physics@@QAENXZ 10006f70 f   tlib:physics.obj
 0001:00005f80       ?getPicCurrent@Physics@@QAENXZ 10006f80 f   tlib:physics.obj
 0001:00005f90       ?runWindLoad@Physics@@AAEXXZ 10006f90 f   tlib:physics.obj
 0001:000064a0       ?runConstantCurrent@Physics@@AAEXXZ 100074a0 f   tlib:physics.obj
 0001:00006540       ?setMode@Physics@@QAEXW4MODE@1@@Z 10007540 f   tlib:physics.obj
 0001:00006550       ?setConstantCurrent@Physics@@QAEXM@Z 10007550 f   tlib:physics.obj
 0001:00006570       ?writeState@Physics@@QAEXPAU_iobuf@@@Z 10007570 f   tlib:physics.obj
 0001:000066c0       ?readState@Physics@@QAEXPAU_iobuf@@@Z 100076c0 f   tlib:physics.obj
 0001:00006820       ?setConstantWatts@Physics@@QAEXM@Z 10007820 f   tlib:physics.obj
 0001:00006840       ?crowbarRPM@Physics@@QAEXXZ 10007840 f   tlib:physics.obj
 0001:00006860       ?set_weight_lbs@Physics@@QAEXN@Z 10007860 f   tlib:physics.obj
 0001:00006890       ?getTableWatts@Physics@@AAENNN@Z 10007890 f   tlib:physics.obj
 0001:00006a70       ?set_grade@Physics@@QAEXM@Z 10007a70 f   tlib:physics.obj
 0001:00006a90       ?set_constant_force@Physics@@QAEXN@Z 10007a90 f   tlib:physics.obj
 0001:00006bd0       ?run_constant_force@Physics@@AAEXXZ 10007bd0 f   tlib:physics.obj
 0001:00006ea0       ??A?$vector@V?$basic_string@DU?$char_traits@D@std@@V?$allocator@D@2@@std@@V?$allocator@V?$basic_string@DU?$char_traits@D@std@@V?$allocator@D@2@@std@@@2@@std@@QAEAAV?$basic_string@DU?$char_traits@D@std@@V?$allocator@D@2@@1@I@Z 10007ea0 f i tlib:physics.obj
 0001:00006ee0       ??1?$_Vector_val@PBVUSBDeviceLibusb@@V?$allocator@PBVUSBDeviceLibusb@@@std@@@std@@QAE@XZ 10007ee0 f i ant_lib:usb_device_handle_libusb.obj
 0001:00006ee0       ??1?$_Vector_val@UNode@RMP@@V?$allocator@UNode@RMP@@@std@@@std@@QAE@XZ 10007ee0 f i tlib:rmp.obj
 0001:00006ee0       ??1?$_Vector_val@PBVUSBDeviceSI@@V?$allocator@PBVUSBDeviceSI@@@std@@@std@@QAE@XZ 10007ee0 f i ant_lib:usb_device_handle_si.obj
 0001:00006ee0       ??1?$_Vector_val@PAPBVUSBDeviceSI@@V?$allocator@PAPBVUSBDeviceSI@@@std@@@std@@QAE@XZ 10007ee0 f i ant_lib:usb_device_handle_win.obj
 0001:00006ee0       ??1?$_Vector_val@PAPBVUSBDevice@@V?$allocator@PAPBVUSBDevice@@@std@@@std@@QAE@XZ 10007ee0 f i ant_lib:dsi_serial_generic.obj
 0001:00006ee0       ??1?$_Vector_val@V?$basic_string@DU?$char_traits@D@std@@V?$allocator@D@2@@std@@V?$allocator@V?$basic_string@DU?$char_traits@D@std@@V?$allocator@D@2@@std@@@2@@std@@QAE@XZ 10007ee0 f i tlib:physics.obj
 0001:00006ee0       ??1?$_Vector_val@PAPBVUSBDeviceLibusb@@V?$allocator@PAPBVUSBDeviceLibusb@@@std@@@std@@QAE@XZ 10007ee0 f i ant_lib:usb_device_handle_win.obj
 0001:00006ee0       ??1?$_Vector_val@UGEARINFO@@V?$allocator@UGEARINFO@@@std@@@std@@QAE@XZ 10007ee0 f i tlib:rtd.obj
 0001:00006ee0       ??1?$_Deque_val@DV?$allocator@D@std@@@std@@QAE@XZ 10007ee0 f i ant_lib:usb_device_handle_si.obj
 0001:00006ee0       ??1?$_Vector_val@UFPOINT@@V?$allocator@UFPOINT@@@std@@@std@@QAE@XZ 10007ee0 f i tlib:performance.obj
 0001:00006ee0       ??1?$_Vector_val@MV?$allocator@M@std@@@std@@QAE@XZ 10007ee0 f i tlib:rtd.obj
 0001:00006ee0       ??1?$_Vector_val@USEC@@V?$allocator@USEC@@@std@@@std@@QAE@XZ 10007ee0 f i tlib:rtd.obj
 0001:00006ef0       ?_Tidy@?$vector@V?$basic_string@DU?$char_traits@D@std@@V?$allocator@D@2@@std@@V?$allocator@V?$basic_string@DU?$char_traits@D@std@@V?$allocator@D@2@@std@@@2@@std@@IAEXXZ 10007ef0 f i tlib:physics.obj
 0001:00006f40       ?_Destroy@?$vector@V?$basic_string@DU?$char_traits@D@std@@V?$allocator@D@2@@std@@V?$allocator@V?$basic_string@DU?$char_traits@D@std@@V?$allocator@D@2@@std@@@2@@std@@IAEXPAV?$basic_string@DU?$char_traits@D@std@@V?$allocator@D@2@@2@0@Z 10007f40 f i tlib:physics.obj
 0001:00006f70       ??$_Allocate@V?$basic_string@DU?$char_traits@D@std@@V?$allocator@D@2@@std@@@std@@YAPAV?$basic_string@DU?$char_traits@D@std@@V?$allocator@D@2@@0@IPAV10@@Z 10007f70 f i tlib:physics.obj
 0001:00006fe0       ??0Bike@@QAE@HPAUPARAMS@0@@Z 10007fe0 f   tlib:bike.obj
 0001:00007290       ??_EBike@@UAEPAXI@Z        10008290 f i  CIL library: CIL module
 0001:00007290       ??_GBike@@UAEPAXI@Z        10008290 f i tlib:bike.obj
 0001:000072f0       ??1Bike@@UAE@XZ            100082f0 f   tlib:bike.obj
 0001:00007340       ?frontUp@Bike@@QAEXXZ      10008340 f   tlib:bike.obj
 0001:000073a0       ?rearUp@Bike@@QAEXXZ       100083a0 f   tlib:bike.obj
 0001:00007400       ?frontDown@Bike@@QAEXXZ    10008400 f   tlib:bike.obj
 0001:00007450       ?rearDown@Bike@@QAEXXZ     10008450 f   tlib:bike.obj
 0001:000074a0       ?setupVirtualGearInches@Bike@@AAEXXZ 100084a0 f   tlib:bike.obj
 0001:000077b0       ?run@Bike@@QAEHXZ          100087b0 f   tlib:bike.obj
 0001:000078b0       ?upkeydown@Bike@@QAEXXZ    100088b0 f   tlib:bike.obj
 0001:000078f0       ?upkeyup@Bike@@QAEHXZ      100088f0 f   tlib:bike.obj
 0001:00007930       ?downkeyup@Bike@@QAEHXZ    10008930 f   tlib:bike.obj
 0001:00007970       ?downkeydown@Bike@@QAEXXZ  10008970 f   tlib:bike.obj
 0001:000079b0       ?set_gear@Bike@@QAEXHH@Z   100089b0 f   tlib:bike.obj
 0001:00007a50       ??0RESULT@@QAE@XZ          10008a50 f i tlib:datasource.obj
 0001:00007c50       ??0RIDER_DATA@@QAE@XZ      10008c50 f i tlib:datasource.obj
 0001:00007ce0       ??1RIDER_DATA@@QAE@XZ      10008ce0 f i tlib:datasource.obj
 0001:00007cf0       ??0PERSON_DATA@@QAE@XZ     10008cf0 f i tlib:datasource.obj
 0001:00007dc0       ??_FfastTimer@@QAEXXZ      10008dc0 f i tlib:datasource.obj
 0001:00007e10       ?get_curval@sMav@@QAEMXZ   10008e10 f i tlib:datasource.obj
 0001:00007e20       ??4sMav@@QAEAAV0@ABV0@@Z   10008e20 f i tlib:datasource.obj
 0001:00007e40       ?get_calibration_x@dataSource@@UAEHXZ 10008e40 f i tlib:datasource.obj
 0001:00007e40       ?getvidbase@dataSource@@UAEPADXZ 10008e40 f i tlib:datasource.obj
 0001:00007e40       ?getvidfile@dataSource@@UAEPADXZ 10008e40 f i tlib:datasource.obj
 0001:00007e40       ?packetsAvailable@dataSource@@UAEHXZ 10008e40 f i tlib:datasource.obj
 0001:00007e40       ?get_x_status_bits@dataSource@@UAEHXZ 10008e40 f i tlib:datasource.obj
 0001:00007e40       ?get_x_accum_tdc@dataSource@@UAEHXZ 10008e40 f i tlib:datasource.obj
 0001:00007e40       ?get_physics_x@dataSource@@UAEPAVPhysics@@XZ 10008e40 f i tlib:datasource.obj
 0001:00007e40       ?get_perf_file_name_x@dataSource@@UAEPBDXZ 10008e40 f i tlib:datasource.obj
 0001:00007e40       ?getFirstName@dataSource@@UAEPADXZ 10008e40 f i tlib:datasource.obj
 0001:00007e40       ?getLastName@dataSource@@UAEPADXZ 10008e40 f i tlib:datasource.obj
 0001:00007e50       ?get_result@dataSource@@UAE?AURESULT@@XZ 10008e50 f i tlib:datasource.obj
 0001:00007e70       ?get_gear_indices_x@dataSource@@UAE?AUGEARPAIR@Bike@@XZ 10008e70 f i tlib:datasource.obj
 0001:00007e70       ?get_gear_pair@dataSource@@UAE?AUGEARPAIR@Bike@@XZ 10008e70 f i tlib:datasource.obj
 0001:00007e70       ?get_gear_indices@Decoder@@UAE?AUGEARPAIR@Bike@@XZ 10008e70 f i tlib:decoder.obj
 0001:00007e70       ?get_gear_pair@Decoder@@UAE?AUGEARPAIR@Bike@@XZ 10008e70 f i tlib:decoder.obj
 0001:00007e90       ?set_x_wind@dataSource@@UAEXM@Z 10008e90 f i tlib:datasource.obj
 0001:00007eb0       ?get_control_byte_x@dataSource@@UAEEXZ 10008eb0 f i tlib:datasource.obj
 0001:00007eb0       ?get_computrainer_mode_x@dataSource@@UAEEXZ 10008eb0 f i tlib:datasource.obj
 0001:00007ec0       ?out_of_data@dataSource@@UAE_NXZ 10008ec0 f i tlib:datasource.obj
 0001:00007ec0       ?getControlByte@dataSource@@UAEEXZ 10008ec0 f i tlib:datasource.obj
 0001:00007ec0       ?start_cal@dataSource@@UAEEXZ 10008ec0 f i tlib:datasource.obj
 0001:00007ec0       ?is_perf@dataSource@@UAE_NXZ 10008ec0 f i tlib:datasource.obj
 0001:00007ec0       ?get_physics_pause@Decoder@@UAE_NXZ 10008ec0 f i tlib:decoder.obj
 0001:00007ec0       ?is_realtime@dataSource@@UAE_NXZ 10008ec0 f i tlib:datasource.obj
 0001:00007ed0       ?set_hr_bounds@dataSource@@UAEXHH_N@Z 10008ed0 f i tlib:datasource.obj
 0001:00007ee0       ?get_accum_keys@dataSource@@UAEHXZ 10008ee0 f i tlib:datasource.obj
 0001:00007ee0       ?get_keys@dataSource@@UAEHXZ 10008ee0 f i tlib:datasource.obj
 0001:00007ef0       ?finish@Performance@@UAEXXZ 10008ef0 f i tlib:performance.obj
 0001:00007ef0       ?integrate@Decoder@@UAEXXZ 10008ef0 f i tlib:decoder.obj
 0001:00007ef0       ?finish@dataSource@@UAEXXZ 10008ef0 f i tlib:datasource.obj
 0001:00007ef0       ?clear_averages@dataSource@@UAEXXZ 10008ef0 f i tlib:datasource.obj
 0001:00007ef0       ?start@dataSource@@UAEXXZ  10008ef0 f i tlib:datasource.obj
 0001:00007ef0       ?gradeDown@Decoder@@UAEXXZ 10008ef0 f i tlib:decoder.obj
 0001:00007ef0       ?makelogpacket@RTD@@MAEXXZ 10008ef0 f i tlib:velotron.obj
 0001:00007ef0       ?dec_speed@Decoder@@UAEXXZ 10008ef0 f i tlib:decoder.obj
 0001:00007ef0       ?gradeDown@dataSource@@UAEXXZ 10008ef0 f i tlib:datasource.obj
 0001:00007ef0       ?pause@RTD@@UAEXXZ         10008ef0 f i tlib:rtd.obj
 0001:00007ef0       ?logData@Physics@@AAEXXZ   10008ef0 f i tlib:physics.obj
 0001:00007ef0       ?update@Decoder@@UAEXXZ    10008ef0 f i tlib:decoder.obj
 0001:00007ef0       ?reset@dataSource@@UAEXXZ  10008ef0 f i tlib:datasource.obj
 0001:00007ef0       ?gradeUp@Decoder@@UAEXXZ   10008ef0 f i tlib:decoder.obj
 0001:00007ef0       ?gradeUp@dataSource@@UAEXXZ 10008ef0 f i tlib:datasource.obj
 0001:00007ef0       ?inc_speed@Decoder@@UAEXXZ 10008ef0 f i tlib:decoder.obj
 0001:00007ef0       ?flush@dataSource@@UAEXXZ  10008ef0 f i tlib:datasource.obj
 0001:00007ef0       ?startCal_x@dataSource@@UAEXXZ 10008ef0 f i tlib:datasource.obj
 0001:00007ef0       ?destroy@Person@@IAEXXZ    10008ef0 f i glib:person.obj
 0001:00007ef0       ??3@YAXPAX0@Z              10008ef0 f i tlib:formula.obj
 0001:00007ef0       ?test@dataSource@@UAEXXZ   10008ef0 f i tlib:datasource.obj
 0001:00007ef0       ?finish@Simulator@@UAEXXZ  10008ef0 f i tlib:simulator.obj
 0001:00007f00       ?getRecord@dataSource@@UAEHH@Z 10008f00 f i tlib:datasource.obj
 0001:00007f00       ?seek@dataSource@@UAEHJ@Z  10008f00 f i tlib:datasource.obj
 0001:00007f00       ?myexport@dataSource@@UAEHPAD@Z 10008f00 f i tlib:datasource.obj
 0001:00007f00       ?getPreviousRecord@dataSource@@UAEHK@Z 10008f00 f i tlib:datasource.obj
 0001:00007f10       ?get_nRecords@dataSource@@UAEHXZ 10008f10 f i tlib:datasource.obj
 0001:00007f20       ?getOffset@dataSource@@UAEJXZ 10008f20 f i tlib:datasource.obj
 0001:00007f30       ?remap@dataSource@@UAEXUtagRECT@@MM@Z 10008f30 f i tlib:datasource.obj
 0001:00007f40       ?setTimeout@dataSource@@UAEXK@Z 10008f40 f i tlib:datasource.obj
 0001:00007f40       ?end_cal@dataSource@@UAEXE@Z 10008f40 f i tlib:datasource.obj
 0001:00007f40       ?emergencyStop@dataSource@@UAEXH@Z 10008f40 f i tlib:datasource.obj
 0001:00007f40       ?setkgs@dataSource@@UAEXM@Z 10008f40 f i tlib:datasource.obj
 0001:00007f40       ?setShutDownDelay@dataSource@@UAEXK@Z 10008f40 f i tlib:datasource.obj
 0001:00007f40       ?set_performance_file_name_x@dataSource@@UAEXPBD@Z 10008f40 f i tlib:datasource.obj
 0001:00007f40       ?setConstantWatts@dataSource@@UAEXM@Z 10008f40 f i tlib:datasource.obj
 0001:00007f40       ?set_physics_pause@Decoder@@UAEX_N@Z 10008f40 f i tlib:decoder.obj
 0001:00007f40       ?setPhysicsMode@dataSource@@UAEXH@Z 10008f40 f i tlib:datasource.obj
 0001:00007f40       ?set_grade@dataSource@@UAEXM@Z 10008f40 f i tlib:datasource.obj
 0001:00007f40       ?setConstantCurrent@dataSource@@UAEXM@Z 10008f40 f i tlib:datasource.obj
 0001:00007f40       ?keydown@dataSource@@UAEXI@Z 10008f40 f i tlib:datasource.obj
 0001:00007f40       ?update@Decoder@@UAEXM@Z   10008f40 f i tlib:decoder.obj
 0001:00007f40       ?set_manual_mph@dataSource@@UAEXM@Z 10008f40 f i tlib:datasource.obj
 0001:00007f40       ?set_manual_mph@Decoder@@UAEXM@Z 10008f40 f i tlib:decoder.obj
 0001:00007f50       ?addcourse@dataSource@@UAEHPBD@Z 10008f50 f i tlib:datasource.obj
 0001:00007f50       ?GetDevicePID@DSISerial@@UAEHAAG@Z 10008f50 f i ant_lib:dsi_serial.obj
 0001:00007f50       ?read@dataSource@@UAEHH@Z  10008f50 f i tlib:datasource.obj
 0001:00007f50       ?updateHardware@dataSource@@UAEH_N@Z 10008f50 f i tlib:datasource.obj
 0001:00007f50       ?jumpmiles@dataSource@@UAEHM@Z 10008f50 f i tlib:datasource.obj
 0001:00007f50       ?GetDeviceVID@DSISerial@@UAEHAAG@Z 10008f50 f i ant_lib:dsi_serial.obj
 0001:00007f50       ?set_constant_force_x@dataSource@@UAEHM@Z 10008f50 f i tlib:datasource.obj
 0001:00007f50       ?save@RTD@@MAEPAD_N@Z      10008f50 f i tlib:velotron.obj
 0001:00007f60       ?pause@dataSource@@UAEXXZ  10008f60 f i tlib:datasource.obj
 0001:00007f70       ?resume@dataSource@@UAEXXZ 10008f70 f i tlib:datasource.obj
 0001:00007f80       ?getGrade@dataSource@@UAENXZ 10008f80 f i tlib:datasource.obj
 0001:00007f80       ?getWatts@dataSource@@UAENXZ 10008f80 f i tlib:datasource.obj
 0001:00007f80       ?getConstantWatts@dataSource@@UAEMXZ 10008f80 f i tlib:datasource.obj
 0001:00007f80       ?getTotalMiles@dataSource@@UAENXZ 10008f80 f i tlib:datasource.obj
 0001:00007f80       ?get_measured_ergo_watts@Decoder@@UAENXZ 10008f80 f i tlib:decoder.obj
 0001:00007f80       ?get_start_miles@dataSource@@UAEMXZ 10008f80 f i tlib:datasource.obj
 0001:00007f90       ?set_draft_wind@dataSource@@UAEXM@Z 10008f90 f i tlib:datasource.obj
 0001:00007fa0       ?get_draft_wind@dataSource@@UAEMXZ 10008fa0 f i tlib:datasource.obj
 0001:00007fc0       ?get_wind@dataSource@@UAEMXZ 10008fc0 f i tlib:datasource.obj
 0001:00007fe0       ?save@dataSource@@UAEPAD_N0@Z 10008fe0 f i tlib:datasource.obj
 0001:00007ff0       ??0dataSource@@QAE@AAVRIDER_DATA@@PAVCourse@@PAVBike@@W4LoggingType@@@Z 10008ff0 f   tlib:datasource.obj
 0001:000080c0       ??_GdataSource@@UAEPAXI@Z  100090c0 f i tlib:datasource.obj
 0001:000080c0       ??_EdataSource@@UAEPAXI@Z  100090c0 f i  CIL library: CIL module
 0001:000080e0       ??4RIDER_DATA@@QAEAAV0@ABV0@@Z 100090e0 f i tlib:datasource.obj
 0001:00008170       ??1dataSource@@UAE@XZ      10009170 f   tlib:datasource.obj
 0001:00008250       ?reset_averages@dataSource@@UAEXXZ 10009250 f   tlib:datasource.obj
 0001:00008260       ?set_export@dataSource@@QAEXPBD@Z 10009260 f   tlib:datasource.obj
 0001:000082a0       ?init@dataSource@@AAEXXZ   100092a0 f   tlib:datasource.obj
 0001:000084e0       ?set_x_ftp@dataSource@@QAEHM@Z 100094e0 f   tlib:datasource.obj
 0001:00008520       ?set_logging_x@dataSource@@QAEXW4LoggingType@@@Z 10009520 f   tlib:datasource.obj
 0001:00008530       ?set_drag_factor@dataSource@@QAEXM@Z 10009530 f   tlib:datasource.obj
 0001:00008560       ?set_weight_lbs@Decoder@@UAEXN@Z 10009560 f i tlib:decoder.obj
 0001:00008580       ?set_weight_kgs@Decoder@@UAEXN@Z 10009580 f i tlib:decoder.obj
 0001:000085a0       ?set_upper_hr@Decoder@@UAEXM@Z 100095a0 f i tlib:decoder.obj
 0001:000085b0       ?decode@Decoder@@UAEHPAEK@Z 100095b0 f i tlib:decoder.obj
 0001:000085c0       ?setDistance@Decoder@@UAEXM@Z 100095c0 f i tlib:decoder.obj
 0001:000085f0       ??0Decoder@@QAE@HPAVCourse@@AAVRIDER_DATA@@H@Z 100095f0 f   tlib:decoder.obj
 0001:00008b00       ??_EDecoder@@UAEPAXI@Z     10009b00 f i  CIL library: CIL module
 0001:00008b00       ??_GDecoder@@UAEPAXI@Z     10009b00 f i tlib:decoder.obj
 0001:00008b20       ??1Decoder@@UAE@XZ         10009b20 f   tlib:decoder.obj
 0001:00008c20       ?computePP@Decoder@@IAEXXZ 10009c20 f   tlib:decoder.obj
 0001:00008c80       ?reset_averages@Decoder@@QAEXXZ 10009c80 f   tlib:decoder.obj
 0001:00008da0       ?reset@Decoder@@UAEXXZ     10009da0 f   tlib:decoder.obj
 0001:00008fd0       ?fill_in_mma@Decoder@@QAEXXZ 10009fd0 f   tlib:decoder.obj
 0001:000091d0       ?set_minmax@Decoder@@MAEXXZ 1000a1d0 f   tlib:decoder.obj
 0001:00009310       ?set_watts_factor@Decoder@@UAEXM@Z 1000a310 f   tlib:decoder.obj
 0001:00009320       ?peaks_and_averages@Decoder@@MAEXXZ 1000a320 f   tlib:decoder.obj
 0001:00009aa0       ?compute_armed_rpm@Decoder@@IAEXXZ 1000aaa0 f   tlib:decoder.obj
 0001:00009b50       ?seed_avgs@Decoder@@QAEXXZ 1000ab50 f   tlib:decoder.obj
 0001:00009bb0       ?iround@@YAHN@Z            1000abb0 f i tlib:ss.obj
 0001:00009be0       ??0SS@@QAE@XZ              1000abe0 f   tlib:ss.obj
 0001:00009f80       ??1SS@@QAE@XZ              1000af80 f   tlib:ss.obj
 0001:0000a0a0       ??_GsMav@@QAEPAXI@Z        1000b0a0 f i tlib:ss.obj
 0001:0000a0f0       ?run@SS@@QAEMNNNPAUMETADATA@@@Z 1000b0f0 f   tlib:ss.obj
 0001:0000a490       ?load@SS@@AAEXN@Z          1000b490 f   tlib:ss.obj
 0001:0000a920       ?filter@SS@@AAEXXZ         1000b920 f   tlib:ss.obj
 0001:0000b1e0       ?reset@SS@@QAEXXZ          1000c1e0 f   tlib:ss.obj
 0001:0000b570       ?do_ten_hz_filter@SS@@QAEXPAUMETADATA@@_N11@Z 1000c570 f   tlib:ss.obj
 0001:0000be60       ??0Heartrate@@QAE@ABV0@@Z  1000ce60 f i tlib:velotron.obj
 0001:0000c080       ??4Heartrate@@QAEAAV0@ABV0@@Z 1000d080 f i tlib:velotron.obj
 0001:0000c290       ?is_realtime@RTD@@UAE_NXZ  1000d290 f i tlib:velotron.obj
 0001:0000c2a0       ?get_physics_mode_x@Computrainer@@UAE?AW4MODE@Physics@@XZ 1000d2a0 f i tlib:computrainer.obj
 0001:0000c2a0       ?get_physics_mode@Velotron@@UAE?AW4MODE@Physics@@XZ 1000d2a0 f i tlib:velotron.obj
 0001:0000c2b0       ?get_calibration@Velotron@@UAEHXZ 1000d2b0 f i tlib:velotron.obj
 0001:0000c2c0       ?setTimeout@Velotron@@UAEXK@Z 1000d2c0 f i tlib:velotron.obj
 0001:0000c2d0       ?getGrade@Velotron@@UAENXZ 1000d2d0 f i tlib:velotron.obj
 0001:0000c2e0       ??0Velotron@@QAE@PBDAAVRIDER_DATA@@PAVCourse@@PAVBike@@W4LoggingType@@@Z 1000d2e0 f   tlib:velotron.obj
 0001:0000c3d0       ??_GVelotron@@UAEPAXI@Z    1000d3d0 f i tlib:velotron.obj
 0001:0000c3d0       ??_EVelotron@@UAEPAXI@Z    1000d3d0 f i  CIL library: CIL module
 0001:0000c3f0       ??1Velotron@@UAE@XZ        1000d3f0 f   tlib:velotron.obj
 0001:0000c450       ?getNextRecord@Velotron@@UAEHXZ 1000d450 f   tlib:velotron.obj
 0001:0000c630       ?packetsAvailable@Velotron@@EAEHXZ 1000d630 f   tlib:velotron.obj
 0001:0000c820       ?updateHardware@Velotron@@UAEH_N@Z 1000d820 f   tlib:velotron.obj
 0001:0000c900       ?startCal@Velotron@@UAEXXZ 1000d900 f   tlib:velotron.obj
 0001:0000c980       ?start_cal@Velotron@@UAEEXZ 1000d980 f   tlib:velotron.obj
 0001:0000ca00       ?end_cal@Velotron@@UAEXE@Z 1000da00 f   tlib:velotron.obj
 0001:0000ca30       ?emergencyStop@Velotron@@UAEXH@Z 1000da30 f   tlib:velotron.obj
 0001:0000ca50       ?gradeUp@Velotron@@UAEXXZ  1000da50 f   tlib:velotron.obj
 0001:0000caa0       ?gradeDown@Velotron@@UAEXXZ 1000daa0 f   tlib:velotron.obj
 0001:0000caf0       ?set_draft_wind@Velotron@@UAEXM@Z 1000daf0 f   tlib:velotron.obj
 0001:0000cb10       ?set_wind@Velotron@@UAEXM@Z 1000db10 f   tlib:velotron.obj
 0001:0000cb40       ?destroy@Velotron@@AAEXXZ  1000db40 f   tlib:velotron.obj
 0001:0000cc40       ?pause@Velotron@@UAEXXZ    1000dc40 f   tlib:velotron.obj
 0001:0000cc70       ?resume@Velotron@@UAEXXZ   1000dc70 f   tlib:velotron.obj
 0001:0000cca0       ?reset@Velotron@@UAEXXZ    1000dca0 f   tlib:velotron.obj
 0001:0000cdd0       ?setPicCurrent@Velotron@@AAEXG@Z 1000ddd0 f   tlib:velotron.obj
 0001:0000ce40       ?start@Velotron@@UAEXXZ    1000de40 f   tlib:velotron.obj
 0001:0000cea0       ?init@Velotron@@AAEXXZ     1000dea0 f   tlib:velotron.obj
 0001:0000d430       ?setConstantCurrent@Velotron@@UAEXM@Z 1000e430 f   tlib:velotron.obj
 0001:0000d450       ?setConstantWatts@Velotron@@UAEXM@Z 1000e450 f   tlib:velotron.obj
 0001:0000d490       ?getConstantWatts@Velotron@@UAEMXZ 1000e490 f   tlib:velotron.obj
 0001:0000d490       ?getWatts@Velotron@@UAENXZ 1000e490 f   tlib:velotron.obj
 0001:0000d4a0       ?flush@Velotron@@UAEXXZ    1000e4a0 f   tlib:velotron.obj
 0001:0000d4b0       ?get_keys@Velotron@@UAEHXZ 1000e4b0 f   tlib:velotron.obj
 0001:0000d4b0       ?get_keys@Computrainer@@UAEHXZ 1000e4b0 f   tlib:computrainer.obj
 0001:0000d4e0       ?get_accum_keys@Velotron@@UAEHXZ 1000e4e0 f   tlib:velotron.obj
 0001:0000d510       ?get_gear_pair@Velotron@@UAE?AUGEARPAIR@Bike@@XZ 1000e510 f   tlib:velotron.obj
 0001:0000d530       ?get_gear_indices@Velotron@@UAE?AUGEARPAIR@Bike@@XZ 1000e530 f   tlib:velotron.obj
 0001:0000d550       ?set_grade@Velotron@@UAEXM@Z 1000e550 f   tlib:velotron.obj
 0001:0000d580       ?setkgs@Velotron@@UAEXM@Z  1000e580 f   tlib:velotron.obj
 0001:0000d5e0       ?set_constant_force@Velotron@@UAEHM@Z 1000e5e0 f   tlib:velotron.obj
 0001:0000d610       ?get_physics_x@Velotron@@UAEPAVPhysics@@XZ 1000e610 f   tlib:velotron.obj
 0001:0000d620       ??0?$deque@NV?$allocator@N@std@@@std@@QAE@ABV01@@Z 1000e620 f i tlib:velotron.obj
 0001:0000d700       ??4?$deque@NV?$allocator@N@std@@@std@@QAEAAV01@ABV01@@Z 1000e700 f i tlib:velotron.obj
 0001:0000d870       ??1?$_Deque_val@NV?$allocator@N@std@@@std@@QAE@XZ 1000e870 f i tlib:velotron.obj
 0001:0000d870       ??1?$_Deque_val@UFORMULA_PAIR@@V?$allocator@UFORMULA_PAIR@@@std@@@std@@QAE@XZ 1000e870 f i tlib:formula.obj
 0001:0000d880       ?erase@?$deque@NV?$allocator@N@std@@@std@@QAE?AV?$_Deque_iterator@NV?$allocator@N@std@@$00@2@V?$_Deque_const_iterator@NV?$allocator@N@std@@$00@2@0@Z 1000e880 f i tlib:velotron.obj
 0001:0000da80       ??H?$_Deque_const_iterator@NV?$allocator@N@std@@$00@std@@QBE?AV01@H@Z 1000ea80 f i tlib:velotron.obj
 0001:0000da80       ??H?$_Deque_const_iterator@UFORMULA_PAIR@@V?$allocator@UFORMULA_PAIR@@@std@@$00@std@@QBE?AV01@H@Z 1000ea80 f i tlib:formula.obj
 0001:0000dac0       ?pop_front@?$deque@UFORMULA_PAIR@@V?$allocator@UFORMULA_PAIR@@@std@@@std@@QAEXXZ 1000eac0 f i tlib:formula.obj
 0001:0000dac0       ?pop_front@?$deque@NV?$allocator@N@std@@@std@@QAEXXZ 1000eac0 f i tlib:velotron.obj
 0001:0000daf0       ??Y?$_Deque_const_iterator@UFORMULA_PAIR@@V?$allocator@UFORMULA_PAIR@@@std@@$00@std@@QAEAAV01@H@Z 1000eaf0 f i tlib:formula.obj
 0001:0000daf0       ??Y?$_Deque_const_iterator@NV?$allocator@N@std@@$00@std@@QAEAAV01@H@Z 1000eaf0 f i tlib:velotron.obj
 0001:0000db50       ??$insert@V?$_Deque_const_iterator@NV?$allocator@N@std@@$00@std@@@?$deque@NV?$allocator@N@std@@@std@@QAEXV?$_Deque_const_iterator@NV?$allocator@N@std@@$00@1@00@Z 1000eb50 f i tlib:velotron.obj
 0001:0000db90       ??$copy@V?$_Deque_const_iterator@NV?$allocator@N@std@@$00@std@@V?$_Deque_iterator@NV?$allocator@N@std@@$00@2@@std@@YA?AV?$_Deque_iterator@NV?$allocator@N@std@@$00@0@V?$_Deque_const_iterator@NV?$allocator@N@std@@$00@0@0V10@@Z 1000eb90 f i tlib:velotron.obj
 0001:0000dc00       ??$copy_backward@V?$_Deque_iterator@NV?$allocator@N@std@@$00@std@@V12@@std@@YA?AV?$_Deque_iterator@NV?$allocator@N@std@@$00@0@V10@00@Z 1000ec00 f i tlib:velotron.obj
 0001:0000dc70       ??$copy@V?$_Deque_iterator@NV?$allocator@N@std@@$00@std@@V12@@std@@YA?AV?$_Deque_iterator@NV?$allocator@N@std@@$00@0@V10@00@Z 1000ec70 f i tlib:velotron.obj
 0001:0000dce0       ??$_Insert@V?$_Deque_const_iterator@NV?$allocator@N@std@@$00@std@@@?$deque@NV?$allocator@N@std@@@std@@QAEXV?$_Deque_const_iterator@NV?$allocator@N@std@@$00@1@00Uinput_iterator_tag@1@@Z 1000ece0 f i tlib:velotron.obj
 0001:0000dee0       ??$_Copy_opt@V?$_Deque_const_iterator@NV?$allocator@N@std@@$0A@@std@@V?$_Deque_iterator@NV?$allocator@N@std@@$00@2@@std@@YA?AV?$_Deque_iterator@NV?$allocator@N@std@@$00@0@V?$_Deque_const_iterator@NV?$allocator@N@std@@$0A@@0@0V10@Urandom_access_iterator_tag@0@U_Nonscalar_ptr_iterator_tag@0@U_Range_checked_iterator_tag@0@@Z 1000eee0 f i tlib:velotron.obj
 0001:0000df70       ??$_Copy_backward_opt@V?$_Deque_iterator@NV?$allocator@N@std@@$0A@@std@@V?$_Deque_iterator@NV?$allocator@N@std@@$00@2@@std@@YA?AV?$_Deque_iterator@NV?$allocator@N@std@@$00@0@V?$_Deque_iterator@NV?$allocator@N@std@@$0A@@0@0V10@Urandom_access_iterator_tag@0@U_Nonscalar_ptr_iterator_tag@0@U_Range_checked_iterator_tag@0@@Z 1000ef70 f i tlib:velotron.obj
 0001:0000e000       ??$_Copy_opt@V?$_Deque_iterator@NV?$allocator@N@std@@$0A@@std@@V?$_Deque_iterator@NV?$allocator@N@std@@$00@2@@std@@YA?AV?$_Deque_iterator@NV?$allocator@N@std@@$00@0@V?$_Deque_iterator@NV?$allocator@N@std@@$0A@@0@0V10@Urandom_access_iterator_tag@0@U_Nonscalar_ptr_iterator_tag@0@U_Range_checked_iterator_tag@0@@Z 1000f000 f i tlib:velotron.obj
 0001:0000e090       ?push_front@?$deque@NV?$allocator@N@std@@@std@@QAEXABN@Z 1000f090 f i tlib:velotron.obj
 0001:0000e110       ?push_back@?$deque@NV?$allocator@N@std@@@std@@QAEXABN@Z 1000f110 f i tlib:velotron.obj
 0001:0000e190       ?_Reverse@?$deque@NV?$allocator@N@std@@@std@@QAEXII@Z 1000f190 f i tlib:velotron.obj
 0001:0000e2c0       ??$_Copy_opt@V?$_Deque_const_iterator@NV?$allocator@N@std@@$0A@@std@@V?$_Deque_iterator@NV?$allocator@N@std@@$0A@@2@Uforward_iterator_tag@2@@std@@YA?AV?$_Deque_iterator@NV?$allocator@N@std@@$0A@@0@V?$_Deque_const_iterator@NV?$allocator@N@std@@$0A@@0@0V10@Uforward_iterator_tag@0@U_Nonscalar_ptr_iterator_tag@0@U_Range_checked_iterator_tag@0@@Z 1000f2c0 f i tlib:velotron.obj
 0001:0000e310       ??$_Copy_backward_opt@V?$_Deque_iterator@NV?$allocator@N@std@@$0A@@std@@V12@Uforward_iterator_tag@2@@std@@YA?AV?$_Deque_iterator@NV?$allocator@N@std@@$0A@@0@V10@00Uforward_iterator_tag@0@U_Nonscalar_ptr_iterator_tag@0@U_Range_checked_iterator_tag@0@@Z 1000f310 f i tlib:velotron.obj
 0001:0000e360       ??$_Copy_opt@V?$_Deque_iterator@NV?$allocator@N@std@@$0A@@std@@V12@Uforward_iterator_tag@2@@std@@YA?AV?$_Deque_iterator@NV?$allocator@N@std@@$0A@@0@V10@00Uforward_iterator_tag@0@U_Nonscalar_ptr_iterator_tag@0@U_Range_checked_iterator_tag@0@@Z 1000f360 f i tlib:velotron.obj
 0001:0000e3b0       ??0RTD@@QAE@PBDHAAVRIDER_DATA@@PAVCourse@@PAVBike@@_NW4LoggingType@@@Z 1000f3b0 f   tlib:rtd.obj
 0001:0000f350       ??_GRTD@@UAEPAXI@Z         10010350 f i tlib:rtd.obj
 0001:0000f350       ??_ERTD@@UAEPAXI@Z         10010350 f i  CIL library: CIL module
 0001:0000f370       ??0RTD@@QAE@PAVSerial@@AAVRIDER_DATA@@PAVCourse@@_NPAVBike@@W4LoggingType@@@Z 10010370 f   tlib:rtd.obj
 0001:0000f8c0       ??1RTD@@UAE@XZ             100108c0 f   tlib:rtd.obj
 0001:0000f9f0       ?destruct@RTD@@IAEXXZ      100109f0 f   tlib:rtd.obj
 0001:0000fae0       ?set_use_speed_cadence_sensor@RTD@@QAEX_NM@Z 10010ae0 f   tlib:rtd.obj
 0001:0000fb10       ?set_use_hr_sensor@RTD@@QAEX_N@Z 10010b10 f   tlib:rtd.obj
 0001:0000fb40       ?reset@RTD@@MAEXXZ         10010b40 f   tlib:rtd.obj
 0001:0000fc30       ?setShutDownDelay@RTD@@UAEXK@Z 10010c30 f   tlib:rtd.obj
 0001:0000fc50       ?create_perf_file@RTD@@AAEXXZ 10010c50 f   tlib:rtd.obj
 0001:00010410       ?get_perf_file_name@RTD@@UAEPBDXZ 10011410 f   tlib:rtd.obj
 0001:00010420       ?clear@?$vector@MV?$allocator@M@std@@@std@@QAEXXZ 10011420 f i tlib:rtd.obj
 0001:00010460       ??1?$vector@PAPBVUSBDeviceLibusb@@V?$allocator@PAPBVUSBDeviceLibusb@@@std@@@std@@QAE@XZ 10011460 f i ant_lib:usb_device_handle_win.obj
 0001:00010460       ??1?$vector@UFPOINT@@V?$allocator@UFPOINT@@@std@@@std@@QAE@XZ 10011460 f i tlib:performance.obj
 0001:00010460       ??1?$vector@UNode@RMP@@V?$allocator@UNode@RMP@@@std@@@std@@QAE@XZ 10011460 f i tlib:rmp.obj
 0001:00010460       ??1?$vector@PAPBVUSBDeviceSI@@V?$allocator@PAPBVUSBDeviceSI@@@std@@@std@@QAE@XZ 10011460 f i ant_lib:usb_device_handle_win.obj
 0001:00010460       ??1?$vector@UGEARINFO@@V?$allocator@UGEARINFO@@@std@@@std@@QAE@XZ 10011460 f i tlib:rtd.obj
 0001:00010460       ??1?$vector@PBVUSBDeviceLibusb@@V?$allocator@PBVUSBDeviceLibusb@@@std@@@std@@QAE@XZ 10011460 f i ant_lib:usb_device_handle_libusb.obj
 0001:00010460       ??1?$vector@USEC@@V?$allocator@USEC@@@std@@@std@@QAE@XZ 10011460 f i tlib:rtd.obj
 0001:00010460       ??1?$vector@MV?$allocator@M@std@@@std@@QAE@XZ 10011460 f i tlib:rtd.obj
 0001:00010460       ??1?$vector@PBVUSBDeviceSI@@V?$allocator@PBVUSBDeviceSI@@@std@@@std@@QAE@XZ 10011460 f i ant_lib:usb_device_handle_si.obj
 0001:00010490       ??0?$vector@UGEARINFO@@V?$allocator@UGEARINFO@@@std@@@std@@QAE@XZ 10011490 f i tlib:rtd.obj
 0001:000104f0       ?allocate@?$allocator@USEC@@@std@@QAEPAUSEC@@I@Z 100114f0 f i tlib:rtd.obj
 0001:00010550       ??0Performance@@QAE@AAVRIDER_DATA@@_NPBD@Z 10011550 f   tlib:performance.obj
 0001:00010650       ??_GPerformance@@UAEPAXI@Z 10011650 f i tlib:performance.obj
 0001:00010650       ??_EPerformance@@UAEPAXI@Z 10011650 f i  CIL library: CIL module
 0001:00010670       ??1Performance@@UAE@XZ     10011670 f   tlib:performance.obj
 0001:00010700       ?getNextRecord@Performance@@UAEHXZ 10011700 f   tlib:performance.obj
 0001:00010700       ?getNextRecord@Simulator@@UAEHXZ 10011700 f   tlib:simulator.obj
 0001:00010740       ?reset@Performance@@UAEXXZ 10011740 f   tlib:performance.obj
 0001:00010740       ?reset@Simulator@@UAEXXZ   10011740 f   tlib:simulator.obj
 0001:00010810       ?start@Performance@@UAEXXZ 10011810 f   tlib:performance.obj
 0001:00010830       ?set_manual_mph@Simulator@@UAEXM@Z 10011830 f   tlib:simulator.obj
 0001:00010830       ?set_manual_mph@Performance@@UAEXM@Z 10011830 f   tlib:performance.obj
 0001:00010850       ?set_performance_file_name@Performance@@UAEXPBD@Z 10011850 f   tlib:performance.obj
 0001:00010a60       ?check_perf@Performance@@QAEHPBDAAK@Z 10011a60 f   tlib:performance.obj
 0001:00011050       ??0?$vector@UFPOINT@@V?$allocator@UFPOINT@@@std@@@std@@QAE@ABV01@@Z 10012050 f i tlib:performance.obj
 0001:00011140       ?push_back@?$vector@UFPOINT@@V?$allocator@UFPOINT@@@std@@@std@@QAEXABUFPOINT@@@Z 10012140 f i tlib:performance.obj
 0001:000111b0       ??A?$vector@USEC@@V?$allocator@USEC@@@std@@@std@@QAEAAUSEC@@I@Z 100121b0 f i tlib:performance.obj
 0001:000111e0       ?push_back@?$vector@USEC@@V?$allocator@USEC@@@std@@@std@@QAEXABUSEC@@@Z 100121e0 f i tlib:performance.obj
 0001:00011290       ?insert@?$vector@UFPOINT@@V?$allocator@UFPOINT@@@std@@@std@@QAE?AV?$_Vector_iterator@UFPOINT@@V?$allocator@UFPOINT@@@std@@@2@V?$_Vector_const_iterator@UFPOINT@@V?$allocator@UFPOINT@@@std@@@2@ABUFPOINT@@@Z 10012290 f i tlib:performance.obj
 0001:00011350       ?_Buy@?$vector@UFPOINT@@V?$allocator@UFPOINT@@@std@@@std@@IAE_NI@Z 10012350 f i tlib:performance.obj
 0001:00011380       ?_Tidy@?$vector@UFPOINT@@V?$allocator@UFPOINT@@@std@@@std@@IAEXXZ 10012380 f i tlib:performance.obj
 0001:000113b0       ?insert@?$vector@USEC@@V?$allocator@USEC@@@std@@@std@@QAE?AV?$_Vector_iterator@USEC@@V?$allocator@USEC@@@std@@@2@V?$_Vector_const_iterator@USEC@@V?$allocator@USEC@@@std@@@2@ABUSEC@@@Z 100123b0 f i tlib:performance.obj
 0001:00011480       ?_Insert_n@?$vector@UFPOINT@@V?$allocator@UFPOINT@@@std@@@std@@IAEXV?$_Vector_const_iterator@UFPOINT@@V?$allocator@UFPOINT@@@std@@@2@IABUFPOINT@@@Z 10012480 f i tlib:performance.obj
 0001:000116d0       ?_Xlen@?$vector@PBVUSBDeviceLibusb@@V?$allocator@PBVUSBDeviceLibusb@@@std@@@std@@KAXXZ 100126d0 f i ant_lib:usb_device_handle_libusb.obj
 0001:000116d0       ?_Xlen@?$vector@MV?$allocator@M@std@@@std@@KAXXZ 100126d0 f i tlib:rtd.obj
 0001:000116d0       ?_Xlen@?$vector@PAPBVUSBDeviceSI@@V?$allocator@PAPBVUSBDeviceSI@@@std@@@std@@KAXXZ 100126d0 f i ant_lib:usb_device_handle_win.obj
 0001:000116d0       ?_Xlen@?$vector@PBVUSBDeviceSI@@V?$allocator@PBVUSBDeviceSI@@@std@@@std@@KAXXZ 100126d0 f i ant_lib:usb_device_handle_si.obj
 0001:000116d0       ?_Xlen@?$vector@USEC@@V?$allocator@USEC@@@std@@@std@@KAXXZ 100126d0 f i tlib:rtd.obj
 0001:000116d0       ?_Xlen@?$vector@PAPBVUSBDeviceLibusb@@V?$allocator@PAPBVUSBDeviceLibusb@@@std@@@std@@KAXXZ 100126d0 f i ant_lib:usb_device_handle_win.obj
 0001:000116d0       ?_Xlen@?$vector@UFPOINT@@V?$allocator@UFPOINT@@@std@@@std@@KAXXZ 100126d0 f i tlib:performance.obj
 0001:000116d0       ?_Xlen@?$vector@V?$basic_string@DU?$char_traits@D@std@@V?$allocator@D@2@@std@@V?$allocator@V?$basic_string@DU?$char_traits@D@std@@V?$allocator@D@2@@std@@@2@@std@@KAXXZ 100126d0 f i tlib:physics.obj
 0001:000116d0       ?_Xlen@?$vector@PAPBVUSBDevice@@V?$allocator@PAPBVUSBDevice@@@std@@@std@@KAXXZ 100126d0 f i ant_lib:usb_device_handle_win.obj
 0001:00011740       ?allocate@?$allocator@UFPOINT@@@std@@QAEPAUFPOINT@@I@Z 10012740 f i tlib:performance.obj
 0001:000117a0       ?_Insert_n@?$vector@USEC@@V?$allocator@USEC@@@std@@@std@@IAEXV?$_Vector_const_iterator@USEC@@V?$allocator@USEC@@@std@@@2@IABUSEC@@@Z 100127a0 f i tlib:performance.obj
 0001:00011a20       ??$_Ucopy@PAUFPOINT@@@?$vector@UFPOINT@@V?$allocator@UFPOINT@@@std@@@std@@IAEPAUFPOINT@@PAU2@00@Z 10012a20 f i tlib:course.obj
 0001:00011a20       ??$_Umove@PAUFPOINT@@@?$vector@UFPOINT@@V?$allocator@UFPOINT@@@std@@@std@@IAEPAUFPOINT@@PAU2@00@Z 10012a20 f i tlib:performance.obj
 0001:00011a50       ??$_Unchecked_move_backward@PAUFPOINT@@PAU1@@stdext@@YAPAUFPOINT@@PAU1@00@Z 10012a50 f i tlib:performance.obj
 0001:00011a90       ??$fill@PAUSEC@@U1@@std@@YAXPAUSEC@@0ABU1@@Z 10012a90 f i tlib:performance.obj
 0001:00011ab0       ??$_Unchecked_move_backward@PAUSEC@@PAU1@@stdext@@YAPAUSEC@@PAU1@00@Z 10012ab0 f i tlib:performance.obj
 0001:00011b00       ??$_Uninit_fill_n@PAUFPOINT@@IU1@V?$allocator@UFPOINT@@@std@@@std@@YAXPAUFPOINT@@IABU1@AAV?$allocator@UFPOINT@@@0@U_Nonscalar_ptr_iterator_tag@0@U_Range_checked_iterator_tag@0@@Z 10012b00 f i tlib:performance.obj
 0001:00011b20       ??$_Uninit_fill_n@PAUSEC@@IU1@V?$allocator@USEC@@@std@@@std@@YAXPAUSEC@@IABU1@AAV?$allocator@USEC@@@0@U_Nonscalar_ptr_iterator_tag@0@U_Range_checked_iterator_tag@0@@Z 10012b20 f i tlib:performance.obj
 0001:00011b50       ??$_Uninit_copy@PAUFPOINT@@PAU1@V?$allocator@UFPOINT@@@std@@@std@@YAPAUFPOINT@@PAU1@00AAV?$allocator@UFPOINT@@@0@U_Nonscalar_ptr_iterator_tag@0@U_Range_checked_iterator_tag@0@@Z 10012b50 f i tlib:performance.obj
 0001:00011b50       ??$_Uninit_copy@PBUFPOINT@@PAU1@V?$allocator@UFPOINT@@@std@@@std@@YAPAUFPOINT@@PBU1@0PAU1@AAV?$allocator@UFPOINT@@@0@U_Nonscalar_ptr_iterator_tag@0@U_Range_checked_iterator_tag@0@@Z 10012b50 f i tlib:performance.obj
 0001:00011b70       ??$_Uninit_copy@PAUSEC@@PAU1@V?$allocator@USEC@@@std@@@std@@YAPAUSEC@@PAU1@00AAV?$allocator@USEC@@@0@U_Nonscalar_ptr_iterator_tag@0@U_Range_checked_iterator_tag@0@@Z 10012b70 f i tlib:performance.obj
 0001:00011ba0       ??0Simulator@@QAE@AAVRIDER_DATA@@_NPAVCourse@@PBD@Z 10012ba0 f   tlib:simulator.obj
 0001:00011c90       ??_GSimulator@@UAEPAXI@Z   10012c90 f i tlib:simulator.obj
 0001:00011c90       ??_ESimulator@@UAEPAXI@Z   10012c90 f i  CIL library: CIL module
 0001:00011cb0       ??1Simulator@@UAE@XZ       10012cb0 f   tlib:simulator.obj
 0001:00011d20       ?start@Simulator@@UAEXXZ   10012d20 f   tlib:simulator.obj
 0001:00011d40       ?getConstantWatts@Computrainer@@UAEMXZ 10012d40 f i tlib:computrainer.obj
 0001:00011d50       ?get_control_byte_x@Computrainer@@UAEEXZ 10012d50 f i tlib:computrainer.obj
 0001:00011d50       ?getControlByte@Computrainer@@UAEEXZ 10012d50 f i tlib:computrainer.obj
 0001:00011d50       ?get_computrainer_mode_x@Computrainer@@UAEEXZ 10012d50 f i tlib:computrainer.obj
 0001:00011d60       ??0Computrainer@@QAE@PBDAAVRIDER_DATA@@PAVCourse@@PAVBike@@W4LoggingType@@@Z 10012d60 f   tlib:computrainer.obj
 0001:00011eb0       ??_GComputrainer@@UAEPAXI@Z 10012eb0 f i tlib:computrainer.obj
 0001:00011eb0       ??_EComputrainer@@UAEPAXI@Z 10012eb0 f i  CIL library: CIL module
 0001:00011ed0       ??0Computrainer@@QAE@PAVSerial@@AAVRIDER_DATA@@PAVCourse@@PAVBike@@W4LoggingType@@@Z 10012ed0 f   tlib:computrainer.obj
 0001:00012030       ??1Computrainer@@UAE@XZ    10013030 f   tlib:computrainer.obj
 0001:000120d0       ?getNextRecord@Computrainer@@UAEHXZ 100130d0 f   tlib:computrainer.obj
 0001:00012c30       ?init@Computrainer@@AAEXXZ 10013c30 f   tlib:computrainer.obj
 0001:00012db0       ?updateHardware@Computrainer@@UAEH_N@Z 10013db0 f   tlib:computrainer.obj
 0001:00013130       ?getPreviousRecord@Velotron@@UAEHK@Z 10014130 f   tlib:velotron.obj
 0001:00013130       ?getPreviousRecord@Computrainer@@UAEHK@Z 10014130 f   tlib:computrainer.obj
 0001:00013140       ?pause@Computrainer@@UAEXXZ 10014140 f   tlib:computrainer.obj
 0001:00013180       ?resume@Computrainer@@UAEXXZ 10014180 f   tlib:computrainer.obj
 0001:000131e0       ?start@Computrainer@@UAEXXZ 100141e0 f   tlib:computrainer.obj
 0001:00013260       ?gradeUp@Computrainer@@UAEXXZ 10014260 f   tlib:computrainer.obj
 0001:00013270       ?gradeDown@Computrainer@@UAEXXZ 10014270 f   tlib:computrainer.obj
 0001:00013280       ?getGrade@Computrainer@@UAENXZ 10014280 f   tlib:computrainer.obj
 0001:00013290       ?reset@Computrainer@@UAEXXZ 10014290 f   tlib:computrainer.obj
 0001:00013350       ?save@Computrainer@@UAEPAD_N0@Z 10014350 f   tlib:computrainer.obj
 0001:000133f0       ?finish@Computrainer@@UAEXXZ 100143f0 f   tlib:computrainer.obj
 0001:00013430       ?flush@Computrainer@@UAEXXZ 10014430 f   tlib:computrainer.obj
 0001:00013470       ?setkgs@Computrainer@@UAEXM@Z 10014470 f   tlib:computrainer.obj
 0001:00013490       ?set_hr_bounds@Velotron@@UAEXHH_N@Z 10014490 f   tlib:velotron.obj
 0001:00013490       ?set_hr_bounds@Computrainer@@UAEXHH_N@Z 10014490 f   tlib:computrainer.obj
 0001:00013500       ?get_accum_tdc@Velotron@@UAEHXZ 10014500 f   tlib:velotron.obj
 0001:00013500       ?get_accum_tdc@Computrainer@@UAEHXZ 10014500 f   tlib:computrainer.obj
 0001:00013510       ?get_status_bits@Computrainer@@UAEHXZ 10014510 f   tlib:computrainer.obj
 0001:00013520       ?get_accum_keys@Computrainer@@UAEHXZ 10014520 f   tlib:computrainer.obj
 0001:00013550       ?start_cal@Computrainer@@UAEEXZ 10014550 f   tlib:computrainer.obj
 0001:00013570       ?end_cal@Computrainer@@UAEXE@Z 10014570 f   tlib:computrainer.obj
 0001:00013580       ?setConstantWatts@Computrainer@@UAEXM@Z 10014580 f   tlib:computrainer.obj
 0001:000135a0       ?set_grade@Computrainer@@UAEXM@Z 100145a0 f   tlib:computrainer.obj
 0001:000135d0       ?get_result@Computrainer@@UAE?AURESULT@@XZ 100145d0 f   tlib:computrainer.obj
 0001:00013880       ?push_back@?$vector@MV?$allocator@M@std@@@std@@QAEXABM@Z 10014880 f i tlib:computrainer.obj
 0001:000138e0       ?insert@?$vector@MV?$allocator@M@std@@@std@@QAE?AV?$_Vector_iterator@MV?$allocator@M@std@@@2@V?$_Vector_const_iterator@MV?$allocator@M@std@@@2@ABM@Z 100148e0 f i tlib:computrainer.obj
 0001:000139a0       ?_Insert_n@?$vector@MV?$allocator@M@std@@@std@@IAEXV?$_Vector_const_iterator@MV?$allocator@M@std@@@2@IABM@Z 100149a0 f i tlib:computrainer.obj
 0001:00013b60       ??0NVRAM@@QAE@PAD@Z        10014b60 f   tlib:nvram.obj
 0001:00013bb0       ??_ENVRAM@@UAEPAXI@Z       10014bb0 f i  CIL library: CIL module
 0001:00013bb0       ??_GNVRAM@@UAEPAXI@Z       10014bb0 f i tlib:nvram.obj
 0001:00013c00       ??0NVRAM@@QAE@PAVSerial@@@Z 10014c00 f   tlib:nvram.obj
 0001:00013c40       ?read@NVRAM@@QAEHXZ        10014c40 f   tlib:nvram.obj
 0001:00013d50       ?connect@NVRAM@@QAEXXZ     10014d50 f   tlib:nvram.obj
 0001:00013dd0       ??0Course@@QAE@PBD@Z       10014dd0 f   tlib:course.obj
 0001:00013e90       ??_GCourse@@UAEPAXI@Z      10014e90 f i tlib:course.obj
 0001:00013e90       ??_ECourse@@UAEPAXI@Z      10014e90 f i  CIL library: CIL module
 0001:00013eb0       ??0Course@@QAE@V?$vector@UFPOINT@@V?$allocator@UFPOINT@@@std@@@std@@PBD@Z 10014eb0 f   tlib:course.obj
 0001:00014220       ??1Course@@UAE@XZ          10015220 f   tlib:course.obj
 0001:00014320       ?init@Course@@AAEXXZ       10015320 f   tlib:course.obj
 0001:00014430       ?compute_grades@Course@@AAEXXZ 10015430 f   tlib:course.obj
 0001:00014630       ??4?$vector@UFPOINT@@V?$allocator@UFPOINT@@@std@@@std@@QAEAAV01@ABV01@@Z 10015630 f i tlib:course.obj
 0001:00014720       ?clear@?$vector@UFPOINT@@V?$allocator@UFPOINT@@@std@@@std@@QAEXXZ 10015720 f i tlib:course.obj
 0001:00014760       ?erase@?$vector@UFPOINT@@V?$allocator@UFPOINT@@@std@@@std@@QAE?AV?$_Vector_iterator@UFPOINT@@V?$allocator@UFPOINT@@@std@@@2@V?$_Vector_const_iterator@UFPOINT@@V?$allocator@UFPOINT@@@std@@@2@0@Z 10015760 f i tlib:course.obj
 0001:000147f0       ??$unchecked_copy@PAUFPOINT@@PAU1@@stdext@@YAPAUFPOINT@@PAU1@00@Z 100157f0 f i tlib:course.obj
 0001:00014820       ??0Heartrate@@QAE@XZ       10015820 f   tlib:heartrate.obj
 0001:00014c90       ??1Heartrate@@QAE@XZ       10015c90 f   tlib:heartrate.obj
 0001:00014e10       ?input@Heartrate@@QAEXGG@Z 10015e10 f   tlib:heartrate.obj
 0001:000151c0       ?findpeak@Heartrate@@AAEHXZ 100161c0 f   tlib:heartrate.obj
 0001:00015290       ?dump@Heartrate@@QAEXXZ    10016290 f   tlib:heartrate.obj
 0001:00015370       ?dumpPtab@Heartrate@@QAEXXZ 10016370 f   tlib:heartrate.obj
 0001:000154e0       ?valid@Heartrate@@AAEHXZ   100164e0 f   tlib:heartrate.obj
 0001:00015640       ?insert@Heartrate@@AAEXXZ  10016640 f   tlib:heartrate.obj
 0001:000157e0       ?restart@Heartrate@@AAEXXZ 100167e0 f   tlib:heartrate.obj
 0001:000158b0       ??A?$deque@NV?$allocator@N@std@@@std@@QAEAANI@Z 100168b0 f i tlib:heartrate.obj
 0001:00015910       ??$sort@V?$_Deque_iterator@NV?$allocator@N@std@@$00@std@@@std@@YAXV?$_Deque_iterator@NV?$allocator@N@std@@$00@0@0@Z 10016910 f i tlib:heartrate.obj
 0001:00015980       ??$_Sort@V?$_Deque_iterator@NV?$allocator@N@std@@$0A@@std@@H@std@@YAXV?$_Deque_iterator@NV?$allocator@N@std@@$0A@@0@0H@Z 10016980 f i tlib:heartrate.obj
 0001:00015aa0       ??$_Unguarded_partition@V?$_Deque_iterator@NV?$allocator@N@std@@$0A@@std@@@std@@YA?AU?$pair@V?$_Deque_iterator@NV?$allocator@N@std@@$0A@@std@@V12@@0@V?$_Deque_iterator@NV?$allocator@N@std@@$0A@@0@0@Z 10016aa0 f i tlib:heartrate.obj
 0001:00015f20       ??$_Median@V?$_Deque_iterator@NV?$allocator@N@std@@$0A@@std@@@std@@YAXV?$_Deque_iterator@NV?$allocator@N@std@@$0A@@0@00@Z 10016f20 f i tlib:heartrate.obj
 0001:00016030       ??$_Make_heap@V?$_Deque_iterator@NV?$allocator@N@std@@$0A@@std@@HN@std@@YAXV?$_Deque_iterator@NV?$allocator@N@std@@$0A@@0@0PAHPAN@Z 10017030 f i tlib:heartrate.obj
 0001:000160a0       ??$_Sort_heap@V?$_Deque_iterator@NV?$allocator@N@std@@$0A@@std@@@std@@YAXV?$_Deque_iterator@NV?$allocator@N@std@@$0A@@0@0@Z 100170a0 f i tlib:heartrate.obj
 0001:000160e0       ??$_Insertion_sort1@V?$_Deque_iterator@NV?$allocator@N@std@@$0A@@std@@N@std@@YAXV?$_Deque_iterator@NV?$allocator@N@std@@$0A@@0@0PAN@Z 100170e0 f i tlib:heartrate.obj
 0001:000161f0       ??$_Med3@V?$_Deque_iterator@NV?$allocator@N@std@@$0A@@std@@@std@@YAXV?$_Deque_iterator@NV?$allocator@N@std@@$0A@@0@00@Z 100171f0 f i tlib:heartrate.obj
 0001:00016320       ??$_Adjust_heap@V?$_Deque_iterator@NV?$allocator@N@std@@$0A@@std@@HN@std@@YAXV?$_Deque_iterator@NV?$allocator@N@std@@$0A@@0@HHN@Z 10017320 f i tlib:heartrate.obj
 0001:00016460       ??$_Push_heap@V?$_Deque_iterator@NV?$allocator@N@std@@$0A@@std@@HN@std@@YAXV?$_Deque_iterator@NV?$allocator@N@std@@$0A@@0@HHN@Z 10017460 f i tlib:heartrate.obj
 0001:00016530       ??$_Pop_heap_0@V?$_Deque_iterator@NV?$allocator@N@std@@$0A@@std@@N@std@@YAXV?$_Deque_iterator@NV?$allocator@N@std@@$0A@@0@0PAN@Z 10017530 f i tlib:heartrate.obj
 0001:000165c0       ?setDistance@velotronDecoder@@UAEXM@Z 100175c0 f i tlib:velotron_decoder.obj
 0001:00016620       ?get_measured_ergo_watts@velotronDecoder@@UAENXZ 10017620 f i tlib:velotron_decoder.obj
 0001:00016630       ?get_physics_pause@velotronDecoder@@UAE_NXZ 10017630 f i tlib:velotron_decoder.obj
 0001:00016640       ?set_physics_pause@velotronDecoder@@UAEX_N@Z 10017640 f i tlib:velotron_decoder.obj
 0001:00016680       ??0velotronDecoder@@QAE@PAVCourse@@AAVRIDER_DATA@@PAVBike@@PAVPhysics@@H@Z 10017680 f   tlib:velotron_decoder.obj
 0001:00016be0       ??_EvelotronDecoder@@UAEPAXI@Z 10017be0 f i  CIL library: CIL module
 0001:00016be0       ??_GvelotronDecoder@@UAEPAXI@Z 10017be0 f i tlib:velotron_decoder.obj
 0001:00016c00       ??1velotronDecoder@@UAE@XZ 10017c00 f   tlib:velotron_decoder.obj
 0001:00016d00       ?decode@velotronDecoder@@UAEHPAEK@Z 10017d00 f   tlib:velotron_decoder.obj
 0001:00017700       ?runkeys@velotronDecoder@@AAEXXZ 10018700 f   tlib:velotron_decoder.obj
 0001:00017880       ?set_grade@velotronDecoder@@UAEXM@Z 10018880 f   tlib:velotron_decoder.obj
 0001:000178a0       ?set_watts_factor@velotronDecoder@@UAEXM@Z 100188a0 f   tlib:velotron_decoder.obj
 0001:000178d0       ?set_weight_lbs@velotronDecoder@@UAEXN@Z 100188d0 f   tlib:velotron_decoder.obj
 0001:00017900       ?get_gear_pair@velotronDecoder@@UAE?AUGEARPAIR@Bike@@XZ 10018900 f   tlib:velotron_decoder.obj
 0001:00017930       ?get_gear_indices@velotronDecoder@@UAE?AUGEARPAIR@Bike@@XZ 10018930 f   tlib:velotron_decoder.obj
 0001:00017960       ??0MD5@@QAE@ABV0@@Z        10018960 f i tlib:rmp.obj
 0001:00017990       ??_EMD5@@UAEPAXI@Z         10018990 f i tlib:rmp.obj
 0001:00017a00       ??0RMP@@QAE@XZ             10018a00 f   tlib:rmp.obj
 0001:00017df0       ??1RMP@@QAE@XZ             10018df0 f   tlib:rmp.obj
 0001:00017ec0       ?compute_date@RMP@@QAEXQAD@Z 10018ec0 f   tlib:rmp.obj
 0001:00017f20       ?finalize@RMP@@QAEHXZ      10018f20 f   tlib:rmp.obj
 0001:000183d0       ?write_record@RMP@@QAEHPAURMPDATA@1@@Z 100193d0 f   tlib:rmp.obj
 0001:00018940       ?clear@?$vector@UNode@RMP@@V?$allocator@UNode@RMP@@@std@@@std@@QAEXXZ 10019940 f i tlib:rmp.obj
 0001:00018990       ?erase@?$vector@UNode@RMP@@V?$allocator@UNode@RMP@@@std@@@std@@QAE?AV?$_Vector_iterator@UNode@RMP@@V?$allocator@UNode@RMP@@@std@@@2@V?$_Vector_const_iterator@UNode@RMP@@V?$allocator@UNode@RMP@@@std@@@2@0@Z 10019990 f i tlib:rmp.obj
 0001:00018a00       ??$unchecked_copy@PAUNode@RMP@@PAU12@@stdext@@YAPAUNode@RMP@@PAU12@00@Z 10019a00 f i tlib:rmp.obj
 0001:00018a50       ??0performanceDecoder@@QAE@PAVCourse@@AAVRIDER_DATA@@@Z 10019a50 f   tlib:performance_decoder.obj
 0001:00018cc0       ??_GperformanceDecoder@@UAEPAXI@Z 10019cc0 f i tlib:performance_decoder.obj
 0001:00018cc0       ??_EperformanceDecoder@@UAEPAXI@Z 10019cc0 f i  CIL library: CIL module
 0001:00018ce0       ??1performanceDecoder@@UAE@XZ 10019ce0 f   tlib:performance_decoder.obj
 0001:00018da0       ?decode@performanceDecoder@@UAEHPAEK@Z 10019da0 f   tlib:performance_decoder.obj
 0001:000191d0       ?integrate@performanceDecoder@@EAEXXZ 1001a1d0 f   tlib:performance_decoder.obj
 0001:00019470       ?reset@performanceDecoder@@UAEXXZ 1001a470 f   tlib:performance_decoder.obj
 0001:000194e0       ??0simDecoder@@QAE@PAVCourse@@AAVRIDER_DATA@@@Z 1001a4e0 f   tlib:simdecoder.obj
 0001:00019780       ??_GsimDecoder@@UAEPAXI@Z  1001a780 f i tlib:simdecoder.obj
 0001:00019780       ??_EsimDecoder@@UAEPAXI@Z  1001a780 f i  CIL library: CIL module
 0001:000197a0       ??1simDecoder@@UAE@XZ      1001a7a0 f   tlib:simdecoder.obj
 0001:00019860       ?decode@simDecoder@@UAEHPAEK@Z 1001a860 f   tlib:simdecoder.obj
 0001:00019c90       ?integrate@simDecoder@@EAEXXZ 1001ac90 f   tlib:simdecoder.obj
 0001:00019f30       ?reset@simDecoder@@UAEXXZ  1001af30 f   tlib:simdecoder.obj
 0001:00019fa0       ?set_manual_mph@simDecoder@@UAEXM@Z 1001afa0 f   tlib:simdecoder.obj
 0001:00019fc0       ??0computrainerDecoder@@QAE@PAVCourse@@AAVRIDER_DATA@@H@Z 1001afc0 f   tlib:computrainer_decoder.obj
 0001:0001a0f0       ??_EcomputrainerDecoder@@UAEPAXI@Z 1001b0f0 f i  CIL library: CIL module
 0001:0001a0f0       ??_GcomputrainerDecoder@@UAEPAXI@Z 1001b0f0 f i tlib:computrainer_decoder.obj
 0001:0001a110       ??1computrainerDecoder@@UAE@XZ 1001b110 f   tlib:computrainer_decoder.obj
 0001:0001a1d0       ?decode@computrainerDecoder@@UAEHPAEK@Z 1001b1d0 f   tlib:computrainer_decoder.obj
 0001:0001ac50       ?reset@computrainerDecoder@@UAEXXZ 1001bc50 f   tlib:computrainer_decoder.obj
 0001:0001adc0       ?peaks_and_averages@computrainerDecoder@@EAEXXZ 1001bdc0 f   tlib:computrainer_decoder.obj
 0001:0001ae40       ?gradeUp@computrainerDecoder@@UAEXXZ 1001be40 f   tlib:computrainer_decoder.obj
 0001:0001ae80       ?gradeDown@computrainerDecoder@@UAEXXZ 1001be80 f   tlib:computrainer_decoder.obj
 0001:0001aec0       ?integrate@computrainerDecoder@@UAEXXZ 1001bec0 f   tlib:computrainer_decoder.obj
 0001:0001afb0       ?runkeys@computrainerDecoder@@AAEXXZ 1001bfb0 f   tlib:computrainer_decoder.obj
 0001:0001b130       ?set_watts_factor@computrainerDecoder@@UAEXM@Z 1001c130 f   tlib:computrainer_decoder.obj
 0001:0001b150       ??0PerfData@@QAE@XZ        1001c150 f   tlib:perfdata.obj
 0001:0001b1e0       ??1PerfData@@QAE@XZ        1001c1e0 f   tlib:perfdata.obj
 0001:0001b2a0       ??0fatalError@@QAE@PBDH0@Z 1001c2a0 f   glib:fatalerror.obj
 0001:0001b3b0       ??1fatalError@@UAE@XZ      1001c3b0 f   glib:fatalerror.obj
 0001:0001b3c0       ??0Person@@QAE@XZ          1001c3c0 f   glib:person.obj
 0001:0001b3e0       ??1Person@@UAE@XZ          1001c3e0 f   glib:person.obj
 0001:0001b3f0       ?dump@Person@@QAEXPAD@Z    1001c3f0 f   glib:person.obj
 0001:0001b510       ?convertDOB@Person@@IAEXXZ 1001c510 f   glib:person.obj
 0001:0001b610       ?setInitials@Person@@IAEXXZ 1001c610 f   glib:person.obj
 0001:0001b660       ?setName2@Person@@IAEXXZ   1001c660 f   glib:person.obj
 0001:0001b6c0       ?init@Person@@IAEXXZ       1001c6c0 f   glib:person.obj
 0001:0001b8b0       ?my_export@Person@@UAEXPAU_iobuf@@_N@Z 1001c8b0 f   glib:person.obj
 0001:0001b9b0       ??_EfastTimer@@UAEPAXI@Z   1001c9b0 f i glib:fasttimer.obj
 0001:0001ba10       ??0fastTimer@@QAE@PAD@Z    1001ca10 f   glib:fasttimer.obj
 0001:0001ba80       ?reset@fastTimer@@QAEXXZ   1001ca80 f   glib:fasttimer.obj
 0001:0001bae0       ??1fastTimer@@UAE@XZ       1001cae0 f   glib:fasttimer.obj
 0001:0001baf0       ?start@fastTimer@@QAEXXZ   1001caf0 f   glib:fasttimer.obj
 0001:0001bb10       ?stop@fastTimer@@QAEXXZ    1001cb10 f   glib:fasttimer.obj
 0001:0001bb60       ?getTotalSeconds@fastTimer@@QAENXZ 1001cb60 f   glib:fasttimer.obj
 0001:0001bb70       ?getCycles@fastTimer@@QAEKXZ 1001cb70 f   glib:fasttimer.obj
 0001:0001bb80       ?read@fastTimer@@QAE_JXZ   1001cb80 f   glib:fasttimer.obj
 0001:0001bba0       ?getAverageSeconds@fastTimer@@QAENXZ 1001cba0 f   glib:fasttimer.obj
 0001:0001bbd0       ?getms@fastTimer@@QAEKXZ   1001cbd0 f   glib:fasttimer.obj
 0001:0001bc50       ?getFreq@fastTimer@@QAE_JXZ 1001cc50 f   glib:fasttimer.obj
 0001:0001bc60       ?delay@fastTimer@@QAEXK@Z  1001cc60 f   glib:fasttimer.obj
 0001:0001bcf0       ?average@fastTimer@@QAEXXZ 1001ccf0 f   glib:fasttimer.obj
 0001:0001bdd0       ?getus@fastTimer@@QAEMXZ   1001cdd0 f   glib:fasttimer.obj
 0001:0001be20       ?getseconds@fastTimer@@QAENXZ 1001ce20 f   glib:fasttimer.obj
 0001:0001be20       ?getSeconds@fastTimer@@QAENXZ 1001ce20 f   glib:fasttimer.obj
 0001:0001be60       ?print@fastTimer@@QAEXXZ   1001ce60 f   glib:fasttimer.obj
 0001:0001bf00       ??_ECRF@@UAEPAXI@Z         1001cf00 f i glib:crf.obj
 0001:0001bf60       ??0CRF@@QAE@_N@Z           1001cf60 f   glib:crf.obj
 0001:0001bf80       ??1CRF@@UAE@XZ             1001cf80 f   glib:crf.obj
 0001:0001bf90       ?init@CRF@@QAEXPAE0@Z      1001cf90 f   glib:crf.obj
 0001:0001c0a0       ?doo@CRF@@QAEXPAEH@Z       1001d0a0 f   glib:crf.obj
 0001:0001c160       ?unwind@CRF@@QAEXH@Z       1001d160 f   glib:crf.obj
 0001:0001c1d0       ?do_file@CRF@@QAE_NPAD0@Z  1001d1d0 f   glib:crf.obj
 0001:0001c280       ?initialized@CRF@@QAE_NXZ  1001d280 f   glib:crf.obj
 0001:0001c2a0       ?save_encrypt_state@CRF@@QAEXXZ 1001d2a0 f   glib:crf.obj
 0001:0001c2b0       ?restore_encrypt_state@CRF@@QAEXXZ 1001d2b0 f   glib:crf.obj
 0001:0001c2f0       ?geti@CRF@@QAEHXZ          1001d2f0 f   glib:crf.obj
 0001:0001c300       ?getj@CRF@@QAEHXZ          1001d300 f   glib:crf.obj
 0001:0001c310       ?init@CRF@@QAEXXZ          1001d310 f   glib:crf.obj
 0001:0001c6a0       ?generate_seedstr@CRF@@QAEXXZ 1001d6a0 f   glib:crf.obj
 0001:0001c710       ?getstate@CRF@@QAEXPAUTCRF@@@Z 1001d710 f   glib:crf.obj
 0001:0001c730       ?setstate@CRF@@QAEXPAUTCRF@@@Z 1001d730 f   glib:crf.obj
 0001:0001c750       ?back@?$deque@UTCRF@@V?$allocator@UTCRF@@@std@@@std@@QAEAAUTCRF@@XZ 1001d750 f i glib:crf.obj
 0001:0001c7d0       ?push_back@?$deque@UTCRF@@V?$allocator@UTCRF@@@std@@@std@@QAEXABUTCRF@@@Z 1001d7d0 f i glib:crf.obj
 0001:0001c850       ?_Tidy@?$deque@UTCRF@@V?$allocator@UTCRF@@@std@@@std@@IAEXXZ 1001d850 f i glib:crf.obj
 0001:0001c8c0       ?_Growmap@?$deque@UTCRF@@V?$allocator@UTCRF@@@std@@@std@@IAEXI@Z 1001d8c0 f i glib:crf.obj
 0001:0001ca40       ??D?$_Deque_const_iterator@UTCRF@@V?$allocator@UTCRF@@@std@@$00@std@@QBEABUTCRF@@XZ 1001da40 f i glib:crf.obj
 0001:0001cac0       ??$_Allocate@UTCRF@@@std@@YAPAUTCRF@@IPAU1@@Z 1001dac0 f i glib:crf.obj
 0001:0001cb20       ?direxists@@YA_NPBD@Z      1001db20 f   glib:win_utils.obj
 0001:0001cb40       ??0Logger@@QAE@PBD0@Z      1001db40 f   glib:logger.obj
 0001:0001ccd0       ??_GLogger@@UAEPAXI@Z      1001dcd0 f i glib:logger.obj
 0001:0001ccd0       ??_ELogger@@UAEPAXI@Z      1001dcd0 f i  CIL library: CIL module
 0001:0001cd10       ?close@Logger@@QAEXXZ      1001dd10 f   glib:logger.obj
 0001:0001cd90       ?cleanup_logfiles@Logger@@AAEXXZ 1001dd90 f   glib:logger.obj
 0001:0001cff0       ?sort_function@@YAHPBX0@Z  1001dff0 f   glib:logger.obj
 0001:0001d020       ?dump@Logger@@QAEXPAEH@Z   1001e020 f   glib:logger.obj
 0001:0001d0d0       ?write@Logger@@QAAXHHHPBDZZ 1001e0d0 f   glib:logger.obj
 0001:0001d300       ?write@Logger@@QAAXPBDZZ   1001e300 f   glib:logger.obj
 0001:0001d3a0       ?flush@@YAXPAVLogger@@PAVSerial@@KH@Z 1001e3a0 f   glib:utils.obj
 0001:0001d510       ?indexIgnoreCase@@YAHPBD0H_N@Z 1001e510 f   glib:utils.obj
 0001:0001d600       ?myindex@@YAHPBD0H@Z       1001e600 f   glib:utils.obj
 0001:0001d670       ?dmap@@YAFNNNNPAN0@Z       1001e670 f   glib:utils.obj
 0001:0001d6c0       ?replace@@YAHPADPBD1H@Z    1001e6c0 f   glib:utils.obj
 0001:0001d7c0       ?exists@@YA_NPBD@Z         1001e7c0 f   glib:utils.obj
 0001:0001d850       ?fourcc@@YAIPBD@Z          1001e850 f   glib:utils.obj
 0001:0001d890       ?push_back@?$vector@V?$basic_string@DU?$char_traits@D@std@@V?$allocator@D@2@@std@@V?$allocator@V?$basic_string@DU?$char_traits@D@std@@V?$allocator@D@2@@std@@@2@@std@@QAEXABV?$basic_string@DU?$char_traits@D@std@@V?$allocator@D@2@@2@@Z 1001e890 f i glib:utils.obj
 0001:0001d940       ?insert@?$vector@V?$basic_string@DU?$char_traits@D@std@@V?$allocator@D@2@@std@@V?$allocator@V?$basic_string@DU?$char_traits@D@std@@V?$allocator@D@2@@std@@@2@@std@@QAE?AV?$_Vector_iterator@V?$basic_string@DU?$char_traits@D@std@@V?$allocator@D@2@@std@@V?$allocator@V?$basic_string@DU?$char_traits@D@std@@V?$allocator@D@2@@std@@@2@@2@V?$_Vector_const_iterator@V?$basic_string@DU?$char_traits@D@std@@V?$allocator@D@2@@std@@V?$allocator@V?$basic_string@DU?$char_traits@D@std@@V?$allocator@D@2@@std@@@2@@2@ABV?$basic_string@DU?$char_traits@D@std@@V?$allocator@D@2@@2@@Z 1001e940 f i glib:utils.obj
 0001:0001da20       ?_Ufill@?$vector@V?$basic_string@DU?$char_traits@D@std@@V?$allocator@D@2@@std@@V?$allocator@V?$basic_string@DU?$char_traits@D@std@@V?$allocator@D@2@@std@@@2@@std@@IAEPAV?$basic_string@DU?$char_traits@D@std@@V?$allocator@D@2@@2@PAV32@IABV32@@Z 1001ea20 f i glib:utils.obj
 0001:0001da60       ?_Insert_n@?$vector@V?$basic_string@DU?$char_traits@D@std@@V?$allocator@D@2@@std@@V?$allocator@V?$basic_string@DU?$char_traits@D@std@@V?$allocator@D@2@@std@@@2@@std@@IAEXV?$_Vector_const_iterator@V?$basic_string@DU?$char_traits@D@std@@V?$allocator@D@2@@std@@V?$allocator@V?$basic_string@DU?$char_traits@D@std@@V?$allocator@D@2@@std@@@2@@2@IABV?$basic_string@DU?$char_traits@D@std@@V?$allocator@D@2@@2@@Z 1001ea60 f i glib:utils.obj
 0001:0001de10       ??$_Umove@PAV?$basic_string@DU?$char_traits@D@std@@V?$allocator@D@2@@std@@@?$vector@V?$basic_string@DU?$char_traits@D@std@@V?$allocator@D@2@@std@@V?$allocator@V?$basic_string@DU?$char_traits@D@std@@V?$allocator@D@2@@std@@@2@@std@@IAEPAV?$basic_string@DU?$char_traits@D@std@@V?$allocator@D@2@@1@PAV21@00@Z 1001ee10 f i glib:utils.obj
 0001:0001de40       ??$fill@PAV?$basic_string@DU?$char_traits@D@std@@V?$allocator@D@2@@std@@V12@@std@@YAXPAV?$basic_string@DU?$char_traits@D@std@@V?$allocator@D@2@@0@0ABV10@@Z 1001ee40 f i glib:utils.obj
 0001:0001de70       ??$_Unchecked_move_backward@PAV?$basic_string@DU?$char_traits@D@std@@V?$allocator@D@2@@std@@PAV12@@stdext@@YAPAV?$basic_string@DU?$char_traits@D@std@@V?$allocator@D@2@@std@@PAV12@00@Z 1001ee70 f i glib:utils.obj
 0001:0001dea0       ??$_Uninit_fill_n@PAV?$basic_string@DU?$char_traits@D@std@@V?$allocator@D@2@@std@@IV12@V?$allocator@V?$basic_string@DU?$char_traits@D@std@@V?$allocator@D@2@@std@@@2@@std@@YAXPAV?$basic_string@DU?$char_traits@D@std@@V?$allocator@D@2@@0@IABV10@AAV?$allocator@V?$basic_string@DU?$char_traits@D@std@@V?$allocator@D@2@@std@@@0@U_Nonscalar_ptr_iterator_tag@0@U_Range_checked_iterator_tag@0@@Z 1001eea0 f i glib:utils.obj
 0001:0001df40       ??$_Move_backward_opt@PAV?$basic_string@DU?$char_traits@D@std@@V?$allocator@D@2@@std@@PAV12@@std@@YAPAV?$basic_string@DU?$char_traits@D@std@@V?$allocator@D@2@@0@PAV10@00Urandom_access_iterator_tag@0@U_Swap_move_tag@0@U_Range_checked_iterator_tag@0@@Z 1001ef40 f i glib:utils.obj
 0001:0001dfa0       ??$_Uninit_move@PAV?$basic_string@DU?$char_traits@D@std@@V?$allocator@D@2@@std@@PAV12@V?$allocator@V?$basic_string@DU?$char_traits@D@std@@V?$allocator@D@2@@std@@@2@@std@@YAPAV?$basic_string@DU?$char_traits@D@std@@V?$allocator@D@2@@0@PAV10@00AAV?$allocator@V?$basic_string@DU?$char_traits@D@std@@V?$allocator@D@2@@std@@@0@U_Swap_move_tag@0@U_Range_checked_iterator_tag@0@@Z 1001efa0 f i glib:utils.obj
 0001:0001e080       ??_GSerial@@UAEPAXI@Z      1001f080 f i glib:serial.obj
 0001:0001e080       ??_ESerial@@UAEPAXI@Z      1001f080 f i  CIL library: CIL module
 0001:0001e0b0       ??0Serial@@QAE@PBD00HHHPAVLogger@@@Z 1001f0b0 f   glib:serial.obj
 0001:0001e1f0       ??0Serial@@QAE@_NPBD1HPAVLogger@@@Z 1001f1f0 f   glib:serial.obj
 0001:0001e2d0       ??0Serial@@QAE@PBD0PAVLogger@@@Z 1001f2d0 f   glib:serial.obj
 0001:0001e3a0       ?Open@Serial@@AAEHPBD0H@Z  1001f3a0 f   glib:serial.obj
 0001:0001e880       ?Close@Serial@@AAEXH@Z     1001f880 f   glib:serial.obj
 0001:0001eb80       ?DisplayOpenError@Serial@@AAEXH@Z 1001fb80 f   glib:serial.obj
 0001:0001ec20       ?FlushBuffers@Serial@@AAEXXZ 1001fc20 f   glib:serial.obj
 0001:0001ec90       ?flushrx@Serial@@QAEXK@Z   1001fc90 f   glib:serial.obj
 0001:0001ed20       ?txx@Serial@@QAEXPAEH@Z    1001fd20 f   glib:serial.obj
 0001:0001ed80       ?txThread@Serial@@CAXPAX@Z 1001fd80 f   glib:serial.obj
 0001:0001f190       ?rx@Serial@@QAEHPADH@Z     10020190 f   glib:serial.obj
 0001:0001f200       ?rxThread@Serial@@CAXPAX@Z 10020200 f   glib:serial.obj
 0001:0001f5d0       ?process_events@Serial@@AAEXK@Z 100205d0 f   glib:serial.obj
 0001:0001f740       ?send@Serial@@QAEXPADH@Z   10020740 f   glib:serial.obj
 0001:0001f7b0       ?expect@Serial@@QAEHPADK@Z 100207b0 f   glib:serial.obj
 0001:0001f850       ?destroy@Serial@@AAEXXZ    10020850 f   glib:serial.obj
 0001:0001f8f0       ?ant_init@@YAHP6AXXZ@Z     100208f0 f   glib:aunt.obj
 0001:00020100       ?ant_add_sc@@YAHUANTDEF@@@Z 10021100 f   glib:aunt.obj
 0001:00020170       ?ant_add_heartrate@@YAHUANTDEF@@@Z 10021170 f   glib:aunt.obj
 0001:00020240       ?gen_add@@YAHH@Z           10021240 f   glib:aunt.obj
 0001:00020950       ?ant_close@@YAHXZ          10021950 f   glib:aunt.obj
 0001:00020a30       ?MessageThread@@YAXXZ      10021a30 f   glib:aunt.obj
 0001:00020b50       ?ant_process@@YAXUANT_MESSAGE@@G@Z 10021b50 f   glib:aunt.obj
 0001:00021e30       ?ant_log@@YAXPAD_N@Z       10022e30 f   glib:aunt.obj
 0001:00021e80       ?ant_WaitAck@@YA_NEK@Z     10022e80 f   glib:aunt.obj
 0001:00021f10       ?ant_decode_speed_cadence@@YAHXZ 10022f10 f   glib:aunt.obj
 0001:000221d0       ?ant_decode_hr@@YAHXZ      100231d0 f   glib:aunt.obj
 0001:00022410       ??_EAverageTimer@@UAEPAXI@Z 10023410 f i glib:averagetimer.obj
 0001:00022470       ??0AverageTimer@@QAE@XZ    10023470 f   glib:averagetimer.obj
 0001:000224b0       ??0AverageTimer@@QAE@PBD@Z 100234b0 f   glib:averagetimer.obj
 0001:000224f0       ??1AverageTimer@@UAE@XZ    100234f0 f   glib:averagetimer.obj
 0001:00022500       ?update@AverageTimer@@QAEXXZ 10023500 f   glib:averagetimer.obj
 0001:00022540       ?getAverage@AverageTimer@@QAENXZ 10023540 f   glib:averagetimer.obj
 0001:00022580       ?getms@AverageTimer@@QAENXZ 10023580 f   glib:averagetimer.obj
 0001:000225c0       ?reset@AverageTimer@@QAEXXZ 100235c0 f   glib:averagetimer.obj
 0001:000225e0       ??_ELPFilter@@UAEPAXI@Z    100235e0 f i glib:lpfilter.obj
 0001:00022640       ??0LPFilter@@QAE@XZ        10023640 f   glib:lpfilter.obj
 0001:00022650       ??0LPFilter@@QAE@H@Z       10023650 f   glib:lpfilter.obj
 0001:00022670       ??1LPFilter@@UAE@XZ        10023670 f   glib:lpfilter.obj
 0001:00022680       ?calc@LPFilter@@QAENN@Z    10023680 f   glib:lpfilter.obj
 0001:000226a0       ?setTC@LPFilter@@QAEXN@Z   100236a0 f   glib:lpfilter.obj
 0001:000226b0       ?get_sigma@sMav@@QAENXZ    100236b0 f   tlib:datasource.obj
 0001:000226b0       ?getTC@LPFilter@@QAENXZ    100236b0 f   glib:lpfilter.obj
 0001:000226c0       ?setfval@LPFilter@@QAEXN@Z 100236c0 f   glib:lpfilter.obj
 0001:000226d0       ?reset@LPFilter@@QAEXXZ    100236d0 f   glib:lpfilter.obj
 0001:000226e0       ??_EIni@@UAEPAXI@Z         100236e0 f i glib:ini.obj
 0001:00022740       ??0Ini@@QAE@PBD@Z          10023740 f   glib:ini.obj
 0001:00022840       ??1Ini@@UAE@XZ             10023840 f   glib:ini.obj
 0001:00022850       ?getBool@Ini@@QAE_NPBD0_N@Z 10023850 f   glib:ini.obj
 0001:00022910       ?getBool@Ini@@QAE_NPBD_N@Z 10023910 f   glib:ini.obj
 0001:000229e0       ?getBool@Ini@@QAE_NPBD00@Z 100239e0 f   glib:ini.obj
 0001:00022a70       ?getBool@Ini@@QAE_NPBD00_N@Z 10023a70 f   glib:ini.obj
 0001:00022b00       ?getFloat@Ini@@QAEMPBDM@Z  10023b00 f   glib:ini.obj
 0001:00022b90       ?getFloat@Ini@@QAEMPBD0M@Z 10023b90 f   glib:ini.obj
 0001:00022c10       ?getFloat@Ini@@QAEMPBD00@Z 10023c10 f   glib:ini.obj
 0001:00022c70       ?getFloat@Ini@@QAEMPBD00_N@Z 10023c70 f   glib:ini.obj
 0001:00022cd0       ?getInt@Ini@@QAEHPBD0@Z    10023cd0 f   glib:ini.obj
 0001:00022d40       ?getInt@Ini@@QAEHPBDH@Z    10023d40 f   glib:ini.obj
 0001:00022da0       ?getInt@Ini@@QAEHPBD00@Z   10023da0 f   glib:ini.obj
 0001:00022df0       ?getInt@Ini@@QAEHPBD00_N@Z 10023df0 f   glib:ini.obj
 0001:00022e50       ?getInt@Ini@@QAEHPBD0H_N@Z 10023e50 f   glib:ini.obj
 0001:00022ec0       ?getul@Ini@@QAEKPBD0K_N@Z  10023ec0 f   glib:ini.obj
 0001:00022f50       ?getString@Ini@@QAEPBDPBD00@Z 10023f50 f   glib:ini.obj
 0001:00022fa0       ?getString@Ini@@QAEPBDPBD0@Z 10023fa0 f   glib:ini.obj
 0001:00023000       ?getString@Ini@@QAEPBDPBD00_N@Z 10024000 f   glib:ini.obj
 0001:00023070       ?writeString@Ini@@QAEXPBD00@Z 10024070 f   glib:ini.obj
 0001:00023090       ?writeBool@Ini@@QAEXPBD0H@Z 10024090 f   glib:ini.obj
 0001:000230d0       ?writeBool@Ini@@QAEXPBDH@Z 100240d0 f   glib:ini.obj
 0001:00023120       ?set_section@Ini@@QAEXPBD@Z 10024120 f   glib:ini.obj
 0001:00023140       ?writeInt@Ini@@QAEXPBD0H@Z 10024140 f   glib:ini.obj
 0001:000231a0       ?writeInt@Ini@@QAEXPBDH@Z  100241a0 f   glib:ini.obj
 0001:00023200       ?writeul@Ini@@QAEXPBD0K@Z  10024200 f   glib:ini.obj
 0001:00023260       ?write_long_hex@Ini@@QAEXPBD0K@Z 10024260 f   glib:ini.obj
 0001:000232c0       ?writeFloat@Ini@@QAEXPBD0M@Z 100242c0 f   glib:ini.obj
 0001:00023320       ?writeFloat@Ini@@QAEXPBDM@Z 10024320 f   glib:ini.obj
 0001:00023380       ?getName@Ini@@QAEPBDXZ     10024380 f   glib:ini.obj
 0001:00023390       ?clear_section@Ini@@QAEXPBD@Z 10024390 f   glib:ini.obj
 0001:00023530       ?get_long_hex@Ini@@QAEKPBD0K_N@Z 10024530 f   glib:ini.obj
 0001:000235d0       ??_GTimeout@@UAEPAXI@Z     100245d0 f i glib:timeout.obj
 0001:000235d0       ??_ETimeout@@UAEPAXI@Z     100245d0 f i  CIL library: CIL module
 0001:00023600       ??1Timeout@@UAE@XZ         10024600 f   glib:timeout.obj
 0001:00023610       ?stop@Timeout@@QAEXXZ      10024610 f   glib:timeout.obj
 0001:00023680       ??_EtwoPoleFilter@@UAEPAXI@Z 10024680 f i glib:twopolefilter.obj
 0001:000236e0       ??0twoPoleFilter@@QAE@H@Z  100246e0 f   glib:twopolefilter.obj
 0001:00023710       ??1twoPoleFilter@@UAE@XZ   10024710 f   glib:twopolefilter.obj
 0001:00023720       ?calc@twoPoleFilter@@QAENN@Z 10024720 f   glib:twopolefilter.obj
 0001:00023760       ?setState@twoPoleFilter@@QAEXNN@Z 10024760 f   glib:twopolefilter.obj
 0001:00023780       ?getState@twoPoleFilter@@QAEXPAN0@Z 10024780 f   glib:twopolefilter.obj
 0001:000237a0       ?reset@twoPoleFilter@@QAEXXZ 100247a0 f   glib:twopolefilter.obj
 0001:000237b0       ??0sMav@@QAE@H_N@Z         100247b0 f   glib:smav.obj
 0001:00023860       ??1sMav@@QAE@XZ            10024860 f   glib:smav.obj
 0001:000238b0       ?compute@sMav@@QAEMM@Z     100248b0 f   glib:smav.obj
 0001:00023950       ?first@sMav@@QAEMXZ        10024950 f   glib:smav.obj
 0001:00023960       ?last@sMav@@QAEMXZ         10024960 f   glib:smav.obj
 0001:00023980       ?reset@sMav@@QAEXM@Z       10024980 f   glib:smav.obj
 0001:000239f0       ?setShift@sMav@@QAEXH@Z    100249f0 f   glib:smav.obj
 0001:00023a20       ??_EsignalStrengthMeter@@UAEPAXI@Z 10024a20 f i glib:signalstrengthmeter.obj
 0001:00023a90       ??0signalStrengthMeter@@QAE@H@Z 10024a90 f   glib:signalstrengthmeter.obj
 0001:00023b00       ??1signalStrengthMeter@@UAE@XZ 10024b00 f   glib:signalstrengthmeter.obj
 0001:00023b30       ?compute@signalStrengthMeter@@QAENN@Z 10024b30 f   glib:signalstrengthmeter.obj
 0001:00023bd0       ??0Pcre@@QAE@PBD0PAU_iobuf@@H_N@Z 10024bd0 f   glib:pcre2.obj
 0001:00023fc0       ??0MD5@@QAE@XZ             10024fc0 f   glib:md5.obj
 0001:00023fe0       ??1MD5@@UAE@XZ             10024fe0 f   glib:md5.obj
 0001:00024010       ?init@MD5@@AAEXPAUMD5_CTX@@@Z 10025010 f   glib:md5.obj
 0001:00024040       ?update@MD5@@AAEXPAUMD5_CTX@@PAEI@Z 10025040 f   glib:md5.obj
 0001:00024100       ?final@MD5@@AAEXPAUMD5_CTX@@@Z 10025100 f   glib:md5.obj
 0001:000241e0       ?transform@MD5@@AAEXQAKQAE@Z 100251e0 f   glib:md5.obj
 0001:00024890       ?encode@MD5@@AAEXPAEPAKI@Z 10025890 f   glib:md5.obj
 0001:000248e0       ?decode@MD5@@AAEXPAKPAEI@Z 100258e0 f   glib:md5.obj
 0001:00024930       ?memcpy@MD5@@AAEXPAE0I@Z   10025930 f   glib:md5.obj
 0001:00024960       ?memset@MD5@@AAEXPAEHI@Z   10025960 f   glib:md5.obj
 0001:00024980       ?test@MD5@@QAEHHQAPAD@Z    10025980 f   glib:md5.obj
 0001:00024a90       ?string@MD5@@AAEXPAD@Z     10025a90 f   glib:md5.obj
 0001:00024b50       ?string@MD5@@QAEXPAEH@Z    10025b50 f   glib:md5.obj
 0001:00024bd0       ?timeTrial@MD5@@AAEXXZ     10025bd0 f   glib:md5.obj
 0001:00024d30       ?testSuite@MD5@@AAEXXZ     10025d30 f   glib:md5.obj
 0001:00024d50       ?file@MD5@@AAEXPAD@Z       10025d50 f   glib:md5.obj
 0001:00024e90       ?filter@MD5@@AAEXXZ        10025e90 f   glib:md5.obj
 0001:00024f80       ?print@MD5@@AAEXXZ         10025f80 f   glib:md5.obj
 0001:00024fc0       ??_EErr@@UAEPAXI@Z         10025fc0 f i glib:err.obj
 0001:00025020       ??0Err@@QAE@XZ             10026020 f   glib:err.obj
 0001:00025060       ??1Err@@UAE@XZ             10026060 f   glib:err.obj
 0001:00025080       ?getString@Err@@QAEPADXZ   10026080 f   glib:err.obj
 0001:00025080       ?get_line@fatalError@@QAEHXZ 10026080 f   tlib:physics.obj
 0001:00025090       _DSIThread_MutexInit       10026090 f   ant_lib:dsi_thread_win32.obj
 0001:000250b0       _DSIThread_MutexDestroy    100260b0 f   ant_lib:dsi_thread_win32.obj
 0001:000250d0       _DSIThread_CondInit        100260d0 f   ant_lib:dsi_thread_win32.obj
 0001:00025130       _DSIThread_CondDestroy     10026130 f   ant_lib:dsi_thread_win32.obj
 0001:00025190       _DSIThread_CondTimedWait   10026190 f   ant_lib:dsi_thread_win32.obj
 0001:00025250       _DSIThread_CondSignal      10026250 f   ant_lib:dsi_thread_win32.obj
 0001:00025280       ??_GDSISerialGeneric@@UAEPAXI@Z 10026280 f i ant_lib:dsi_serial_generic.obj
 0001:00025280       ??_EDSISerialGeneric@@UAEPAXI@Z 10026280 f i  CIL library: CIL module
 0001:000252a0       ??1DSISerialGeneric@@UAE@XZ 100262a0 f   ant_lib:dsi_serial_generic.obj
 0001:00025310       ?AutoInit@DSISerialGeneric@@UAEHXZ 10026310 f   ant_lib:dsi_serial_generic.obj
 0001:000254a0       ?Init@DSISerialGeneric@@UAEHKE@Z 100264a0 f   ant_lib:dsi_serial_generic.obj
 0001:000254e0       ?GetDeviceSerialNumber@DSISerialGeneric@@UAEKXZ 100264e0 f   ant_lib:dsi_serial_generic.obj
 0001:00025500       ?GetDeviceUSBInfo@DSISerialGeneric@@UAEHEPAE0G@Z 10026500 f   ant_lib:dsi_serial_generic.obj
 0001:00025620       ?GetDevicePID@DSISerialGeneric@@UAEHAAG@Z 10026620 f   ant_lib:dsi_serial_generic.obj
 0001:00025650       ?GetDeviceVID@DSISerialGeneric@@UAEHAAG@Z 10026650 f   ant_lib:dsi_serial_generic.obj
 0001:00025680       ?Open@DSISerialGeneric@@UAEHXZ 10026680 f   ant_lib:dsi_serial_generic.obj
 0001:00025820       ?Close@DSISerialGeneric@@UAEXH@Z 10026820 f   ant_lib:dsi_serial_generic.obj
 0001:000258c0       ?WriteBytes@DSISerialGeneric@@UAEHPAXG@Z 100268c0 f   ant_lib:dsi_serial_generic.obj
 0001:00025920       ?GetDeviceNumber@DSISerialGeneric@@UAEEXZ 10026920 f   ant_lib:dsi_serial_generic.obj
 0001:00025930       ?ReceiveThread@DSISerialGeneric@@AAEXXZ 10026930 f   ant_lib:dsi_serial_generic.obj
 0001:00025a30       ?ProcessThread@DSISerialGeneric@@CAPAXPAX@Z 10026a30 f   ant_lib:dsi_serial_generic.obj
 0001:00025a40       ?USBReset@DSISerialGeneric@@QAEXXZ 10026a40 f   ant_lib:dsi_serial_generic.obj
 0001:00025b60       ??1?$USBDeviceList@PBVUSBDevice@@@@UAE@XZ 10026b60 f i ant_lib:dsi_serial_generic.obj
 0001:00025bb0       ??_E?$USBDeviceList@PBVUSBDevice@@@@UAEPAXI@Z 10026bb0 f i  CIL library: CIL module
 0001:00025bb0       ??_G?$USBDeviceList@PBVUSBDevice@@@@UAEPAXI@Z 10026bb0 f i ant_lib:dsi_serial_generic.obj
 0001:00025c10       ?clear@?$vector@PBVUSBDeviceSI@@V?$allocator@PBVUSBDeviceSI@@@std@@@std@@QAEXXZ 10026c10 f i ant_lib:usb_device_handle_si.obj
 0001:00025c10       ?clear@?$vector@PAPBVUSBDeviceSI@@V?$allocator@PAPBVUSBDeviceSI@@@std@@@std@@QAEXXZ 10026c10 f i ant_lib:usb_device_handle_win.obj
 0001:00025c10       ?clear@?$vector@PAPBVUSBDevice@@V?$allocator@PAPBVUSBDevice@@@std@@@std@@QAEXXZ 10026c10 f i ant_lib:dsi_serial_generic.obj
 0001:00025c10       ?clear@?$vector@PAPBVUSBDeviceLibusb@@V?$allocator@PAPBVUSBDeviceLibusb@@@std@@@std@@QAEXXZ 10026c10 f i ant_lib:usb_device_handle_win.obj
 0001:00025c10       ?clear@?$vector@PBVUSBDeviceLibusb@@V?$allocator@PBVUSBDeviceLibusb@@@std@@@std@@QAEXXZ 10026c10 f i ant_lib:usb_device_handle_libusb.obj
 0001:00025c60       ?erase@?$vector@MV?$allocator@M@std@@@std@@QAE?AV?$_Vector_iterator@MV?$allocator@M@std@@@2@V?$_Vector_const_iterator@MV?$allocator@M@std@@@2@0@Z 10026c60 f i tlib:rtd.obj
 0001:00025c60       ?erase@?$vector@PAPBVUSBDeviceSI@@V?$allocator@PAPBVUSBDeviceSI@@@std@@@std@@QAE?AV?$_Vector_iterator@PAPBVUSBDeviceSI@@V?$allocator@PAPBVUSBDeviceSI@@@std@@@2@V?$_Vector_const_iterator@PAPBVUSBDeviceSI@@V?$allocator@PAPBVUSBDeviceSI@@@std@@@2@0@Z 10026c60 f i ant_lib:usb_device_handle_win.obj
 0001:00025c60       ?erase@?$vector@PBVUSBDeviceLibusb@@V?$allocator@PBVUSBDeviceLibusb@@@std@@@std@@QAE?AV?$_Vector_iterator@PBVUSBDeviceLibusb@@V?$allocator@PBVUSBDeviceLibusb@@@std@@@2@V?$_Vector_const_iterator@PBVUSBDeviceLibusb@@V?$allocator@PBVUSBDeviceLibusb@@@std@@@2@0@Z 10026c60 f i ant_lib:usb_device_handle_libusb.obj
 0001:00025c60       ?erase@?$vector@PAPBVUSBDevice@@V?$allocator@PAPBVUSBDevice@@@std@@@std@@QAE?AV?$_Vector_iterator@PAPBVUSBDevice@@V?$allocator@PAPBVUSBDevice@@@std@@@2@V?$_Vector_const_iterator@PAPBVUSBDevice@@V?$allocator@PAPBVUSBDevice@@@std@@@2@0@Z 10026c60 f i ant_lib:dsi_serial_generic.obj
 0001:00025c60       ?erase@?$vector@PAPBVUSBDeviceLibusb@@V?$allocator@PAPBVUSBDeviceLibusb@@@std@@@std@@QAE?AV?$_Vector_iterator@PAPBVUSBDeviceLibusb@@V?$allocator@PAPBVUSBDeviceLibusb@@@std@@@2@V?$_Vector_const_iterator@PAPBVUSBDeviceLibusb@@V?$allocator@PAPBVUSBDeviceLibusb@@@std@@@2@0@Z 10026c60 f i ant_lib:usb_device_handle_win.obj
 0001:00025c60       ?erase@?$vector@PBVUSBDeviceSI@@V?$allocator@PBVUSBDeviceSI@@@std@@@std@@QAE?AV?$_Vector_iterator@PBVUSBDeviceSI@@V?$allocator@PBVUSBDeviceSI@@@std@@@2@V?$_Vector_const_iterator@PBVUSBDeviceSI@@V?$allocator@PBVUSBDeviceSI@@@std@@@2@0@Z 10026c60 f i ant_lib:usb_device_handle_si.obj
 0001:00025cf0       ??_EDSIFramerANT@@UAEPAXI@Z 10026cf0 f i  CIL library: CIL module
 0001:00025cf0       ??_GDSIFramerANT@@UAEPAXI@Z 10026cf0 f i ant_lib:dsi_framer_ant.obj
 0001:00025d10       ??0DSIFramerANT@@QAE@PAVDSISerial@@@Z 10026d10 f   ant_lib:dsi_framer_ant.obj
 0001:00025df0       ??1DSIFramerANT@@UAE@XZ    10026df0 f   ant_lib:dsi_framer_ant.obj
 0001:00025e70       ?WriteMessage@DSIFramerANT@@UAEHPAXG@Z 10026e70 f   ant_lib:dsi_framer_ant.obj
 0001:00025fc0       ?WaitForMessage@DSIFramerANT@@UAEGK@Z 10026fc0 f   ant_lib:dsi_framer_ant.obj
 0001:00026070       ?GetMessageA@DSIFramerANT@@UAEGPAXG@Z 10027070 f   ant_lib:dsi_framer_ant.obj
 0001:00026160       ?ProcessByte@DSIFramerANT@@UAEXE@Z 10027160 f   ant_lib:dsi_framer_ant.obj
 0001:00026290       ?Error@DSIFramerANT@@UAEXE@Z 10027290 f   ant_lib:dsi_framer_ant.obj
 0001:00026310       ?SetNetworkKey@DSIFramerANT@@QAEHEPAEK@Z 10027310 f   ant_lib:dsi_framer_ant.obj
 0001:00026370       ?UnAssignChannel@DSIFramerANT@@QAEHEK@Z 10027370 f   ant_lib:dsi_framer_ant.obj
 0001:000263b0       ?SetChannelID@DSIFramerANT@@QAEHEGEEK@Z 100273b0 f   ant_lib:dsi_framer_ant.obj
 0001:00026410       ?SetChannelPeriod@DSIFramerANT@@QAEHEGK@Z 10027410 f   ant_lib:dsi_framer_ant.obj
 0001:00026460       ?SetChannelRFFrequency@DSIFramerANT@@QAEHEEK@Z 10027460 f   ant_lib:dsi_framer_ant.obj
 0001:000264a0       ?SetChannelTransmitPower@DSIFramerANT@@QAEHEEK@Z 100274a0 f   ant_lib:dsi_framer_ant.obj
 0001:000264e0       ?RxExtMesgsEnable@DSIFramerANT@@QAEHEK@Z 100274e0 f   ant_lib:dsi_framer_ant.obj
 0001:00026520       ?ResetSystem@DSIFramerANT@@QAEHK@Z 10027520 f   ant_lib:dsi_framer_ant.obj
 0001:00026580       ??_GANTMessageResponse@@QAEPAXI@Z 10027580 f i ant_lib:dsi_framer_ant.obj
 0001:000265a0       ?OpenChannel@DSIFramerANT@@QAEHEK@Z 100275a0 f   ant_lib:dsi_framer_ant.obj
 0001:000265e0       ?SendBroadcastData@DSIFramerANT@@QAEHEPAE@Z 100275e0 f   ant_lib:dsi_framer_ant.obj
 0001:00026630       ?GetMessageSize@DSIFramerANT@@IAEGXZ 10027630 f   ant_lib:dsi_framer_ant.obj
 0001:00026670       ?ProcessMessage@DSIFramerANT@@IAEXXZ 10027670 f   ant_lib:dsi_framer_ant.obj
 0001:00026760       ?CheckResponseList@DSIFramerANT@@IAEXXZ 10027760 f   ant_lib:dsi_framer_ant.obj
 0001:00026850       ?SendCommand@DSIFramerANT@@IAEHPAUANT_MESSAGE@@GK@Z 10027850 f   ant_lib:dsi_framer_ant.obj
 0001:000269f0       ?SendRequest@DSIFramerANT@@QAEHEEPAUANT_MESSAGE_ITEM@@K@Z 100279f0 f   ant_lib:dsi_framer_ant.obj
 0001:00026a40       ?CreateAntMsg_wOptExtBuf@DSIFramerANT@@MAEHPAPAUANT_MESSAGE@@K@Z 10027a40 f   ant_lib:dsi_framer_ant.obj
 0001:00026a70       ?Attach@ANTMessageResponse@@QAEHEPAEEPAVDSIFramerANT@@PAUDSI_CONDITION_VAR@@@Z 10027a70 f   ant_lib:dsi_framer_ant.obj
 0001:00026b00       ?Remove@ANTMessageResponse@@QAEXXZ 10027b00 f   ant_lib:dsi_framer_ant.obj
 0001:00026b60       ?WaitForResponse@ANTMessageResponse@@QAEHK@Z 10027b60 f   ant_lib:dsi_framer_ant.obj
 0001:00026bb0       _SNPRINTF                  10027bb0 f   ant_lib:macros.obj
 0001:00026be0       _STRNCPY                   10027be0 f   ant_lib:macros.obj
 0001:00026c10       ?GetDeviceUSBInfo@DSISerial@@UAEHEPAE0G@Z 10027c10 f i ant_lib:dsi_serial.obj
 0001:00026c20       ??_GDSISerial@@UAEPAXI@Z   10027c20 f i ant_lib:dsi_serial.obj
 0001:00026c20       ??_EDSISerial@@UAEPAXI@Z   10027c20 f i  CIL library: CIL module
 0001:00026c40       ??1DSISerial@@UAE@XZ       10027c40 f   ant_lib:dsi_serial.obj
 0001:00026c50       ?SetCallback@DSISerial@@UAEXPAVDSISerialCallback@@@Z 10027c50 f   ant_lib:dsi_serial.obj
 0001:00026c60       ?WinDevice_Enable@@YAHHQAPAD@Z 10027c60 f   ant_lib:WinDevice.obj
 0001:00026cf0       ?WinDevice_Disable@@YAHHQAPAD@Z 10027cf0 f   ant_lib:WinDevice.obj
 0001:00026d80       ?ControlCallback@@YAHPAXPAU_SP_DEVINFO_DATA@@0@Z 10027d80 f   ant_lib:WinDevice.obj
 0001:00026e80       ?LoadSetupDLLFunctions@@YAHXZ 10027e80 f   ant_lib:WinDevice.obj
 0001:000270c0       ?FreeSetupDLLFunctions@@YAXXZ 100280c0 f   ant_lib:WinDevice.obj
 0001:00027100       ?GetMultiSzIndexArray@@YAPAPADPAD@Z 10028100 f   ant_lib:WinDevice.obj
 0001:00027180       ?GetDevMultiSz@@YAPAPADPAXPAU_SP_DEVINFO_DATA@@K@Z 10028180 f   ant_lib:WinDevice.obj
 0001:00027240       ?WildCardMatch@@YAHPBDABUIdEntry@@@Z 10028240 f   ant_lib:WinDevice.obj
 0001:000273a0       ?EnumerateDevices@@YAHPBDKHQAPADP6AHPAXPAU_SP_DEVINFO_DATA@@2@Z2@Z 100283a0 f   ant_lib:WinDevice.obj
 0001:000277f0       ?SiDeviceMatch@@YAHABQBVUSBDeviceSI@@@Z 100287f0 f   ant_lib:usb_device_handle_win.obj
 0001:00027810       ?LibusbDeviceMatch@@YAHABQBVUSBDeviceLibusb@@@Z 10028810 f   ant_lib:usb_device_handle_win.obj
 0001:00027840       ?CopyANTDevice@USBDeviceHandle@@SAHAAPBVUSBDevice@@PBV2@@Z 10028840 f   ant_lib:usb_device_handle_win.obj
 0001:00027930       ?GetAllDevices@USBDeviceHandle@@SA?BV?$USBDeviceList@PBVUSBDevice@@@@K@Z 10028930 f   ant_lib:usb_device_handle_win.obj
 0001:00027af0       ?GetAvailableDevices@USBDeviceHandle@@SA?BV?$USBDeviceList@PBVUSBDevice@@@@K@Z 10028af0 f   ant_lib:usb_device_handle_win.obj
 0001:00027ca0       ?Open@USBDeviceHandle@@SAHABVUSBDevice@@AAPAV1@K@Z 10028ca0 f   ant_lib:usb_device_handle_win.obj
 0001:00027d20       ?Close@USBDeviceHandle@@SAHAAPAV1@H@Z 10028d20 f   ant_lib:usb_device_handle_win.obj
 0001:00027d80       ??1?$USBDeviceList@PBVUSBDeviceSI@@@@UAE@XZ 10028d80 f i ant_lib:usb_device_handle_win.obj
 0001:00027dd0       ?GetSubList@?$USBDeviceList@PBVUSBDeviceSI@@@@QBE?AV1@P6AHABQBVUSBDeviceSI@@@Z@Z 10028dd0 f i ant_lib:usb_device_handle_win.obj
 0001:00027f90       ??1?$USBDeviceList@PBVUSBDeviceLibusb@@@@UAE@XZ 10028f90 f i ant_lib:usb_device_handle_win.obj
 0001:00027fe0       ?GetSubList@?$USBDeviceList@PBVUSBDeviceLibusb@@@@QBE?AV1@P6AHABQBVUSBDeviceLibusb@@@Z@Z 10028fe0 f i ant_lib:usb_device_handle_win.obj
 0001:000281a0       ??$Add@PBVUSBDeviceLibusb@@@?$USBDeviceList@PBVUSBDevice@@@@QAEXABV?$USBDeviceList@PBVUSBDeviceLibusb@@@@@Z 100291a0 f i ant_lib:usb_device_handle_win.obj
 0001:000281a0       ??$Add@PBVUSBDeviceSI@@@?$USBDeviceList@PBVUSBDevice@@@@QAEXABV?$USBDeviceList@PBVUSBDeviceSI@@@@@Z 100291a0 f i ant_lib:usb_device_handle_win.obj
 0001:00028230       ??_E?$USBDeviceList@PBVUSBDeviceSI@@@@UAEPAXI@Z 10029230 f i  CIL library: CIL module
 0001:00028230       ??_G?$USBDeviceList@PBVUSBDeviceSI@@@@UAEPAXI@Z 10029230 f i ant_lib:usb_device_handle_win.obj
 0001:00028290       ??_E?$USBDeviceList@PBVUSBDeviceLibusb@@@@UAEPAXI@Z 10029290 f i  CIL library: CIL module
 0001:00028290       ??_G?$USBDeviceList@PBVUSBDeviceLibusb@@@@UAEPAXI@Z 10029290 f i ant_lib:usb_device_handle_win.obj
 0001:000282f0       ??0?$USBDeviceList@PBVUSBDeviceSI@@@@QAE@ABV0@@Z 100292f0 f i ant_lib:usb_device_handle_win.obj
 0001:00028350       ?Add@?$USBDeviceList@PBVUSBDeviceLibusb@@@@QAEXABQBVUSBDeviceLibusb@@@Z 10029350 f i ant_lib:usb_device_handle_win.obj
 0001:00028350       ?Add@?$USBDeviceList@PBVUSBDeviceSI@@@@QAEXABQBVUSBDeviceSI@@@Z 10029350 f i ant_lib:usb_device_handle_win.obj
 0001:000283b0       ?Clear@?$USBDeviceList@PBVUSBDevice@@@@QAEXXZ 100293b0 f i ant_lib:dsi_serial_generic.obj
 0001:000283b0       ?Clear@?$USBDeviceList@PBVUSBDeviceLibusb@@@@QAEXXZ 100293b0 f i ant_lib:usb_device_handle_win.obj
 0001:000283b0       ?Clear@?$USBDeviceList@PBVUSBDeviceSI@@@@QAEXXZ 100293b0 f i ant_lib:usb_device_handle_win.obj
 0001:00028400       ??A?$USBDeviceList@PBVUSBDeviceSI@@@@QBEABQBVUSBDeviceSI@@K@Z 10029400 f i ant_lib:usb_device_handle_win.obj
 0001:00028400       ??A?$USBDeviceList@PBVUSBDevice@@@@QBEABQBVUSBDevice@@K@Z 10029400 f i ant_lib:dsi_serial_generic.obj
 0001:00028400       ??A?$USBDeviceList@PBVUSBDeviceLibusb@@@@QBEABQBVUSBDeviceLibusb@@K@Z 10029400 f i ant_lib:usb_device_handle_win.obj
 0001:00028400       ??A?$USBDeviceList@$$CBVUSBDeviceSI@@@@QBEABVUSBDeviceSI@@K@Z 10029400 f i ant_lib:usb_device_handle_si.obj
 0001:00028400       ??A?$USBDeviceList@$$CBVUSBDeviceLibusb@@@@QBEABVUSBDeviceLibusb@@K@Z 10029400 f i ant_lib:usb_device_handle_libusb.obj
 0001:000284a0       ??0?$USBDeviceList@PBVUSBDeviceLibusb@@@@QAE@ABV0@@Z 100294a0 f i ant_lib:usb_device_handle_win.obj
 0001:00028500       ?insert@?$vector@PBVUSBDeviceLibusb@@V?$allocator@PBVUSBDeviceLibusb@@@std@@@std@@QAE?AV?$_Vector_iterator@PBVUSBDeviceLibusb@@V?$allocator@PBVUSBDeviceLibusb@@@std@@@2@V?$_Vector_const_iterator@PBVUSBDeviceLibusb@@V?$allocator@PBVUSBDeviceLibusb@@@std@@@2@ABQBVUSBDeviceLibusb@@@Z 10029500 f i ant_lib:usb_device_handle_libusb.obj
 0001:00028500       ?insert@?$vector@PAPBVUSBDeviceLibusb@@V?$allocator@PAPBVUSBDeviceLibusb@@@std@@@std@@QAE?AV?$_Vector_iterator@PAPBVUSBDeviceLibusb@@V?$allocator@PAPBVUSBDeviceLibusb@@@std@@@2@V?$_Vector_const_iterator@PAPBVUSBDeviceLibusb@@V?$allocator@PAPBVUSBDeviceLibusb@@@std@@@2@ABQAPBVUSBDeviceLibusb@@@Z 10029500 f i ant_lib:usb_device_handle_win.obj
 0001:00028500       ?insert@?$vector@PAPBVUSBDevice@@V?$allocator@PAPBVUSBDevice@@@std@@@std@@QAE?AV?$_Vector_iterator@PAPBVUSBDevice@@V?$allocator@PAPBVUSBDevice@@@std@@@2@V?$_Vector_const_iterator@PAPBVUSBDevice@@V?$allocator@PAPBVUSBDevice@@@std@@@2@ABQAPBVUSBDevice@@@Z 10029500 f i ant_lib:usb_device_handle_win.obj
 0001:00028500       ?insert@?$vector@PBVUSBDeviceSI@@V?$allocator@PBVUSBDeviceSI@@@std@@@std@@QAE?AV?$_Vector_iterator@PBVUSBDeviceSI@@V?$allocator@PBVUSBDeviceSI@@@std@@@2@V?$_Vector_const_iterator@PBVUSBDeviceSI@@V?$allocator@PBVUSBDeviceSI@@@std@@@2@ABQBVUSBDeviceSI@@@Z 10029500 f i ant_lib:usb_device_handle_si.obj
 0001:00028500       ?insert@?$vector@PAPBVUSBDeviceSI@@V?$allocator@PAPBVUSBDeviceSI@@@std@@@std@@QAE?AV?$_Vector_iterator@PAPBVUSBDeviceSI@@V?$allocator@PAPBVUSBDeviceSI@@@std@@@2@V?$_Vector_const_iterator@PAPBVUSBDeviceSI@@V?$allocator@PAPBVUSBDeviceSI@@@std@@@2@ABQAPBVUSBDeviceSI@@@Z 10029500 f i ant_lib:usb_device_handle_win.obj
 0001:000285c0       ?_Insert_n@?$vector@PBVUSBDeviceSI@@V?$allocator@PBVUSBDeviceSI@@@std@@@std@@IAEXV?$_Vector_const_iterator@PBVUSBDeviceSI@@V?$allocator@PBVUSBDeviceSI@@@std@@@2@IABQBVUSBDeviceSI@@@Z 100295c0 f i ant_lib:usb_device_handle_si.obj
 0001:000285c0       ?_Insert_n@?$vector@PAPBVUSBDeviceLibusb@@V?$allocator@PAPBVUSBDeviceLibusb@@@std@@@std@@IAEXV?$_Vector_const_iterator@PAPBVUSBDeviceLibusb@@V?$allocator@PAPBVUSBDeviceLibusb@@@std@@@2@IABQAPBVUSBDeviceLibusb@@@Z 100295c0 f i ant_lib:usb_device_handle_win.obj
 0001:000285c0       ?_Insert_n@?$vector@PBVUSBDeviceLibusb@@V?$allocator@PBVUSBDeviceLibusb@@@std@@@std@@IAEXV?$_Vector_const_iterator@PBVUSBDeviceLibusb@@V?$allocator@PBVUSBDeviceLibusb@@@std@@@2@IABQBVUSBDeviceLibusb@@@Z 100295c0 f i ant_lib:usb_device_handle_libusb.obj
 0001:000285c0       ?_Insert_n@?$vector@PAPBVUSBDevice@@V?$allocator@PAPBVUSBDevice@@@std@@@std@@IAEXV?$_Vector_const_iterator@PAPBVUSBDevice@@V?$allocator@PAPBVUSBDevice@@@std@@@2@IABQAPBVUSBDevice@@@Z 100295c0 f i ant_lib:usb_device_handle_win.obj
 0001:000285c0       ?_Insert_n@?$vector@PAPBVUSBDeviceSI@@V?$allocator@PAPBVUSBDeviceSI@@@std@@@std@@IAEXV?$_Vector_const_iterator@PAPBVUSBDeviceSI@@V?$allocator@PAPBVUSBDeviceSI@@@std@@@2@IABQAPBVUSBDeviceSI@@@Z 100295c0 f i ant_lib:usb_device_handle_win.obj
 0001:000287a0       ?_Ufill@?$vector@PBVUSBDeviceLibusb@@V?$allocator@PBVUSBDeviceLibusb@@@std@@@std@@IAEPAPBVUSBDeviceLibusb@@PAPBV3@IABQBV3@@Z 100297a0 f i ant_lib:usb_device_handle_libusb.obj
 0001:000287a0       ?_Ufill@?$vector@PAPBVUSBDeviceSI@@V?$allocator@PAPBVUSBDeviceSI@@@std@@@std@@IAEPAPAPBVUSBDeviceSI@@PAPAPBV3@IABQAPBV3@@Z 100297a0 f i ant_lib:usb_device_handle_win.obj
 0001:000287a0       ?_Ufill@?$vector@PBVUSBDeviceSI@@V?$allocator@PBVUSBDeviceSI@@@std@@@std@@IAEPAPBVUSBDeviceSI@@PAPBV3@IABQBV3@@Z 100297a0 f i ant_lib:usb_device_handle_si.obj
 0001:000287a0       ?_Ufill@?$vector@PAPBVUSBDevice@@V?$allocator@PAPBVUSBDevice@@@std@@@std@@IAEPAPAPBVUSBDevice@@PAPAPBV3@IABQAPBV3@@Z 100297a0 f i ant_lib:usb_device_handle_win.obj
 0001:000287a0       ?_Ufill@?$vector@PAPBVUSBDeviceLibusb@@V?$allocator@PAPBVUSBDeviceLibusb@@@std@@@std@@IAEPAPAPBVUSBDeviceLibusb@@PAPAPBV3@IABQAPBV3@@Z 100297a0 f i ant_lib:usb_device_handle_win.obj
 0001:000287d0       ??$Add@PBVUSBDeviceLibusb@@@?$USBDeviceList@PBVUSBDeviceLibusb@@@@QAEXABV0@@Z 100297d0 f i ant_lib:usb_device_handle_win.obj
 0001:000287d0       ??$Add@PBVUSBDeviceSI@@@?$USBDeviceList@PBVUSBDeviceSI@@@@QAEXABV0@@Z 100297d0 f i ant_lib:usb_device_handle_win.obj
 0001:00028860       ??0_TASK_PROP@@QAE@KPAE0@Z 10029860 f i ant_lib:dsi_debug.obj
 0001:000288d0       ?ThreadInit@DSIDebug@@SAHPBD@Z 100298d0 f   ant_lib:dsi_debug.obj
 0001:00028a20       ?ThreadWrite@DSIDebug@@SAHPBD@Z 10029a20 f   ant_lib:dsi_debug.obj
 0001:00028b50       ?ThreadEnable@DSIDebug@@SAHH@Z 10029b50 f   ant_lib:dsi_debug.obj
 0001:00028bb0       ?SerialWrite@DSIDebug@@SAHEPBDPAEG@Z 10029bb0 f   ant_lib:dsi_debug.obj
 0001:00028e70       ?FindThreadNum@@YAHPAE@Z   10029e70 f   ant_lib:dsi_debug.obj
 0001:00028eb0       ??0Buffer@@QAE@PAE0@Z      10029eb0 f   ant_lib:dsi_debug.obj
 0001:00028f90       ?Add@Buffer@@QAEHPAEK@Z    10029f90 f   ant_lib:dsi_debug.obj
 0001:00029110       ?Flush@Buffer@@AAEHXZ      1002a110 f   ant_lib:dsi_debug.obj
 0001:00029240       ?GetPercentFull@Buffer@@AAEEXZ 1002a240 f   ant_lib:dsi_debug.obj
 0001:000292a0       ?SignalFlush@Buffer@@AAEXXZ 1002a2a0 f   ant_lib:dsi_debug.obj
 0001:00029300       ?WriteThread@Buffer@@AAEXXZ 1002a300 f   ant_lib:dsi_debug.obj
 0001:000293c0       ?StartWriteThread@Buffer@@CAPAXPAX@Z 1002a3c0 f   ant_lib:dsi_debug.obj
 0001:000293e0       ??_EDSISerialCallback@@UAEPAXI@Z 1002a3e0 f i  CIL library: CIL module
 0001:000293e0       ??_GDSISerialCallback@@UAEPAXI@Z 1002a3e0 f i ant_lib:dsi_framer.obj
 0001:00029400       ??1DSIFramer@@UAE@XZ       1002a400 f   ant_lib:dsi_framer.obj
 0001:00029410       ??1USBDevice@@UAE@XZ       1002a410 f i ant_lib:usb_device_si.obj
 0001:00029420       ?GetVid@USBDeviceSI@@UBEGXZ 1002a420 f i ant_lib:usb_device_si.obj
 0001:00029430       ?GetDeviceType@USBDeviceSI@@UBE?AW4Enum@DeviceType@@XZ 1002a430 f i ant_lib:usb_device_si.obj
 0001:00029430       ?getNextRecord@dataSource@@UAEHXZ 1002a430 f i tlib:datasource.obj
 0001:00029440       ??0USBDeviceSI@@QAE@E@Z    1002a440 f   ant_lib:usb_device_si.obj
 0001:000295d0       ??0USBDeviceSI@@QAE@ABV0@@Z 1002a5d0 f   ant_lib:usb_device_si.obj
 0001:00029680       ?USBReset@USBDeviceSI@@UBEHXZ 1002a680 f   ant_lib:usb_device_si.obj
 0001:000296e0       ??1?$auto_ptr@$$CBVLibusbLibrary@@@std@@QAE@XZ 1002a6e0 f i ant_lib:usb_device_libusb.obj
 0001:000296e0       ??1?$auto_ptr@$$CBVSiLabsLibrary@@@std@@QAE@XZ 1002a6e0 f i ant_lib:usb_device_si.obj
 0001:000296f0       ??1USBDeviceHandle@@MAE@XZ 1002a6f0 f i ant_lib:usb_device_handle_si.obj
 0001:00029700       ??_GUSBDeviceHandle@@MAEPAXI@Z 1002a700 f i ant_lib:usb_device_handle_si.obj
 0001:00029700       ??_EUSBDeviceHandle@@MAEPAXI@Z 1002a700 f i  CIL library: CIL module
 0001:00029720       ?GetDevice@USBDeviceHandleSI@@UAEABVUSBDevice@@XZ 1002a720 f i ant_lib:usb_device_handle_si.obj
 0001:00029730       ?GetAllDevices@USBDeviceHandleSI@@SA?BV?$USBDeviceList@PBVUSBDeviceSI@@@@XZ 1002a730 f   ant_lib:usb_device_handle_si.obj
 0001:00029960       ?CanOpenDevice@@YAHABQBVUSBDeviceSI@@@Z 1002a960 f   ant_lib:usb_device_handle_si.obj
 0001:00029980       ?GetAvailableDevices@USBDeviceHandleSI@@SA?BV?$USBDeviceList@PBVUSBDeviceSI@@@@XZ 1002a980 f   ant_lib:usb_device_handle_si.obj
 0001:00029a20       ??0USBDeviceHandleSI@@IAE@ABVUSBDeviceSI@@K@Z 1002aa20 f   ant_lib:usb_device_handle_si.obj
 0001:00029b20       ??1USBDeviceHandleSI@@MAE@XZ 1002ab20 f   ant_lib:usb_device_handle_si.obj
 0001:00029bc0       ??_EUSBDeviceHandleSI@@MAEPAXI@Z 1002abc0 f i  CIL library: CIL module
 0001:00029bc0       ??_GUSBDeviceHandleSI@@MAEPAXI@Z 1002abc0 f i ant_lib:usb_device_handle_si.obj
 0001:00029be0       ?TryOpen@USBDeviceHandleSI@@SAHABVUSBDeviceSI@@@Z 1002abe0 f   ant_lib:usb_device_handle_si.obj
 0001:00029cd0       ?Open@USBDeviceHandleSI@@SAHABVUSBDeviceSI@@AAPAV1@K@Z 1002acd0 f   ant_lib:usb_device_handle_si.obj
 0001:00029d90       ?POpen@USBDeviceHandleSI@@AAEHXZ 1002ad90 f   ant_lib:usb_device_handle_si.obj
 0001:00029f00       ?PClose@USBDeviceHandleSI@@AAEXH@Z 1002af00 f   ant_lib:usb_device_handle_si.obj
 0001:0002a040       ?Write@USBDeviceHandleSI@@UAE?AW4Enum@USBError@@PAXKAAK@Z 1002b040 f   ant_lib:usb_device_handle_si.obj
 0001:0002a0a0       ?Read@USBDeviceHandleSI@@UAE?AW4Enum@USBError@@PAXKAAKK@Z 1002b0a0 f   ant_lib:usb_device_handle_si.obj
 0001:0002a0e0       ?ReceiveThread@USBDeviceHandleSI@@AAEXXZ 1002b0e0 f   ant_lib:usb_device_handle_si.obj
 0001:0002a2b0       ?ProcessThread@USBDeviceHandleSI@@CAPAXPAX@Z 1002b2b0 f   ant_lib:usb_device_handle_si.obj
 0001:0002a2c0       ?DeviceIsGone@USBDeviceHandleSI@@AAEHXZ 1002b2c0 f   ant_lib:usb_device_handle_si.obj
 0001:0002a340       ??0?$TSQueue@DV?$deque@DV?$allocator@D@std@@@std@@@@QAE@XZ 1002b340 f i ant_lib:usb_device_handle_si.obj
 0001:0002a3e0       ??1?$TSQueue@DV?$deque@DV?$allocator@D@std@@@std@@@@QAE@XZ 1002b3e0 f i ant_lib:usb_device_handle_si.obj
 0001:0002a450       ?Push@?$TSQueue@DV?$deque@DV?$allocator@D@std@@@std@@@@QAEXABD@Z 1002b450 f i ant_lib:usb_device_handle_si.obj
 0001:0002a4b0       ?PopArray@?$TSQueue@DV?$deque@DV?$allocator@D@std@@@std@@@@QAEKQADKK@Z 1002b4b0 f i ant_lib:usb_device_handle_si.obj
 0001:0002a5b0       ??1?$queue@DV?$deque@DV?$allocator@D@std@@@std@@@std@@QAE@XZ 1002b5b0 f i ant_lib:usb_device_handle_si.obj
 0001:0002a600       ??_E?$USBDeviceList@$$CBVUSBDeviceSI@@@@UAEPAXI@Z 1002b600 f i  CIL library: CIL module
 0001:0002a600       ??_G?$USBDeviceList@$$CBVUSBDeviceSI@@@@UAEPAXI@Z 1002b600 f i ant_lib:usb_device_handle_si.obj
 0001:0002a620       ?push_back@?$deque@DV?$allocator@D@std@@@std@@QAEXABD@Z 1002b620 f i ant_lib:usb_device_handle_si.obj
 0001:0002a6a0       ?_Tidy@?$deque@DV?$allocator@D@std@@@std@@IAEXXZ 1002b6a0 f i ant_lib:usb_device_handle_si.obj
 0001:0002a730       ?_Growmap@?$deque@DV?$allocator@D@std@@@std@@IAEXI@Z 1002b730 f i ant_lib:usb_device_handle_si.obj
 0001:0002a730       ?_Growmap@?$deque@EV?$allocator@E@std@@@std@@IAEXI@Z 1002b730 f i ant_lib:usb_device_handle_libusb.obj
 0001:0002a890       ?_Xlen@?$deque@EV?$allocator@E@std@@@std@@KAXXZ 1002b890 f i ant_lib:usb_device_handle_libusb.obj
 0001:0002a890       ?_Xlen@?$deque@DV?$allocator@D@std@@@std@@KAXXZ 1002b890 f i ant_lib:usb_device_handle_si.obj
 0001:0002a8f0       ?allocate@?$allocator@PBVUSBDeviceSI@@@std@@QAEPAPBVUSBDeviceSI@@I@Z 1002b8f0 f i ant_lib:usb_device_handle_si.obj
 0001:0002a8f0       ?allocate@?$allocator@PAPBVUSBDeviceSI@@@std@@QAEPAPAPBVUSBDeviceSI@@I@Z 1002b8f0 f i ant_lib:usb_device_handle_win.obj
 0001:0002a8f0       ?allocate@?$allocator@PAUTCRF@@@std@@QAEPAPAUTCRF@@I@Z 1002b8f0 f i glib:crf.obj
 0001:0002a8f0       ?allocate@?$allocator@PAD@std@@QAEPAPADI@Z 1002b8f0 f i ant_lib:usb_device_handle_si.obj
 0001:0002a8f0       ?allocate@?$allocator@M@std@@QAEPAMI@Z 1002b8f0 f i tlib:rtd.obj
 0001:0002a8f0       ?allocate@?$allocator@PAPBVUSBDeviceLibusb@@@std@@QAEPAPAPBVUSBDeviceLibusb@@I@Z 1002b8f0 f i ant_lib:usb_device_handle_win.obj
 0001:0002a8f0       ?allocate@?$allocator@PBVUSBDeviceLibusb@@@std@@QAEPAPBVUSBDeviceLibusb@@I@Z 1002b8f0 f i ant_lib:usb_device_handle_libusb.obj
 0001:0002a8f0       ?allocate@?$allocator@PAPBVUSBDevice@@@std@@QAEPAPAPBVUSBDevice@@I@Z 1002b8f0 f i ant_lib:usb_device_handle_win.obj
 0001:0002a8f0       ?allocate@?$allocator@PAE@std@@QAEPAPAEI@Z 1002b8f0 f i ant_lib:usb_device_handle_libusb.obj
 0001:0002a950       ??1?$USBDeviceList@$$CBVUSBDeviceSI@@@@UAE@XZ 1002b950 f i ant_lib:usb_device_handle_si.obj
 0001:0002a9d0       ?Add@?$USBDeviceList@$$CBVUSBDeviceSI@@@@QAEXABVUSBDeviceSI@@@Z 1002b9d0 f i ant_lib:usb_device_handle_si.obj
 0001:0002aa80       ?GetAddress@?$USBDeviceList@$$CBVUSBDeviceSI@@@@QBEPBVUSBDeviceSI@@K@Z 1002ba80 f i ant_lib:usb_device_handle_si.obj
 0001:0002ab30       ?Clear@?$USBDeviceList@$$CBVUSBDeviceLibusb@@@@QAEXXZ 1002bb30 f i ant_lib:usb_device_handle_libusb.obj
 0001:0002ab30       ?Clear@?$USBDeviceList@$$CBVUSBDeviceSI@@@@QAEXXZ 1002bb30 f i ant_lib:usb_device_handle_si.obj
 0001:0002ab90       ??$Add@$$CBVUSBDeviceSI@@@?$USBDeviceList@$$CBVUSBDeviceSI@@@@QAEXABV0@@Z 1002bb90 f i ant_lib:usb_device_handle_si.obj
 0001:0002abc0       ?GetPid@USBDeviceSI@@UBEGXZ 1002bbc0 f i ant_lib:usb_device_si.obj
 0001:0002abc0       ?GetVid@USBDeviceLibusb@@UBEGXZ 1002bbc0 f i ant_lib:usb_device_libusb.obj
 0001:0002abd0       ?GetPid@USBDeviceLibusb@@UBEGXZ 1002bbd0 f i ant_lib:usb_device_libusb.obj
 0001:0002abe0       ?GetSerialNumber@USBDeviceLibusb@@UBEKXZ 1002bbe0 f i ant_lib:usb_device_libusb.obj
 0001:0002abe0       ?GetSerialNumber@USBDeviceSI@@UBEKXZ 1002bbe0 f i ant_lib:usb_device_si.obj
 0001:0002abf0       ?GetDeviceType@USBDeviceLibusb@@UBE?AW4Enum@DeviceType@@XZ 1002bbf0 f i ant_lib:usb_device_libusb.obj
 0001:0002ac00       ??0USBDeviceLibusb@@QAE@AAUusb_device@@@Z 1002bc00 f   ant_lib:usb_device_libusb.obj
 0001:0002ad50       ??_GUSBDeviceLibusb@@UAEPAXI@Z 1002bd50 f i ant_lib:usb_device_libusb.obj
 0001:0002ad50       ??_EUSBDevice@@UAEPAXI@Z   1002bd50 f i  CIL library: CIL module
 0001:0002ad50       ??_EUSBDeviceLibusb@@UAEPAXI@Z 1002bd50 f i  CIL library: CIL module
 0001:0002ad50       ??_GUSBDevice@@UAEPAXI@Z   1002bd50 f i ant_lib:usb_device_si.obj
 0001:0002ad50       ??_GUSBDeviceSI@@UAEPAXI@Z 1002bd50 f i ant_lib:usb_device_si.obj
 0001:0002ad50       ??_EUSBDeviceSI@@UAEPAXI@Z 1002bd50 f i  CIL library: CIL module
 0001:0002ad70       ??1USBDeviceLibusb@@UAE@XZ 1002bd70 f i ant_lib:usb_device_libusb.obj
 0001:0002ad70       ??1USBDeviceSI@@UAE@XZ     1002bd70 f i ant_lib:usb_device_si.obj
 0001:0002ad80       ??0USBDeviceLibusb@@QAE@ABV0@@Z 1002bd80 f   ant_lib:usb_device_libusb.obj
 0001:0002ae40       ?USBReset@USBDeviceLibusb@@UBEHXZ 1002be40 f   ant_lib:usb_device_libusb.obj
 0001:0002aea0       ?GetProductDescription@USBDeviceLibusb@@UBEHPAEG@Z 1002bea0 f   ant_lib:usb_device_libusb.obj
 0001:0002aea0       ?GetProductDescription@USBDeviceSI@@UBEHPAEG@Z 1002bea0 f   ant_lib:usb_device_si.obj
 0001:0002aee0       ?GetSerialString@USBDeviceLibusb@@UBEHPAEG@Z 1002bee0 f   ant_lib:usb_device_libusb.obj
 0001:0002aee0       ?GetSerialString@USBDeviceSI@@UBEHPAEG@Z 1002bee0 f   ant_lib:usb_device_si.obj
 0001:0002af30       ?GetDevice@USBDeviceHandleLibusb@@UAEABVUSBDevice@@XZ 1002bf30 f i ant_lib:usb_device_handle_libusb.obj
 0001:0002af40       ?CanOpenDevice@@YAHABQBVUSBDeviceLibusb@@@Z 1002bf40 f   ant_lib:usb_device_handle_libusb.obj
 0001:0002af60       ?GetAllDevices@USBDeviceHandleLibusb@@SA?BV?$USBDeviceList@PBVUSBDeviceLibusb@@@@XZ 1002bf60 f   ant_lib:usb_device_handle_libusb.obj
 0001:0002b200       ?GetAvailableDevices@USBDeviceHandleLibusb@@SA?BV?$USBDeviceList@PBVUSBDeviceLibusb@@@@XZ 1002c200 f   ant_lib:usb_device_handle_libusb.obj
 0001:0002b2a0       ?Open@USBDeviceHandleLibusb@@SAHABVUSBDeviceLibusb@@AAPAV1@@Z 1002c2a0 f   ant_lib:usb_device_handle_libusb.obj
 0001:0002b360       ?TryOpen@USBDeviceHandleLibusb@@SAHABVUSBDeviceLibusb@@@Z 1002c360 f   ant_lib:usb_device_handle_libusb.obj
 0001:0002b4d0       ??0USBDeviceHandleLibusb@@IAE@ABVUSBDeviceLibusb@@@Z 1002c4d0 f   ant_lib:usb_device_handle_libusb.obj
 0001:0002b5a0       ??1USBDeviceHandleLibusb@@MAE@XZ 1002c5a0 f   ant_lib:usb_device_handle_libusb.obj
 0001:0002b620       ??_EUSBDeviceHandleLibusb@@MAEPAXI@Z 1002c620 f i  CIL library: CIL module
 0001:0002b620       ??_GUSBDeviceHandleLibusb@@MAEPAXI@Z 1002c620 f i ant_lib:usb_device_handle_libusb.obj
 0001:0002b640       ?POpen@USBDeviceHandleLibusb@@AAEHXZ 1002c640 f   ant_lib:usb_device_handle_libusb.obj
 0001:0002b720       ?PClose@USBDeviceHandleLibusb@@AAEXH@Z 1002c720 f   ant_lib:usb_device_handle_libusb.obj
 0001:0002b820       ?Write@USBDeviceHandleLibusb@@UAE?AW4Enum@USBError@@PAXKAAK@Z 1002c820 f   ant_lib:usb_device_handle_libusb.obj
 0001:0002b880       ?Read@USBDeviceHandleLibusb@@UAE?AW4Enum@USBError@@PAXKAAKK@Z 1002c880 f   ant_lib:usb_device_handle_libusb.obj
 0001:0002b8c0       ?ReceiveThread@USBDeviceHandleLibusb@@AAEXXZ 1002c8c0 f   ant_lib:usb_device_handle_libusb.obj
 0001:0002bbc0       ?ProcessThread@USBDeviceHandleLibusb@@CAPAXPAX@Z 1002cbc0 f   ant_lib:usb_device_handle_libusb.obj
 0001:0002bbd0       ??0?$TSQueue@EV?$deque@EV?$allocator@E@std@@@std@@@@QAE@XZ 1002cbd0 f i ant_lib:usb_device_handle_libusb.obj
 0001:0002bc70       ??1?$TSQueue@EV?$deque@EV?$allocator@E@std@@@std@@@@QAE@XZ 1002cc70 f i ant_lib:usb_device_handle_libusb.obj
 0001:0002bce0       ?PushArray@?$TSQueue@EV?$deque@EV?$allocator@E@std@@@std@@@@QAEXQAEK@Z 1002cce0 f i ant_lib:usb_device_handle_libusb.obj
 0001:0002bdc0       ?PopArray@?$TSQueue@EV?$deque@EV?$allocator@E@std@@@std@@@@QAEKQAEKK@Z 1002cdc0 f i ant_lib:usb_device_handle_libusb.obj
 0001:0002beb0       ??1?$queue@EV?$deque@EV?$allocator@E@std@@@std@@@std@@QAE@XZ 1002ceb0 f i ant_lib:usb_device_handle_libusb.obj
 0001:0002bed0       ??_E?$USBDeviceList@$$CBVUSBDeviceLibusb@@@@UAEPAXI@Z 1002ced0 f i  CIL library: CIL module
 0001:0002bed0       ??_G?$USBDeviceList@$$CBVUSBDeviceLibusb@@@@UAEPAXI@Z 1002ced0 f i ant_lib:usb_device_handle_libusb.obj
 0001:0002bef0       ??0?$vector@PAPBVUSBDeviceSI@@V?$allocator@PAPBVUSBDeviceSI@@@std@@@std@@QAE@XZ 1002cef0 f i ant_lib:usb_device_handle_win.obj
 0001:0002bef0       ??0?$vector@PBVUSBDeviceLibusb@@V?$allocator@PBVUSBDeviceLibusb@@@std@@@std@@QAE@XZ 1002cef0 f i ant_lib:usb_device_handle_libusb.obj
 0001:0002bef0       ??0?$vector@PAPBVUSBDevice@@V?$allocator@PAPBVUSBDevice@@@std@@@std@@QAE@XZ 1002cef0 f i ant_lib:usb_device_handle_win.obj
 0001:0002bef0       ??0?$vector@USEC@@V?$allocator@USEC@@@std@@@std@@QAE@XZ 1002cef0 f i tlib:rtd.obj
 0001:0002bef0       ??0?$vector@UNode@RMP@@V?$allocator@UNode@RMP@@@std@@@std@@QAE@XZ 1002cef0 f i tlib:rmp.obj
 0001:0002bef0       ??0?$vector@PBVUSBDeviceSI@@V?$allocator@PBVUSBDeviceSI@@@std@@@std@@QAE@XZ 1002cef0 f i ant_lib:usb_device_handle_si.obj
 0001:0002bef0       ??0?$vector@PAPBVUSBDeviceLibusb@@V?$allocator@PAPBVUSBDeviceLibusb@@@std@@@std@@QAE@XZ 1002cef0 f i ant_lib:usb_device_handle_win.obj
 0001:0002bef0       ??0?$vector@UFPOINT@@V?$allocator@UFPOINT@@@std@@@std@@QAE@XZ 1002cef0 f i tlib:performance.obj
 0001:0002bef0       ??0?$vector@MV?$allocator@M@std@@@std@@QAE@XZ 1002cef0 f i tlib:rtd.obj
 0001:0002bf50       ?_Tidy@?$deque@EV?$allocator@E@std@@@std@@IAEXXZ 1002cf50 f i ant_lib:usb_device_handle_libusb.obj
 0001:0002bfb0       ??D?$_Deque_const_iterator@EV?$allocator@E@std@@$00@std@@QBEABEXZ 1002cfb0 f i ant_lib:usb_device_handle_libusb.obj
 0001:0002bfb0       ??D?$_Deque_const_iterator@DV?$allocator@D@std@@$00@std@@QBEABDXZ 1002cfb0 f i ant_lib:usb_device_handle_si.obj
 0001:0002c040       ??1?$USBDeviceList@$$CBVUSBDeviceLibusb@@@@UAE@XZ 1002d040 f i ant_lib:usb_device_handle_libusb.obj
 0001:0002c0c0       ?Add@?$USBDeviceList@$$CBVUSBDeviceLibusb@@@@QAEXABVUSBDeviceLibusb@@@Z 1002d0c0 f i ant_lib:usb_device_handle_libusb.obj
 0001:0002c170       ?GetAddress@?$USBDeviceList@$$CBVUSBDeviceLibusb@@@@QBEPBVUSBDeviceLibusb@@K@Z 1002d170 f i ant_lib:usb_device_handle_libusb.obj
 0001:0002c220       ??$Add@$$CBVUSBDeviceLibusb@@@?$USBDeviceList@$$CBVUSBDeviceLibusb@@@@QAEXABV0@@Z 1002d220 f i ant_lib:usb_device_handle_libusb.obj
 0001:0002c250       ??$_Umove@PAPAPBVUSBDeviceSI@@@?$vector@PAPBVUSBDeviceSI@@V?$allocator@PAPBVUSBDeviceSI@@@std@@@std@@IAEPAPAPBVUSBDeviceSI@@PAPAPBV2@00@Z 1002d250 f i ant_lib:usb_device_handle_win.obj
 0001:0002c250       ??$_Umove@PAM@?$vector@MV?$allocator@M@std@@@std@@IAEPAMPAM00@Z 1002d250 f i tlib:computrainer.obj
 0001:0002c250       ??$_Umove@PAPAPBVUSBDeviceLibusb@@@?$vector@PAPBVUSBDeviceLibusb@@V?$allocator@PAPBVUSBDeviceLibusb@@@std@@@std@@IAEPAPAPBVUSBDeviceLibusb@@PAPAPBV2@00@Z 1002d250 f i ant_lib:usb_device_handle_win.obj
 0001:0002c250       ??$_Umove@PAPBVUSBDeviceSI@@@?$vector@PBVUSBDeviceSI@@V?$allocator@PBVUSBDeviceSI@@@std@@@std@@IAEPAPBVUSBDeviceSI@@PAPBV2@00@Z 1002d250 f i ant_lib:usb_device_handle_si.obj
 0001:0002c250       ??$_Umove@PAPBVUSBDeviceLibusb@@@?$vector@PBVUSBDeviceLibusb@@V?$allocator@PBVUSBDeviceLibusb@@@std@@@std@@IAEPAPBVUSBDeviceLibusb@@PAPBV2@00@Z 1002d250 f i ant_lib:usb_device_handle_libusb.obj
 0001:0002c250       ??$_Umove@PAPAPBVUSBDevice@@@?$vector@PAPBVUSBDevice@@V?$allocator@PAPBVUSBDevice@@@std@@@std@@IAEPAPAPBVUSBDevice@@PAPAPBV2@00@Z 1002d250 f i ant_lib:usb_device_handle_win.obj
 0001:0002c280       ?Load@SiLabsLibrary@@SAHAAV?$auto_ptr@$$CBVSiLabsLibrary@@@std@@@Z 1002d280 f   ant_lib:dsi_silabs_library.obj
 0001:0002c340       ??0SiLabsLibrary@@QAE@XZ   1002d340 f   ant_lib:dsi_silabs_library.obj
 0001:0002c440       ??_ESiLabsLibrary@@UAEPAXI@Z 1002d440 f i  CIL library: CIL module
 0001:0002c440       ??_GSiLabsLibrary@@UAEPAXI@Z 1002d440 f i ant_lib:dsi_silabs_library.obj
 0001:0002c480       ??1SiLabsLibrary@@UAE@XZ   1002d480 f   ant_lib:dsi_silabs_library.obj
 0001:0002c4a0       ?LoadFunctions@SiLabsLibrary@@AAE?AW4Enum@SiLabsError@@XZ 1002d4a0 f   ant_lib:dsi_silabs_library.obj
 0001:0002c5f0       ??0CMLibrary@@QAE@XZ       1002d5f0 f   ant_lib:dsi_cm_library.obj
 0001:0002c6e0       ??_ECMLibrary@@UAEPAXI@Z   1002d6e0 f i  CIL library: CIL module
 0001:0002c6e0       ??_GCMLibrary@@UAEPAXI@Z   1002d6e0 f i ant_lib:dsi_cm_library.obj
 0001:0002c720       ??1CMLibrary@@UAE@XZ       1002d720 f   ant_lib:dsi_cm_library.obj
 0001:0002c740       ?LoadFunctions@CMLibrary@@AAE?AW4Enum@CMError@@XZ 1002d740 f   ant_lib:dsi_cm_library.obj
 0001:0002c7f0       ?Load@LibusbLibrary@@SAHAAV?$auto_ptr@$$CBVLibusbLibrary@@@std@@@Z 1002d7f0 f   ant_lib:dsi_libusb_library.obj
 0001:0002c8b0       ??0LibusbLibrary@@QAE@XZ   1002d8b0 f   ant_lib:dsi_libusb_library.obj
 0001:0002c9d0       ??_GLibusbLibrary@@UAEPAXI@Z 1002d9d0 f i ant_lib:dsi_libusb_library.obj
 0001:0002c9d0       ??_ELibusbLibrary@@UAEPAXI@Z 1002d9d0 f i  CIL library: CIL module
 0001:0002ca10       ??1LibusbLibrary@@UAE@XZ   1002da10 f   ant_lib:dsi_libusb_library.obj
 0001:0002ca30       ?LoadFunctions@LibusbLibrary@@AAE?AW4Enum@LibusbError@@XZ 1002da30 f   ant_lib:dsi_libusb_library.obj
 0001:0002cc20       _x57d4e6345c7eca5164a0ed125b0a7947 1002dc20 f   dll.obj
 0001:0002cc30       _x77ae24db08410418b007f2f78197b12f 1002dc30 f   dll.obj
 0001:0002cc40       ??1DEVICE@@QAE@XZ          1002dc40 f i dll.obj
 0001:0002cc50       _xdc58940a269093ef4f3b24b198d4f5cd 1002dc50 f   dll.obj
 0001:0002cc90       _xd88900273b45f82781a39d724d6a0155 1002dc90 f   dll.obj
 0001:0002ccc0       _xdd0a789ee158e3f3cc2af3a6c2c27bfa 1002dcc0 f i dll.obj
 0001:0002cd20       _xf03c385eb37d7ec91949d131f8151067 1002dd20 f i dll.obj
 0001:0002cd40       _x11e0d99d8b3db35c8c9c143c7e4604eb 1002dd40 f i dll.obj
 0001:0002cda0       _x95a11b34b4272974c3080293ceb2d706 1002dda0 f   dll.obj
 0001:0002ce10       _xeef3cffd0410c6adf570e602cc190497 1002de10 f   dll.obj
 0001:0002ce60       _xbe6cdadfa51b89ea48e8847cb65682a0 1002de60 f i dll.obj
 0001:0002cf60       _x07d4ba4cbf768356c8e7a487c0ac8620 1002df60 f   dll.obj
 0001:0002cfa0       _xb87a4e56c4cd11a1c169ffacb57a4953 1002dfa0 f   dll.obj
 0001:0002d010       _x81f88c857ac37f0db9992bf6b3cc118e 1002e010 f   dll.obj
 0001:0002d040       _x720de7788bf90a8cff74e683633c97e3 1002e040 f   dll.obj
 0001:0002d150       _x7223a05782894100c28046fe70e8f80d 1002e150 f   dll.obj
 0001:0002d190       _xf2dcb410127d9fb73f8d7ece38f484d3 1002e190 f   dll.obj
 0001:0002d1c0       _xc5d2185cd957432a236590dff37b698f 1002e1c0 f i dll.obj
 0001:0002d1e0       _x3d32f489c08b5fbb1d8987d798be96ee 1002e1e0 f i dll.obj
 0001:0002d230       _x93fe436d52bee5eb1c4f760618a86f1d 1002e230 f   dll.obj
 0001:0002d260       _x4c7ff5b24822d1b052932681e21078c8 1002e260 f   dll.obj
 0001:0002d290       _xe815ad58306a19844849ee0cf9f3423e 1002e290 f   dll.obj
 0001:0002d2d0       ??0RIDER_DATA@@QAE@ABV0@@Z 1002e2d0 f i dll.obj
 0001:0002d3a0       ??4DEVICE@@QAEAAU0@ABU0@@Z 1002e3a0 f i dll.obj
 0001:0002d470       _x2e5184f2acbfbf02e412b63f9c437a2b 1002e470 f   dll.obj
 0001:0002d560       _xf3caa7adf283cef08bf50e2817dbd1fa 1002e560 f   dll.obj
 0001:0002d680       _x010fb505c40bbb260c9bf6a981018cfb 1002e680 f   dll.obj
 0001:0002dd50       _xead20f21bf8a0c75768469ae3c81899f 1002ed50 f   dll.obj
 0001:0002ddc0       _xe44f5940639d19c7d75af4cc50f52627 1002edc0 f   dll.obj
 0001:0002df60       _xf6ff6978145da30507d7273b30d57048 1002ef60 f   dll.obj
 0001:0002e090       _x52eb2146582e00a11868691a63684ce8 1002f090 f   dll.obj
 0001:0002e230       _xcb05602f8585015d427f8bc21aa04dd2 1002f230 f   dll.obj
 0001:0002e5e0       _x3a7d4fd38f0687e5896e1d50efeb698e 1002f5e0 f   dll.obj
 0001:0002e670       _x4cd79449513da2a2d6cc6d7261ea71ff 1002f670 f   dll.obj
 0001:0002e710       _x6b7fe11c2bdf03a307fc4b89f0aa6849 1002f710 f   dll.obj
 0001:0002e7d0       _xc1f918211cf81d12231e306ec1a3401e 1002f7d0 f   dll.obj
 0001:0002e8c0       _xc5388f539055d3f170a8b7ec914e1246 1002f8c0 f   dll.obj
 0001:0002e8e0       _x40557f2e2f33d3fbcbbf35d798d09a75 1002f8e0 f   dll.obj
 0001:0002e990       ??0DEVICE@@QAE@XZ          1002f990 f i dll_globals.obj
 0001:0002e9a0       ?stop@EV@@QAEXXZ           1002f9a0 f   ev.obj
 0001:0002ea70       ?set_watts@EV@@QAEHM@Z     1002fa70 f   ev.obj
 0001:0002ea90       ?reset@EV@@QAEHXZ          1002fa90 f   ev.obj
 0001:0002eac0       ?reset_averages@EV@@QAEHXZ 1002fac0 f   ev.obj
 0001:0002eae0       ?set_wind_x@EV@@QAEHM@Z    1002fae0 f   ev.obj
 0001:0002eb10       ?set_draft_wind_x@EV@@QAEHM@Z 1002fb10 f   ev.obj
 0001:0002eb40       ?set_slope@EV@@QAEHMMHM@Z  1002fb40 f   ev.obj
 0001:0002ec50       ?set_hr_bounds_x@EV@@QAEHHH_N@Z 1002fc50 f   ev.obj
 0001:0002ec90       ?set_ftp_x@EV@@QAEHM@Z     1002fc90 f   ev.obj
 0001:0002ecb0       ?get_keys@EV@@QAEHXZ       1002fcb0 f   ev.obj
 0001:0002ecc0       ?myread@EV@@QAEPAUTrainerData@@XZ 1002fcc0 f   ev.obj
 0001:0002edb0       ?fastread@EV@@QAEPAUTrainerData@@XZ 1002fdb0 f   ev.obj
 0001:0002ee80       ?set_paused@EV@@QAEH_N@Z   1002fe80 f   ev.obj
 0001:0002eeb0       ?threadProc@EV@@CAXPAX@Z   1002feb0 f   ev.obj
 0001:0002ef70       ?get_gear_pair@EV@@QAE?AUGEARPAIR@Bike@@XZ 1002ff70 f   ev.obj
 0001:0002efb0       ?keydownfunc@EV@@SAXPAXHH@Z 1002ffb0 f   ev.obj
 0001:0002f0d0       ?keyupfunc@EV@@SAXPAXHH@Z  100300d0 f   ev.obj
 0001:0002f1e0       ?set_gear@EV@@QAEHHH@Z     100301e0 f   ev.obj
 0001:0002f200       ?get_bars_x@EV@@QAEPAMXZ   10030200 f   ev.obj
 0001:0002f210       ?get_average_bars_x@EV@@QAEPAMXZ 10030210 f   ev.obj
 0001:0002f230       ?read_ss@EV@@QAEPAUSSDATA@@XZ 10030230 f   ev.obj
 0001:0002f290       ?TimerProc@EV@@CGXIIKKK@Z  10030290 f   ev.obj
 0001:0002f2d0       ?start_cal@EV@@QAEHXZ      100302d0 f   ev.obj
 0001:0002f2f0       ?end_cal@EV@@QAEHE@Z       100302f0 f   ev.obj
 0001:0002f310       ?send_current@EV@@QAEHG@Z  10030310 f   ev.obj
 0001:0002f330       ?get_computrainer_cal@EV@@QAEPBDXZ 10030330 f   ev.obj
 0001:0002f440       ?start@EV@@QAEX_N@Z        10030440 f   ev.obj
 0001:0002f460       ?set_use_speed_cadence_sensor_x@EV@@QAEXHM@Z 10030460 f   ev.obj
 0001:0002f490       ?start_collection_thread@EV@@AAEHXZ 10030490 f   ev.obj
 0001:0002f4f0       ?set_logging_x@EV@@QAEXW4LoggingType@@@Z 100304f0 f   ev.obj
 0001:0002f500       ?get_computrainer_mode_x@EV@@QAEHXZ 10030500 f   ev.obj
 0001:0002f520       ?set_export@EV@@QAEXPBDH@Z 10030520 f   ev.obj
 0001:0002f560       ??0EV@@QAE@HW4EnumDeviceType@@VRIDER_DATA@@PAUPARAMS@Bike@@PAVCourse@@W4LoggingType@@@Z 10030560 f   ev.obj
 0001:0002f940       ??1EV@@QAE@XZ              10030940 f   ev.obj
 0001:0002f9f0       ?get_errstr2@@YAPBDH@Z     100309f0 f   internal.obj
 0001:0002f9f0       _x7e4b8460b7f70589b12fe02c7727033a 100309f0 f   dll.obj
 0001:0002fa30       ?read_velotron@@YAHPAVSerial@@@Z 10030a30 f   internal.obj
 0001:0002fbb0       ?haveDevice@@YA_NW4EnumDeviceType@@H@Z 10030bb0 f   internal.obj
 0001:0002fdd0       ?get_computrainer_cal_from_thread@@YAPBDHH@Z 10030dd0 f   internal.obj
 0001:0002fe10       ?get_velotron_cal_from_thread@@YAPBDHH@Z 10030e10 f   internal.obj
 0001:0002fe40       ?export_flag_file@@YA_NXZ  10030e40 f   internal.obj
 0001:0002feb0       ?get_computrainer_firmware@@YAPBDH@Z 10030eb0 f   internal.obj
 0001:00030150       ?get_computrainer_cal@@YAPBDH@Z 10031150 f   internal.obj
 0001:000304a0       ?get_velotron_firmware@@YAPBDH@Z 100314a0 f   internal.obj
 0001:000305d0       ?get_velotron_cal@@YAPBDH@Z 100315d0 f   internal.obj
 0001:000306b0       ?isVelotron@@YA_NPAVSerial@@K@Z 100316b0 f   internal.obj
 0001:00030770       ?read_computrainer@@YAHPAVSerial@@@Z 10031770 f   internal.obj
 0001:00030af0       ?iscal@@YA_NW4EnumDeviceType@@H@Z 10031af0 f   internal.obj
 0001:00030b60       ?setup_standard_dirs@@YAXPBD@Z 10031b60 f   internal.obj
 0001:00031100       ?check_dirs@@YAXPBD@Z      10032100 f   internal.obj
 0001:000311a3       ??_U@YAPAXI@Z              100321a3 f   msvcprt:newaop_s.obj
 0001:000311ae       ??_Etype_info@@UAEPAXI@Z   100321ae f i MSVCRT:ti_inst.obj
 0001:000311fa       ?what@exception@std@@UBEPBDXZ 100321fa f   MSVCRT:MSVCR90.dll
 0001:00031200       ??3@YAXPAX@Z               10032200 f   MSVCRT:MSVCR90.dll
 0001:00031206       ___CxxFrameHandler3        10032206 f   MSVCRT:MSVCR90.dll
 0001:0003120c       @__security_check_cookie@4 1003220c f   MSVCRT:secchk.obj
 0001:0003121c       ??_V@YAXPAX@Z              1003221c f   MSVCRT:MSVCR90.dll
 0001:00031222       ?__ArrayUnwind@@YGXPAXIHP6EX0@Z@Z 10032222 f   MSVCRT:ehvecdtr.obj
 0001:00031280       ??_M@YGXPAXIHP6EX0@Z@Z     10032280 f   MSVCRT:ehvecdtr.obj
 0001:000312f0       _memset                    100322f0 f   MSVCRT:MSVCR90.dll
 0001:000312f6       ??2@YAPAXI@Z               100322f6 f   MSVCRT:MSVCR90.dll
 0001:000312fc       __CxxThrowException@8      100322fc f   MSVCRT:MSVCR90.dll
 0001:00031302       ??0exception@std@@QAE@ABV01@@Z 10032302 f   MSVCRT:MSVCR90.dll
 0001:00031310       __ftol2_sse                10032310 f   MSVCRT:ftol2.obj
 0001:00031319       __ftol2_pentium4           10032319 f   MSVCRT:ftol2.obj
 0001:0003132c       __ftol2_sse_excpt          1003232c f   MSVCRT:ftol2.obj
 0001:00031346       __ftol2                    10032346 f   MSVCRT:ftol2.obj
 0001:000313bb       __onexit                   100323bb f   MSVCRT:atonexit.obj
 0001:00031460       _atexit                    10032460 f   MSVCRT:atonexit.obj
 0001:00031477       ??_L@YGXPAXIHP6EX0@Z1@Z    10032477 f   MSVCRT:ehvecctr.obj
 0001:0003152b       __CRT_INIT@12              1003252b f   MSVCRT:crtdll.obj
 0001:00031867       __DllMainCRTStartup@12     10032867 f   MSVCRT:crtdll.obj
 0001:0003188a       __purecall                 1003288a f   MSVCRT:MSVCR90.dll
 0001:00031890       ___report_gsfailure        10032890 f   MSVCRT:gs_report.obj
 0001:00031996       ?terminate@@YAXXZ          10032996 f   MSVCRT:MSVCR90.dll
 0001:0003199c       __SEH_prolog4              1003299c f   MSVCRT:sehprolg4.obj
 0001:000319e1       __SEH_epilog4              100329e1 f   MSVCRT:sehprolg4.obj
 0001:000319f5       __except_handler4          100329f5 f   MSVCRT:chandler4gs.obj
 0001:00031a6a       __get_sse2_info            10032a6a f   MSVCRT:cpu_disp.obj
 0001:00031acc       ___sse2_available_init     10032acc f   MSVCRT:cpu_disp.obj
 0001:00031ada       __unlock                   10032ada f   MSVCRT:MSVCR90.dll
 0001:00031ae0       ___dllonexit               10032ae0 f   MSVCRT:MSVCR90.dll
 0001:00031ae6       __lock                     10032ae6 f   MSVCRT:MSVCR90.dll
 0001:00031aec       ___clean_type_info_names   10032aec f   MSVCRT:tncleanup.obj
 0001:00031af8       __RTC_Initialize           10032af8 f   MSVCRT:_initsect_.obj
 0001:00031b1e       __RTC_Terminate            10032b1e f   MSVCRT:_initsect_.obj
 0001:00031b50       __ValidateImageBase        10032b50 f   MSVCRT:pesect.obj
 0001:00031b90       __FindPESection            10032b90 f   MSVCRT:pesect.obj
 0001:00031be0       __IsNonwritableInCurrentImage 10032be0 f   MSVCRT:pesect.obj
 0001:00031c9e       __initterm                 10032c9e f   MSVCRT:MSVCR90.dll
 0001:00031ca4       __initterm_e               10032ca4 f   MSVCRT:MSVCR90.dll
 0001:00031caa       __amsg_exit                10032caa f   MSVCRT:MSVCR90.dll
 0001:00031cb0       ___CppXcptFilter           10032cb0 f   MSVCRT:MSVCR90.dll
 0001:00031cb6       _DllMain@12                10032cb6 f   MSVCRT:dllmain.obj
 0001:00031cda       ___security_init_cookie    10032cda f   MSVCRT:gs_support.obj
 0001:00031d70       ??1type_info@@UAE@XZ       10032d70 f   MSVCRT:MSVCR90.dll
 0001:00031d70       ?_type_info_dtor_internal_method@type_info@@QAEXXZ 10032d70 f   MSVCRT:MSVCR90.dll
 0001:00031d76       __crt_debugger_hook        10032d76 f   MSVCRT:MSVCR90.dll
 0001:00031d7c       __except_handler4_common   10032d7c f   MSVCRT:MSVCR90.dll
 0001:00031d82       ___clean_type_info_names_internal 10032d82 f   MSVCRT:MSVCR90.dll
 0001:00031d88       _memcpy                    10032d88 f   MSVCRT:MSVCR90.dll
 0001:00031d8e       __CIsqrt                   10032d8e f   MSVCRT:MSVCR90.dll
 0001:00031d94       __CIcos                    10032d94 f   MSVCRT:MSVCR90.dll
 0001:00031d9a       __CIsin                    10032d9a f   MSVCRT:MSVCR90.dll
 0001:00031da0       ___RTDynamicCast           10032da0 f   MSVCRT:MSVCR90.dll
 0001:00031db0       __alldiv                   10032db0 f   MSVCRT:lldiv.obj
 0001:00031e5a       __CIpow                    10032e5a f   MSVCRT:MSVCR90.dll
 0001:00031e60       __alloca_probe             10032e60     MSVCRT:chkstk.obj
 0001:00031e60       __chkstk                   10032e60 f   MSVCRT:chkstk.obj
 0002:00000000       __imp__GetFileAttributesA@4 10035000     kernel32:KERNEL32.dll
 0002:00000004       __imp__Sleep@4             10035004     kernel32:KERNEL32.dll
 0002:00000008       __imp__SetEvent@4          10035008     kernel32:KERNEL32.dll
 0002:0000000c       __imp__WaitForMultipleObjects@16 1003500c     kernel32:KERNEL32.dll
 0002:00000010       __imp__CreateEventA@16     10035010     kernel32:KERNEL32.dll
 0002:00000014       __imp__CreateDirectoryA@8  10035014     kernel32:KERNEL32.dll
 0002:00000018       __imp__GetSystemTimeAsFileTime@4 10035018     kernel32:KERNEL32.dll
 0002:0000001c       __imp__GetCurrentProcessId@0 1003501c     kernel32:KERNEL32.dll
 0002:00000020       __imp__DisableThreadLibraryCalls@4 10035020     kernel32:KERNEL32.dll
 0002:00000024       __imp__IsDebuggerPresent@0 10035024     kernel32:KERNEL32.dll
 0002:00000028       __imp__SetUnhandledExceptionFilter@4 10035028     kernel32:KERNEL32.dll
 0002:0000002c       __imp__UnhandledExceptionFilter@4 1003502c     kernel32:KERNEL32.dll
 0002:00000030       __imp__GetCurrentProcess@0 10035030     kernel32:KERNEL32.dll
 0002:00000034       __imp__TerminateProcess@8  10035034     kernel32:KERNEL32.dll
 0002:00000038       __imp__InterlockedCompareExchange@12 10035038     kernel32:KERNEL32.dll
 0002:0000003c       __imp__InterlockedExchange@8 1003503c     kernel32:KERNEL32.dll
 0002:00000040       __imp__LoadLibraryA@4      10035040     kernel32:KERNEL32.dll
 0002:00000044       __imp__GetProcAddress@8    10035044     kernel32:KERNEL32.dll
 0002:00000048       __imp__GetSystemDirectoryA@8 10035048     kernel32:KERNEL32.dll
 0002:0000004c       __imp__FreeLibrary@4       1003504c     kernel32:KERNEL32.dll
 0002:00000050       __imp__CreateThread@24     10035050     kernel32:KERNEL32.dll
 0002:00000054       __imp__ReleaseMutex@4      10035054     kernel32:KERNEL32.dll
 0002:00000058       __imp__DeleteCriticalSection@4 10035058     kernel32:KERNEL32.dll
 0002:0000005c       __imp__CreateMutexA@12     1003505c     kernel32:KERNEL32.dll
 0002:00000060       __imp__EnterCriticalSection@4 10035060     kernel32:KERNEL32.dll
 0002:00000064       __imp__ReleaseSemaphore@12 10035064     kernel32:KERNEL32.dll
 0002:00000068       __imp__CreateSemaphoreA@16 10035068     kernel32:KERNEL32.dll
 0002:0000006c       __imp__LeaveCriticalSection@4 1003506c     kernel32:KERNEL32.dll
 0002:00000070       __imp__TerminateThread@8   10035070     kernel32:KERNEL32.dll
 0002:00000074       __imp__InitializeCriticalSection@4 10035074     kernel32:KERNEL32.dll
 0002:00000078       __imp__SignalObjectAndWait@16 10035078     kernel32:KERNEL32.dll
 0002:0000007c       __imp__InterlockedDecrement@4 1003507c     kernel32:KERNEL32.dll
 0002:00000080       __imp__InterlockedIncrement@4 10035080     kernel32:KERNEL32.dll
 0002:00000084       __imp__LocalFree@4         10035084     kernel32:KERNEL32.dll
 0002:00000088       __imp__WritePrivateProfileStringA@16 10035088     kernel32:KERNEL32.dll
 0002:0000008c       __imp__GetPrivateProfileStringA@24 1003508c     kernel32:KERNEL32.dll
 0002:00000090       __imp__GetCurrentThreadId@0 10035090     kernel32:KERNEL32.dll
 0002:00000094       __imp__GetTickCount@0      10035094     kernel32:KERNEL32.dll
 0002:00000098       __imp__PurgeComm@8         10035098     kernel32:KERNEL32.dll
 0002:0000009c       __imp__BuildCommDCBA@8     1003509c     kernel32:KERNEL32.dll
 0002:000000a0       __imp__GetCommTimeouts@8   100350a0     kernel32:KERNEL32.dll
 0002:000000a4       __imp__WaitCommEvent@12    100350a4     kernel32:KERNEL32.dll
 0002:000000a8       __imp__SetCommMask@8       100350a8     kernel32:KERNEL32.dll
 0002:000000ac       __imp__ResetEvent@4        100350ac     kernel32:KERNEL32.dll
 0002:000000b0       __imp__GetLastError@0      100350b0     kernel32:KERNEL32.dll
 0002:000000b4       __imp__GetHandleInformation@8 100350b4     kernel32:KERNEL32.dll
 0002:000000b8       __imp__GetOverlappedResult@16 100350b8     kernel32:KERNEL32.dll
 0002:000000bc       __imp__ReadFile@20         100350bc     kernel32:KERNEL32.dll
 0002:000000c0       __imp__SetCommTimeouts@8   100350c0     kernel32:KERNEL32.dll
 0002:000000c4       __imp__SetCommState@8      100350c4     kernel32:KERNEL32.dll
 0002:000000c8       __imp__WriteFile@20        100350c8     kernel32:KERNEL32.dll
 0002:000000cc       __imp__FormatMessageA@28   100350cc     kernel32:KERNEL32.dll
 0002:000000d0       __imp__WaitForSingleObject@8 100350d0     kernel32:KERNEL32.dll
 0002:000000d4       __imp__ClearCommError@12   100350d4     kernel32:KERNEL32.dll
 0002:000000d8       __imp__SetupComm@12        100350d8     kernel32:KERNEL32.dll
 0002:000000dc       __imp__DeleteFileA@4       100350dc     kernel32:KERNEL32.dll
 0002:000000e0       __imp__FindNextFileA@8     100350e0     kernel32:KERNEL32.dll
 0002:000000e4       __imp__SetCurrentDirectoryA@4 100350e4     kernel32:KERNEL32.dll
 0002:000000e8       __imp__CloseHandle@4       100350e8     kernel32:KERNEL32.dll
 0002:000000ec       __imp___lopen@8            100350ec     kernel32:KERNEL32.dll
 0002:000000f0       __imp__FindClose@4         100350f0     kernel32:KERNEL32.dll
 0002:000000f4       __imp__FindFirstFileA@8    100350f4     kernel32:KERNEL32.dll
 0002:000000f8       __imp___lclose@4           100350f8     kernel32:KERNEL32.dll
 0002:000000fc       __imp__lstrlenA@4          100350fc     kernel32:KERNEL32.dll
 0002:00000100       __imp__GetFileSize@8       10035100     kernel32:KERNEL32.dll
 0002:00000104       __imp__CreateFileA@28      10035104     kernel32:KERNEL32.dll
 0002:00000108       __imp__OutputDebugStringA@4 10035108     kernel32:KERNEL32.dll
 0002:0000010c       __imp__CopyFileA@12        1003510c     kernel32:KERNEL32.dll
 0002:00000110       __imp__GetLocalTime@4      10035110     kernel32:KERNEL32.dll
 0002:00000114       __imp__GetCurrentDirectoryA@8 10035114     kernel32:KERNEL32.dll
 0002:00000118       __imp__QueryPerformanceCounter@4 10035118     kernel32:KERNEL32.dll
 0002:0000011c       __imp__QueryPerformanceFrequency@4 1003511c     kernel32:KERNEL32.dll
 0002:00000120       \177KERNEL32_NULL_THUNK_DATA 10035120     kernel32:KERNEL32.dll
 0002:00000124       __imp_??1?$basic_string@DU?$char_traits@D@std@@V?$allocator@D@2@@std@@QAE@XZ 10035124     msvcprt:MSVCP90.dll
 0002:00000128       __imp_??4?$basic_string@DU?$char_traits@D@std@@V?$allocator@D@2@@std@@QAEAAV01@PBD@Z 10035128     msvcprt:MSVCP90.dll
 0002:0000012c       __imp_??4?$basic_string@DU?$char_traits@D@std@@V?$allocator@D@2@@std@@QAEAAV01@ABV01@@Z 1003512c     msvcprt:MSVCP90.dll
 0002:00000130       __imp_??0?$basic_string@DU?$char_traits@D@std@@V?$allocator@D@2@@std@@QAE@XZ 10035130     msvcprt:MSVCP90.dll
 0002:00000134       __imp_??0?$basic_string@DU?$char_traits@D@std@@V?$allocator@D@2@@std@@QAE@PBD@Z 10035134     msvcprt:MSVCP90.dll
 0002:00000138       __imp_?swap@?$basic_string@DU?$char_traits@D@std@@V?$allocator@D@2@@std@@QAEXAAV12@@Z 10035138     msvcprt:MSVCP90.dll
 0002:0000013c       __imp_??A?$basic_string@DU?$char_traits@D@std@@V?$allocator@D@2@@std@@QAEAADI@Z 1003513c     msvcprt:MSVCP90.dll
 0002:00000140       __imp_?clear@?$basic_string@DU?$char_traits@D@std@@V?$allocator@D@2@@std@@QAEXXZ 10035140     msvcprt:MSVCP90.dll
 0002:00000144       __imp_?destroy@?$allocator@D@std@@QAEXPAD@Z 10035144     msvcprt:MSVCP90.dll
 0002:00000148       __imp_?construct@?$allocator@D@std@@QAEXPADABD@Z 10035148     msvcprt:MSVCP90.dll
 0002:0000014c       __imp_?allocate@?$allocator@D@std@@QAEPADI@Z 1003514c     msvcprt:MSVCP90.dll
 0002:00000150       __imp_?deallocate@?$allocator@D@std@@QAEXPADI@Z 10035150     msvcprt:MSVCP90.dll
 0002:00000154       __imp_??0?$basic_string@DU?$char_traits@D@std@@V?$allocator@D@2@@std@@QAE@ABV01@@Z 10035154     msvcprt:MSVCP90.dll
 0002:00000158       \177MSVCP90_NULL_THUNK_DATA 10035158     msvcprt:MSVCP90.dll
 0002:0000015c       __imp___initterm           1003515c     MSVCRT:MSVCR90.dll
 0002:00000160       __imp___encoded_null       10035160     MSVCRT:MSVCR90.dll
 0002:00000164       __imp___malloc_crt         10035164     MSVCRT:MSVCR90.dll
 0002:00000168       __imp___decode_pointer     10035168     MSVCRT:MSVCR90.dll
 0002:0000016c       __imp___onexit             1003516c     MSVCRT:MSVCR90.dll
 0002:00000170       __imp___lock               10035170     MSVCRT:MSVCR90.dll
 0002:00000174       __imp___encode_pointer     10035174     MSVCRT:MSVCR90.dll
 0002:00000178       __imp____dllonexit         10035178     MSVCRT:MSVCR90.dll
 0002:0000017c       __imp___unlock             1003517c     MSVCRT:MSVCR90.dll
 0002:00000180       __imp_?terminate@@YAXXZ    10035180     MSVCRT:MSVCR90.dll
 0002:00000184       __imp__strtoul             10035184     MSVCRT:MSVCR90.dll
 0002:00000188       __imp__atol                10035188     MSVCRT:MSVCR90.dll
 0002:0000018c       __imp___mbsnbicmp          1003518c     MSVCRT:MSVCR90.dll
 0002:00000190       __imp___mbctoupper         10035190     MSVCRT:MSVCR90.dll
 0002:00000194       __imp___mbschr             10035194     MSVCRT:MSVCR90.dll
 0002:00000198       __imp___ismbcalpha         10035198     MSVCRT:MSVCR90.dll
 0002:0000019c       __imp___mbctolower         1003519c     MSVCRT:MSVCR90.dll
 0002:000001a0       __imp___mbsicmp            100351a0     MSVCRT:MSVCR90.dll
 0002:000001a4       __imp___purecall           100351a4     MSVCRT:MSVCR90.dll
 0002:000001a8       __imp__strcpy_s            100351a8     MSVCRT:MSVCR90.dll
 0002:000001ac       __imp__fopen_s             100351ac     MSVCRT:MSVCR90.dll
 0002:000001b0       __imp__atof                100351b0     MSVCRT:MSVCR90.dll
 0002:000001b4       __imp__strncat             100351b4     MSVCRT:MSVCR90.dll
 0002:000001b8       __imp____iob_func          100351b8     MSVCRT:MSVCR90.dll
 0002:000001bc       __imp___endthread          100351bc     MSVCRT:MSVCR90.dll
 0002:000001c0       __imp__toupper             100351c0     MSVCRT:MSVCR90.dll
 0002:000001c4       __imp___initterm_e         100351c4     MSVCRT:MSVCR90.dll
 0002:000001c8       __imp__malloc              100351c8     MSVCRT:MSVCR90.dll
 0002:000001cc       __imp__free                100351cc     MSVCRT:MSVCR90.dll
 0002:000001d0       __imp__isdigit             100351d0     MSVCRT:MSVCR90.dll
 0002:000001d4       __imp__qsort               100351d4     MSVCRT:MSVCR90.dll
 0002:000001d8       __imp__vsprintf            100351d8     MSVCRT:MSVCR90.dll
 0002:000001dc       __imp___time64             100351dc     MSVCRT:MSVCR90.dll
 0002:000001e0       __imp__fgets               100351e0     MSVCRT:MSVCR90.dll
 0002:000001e4       __imp__rand                100351e4     MSVCRT:MSVCR90.dll
 0002:000001e8       __imp__strtok              100351e8     MSVCRT:MSVCR90.dll
 0002:000001ec       __imp__atoi                100351ec     MSVCRT:MSVCR90.dll
 0002:000001f0       __imp__srand               100351f0     MSVCRT:MSVCR90.dll
 0002:000001f4       __imp__rename              100351f4     MSVCRT:MSVCR90.dll
 0002:000001f8       __imp__fflush              100351f8     MSVCRT:MSVCR90.dll
 0002:000001fc       __imp__fseek               100351fc     MSVCRT:MSVCR90.dll
 0002:00000200       __imp__ftell               10035200     MSVCRT:MSVCR90.dll
 0002:00000204       __imp__fgetc               10035204     MSVCRT:MSVCR90.dll
 0002:00000208       __imp__fputc               10035208     MSVCRT:MSVCR90.dll
 0002:0000020c       __imp__fprintf             1003520c     MSVCRT:MSVCR90.dll
 0002:00000210       __imp__fwrite              10035210     MSVCRT:MSVCR90.dll
 0002:00000214       __imp__fread               10035214     MSVCRT:MSVCR90.dll
 0002:00000218       __imp__printf              10035218     MSVCRT:MSVCR90.dll
 0002:0000021c       __imp__strstr              1003521c     MSVCRT:MSVCR90.dll
 0002:00000220       __imp__fopen               10035220     MSVCRT:MSVCR90.dll
 0002:00000224       __imp__fclose              10035224     MSVCRT:MSVCR90.dll
 0002:00000228       __imp___beginthread        10035228     MSVCRT:MSVCR90.dll
 0002:0000022c       __imp__sscanf              1003522c     MSVCRT:MSVCR90.dll
 0002:00000230       __imp__memmove_s           10035230     MSVCRT:MSVCR90.dll
 0002:00000234       __imp_??0exception@std@@QAE@ABV01@@Z 10035234     MSVCRT:MSVCR90.dll
 0002:00000238       __imp___amsg_exit          10035238     MSVCRT:MSVCR90.dll
 0002:0000023c       __imp___adjust_fdiv        1003523c     MSVCRT:MSVCR90.dll
 0002:00000240       __imp____CppXcptFilter     10035240     MSVCRT:MSVCR90.dll
 0002:00000244       __imp___vsnprintf_s        10035244     MSVCRT:MSVCR90.dll
 0002:00000244       __imp__vsnprintf_s         10035244     MSVCRT:MSVCR90.dll
 0002:00000248       __imp_?_type_info_dtor_internal_method@type_info@@QAEXXZ 10035248     MSVCRT:MSVCR90.dll
 0002:0000024c       __imp___crt_debugger_hook  1003524c     MSVCRT:MSVCR90.dll
 0002:00000250       __imp___except_handler4_common 10035250     MSVCRT:MSVCR90.dll
 0002:00000254       __imp____clean_type_info_names_internal 10035254     MSVCRT:MSVCR90.dll
 0002:00000258       __imp__unlink              10035258     MSVCRT:MSVCR90.dll
 0002:00000258       __imp___unlink             10035258     MSVCRT:MSVCR90.dll
 0002:0000025c       __imp___CIpow              1003525c     MSVCRT:MSVCR90.dll
 0002:00000260       __imp__strupr              10035260     MSVCRT:MSVCR90.dll
 0002:00000260       __imp___strupr             10035260     MSVCRT:MSVCR90.dll
 0002:00000264       __imp____CxxFrameHandler3  10035264     MSVCRT:MSVCR90.dll
 0002:00000268       __imp_??0exception@std@@QAE@XZ 10035268     MSVCRT:MSVCR90.dll
 0002:0000026c       __imp_??3@YAXPAX@Z         1003526c     MSVCRT:MSVCR90.dll
 0002:00000270       __imp_??1exception@std@@UAE@XZ 10035270     MSVCRT:MSVCR90.dll
 0002:00000274       __imp_?what@exception@std@@UBEPBDXZ 10035274     MSVCRT:MSVCR90.dll
 0002:00000278       __imp_??0exception@std@@QAE@ABQBD@Z 10035278     MSVCRT:MSVCR90.dll
 0002:0000027c       __imp__memcpy              1003527c     MSVCRT:MSVCR90.dll
 0002:00000280       __imp___CIsqrt             10035280     MSVCRT:MSVCR90.dll
 0002:00000284       __imp___CxxThrowException@8 10035284     MSVCRT:MSVCR90.dll
 0002:00000288       __imp_??2@YAPAXI@Z         10035288     MSVCRT:MSVCR90.dll
 0002:0000028c       __imp___invalid_parameter_noinfo 1003528c     MSVCRT:MSVCR90.dll
 0002:00000290       __imp__memset              10035290     MSVCRT:MSVCR90.dll
 0002:00000294       __imp__strncpy             10035294     MSVCRT:MSVCR90.dll
 0002:00000298       __imp__sprintf             10035298     MSVCRT:MSVCR90.dll
 0002:0000029c       __imp___CIcos              1003529c     MSVCRT:MSVCR90.dll
 0002:000002a0       __imp___CIsin              100352a0     MSVCRT:MSVCR90.dll
 0002:000002a4       __imp____RTDynamicCast     100352a4     MSVCRT:MSVCR90.dll
 0002:000002a8       __imp_??_V@YAXPAX@Z        100352a8     MSVCRT:MSVCR90.dll
 0002:000002ac       \177MSVCR90_NULL_THUNK_DATA 100352ac     MSVCRT:MSVCR90.dll
 0002:000002b0       __imp__SHGetFolderPathA@20 100352b0     shell32:SHELL32.dll
 0002:000002b4       \177SHELL32_NULL_THUNK_DATA 100352b4     shell32:SHELL32.dll
 0002:000002b8       __imp__GetActiveWindow@0   100352b8     user32:USER32.dll
 0002:000002bc       __imp__MessageBoxA@16      100352bc     user32:USER32.dll
 0002:000002c0       __imp__CharNextA@4         100352c0     user32:USER32.dll
 0002:000002c4       \177USER32_NULL_THUNK_DATA 100352c4     user32:USER32.dll
 0002:000002c8       __imp__timeBeginPeriod@4   100352c8     winmm:WINMM.dll
 0002:000002cc       __imp__timeEndPeriod@4     100352cc     winmm:WINMM.dll
 0002:000002d0       __imp__timeGetTime@0       100352d0     winmm:WINMM.dll
 0002:000002d4       __imp__timeSetEvent@20     100352d4     winmm:WINMM.dll
 0002:000002d8       __imp__timeKillEvent@4     100352d8     winmm:WINMM.dll
 0002:000002dc       \177WINMM_NULL_THUNK_DATA  100352dc     winmm:WINMM.dll
 0002:000002e0       __imp__pcre_exec           100352e0     pcre:pcre3.dll
 0002:000002e4       __imp__pcre_compile        100352e4     pcre:pcre3.dll
 0002:000002e8       __imp__pcre_fullinfo       100352e8     pcre:pcre3.dll
 0002:000002ec       __imp__pcre_free           100352ec     pcre:pcre3.dll
 0002:000002f0       \177pcre3_NULL_THUNK_DATA  100352f0     pcre:pcre3.dll
 0002:000002f4       ___xc_a                    100352f4     MSVCRT:cinitexe.obj
 0002:00000320       ___xc_z                    10035320     MSVCRT:cinitexe.obj
 0002:00000324       ___xi_a                    10035324     MSVCRT:cinitexe.obj
 0002:00000330       ___xi_z                    10035330     MSVCRT:cinitexe.obj
 0002:0000033c       ??_7bad_alloc@std@@6B@     1003533c     dll.obj
 0002:00000348       ??_7logic_error@std@@6B@   10035348     dll.obj
 0002:00000354       ??_7length_error@std@@6B@  10035354     dll.obj
 0002:00000360       ??_7fatalError@@6B@        10035360     dll.obj
 0002:00000368       ??_7Monarch@@6B@           10035368     dll.obj
 0002:00000370       ??_7Physics@@6B@           10035370     dll.obj
 0002:00000374       ??_C@_06FDBJACLP@1?40?411?$AA@ 10035374     dll.obj
 0002:0000037c       ??_C@_06GDGJNOGE@1?40?423?$AA@ 1003537c     dll.obj
 0002:00000388       ??_7Person@@6B@            10035388     dll.obj
 0002:00000390       ??_C@_08KIDBNBLB@slfp?5ok?6?$AA@ 10035390     dll.obj
 0002:0000039c       ??_C@_06GEOFKCKB@slfp4?6?$AA@ 1003539c     dll.obj
 0002:000003a4       ??_C@_06GBKKLECE@slfp3?6?$AA@ 100353a4     dll.obj
 0002:000003ac       ??_C@_06GAGINOBD@slfp2?6?$AA@ 100353ac     dll.obj
 0002:000003b4       ??_C@_06GCCOGAEK@slfp1?6?$AA@ 100353b4     dll.obj
 0002:000003bc       ??_C@_0L@IOPNHENB@?$CFs?2log?4txt?$AA@ 100353bc     dll.obj
 0002:000003c8       ??_C@_0BK@FGLJGIBA@?5?5?5checking?5for?5Velotron?6?$AA@ 100353c8     dll.obj
 0002:000003e4       ??_C@_0N@DACDMIIB@?5?5?5CT?5found?6?$AA@ 100353e4     dll.obj
 0002:000003f4       ??_C@_0BG@DHMONJIL@?5?5?5expect?5istat?5?$DN?5?$CFd?6?$AA@ 100353f4     dll.obj
 0002:0000040c       ??_C@_06EBKOENJN@LinkUp?$AA@ 1003540c     dll.obj
 0002:00000414       ??_C@_09EDAHGPDL@RacerMate?$AA@ 10035414     dll.obj
 0002:00000420       ??_C@_0CI@NPANBDFF@?5?5?5serial?5port?5opened?0?5checking?5@ 10035420     dll.obj
 0002:00000448       ??_C@_0N@CMFDACBO@?5?5?5catch?4?4?4?6?$AA@ 10035448     dll.obj
 0002:00000458       ??_C@_0O@GPOHBEAH@?5?5?5catch?$CI?$CFd?$CJ?6?$AA@ 10035458     dll.obj
 0002:00000468       ??_C@_0BI@NELEOKEM@check_for_trainers?$CI?$CFd?$CJ?6?$AA@ 10035468     dll.obj
 0002:00000480       ??_C@_0M@KLEKFENB@grmidx?0?5?$CFs?6?$AA@ 10035480     dll.obj
 0002:0000048c       ??_C@_07HDMKJCJJ@grmid3?6?$AA@ 1003548c     dll.obj
 0002:00000494       ??_C@_07HCAIPIKO@grmid2?6?$AA@ 10035494     dll.obj
 0002:0000049c       ??_C@_07HAEOEGPH@grmid1?6?$AA@ 1003549c     dll.obj
 0002:000004a4       ??_C@_0L@FJJFAFOO@file_mode?6?$AA@ 100354a4     dll.obj
 0002:000004b0       ??_C@_0BK@CGLLNIHP@GetRacerMateDeviceID?$CI?$CFd?$CJ?6?$AA@ 100354b0     dll.obj
 0002:000004cc       ??_C@_03JALODAI@?$CFld?$AA@ 100354cc     dll.obj
 0002:000004d0       ??_C@_05JFIIEJDE@?$CFf?5?$CFs?$AA@ 100354d0     dll.obj
 0002:000004d8       ??_C@_0BH@KLBGDDNH@SetNetworkKey?5failed?52?$AA@ 100354d8     dll.obj
 0002:000004f0       ??_C@_0BH@IADLGABE@SetNetworkKey?5failed?51?$AA@ 100354f0     dll.obj
 0002:00000508       ??_C@_0BD@GNAPEKFM@ResetSystem?5failed?$AA@ 10035508     dll.obj
 0002:00000520       ??_7Formula@@6B@           10035520     dll.obj
 0002:00000524       ??_C@_0BD@CPMPMAAM@DEVICE_OTHER_ERROR?$AA@ 10035524     dll_globals.obj
 0002:00000538       ??_C@_0BC@HKNPLHAP@DEVICE_OPEN_ERROR?$AA@ 10035538     dll_globals.obj
 0002:0000054c       ??_C@_0BF@OCMAOBGF@DEVICE_ACCESS_DENIED?$AA@ 1003554c     dll_globals.obj
 0002:00000564       ??_C@_0L@IOCICBGP@DEVICE_RMP?$AA@ 10035564     dll_globals.obj
 0002:00000570       ??_C@_0BB@FHOAEII@DEVICE_SIMULATOR?$AA@ 10035570     dll_globals.obj
 0002:00000584       ??_C@_0BA@PJGAIILE@DEVICE_VELOTRON?$AA@ 10035584     dll_globals.obj
 0002:00000594       ??_C@_0BE@HOCBHNDD@DEVICE_COMPUTRAINER?$AA@ 10035594     dll_globals.obj
 0002:000005a8       ??_C@_0O@EFKINNKG@DEVICE_EXISTS?$AA@ 100355a8     dll_globals.obj
 0002:000005b8       ??_C@_0BG@BGDIBJPI@DEVICE_DOES_NOT_EXIST?$AA@ 100355b8     dll_globals.obj
 0002:000005d0       ??_C@_0BD@GEFEHAPC@DEVICE_NOT_SCANNED?$AA@ 100355d0     dll_globals.obj
 0002:000005e4       ??_C@_0O@PMKJACDP@GENERIC?5ERROR?$AA@ 100355e4     errors.obj
 0002:000005f4       ??_C@_0BC@FCFFKKOJ@CAN_NOT_OPEN_FILE?$AA@ 100355f4     errors.obj
 0002:00000608       ??_C@_0BH@OKNKPEFP@DEVICE_NOT_INITIALIZED?$AA@ 10035608     errors.obj
 0002:00000620       ??_C@_0BA@FLIPNBGE@BAD?5RIDER?5INDEX?$AA@ 10035620     errors.obj
 0002:00000630       ??_C@_07MOCABPOL@TIMEOUT?$AA@ 10035630     errors.obj
 0002:00000638       ??_C@_07LGIIPPHI@ABORTED?$AA@ 10035638     errors.obj
 0002:00000640       ??_C@_0BC@LNIMDAPL@BELOW?5UPPER?5SPEED?$AA@ 10035640     errors.obj
 0002:00000654       ??_C@_0P@ILIDPONO@DEVICE?5RUNNING?$AA@ 10035654     errors.obj
 0002:00000664       ??_C@_0CB@FELHDPGC@PORT?5EXISTS?5BUT?5IS?5NOT?5A?5TRAINER@ 10035664     errors.obj
 0002:00000688       ??_C@_0BA@EGALLMBN@PORT?5OPEN?5ERROR?$AA@ 10035688     errors.obj
 0002:00000698       ??_C@_0BE@DAGGLFFD@PORT?5DOES?5NOT?5EXIST?$AA@ 10035698     errors.obj
 0002:000006ac       ??_C@_0BA@NDBEGMGN@BAD?5TEETH?5COUNT?$AA@ 100356ac     errors.obj
 0002:000006bc       ??_C@_0P@GODKGKAN@BAD?5GEAR?5COUNT?$AA@ 100356bc     errors.obj
 0002:000006cc       ??_C@_0BM@GPPFJFAN@VELOTRON?5PARAMETERS?5NOT?5SET?$AA@ 100356cc     errors.obj
 0002:000006e8       ??_C@_0BF@JDGMKPCO@BAD?5FIRMWARE?5VERSION?$AA@ 100356e8     errors.obj
 0002:00000700       ??_C@_0BH@OHNPBOFD@DEVICE?5ALREADY?5RUNNING?$AA@ 10035700     errors.obj
 0002:00000718       ??_C@_0BJ@FIFNENLE@DIRECTORY?5DOES?5NOT?5EXIST?$AA@ 10035718     errors.obj
 0002:00000734       ??_C@_0N@JDDIPFNF@WRONG?5DEVICE?$AA@ 10035734     errors.obj
 0002:00000744       ??_C@_0BD@FFJHEKGD@DEVICE?5NOT?5RUNNING?$AA@ 10035744     errors.obj
 0002:00000758       ??_C@_02GIPFHKNO@OK?$AA@   10035758     errors.obj
 0002:00000760       __real@3fe3e245d6aabf84    10035760     ev.obj
 0002:00000768       __real@3727c5ac            10035768     ev.obj
 0002:0000076c       ??_C@_02PPDPMJBM@?5U?$AA@  1003576c     ev.obj
 0002:00000770       ??_C@_02ODKHHMML@?5C?$AA@  10035770     ev.obj
 0002:00000774       ??_C@_04GEFJINEE@?$CF?42f?$AA@ 10035774     ev.obj
 0002:00000780       __real@3f70000000000000    10035780     ev.obj
 0002:00000788       ??_C@_0BA@GEPBHDED@?$CFs?2slope_?$CFd?4txt?$AA@ 10035788     ev.obj
 0002:00000798       ??_C@_06PGOKJPLL@ds?4log?$AA@ 10035798     ev.obj
 0002:000007a0       ??_C@_05EOLIMHNI@COM?$CFs?$AA@ 100357a0     ev.obj
 0002:000007a8       ??_C@_05KBEOJPB@?$CFd?4?$CFd?$AA@ 100357a8     internal.obj
 0002:000007b0       ??_C@_04IENGIFFI@hdx?6?$AA@ 100357b0     internal.obj
 0002:000007b8       ??_C@_0P@DONGMEEE@hd5?0?5dt?5?$DN?5?$CFld?6?$AA@ 100357b8     internal.obj
 0002:000007c8       ??_C@_05INNJKNE@hd4b?6?$AA@ 100357c8     internal.obj
 0002:000007d0       ??_C@_0P@FMGIKCDF@hd6?0?5ul?5?$DN?5?$CFld?6?$AA@ 100357d0     internal.obj
 0002:000007e0       ??_C@_05IICMLLFB@hd5B?6?$AA@ 100357e0     internal.obj
 0002:000007e8       ??_C@_04PNFGPBPM@hd4?6?$AA@ 100357e8     internal.obj
 0002:000007f0       ??_C@_0O@GBHIHAON@hd3?3?5?$CFs?5?5?5?$CFs?6?$AA@ 100357f0     internal.obj
 0002:00000800       ??_C@_05CNLGMFAI@hd2b?6?$AA@ 10035800     internal.obj
 0002:00000808       ??_C@_04PJNLINEO@hd2?6?$AA@ 10035808     internal.obj
 0002:00000810       ??_C@_0CB@MHJIAFBM@hd1b?3?5?$CFs?5?$DN?5?$CFs?0?5?$CFd?5?$DN?5?$CFd?0?5have?5it?6@ 10035810     internal.obj
 0002:00000834       ??_C@_04PLJNDDBH@hd1?6?$AA@ 10035834     internal.obj
 0002:0000083c       ??_C@_0P@MMPFLDOJ@?$CFs?2trigger?4txt?$AA@ 1003583c     internal.obj
 0002:0000084c       ??_C@_03OACELNE@?$CFhd?$AA@ 1003584c     internal.obj
 0002:00000850       ??_C@_04GDFACFJI@?$CF?46f?$AA@ 10035850     internal.obj
 0002:00000858       ??_C@_05CNGEMGEC@com?$CFd?$AA@ 10035858     internal.obj
 0002:00000860       ??_C@_01HJOKEEBB@U?$AA@    10035860     internal.obj
 0002:00000864       ??_C@_05GJLAAKBK@ssdx?6?$AA@ 10035864     internal.obj
 0002:0000086c       ??_C@_05BIOIONON@ssd9?6?$AA@ 1003586c     internal.obj
 0002:00000874       ??_C@_05BJCKIHNK@ssd8?6?$AA@ 10035874     internal.obj
 0002:0000087c       ??_C@_05BCHGMAOH@ssd7?6?$AA@ 1003587c     internal.obj
 0002:00000884       ??_C@_05BDLEKKNA@ssd6?6?$AA@ 10035884     internal.obj
 0002:0000088c       ??_C@_05BBPCBEIJ@ssd5?6?$AA@ 1003588c     internal.obj
 0002:00000894       ??_C@_05BADAHOLO@ssd4?6?$AA@ 10035894     internal.obj
 0002:0000089c       ??_C@_05BFHPGIDL@ssd3?6?$AA@ 1003589c     internal.obj
 0002:000008a4       ??_C@_05BELNACAM@ssd2?6?$AA@ 100358a4     internal.obj
 0002:000008ac       ??_C@_05BGPLLMFF@ssd1?6?$AA@ 100358ac     internal.obj
 0002:000008b4       ??_C@_04PDAGLEEJ@cdx?6?$AA@ 100358b4     internal.obj
 0002:000008bc       ??_C@_04IPMJNGGI@cd3?6?$AA@ 100358bc     internal.obj
 0002:000008c4       ??_C@_04IOALLMFP@cd2?6?$AA@ 100358c4     internal.obj
 0002:000008cc       ??_C@_04IMENACAG@cd1?6?$AA@ 100358cc     internal.obj
 0002:000008d8       ??_7type_info@@6B@         100358d8     MSVCRT:ti_inst.obj
 0002:000008dc       __pDefaultRawDllMain       100358dc     MSVCRT:crtdll.obj
 0002:000008dc       __pRawDllMain              100358dc     MSVCRT:crtdll.obj
 0002:000008e8       ??_C@_0P@GHFPNOJB@bad?5allocation?$AA@ 100358e8     tlib:formula.obj
 0002:000008f8       ??_C@_0BC@KBDMBKEH@deque?$DMT?$DO?5too?5long?$AA@ 100358f8     tlib:formula.obj
 0002:0000090c       ??_C@_06BBCANMND@NOMODE?$AA@ 1003590c     tlib:physics.obj
 0002:00000914       ??_C@_0BB@MCBGLGGE@CONSTANT_CURRENT?$AA@ 10035914     tlib:physics.obj
 0002:00000928       ??_C@_0P@IJODJMIL@CONSTANT_WATTS?$AA@ 10035928     tlib:physics.obj
 0002:00000938       ??_C@_0BA@EABMAALJ@CONSTANT_TORQUE?$AA@ 10035938     tlib:physics.obj
 0002:00000948       ??_C@_08CNDMIKD@WINDLOAD?$AA@ 10035948     tlib:physics.obj
 0002:00000954       ??_C@_0BD@LIKDEECF@SERIAL_ERROR_OTHER?$AA@ 10035954     tlib:physics.obj
 0002:00000968       ??_C@_0BK@OCGLACAJ@SERIAL_ERROR_CREATEEVENT2?$AA@ 10035968     tlib:physics.obj
 0002:00000984       ??_C@_0BK@MJEGFBMK@SERIAL_ERROR_CREATEEVENT1?$AA@ 10035984     tlib:physics.obj
 0002:000009a0       ??_C@_0BK@LOKODCAO@SERIAL_ERROR_SETCOMMSTATE?$AA@ 100359a0     tlib:physics.obj
 0002:000009bc       ??_C@_0BK@HKNEKKDC@SERIAL_ERROR_BUILDCOMMDCB?$AA@ 100359bc     tlib:physics.obj
 0002:000009d8       ??_C@_0BL@OJMBEFCG@SERIAL_ERROR_ACCESS_DENIED?$AA@ 100359d8     tlib:physics.obj
 0002:000009f4       ??_C@_0BM@PJOGAIHG@SERIAL_ERROR_DOES_NOT_EXIST?$AA@ 100359f4     tlib:physics.obj
 0002:00000a10       ??_C@_04LOAJBDKD@true?$AA@ 10035a10     tlib:physics.obj
 0002:00000a18       ??_C@_08GGDLJMMA@?$CFs_?$CFs_?$CFs?$AA@ 10035a18     tlib:physics.obj
 0002:00000a24       ??_C@_05ONEOBAM@?$CFs_?$CFs?$AA@ 10035a24     tlib:physics.obj
 0002:00000a2c       ??_C@_0M@HKEBKDMC@?$CF4d?$CF02d?$CF02d?$AA@ 10035a2c     tlib:physics.obj
 0002:00000a38       ??_C@_04EDGDKJNK@Male?$AA@ 10035a38     tlib:physics.obj
 0002:00000a40       ??_C@_06KGAOHABH@Female?$AA@ 10035a40     tlib:physics.obj
 0002:00000a48       ??_C@_07NBCGADJA@Unknown?$AA@ 10035a48     tlib:physics.obj
 0002:00000a50       ??_C@_05DNIIFBMG@?$CFs?5?$CFs?$AA@ 10035a50     tlib:physics.obj
 0002:00000a58       ??_C@_08EPEHIMMI@?$CFs?5?$CFs?5?$CFs?$AA@ 10035a58     tlib:physics.obj
 0002:00000a64       ??_C@_0M@LPOABDPE@physics?4ini?$AA@ 10035a64     tlib:physics.obj
 0002:00000a70       ??_C@_01KICIPPFI@?2?$AA@   10035a70     tlib:physics.obj
 0002:00000a74       ??_C@_0BC@OJIKILB@?$CFs?$CFsphysics?$CFd?4log?$AA@ 10035a74     tlib:physics.obj
 0002:00000a88       ??_C@_01LFCBOECM@?4?$AA@   10035a88     tlib:physics.obj
 0002:00000a8c       ??_C@_0BP@OKNEHFMG@monarch?5radius?5?$DN?5?$CF?43lf?5meters?6?$AA@ 10035a8c     tlib:physics.obj
 0002:00000aac       ??_C@_0BE@KCBHOOKI@fish?5scale?5?$DN?5?$CF?42lf?6?$AA@ 10035aac     tlib:physics.obj
 0002:00000ac0       ??_C@_04BBAGFKEA@zzz1?$AA@ 10035ac0     tlib:physics.obj
 0002:00000ac8       ??_C@_04DKCLAJID@zzz2?$AA@ 10035ac8     tlib:physics.obj
 0002:00000ad0       ??_C@_08DHDIDALD@?40000237?$AA@ 10035ad0     tlib:physics.obj
 0002:00000adc       ??_C@_02ICGBAFJO@k1?$AA@   10035adc     tlib:physics.obj
 0002:00000ae0       ??_C@_07FOPBDDAL@options?$AA@ 10035ae0     tlib:physics.obj
 0002:00000ae8       ??_C@_03BMIBKDHK@?465?$AA@ 10035ae8     tlib:physics.obj
 0002:00000aec       ??_C@_04CNCNIFFP@gain?$AA@ 10035aec     tlib:physics.obj
 0002:00000af4       ??_C@_02PONMODAL@70?$AA@   10035af4     tlib:physics.obj
 0002:00000af8       ??_C@_0BH@FPLLOPII@acceleration?5filtering?$AA@ 10035af8     tlib:physics.obj
 0002:00000b10       ??_C@_02JAFMIPLB@?45?$AA@  10035b10     tlib:physics.obj
 0002:00000b14       ??_C@_05FBOPNOCA@pgain?$AA@ 10035b14     tlib:physics.obj
 0002:00000b1c       ??_C@_07BECGJCFH@physics?$AA@ 10035b1c     tlib:physics.obj
 0002:00000b24       ??_C@_03EOFGHIEO@?403?$AA@ 10035b24     tlib:physics.obj
 0002:00000b28       ??_C@_05HFDGINHD@igain?$AA@ 10035b28     tlib:physics.obj
 0002:00000b30       ??_C@_03HPLEMDKK@200?$AA@  10035b30     tlib:physics.obj
 0002:00000b34       ??_C@_0O@OJHKODOE@rpm?5filtering?$AA@ 10035b34     tlib:physics.obj
 0002:00000b44       ??_C@_0O@EBPPBMGO@mph?5filtering?$AA@ 10035b44     tlib:physics.obj
 0002:00000b54       ??_C@_02PKFBJPLJ@10?$AA@   10035b54     tlib:physics.obj
 0002:00000b58       ??_C@_0BA@NAHCBLND@watts?5filtering?$AA@ 10035b58     tlib:physics.obj
 0002:00000b68       ??_C@_07KIBFCABI@degauss?$AA@ 10035b68     tlib:physics.obj
 0002:00000b70       ??_C@_0L@NHKHIDHE@cc?5degauss?$AA@ 10035b70     tlib:physics.obj
 0002:00000b7c       ??_C@_03MHAIKEMP@300?$AA@  10035b7c     tlib:physics.obj
 0002:00000b80       ??_C@_0CO@KKPJGLGH@ergo?5degauss?5full?5swing?5amplitud@ 10035b80     tlib:physics.obj
 0002:00000bb0       ??_C@_03FGNPCODA@233?$AA@  10035bb0     tlib:physics.obj
 0002:00000bb4       ??_C@_0CI@LOGEIODA@ergo?5degauss?5half?5period?5?$CImillis@ 10035bb4     tlib:physics.obj
 0002:00000bdc       ??_C@_03GNABGMEE@100?$AA@  10035bdc     tlib:physics.obj
 0002:00000be0       ??_C@_0CO@OCPGCLCM@wind?5degauss?5full?5swing?5amplitud@ 10035be0     tlib:physics.obj
 0002:00000c10       ??_C@_03LJIMMBII@179?$AA@  10035c10     tlib:physics.obj
 0002:00000c14       ??_C@_0CI@IKKDNOAN@wind?5degauss?5half?5period?5?$CImillis@ 10035c14     tlib:physics.obj
 0002:00000c3c       ??_C@_0BB@HCFKBIMB@Bad?5Physics?5Mode?$AA@ 10035c3c     tlib:physics.obj
 0002:00000c50       ??_C@_0O@GCEEMIII@?4?2physics?4cpp?$AA@ 10035c50     tlib:physics.obj
 0002:00000c60       ??_C@_0BB@CDELIALK@Error?5Reading?5PS?$AA@ 10035c60     tlib:physics.obj
 0002:00000c74       ??_C@_02IEKCLPJC@35?$AA@   10035c74     tlib:physics.obj
 0002:00000c78       ??_C@_0BP@KHIJAKMI@wingate?5acceleration?5filtering?$AA@ 10035c78     tlib:physics.obj
 0002:00000c98       ??_C@_0BD@OLBABOEK@vector?$DMT?$DO?5too?5long?$AA@ 10035c98     tlib:physics.obj
 0002:00000cac       ??_C@_0P@PDEEADEA@?$CFs?$CFsbike?$CFd?4log?$AA@ 10035cac     tlib:bike.obj
 0002:00000cbc       ??_C@_02BKFDOEMK@wt?$AA@   10035cbc     tlib:bike.obj
 0002:00000cc0       ??_C@_0BA@PAMKPKKM@?$CFs?$CFsgears?$CFd?4log?$AA@ 10035cc0     tlib:bike.obj
 0002:00000cd0       ??_C@_01EEMJAFIK@?6?$AA@   10035cd0     tlib:bike.obj
 0002:00000cd4       ??_C@_0BI@OACLIALB@?$CF2d?5?$CF6?42f?7?7?7?$CF5d?5?1?5?$CF?94d?6?$AA@ 10035cd4     tlib:bike.obj
 0002:00000cec       ??_C@_0BA@PCICEKNG@?6?6Front?5Gears?6?6?$AA@ 10035cec     tlib:bike.obj
 0002:00000cfc       ??_C@_09MKGKNONM@?$CF2d?5?5?5?$CFd?6?$AA@ 10035cfc     tlib:bike.obj
 0002:00000d08       ??_C@_0P@JBLKPJIB@?6?6Rear?5Gears?6?6?$AA@ 10035d08     tlib:bike.obj
 0002:00000d1c       ??_7Bike@@6B@              10035d1c     tlib:bike.obj
 0002:00000d20       ??_C@_0L@LCNOFFIN@dataSource?$AA@ 10035d20     tlib:datasource.obj
 0002:00000d34       ??_7dataSource@@6B@        10035d34     tlib:datasource.obj
 0002:00000e54       ??_C@_07JMNHGAEA@Decoder?$AA@ 10035e54     tlib:decoder.obj
 0002:00000e5c       ??_C@_02PPNCLIJD@SS?$AA@   10035e5c     tlib:decoder.obj
 0002:00000e60       ??_C@_0BC@DOCHNKIN@?$CFs?$CFsdecoder?$CFd?4log?$AA@ 10035e60     tlib:decoder.obj
 0002:00000e74       ??_C@_0BK@MMOECHJH@decoder?3?5started?5logging?6?$AA@ 10035e74     tlib:decoder.obj
 0002:00000e90       ??_C@_0M@GINHKMGG@decoder?3?51?6?$AA@ 10035e90     tlib:decoder.obj
 0002:00000e9c       ??_C@_0M@BHJMBKCJ@decoder?3?5x?6?$AA@ 10035e9c     tlib:decoder.obj
 0002:00000eac       ??_7Decoder@@6B@           10035eac     tlib:decoder.obj
 0002:00000f0c       ??_C@_03CCGKKFHG@a?$CLt?$AA@ 10035f0c     tlib:ss.obj
 0002:00000f10       ??_C@_05LAPONLG@false?$AA@ 10035f10     tlib:velotron.obj
 0002:00000f18       ??_C@_0CI@IGJPJEFJ@Velotron?5constructor?0?5initialize@ 10035f18     tlib:velotron.obj
 0002:00000f40       ??_C@_0CN@IJPBOABC@Velotron?5constructor?5exit?0?5initi@ 10035f40     tlib:velotron.obj
 0002:00000f70       ??_C@_07FKMKGBH@init?$CI?$CJ?6?$AA@ 10035f70     tlib:velotron.obj
 0002:00000f78       ??_C@_07EGMHHDMN@init2b?6?$AA@ 10035f78     tlib:velotron.obj
 0002:00000f80       ??_C@_07EHAFBJPK@init2c?6?$AA@ 10035f80     tlib:velotron.obj
 0002:00000f88       ??_C@_07ECEKAPHP@init2d?6?$AA@ 10035f88     tlib:velotron.obj
 0002:00000f90       ??_C@_07EDIIGFEI@init2e?6?$AA@ 10035f90     tlib:velotron.obj
 0002:00000f98       ??_C@_06OCPONGCJ@init3?6?$AA@ 10035f98     tlib:velotron.obj
 0002:00000fa0       ??_C@_06OHLBMAKM@init4?6?$AA@ 10035fa0     tlib:velotron.obj
 0002:00000fa8       ??_C@_06OGHDKKJL@init5?6?$AA@ 10035fa8     tlib:velotron.obj
 0002:00000fb0       ??_C@_06FEKLLEED@no?5ss?6?$AA@ 10035fb0     tlib:velotron.obj
 0002:00000fb8       ??_C@_06OEDFBEMC@init6?6?$AA@ 10035fb8     tlib:velotron.obj
 0002:00000fc0       ??_C@_06JODBLEAI@initx?6?$AA@ 10035fc0     tlib:velotron.obj
 0002:00000fcc       ??_7Velotron@@6B@          10035fcc     tlib:velotron.obj
 0002:00001114       ??_C@_05ELDLEDEO@COM?$CFd?$AA@ 10036114     tlib:rtd.obj
 0002:0000111c       ??_C@_02DPKJAMEF@?$CFd?$AA@ 1003611c     tlib:rtd.obj
 0002:00001120       ??_C@_0N@KMDNLKJO@?$CFs?$CFsds?$CFd?4log?$AA@ 10036120     tlib:rtd.obj
 0002:00001130       ??_C@_0BH@KEBKFMD@rtd1?3?5logging?5started?6?$AA@ 10036130     tlib:rtd.obj
 0002:00001148       ??_C@_07GLAPGHDL@rtd?3?51?6?$AA@ 10036148     tlib:rtd.obj
 0002:00001150       ??_C@_07GJEJNJGC@rtd?3?52?6?$AA@ 10036150     tlib:rtd.obj
 0002:00001158       ??_C@_09JABMOBDP@?4?2rtd?4cpp?$AA@ 10036158     tlib:rtd.obj
 0002:00001164       ??_C@_0L@FCGHLFCB@?$CFs?$CFs?$CFd?4dat?$AA@ 10036164     tlib:rtd.obj
 0002:00001170       ??_C@_0L@GGBKIFNF@?$CFs?$CFs?$CFd?43dp?$AA@ 10036170     tlib:rtd.obj
 0002:0000117c       ??_C@_0DH@MCEBOGMB@?$CF4d?9?$CF02d?9?$CF02d?$EA?$CF02d?9?$CF02d?9?$CF02d_?$CFd?9@ 1003617c     tlib:rtd.obj
 0002:000011b4       ??_C@_0L@FELALDCB@?$CFs?$CFs?$CFs?4rmp?$AA@ 100361b4     tlib:rtd.obj
 0002:000011c0       ??_C@_07GIILLDFF@rtd?3?53?6?$AA@ 100361c0     tlib:rtd.obj
 0002:000011c8       ??_C@_08KFAEOCID@rtd?3?53a?6?$AA@ 100361c8     tlib:rtd.obj
 0002:000011d4       ??_C@_0BM@IABOEDD@Serial?5Port?5Does?5Not?5Exist?6?$AA@ 100361d4     tlib:rtd.obj
 0002:000011f0       ??_C@_05NAOIJFC@Error?$AA@ 100361f0     tlib:rtd.obj
 0002:000011f8       ??_C@_0HB@FLKLJJBG@Serial?5Port?5Error?6A?5selected?5ser@ 100361f8     tlib:rtd.obj
 0002:0000126c       ??_C@_0BL@OKNCCNBO@Serial?5Port?5Access?5Denied?6?$AA@ 1003626c     tlib:rtd.obj
 0002:00001288       ??_C@_0HE@FIINFOOF@Serial?5Port?5Error?6Serial?5Port?5Ac@ 10036288     tlib:rtd.obj
 0002:000012fc       ??_C@_0BK@OHLPMOJK@Serial?5Port?5Access?5Denied?$AA@ 100362fc     tlib:rtd.obj
 0002:00001318       ??_C@_0BH@DEJMFJPA@Serial?5Port?5DCB?5Error?6?$AA@ 10036318     tlib:rtd.obj
 0002:00001330       ??_C@_0HA@PMMGAGJM@Serial?5Port?5Error?6Serial?5Port?5DC@ 10036330     tlib:rtd.obj
 0002:000013a0       ??_C@_0BG@BCFFOFHH@Serial?5Port?5DCB?5Error?$AA@ 100363a0     tlib:rtd.obj
 0002:000013b8       ??_C@_0BN@FDBMOBBP@Serial?5Port?5Commstate?5Error?6?$AA@ 100363b8     tlib:rtd.obj
 0002:000013d8       ??_C@_0HG@IFDFONFC@Serial?5Port?5Error?6Serial?5Port?5Co@ 100363d8     tlib:rtd.obj
 0002:00001450       ??_C@_0BM@EPKHMGOM@Serial?5Port?5Commstate?5Error?$AA@ 10036450     tlib:rtd.obj
 0002:0000146c       ??_C@_0BL@MFCOEEFE@Serial?5Port?5Event?5Error?51?6?$AA@ 1003646c     tlib:rtd.obj
 0002:00001488       ??_C@_0HE@PDHFNPBN@Serial?5Port?5Error?6Serial?5Port?5Ev@ 10036488     tlib:rtd.obj
 0002:000014fc       ??_C@_0BK@HEKKADKG@Serial?5Port?5Event?5Error?51?$AA@ 100364fc     tlib:rtd.obj
 0002:00001518       ??_C@_0BL@MHGIPKAN@Serial?5Port?5Event?5Error?52?6?$AA@ 10036518     tlib:rtd.obj
 0002:00001538       ??_C@_0HE@BNEPKLB@Serial?5Port?5Error?6Serial?5Port?5Ev@ 10036538     tlib:rtd.obj
 0002:000015ac       ??_C@_0BK@FPIHFAGF@Serial?5Port?5Event?5Error?52?$AA@ 100365ac     tlib:rtd.obj
 0002:000015c8       ??_C@_0BL@IMNODCOB@Serial?5Port?5Unknown?5Error?6?$AA@ 100365c8     tlib:rtd.obj
 0002:000015e8       ??_C@_0HG@OACHIEDG@Serial?5Port?5Error?6Serial?5Port?5Un@ 100365e8     tlib:rtd.obj
 0002:00001660       ??_C@_0BK@ONJLPLEA@Serial?5Port?5Unknown?5Error?$AA@ 10036660     tlib:rtd.obj
 0002:0000167c       ??_C@_07GNMEKFNA@rtd?3?54?6?$AA@ 1003667c     tlib:rtd.obj
 0002:00001684       ??_C@_07GMAGMPOH@rtd?3?55?6?$AA@ 10036684     tlib:rtd.obj
 0002:0000168c       ??_C@_04JCAELNHE@raw?6?$AA@ 1003668c     tlib:rtd.obj
 0002:00001694       ??_C@_02GMLFBBN@wb?$AA@    10036694     tlib:rtd.obj
 0002:00001698       ??_C@_05NPBFDCMB@3d?51?6?$AA@ 10036698     tlib:rtd.obj
 0002:000016a0       ??_C@_05NNFDIMJI@3d?52?6?$AA@ 100366a0     tlib:rtd.obj
 0002:000016a8       ??_C@_04KMMFPDLO@rm1?6?$AA@ 100366a8     tlib:rtd.obj
 0002:000016b0       ??_C@_04KOIDENOH@rm2?6?$AA@ 100366b0     tlib:rtd.obj
 0002:000016b8       ??_C@_07GOEAHBLO@rtd?3?56?6?$AA@ 100366b8     tlib:rtd.obj
 0002:000016c0       ??_C@_0O@MFNDEOLE@Speed?5Cadence?$AA@ 100366c0     tlib:rtd.obj
 0002:000016d0       ??_C@_09DLBDEGGB@Heartrate?$AA@ 100366d0     tlib:rtd.obj
 0002:000016dc       ??_C@_07BEEENBHE@rtd?3?5x?6?$AA@ 100366dc     tlib:rtd.obj
 0002:000016e4       ??_C@_0BG@PMKCODCK@rtd?3?5logging?5started?6?$AA@ 100366e4     tlib:rtd.obj
 0002:000016fc       ??_C@_06OFFKABIF@rtd?5x?6?$AA@ 100366fc     tlib:rtd.obj
 0002:00001704       ??_C@_02JDPG@rb?$AA@       10036704     tlib:rtd.obj
 0002:00001707       ??_C@_00CNPNBAHC@?$AA@     10036707     tlib:rtd.obj
 0002:00001708       ??_C@_0M@CCPBPADB@rmp?5error?51?$AA@ 10036708     tlib:rtd.obj
 0002:00001714       ??_C@_03ELIABIOC@w?$CLb?$AA@ 10036714     tlib:rtd.obj
 0002:00001718       ??_C@_0M@JNMKDPC@rmp?5error?52?$AA@ 10036718     tlib:rtd.obj
 0002:00001724       ??_C@_04EFLLEMFC@RM1X?$AA@ 10036724     tlib:rtd.obj
 0002:0000172c       ??_C@_03GAPHDAON@TTS?$AA@  1003672c     tlib:rtd.obj
 0002:00001730       ??_C@_0BB@HNHAIKFF@Performance?5File?$AA@ 10036730     tlib:rtd.obj
 0002:00001744       ??_C@_0BA@MJKLJGNO@rmp?5write?5error?$AA@ 10036744     tlib:rtd.obj
 0002:00001754       ??_C@_04FPHHMOFF@RMPI?$AA@ 10036754     tlib:rtd.obj
 0002:0000175c       ??_C@_0L@FBEHDLCE@coursename?$AA@ 1003675c     tlib:rtd.obj
 0002:00001768       ??_C@_04MKOONEF@RMPX?$AA@  10036768     tlib:rtd.obj
 0002:00001774       ??_7RTD@@6B@               10036774     tlib:rtd.obj
 0002:000018a4       ??_7Performance@@6B@       100368a4     tlib:performance.obj
 0002:000019cc       ??_7Simulator@@6B@         100369cc     tlib:simulator.obj
 0002:00001aec       ??_C@_0BB@NDEHLPHF@computrainer?3?51?6?$AA@ 10036aec     tlib:computrainer.obj
 0002:00001b00       ??_C@_0BB@NBABABCM@computrainer?3?52?6?$AA@ 10036b00     tlib:computrainer.obj
 0002:00001b14       ??_C@_0BC@JPJDDJFG@computrainer?3?52x?6?$AA@ 10036b14     tlib:computrainer.obj
 0002:00001b28       ??_C@_0BB@KMAMAJDK@computrainer?3?5x?6?$AA@ 10036b28     tlib:computrainer.obj
 0002:00001b3c       ??_C@_0CD@DBDKNNPE@computrainer?3?5rtd?5not?5initialize@ 10036b3c     tlib:computrainer.obj
 0002:00001b60       ??_C@_0BB@NAMDGLBL@computrainer?3?53?6?$AA@ 10036b60     tlib:computrainer.obj
 0002:00001b74       ??_C@_0BP@KLNJDBDF@computrainer?3?5not?5initialized?6?$AA@ 10036b74     tlib:computrainer.obj
 0002:00001b94       ??_C@_0M@IBBFPCJK@rmp?5?$DN?$DN?5null?$AA@ 10036b94     tlib:computrainer.obj
 0002:00001ba0       ??_C@_0BD@ECMHACEN@?4?2computrainer?4cpp?$AA@ 10036ba0     tlib:computrainer.obj
 0002:00001bb4       ??_C@_0BH@PHKLJKIB@computrainer?3?3init?3?51?6?$AA@ 10036bb4     tlib:computrainer.obj
 0002:00001bcc       ??_C@_0BH@IIOACMMO@computrainer?3?3init?3?5x?6?$AA@ 10036bcc     tlib:computrainer.obj
 0002:00001be4       ??_C@_0M@NJFPGLEG@?$CF10ld?5?$CF?43f?6?$AA@ 10036be4     tlib:computrainer.obj
 0002:00001bf0       ??_C@_0BM@DAFDJKHJ@?$CFd?9?$CF02d?9?$CF02d?5?$CF02d?3?$CF02d?3?$CF02d?$AA@ 10036bf0     tlib:computrainer.obj
 0002:00001c14       ??_7Computrainer@@6B@      10036c14     tlib:computrainer.obj
 0002:00001d48       ??_C@_01NANMIPIL@N?$AA@    10036d48     tlib:nvram.obj
 0002:00001d4c       ??_C@_05NJOGGEIN@38400?$AA@ 10036d4c     tlib:nvram.obj
 0002:00001d58       ??_7NVRAM@@6B@             10036d58     tlib:nvram.obj
 0002:00001d5c       ??_C@_0BD@ILEHCING@?$CFs?$CFsmaincourse?4log?$AA@ 10036d5c     tlib:course.obj
 0002:00001d70       ??_C@_0N@OJIFCMKI@Main?5course?6?$AA@ 10036d70     tlib:course.obj
 0002:00001d80       ??_C@_0L@BAPEDHCL@name?5?$DN?5?$CFs?6?$AA@ 10036d80     tlib:course.obj
 0002:00001d8c       ??_C@_0O@HGFCJNCJ@npoints?5?$DN?5?$CFd?6?$AA@ 10036d8c     tlib:course.obj
 0002:00001d9c       ??_C@_0BF@KPHEONLC@minel_meters?5?$DN?5?$CF?42f?6?$AA@ 10036d9c     tlib:course.obj
 0002:00001db4       ??_C@_0BF@LMDBALBJ@maxel_meters?5?$DN?5?$CF?42f?6?$AA@ 10036db4     tlib:course.obj
 0002:00001dcc       ??_C@_0M@DHEOLPNF@?$CF?42f?0?5?$CF?42f?6?$AA@ 10036dcc     tlib:course.obj
 0002:00001dd8       ??_C@_0CC@HOIFBCAI@?5?5?5I?5?5?5?5?5?5?5?5?5?5?5?5?5X?5?5?5?5?5?5?5?5?5?5?5?5Y?6@ 10036dd8     tlib:course.obj
 0002:00001e00       ??_7Course@@6B@            10036e00     tlib:course.obj
 0002:00001e04       ??_C@_06FCIJJBOB@hr?4ini?$AA@ 10036e04     tlib:heartrate.obj
 0002:00001e0c       ??_C@_05GFCDIDHO@debug?$AA@ 10036e0c     tlib:heartrate.obj
 0002:00001e14       ??_C@_06PKBGCGGK@hr?4log?$AA@ 10036e14     tlib:heartrate.obj
 0002:00001e1c       ??_C@_0BA@KFKJEJHP@?$CF10ld?3?5started?6?$AA@ 10036e1c     tlib:heartrate.obj
 0002:00001e2c       ??_C@_0BE@KAKOJNCM@avgfsig?5?$CFd?5?$DN?5?$CF?42lf?6?$AA@ 10036e2c     tlib:heartrate.obj
 0002:00001e40       ??_C@_0DF@GKDCIBBK@?6?$CF10ld?3?5NOISEFLAG?5after?58?5second@ 10036e40     tlib:heartrate.obj
 0002:00001e78       ??_C@_0BG@NMJMLJJ@?9?9?9?9?9?9?9?9?9?9?9?9?9?9?9?9?9?9?9?9?6?$AA@ 10036e78     tlib:heartrate.obj
 0002:00001e90       ??_C@_03PMGGPEJJ@?$CFd?6?$AA@ 10036e90     tlib:heartrate.obj
 0002:00001e94       ??_C@_09PNJMMGIC@?$CI?$CF6?42lf?$CJ?5?$AA@ 10036e94     tlib:heartrate.obj
 0002:00001ea0       ??_C@_07KOJBIIOH@?$CF6?42lf?5?$AA@ 10036ea0     tlib:heartrate.obj
 0002:00001ea8       ??_C@_0CH@NJHNJABJ@?$CF10ld?3?5noise?3?5rawppm?5?$DO?5250?5?4?4?4?5?$CF@ 10036ea8     tlib:heartrate.obj
 0002:00001ed0       ??_C@_0CG@EKHIBLAA@?$CF10ld?3?5noise?3?5rawppm?5?$DM?540?5?4?4?4?5?$CF?4@ 10036ed0     tlib:heartrate.obj
 0002:00001ef8       ??_C@_0DM@JAILFLLO@?$CF10ld?5?5noise?5?$CIdiff?$CJ?3?5rawppm?5?$DN?5?$CF?4@ 10036ef8     tlib:heartrate.obj
 0002:00001f34       ??_C@_0BK@CJAAAKCI@?$CF10ld?5?5?$CF6?42lf?5?$CI?$CF?42lf?$CJ?5?9?$DO?5?$AA@ 10036f34     tlib:heartrate.obj
 0002:00001f50       ??_C@_0M@DCJLNLHK@decoder?4ini?$AA@ 10036f50     tlib:velotron_decoder.obj
 0002:00001f5c       ??_C@_03PENLHFGJ@5?40?$AA@ 10036f5c     tlib:velotron_decoder.obj
 0002:00001f60       ??_C@_03HOJCLNMC@Vdd?$AA@  10036f60     tlib:velotron_decoder.obj
 0002:00001f64       ??_C@_07HAFPJOBC@logging?$AA@ 10036f64     tlib:velotron_decoder.obj
 0002:00001f6c       ??_C@_02PNFIDHGF@50?$AA@   10036f6c     tlib:velotron_decoder.obj
 0002:00001f70       ??_C@_0N@JHPMNHD@volts?5filter?$AA@ 10036f70     tlib:velotron_decoder.obj
 0002:00001f80       ??_C@_0N@LHCPAMJD@constructor?6?$AA@ 10036f80     tlib:velotron_decoder.obj
 0002:00001f90       ??_C@_0BH@MANJGHCC@?4?2velotron_decoder?4cpp?$AA@ 10036f90     tlib:velotron_decoder.obj
 0002:00001fa8       ??_C@_0BN@IBMCOBME@error?3?5packet?5format?5?$DN?5?$CF02x?6?$AA@ 10036fa8     tlib:velotron_decoder.obj
 0002:00001fcc       ??_7velotronDecoder@@6B@   10036fcc     tlib:velotron_decoder.obj
 0002:00002030       ??_C@_0BK@DAJAHCEH@?$CIc?$CJ?52012?0?5RacerMate?0?5Inc?4?$AA@ 10037030     tlib:rmp.obj
 0002:0000204c       ??_C@_0BO@NNIJIGBE@?$CF04d?9?$CF02d?9?$CF02dT?$CF02d?3?$CF02d?3?$CF02d?$AA@ 1003704c     tlib:rmp.obj
 0002:0000206c       ??_C@_09PKBNHIKP@?4?2rmp?4cpp?$AA@ 1003706c     tlib:rmp.obj
 0002:00002078       ??_C@_0BF@FGKNPEOI@file?3?5?$CFs?5line?3?5?$CFd?5?$CFd?$AA@ 10037078     tlib:rmp.obj
 0002:00002090       ??_C@_04FABLJDN@Name?$AA@  10037090     tlib:rmp.obj
 0002:00002098       ??_C@_08BABJIOEM@filename?$AA@ 10037098     tlib:rmp.obj
 0002:000020a4       ??_C@_04EBPADADD@desc?$AA@ 100370a4     tlib:rmp.obj
 0002:000020ac       ??_C@_0BI@KHMFOEAF@?2dh?2d?2dm?2d?2d?2?4?2ds?2?4rmp$?$AA@ 100370ac     tlib:rmp.obj
 0002:000020c4       ??_C@_0BD@CENMMLPM@?$CF1dh?$CF02dm?$CF02d?4?$CF1ds?$AA@ 100370c4     tlib:rmp.obj
 0002:000020d8       ??_C@_0L@PKHAFHIC@0h00m00?40s?$AA@ 100370d8     tlib:rmp.obj
 0002:000020e8       ??_7MD5@@6B@               100370e8     tlib:rmp.obj
 0002:000020f4       ??_7performanceDecoder@@6B@ 100370f4     tlib:performance_decoder.obj
 0002:0000215c       ??_7simDecoder@@6B@        1003715c     tlib:simdecoder.obj
 0002:000021bc       ??_C@_0BI@BFKPLACG@computrainerDecoder?3?51?6?$AA@ 100371bc     tlib:computrainer_decoder.obj
 0002:000021d4       ??_C@_0BI@BHOJAOHP@computrainerDecoder?3?52?6?$AA@ 100371d4     tlib:computrainer_decoder.obj
 0002:000021ec       ??_C@_0BI@GKOEAGGJ@computrainerDecoder?3?5x?6?$AA@ 100371ec     tlib:computrainer_decoder.obj
 0002:0000220c       ??_7computrainerDecoder@@6B@ 1003720c     tlib:computrainer_decoder.obj
 0002:0000226c       ??_C@_0CC@HDHMILD@?$AN?6Error?5in?5?$CFs?5at?5line?5?$CFd?3?$AN?6?$CFs?$AN?6?$AN@ 1003726c     glib:fatalerror.obj
 0002:00002290       ??_C@_0BN@EKBKNHF@?$AN?6Error?5in?5?$CFs?5at?5line?5?$CFd?$AN?6?$AN?6?$AA@ 10037290     glib:fatalerror.obj
 0002:000022b0       ??_C@_0O@MNFEGLE@?$CFs?$CFsfatal?4log?$AA@ 100372b0     glib:fatalerror.obj
 0002:000022c0       ??_C@_04LLEBNMDN@?$CFs?$AN?6?$AA@ 100372c0     glib:fatalerror.obj
 0002:000022c8       ??_C@_0BA@GBMFGKC@last?5name?5?$DN?5?$CFs?6?$AA@ 100372c8     glib:person.obj
 0002:000022d8       ??_C@_0BB@NINPCEGM@first?5name?5?$DN?5?$CFs?6?$AA@ 100372d8     glib:person.obj
 0002:000022ec       ??_C@_0BC@JCKMNAND@middle?5name?5?$DN?5?$CFs?6?$AA@ 100372ec     glib:person.obj
 0002:00002300       ??_C@_0L@OPNEKGKL@cm?5?$DN?5?$CF?42f?6?$AA@ 10037300     glib:person.obj
 0002:0000230c       ??_C@_01BIAFAFID@F?$AA@    1003730c     glib:person.obj
 0002:00002310       ??_C@_01PLPBNMEI@M?$AA@    10037310     glib:person.obj
 0002:00002314       ??_C@_09OFGGIELI@sex?5?$DN?5?$CFs?6?$AA@ 10037314     glib:person.obj
 0002:00002320       ??_C@_0M@EFHGAKLC@age?5?$DN?5?$CF?40f?6?$AA@ 10037320     glib:person.obj
 0002:0000232c       ??_C@_0M@IFPBBDHM@kgs?5?$DN?5?$CF?40f?6?$AA@ 1003732c     glib:person.obj
 0002:00002338       ??_C@_0BC@DAEPHHHA@birth?5month?5?$DN?5?$CFd?6?$AA@ 10037338     glib:person.obj
 0002:0000234c       ??_C@_0BA@PECJNHNO@birth?5day?5?$DN?5?$CFd?6?$AA@ 1003734c     glib:person.obj
 0002:0000235c       ??_C@_0BB@OHKCLJKD@birth?5year?5?$DN?5?$CFd?6?$AA@ 1003735c     glib:person.obj
 0002:00002370       ??_C@_0M@OLBNAHGJ@phone?5?$DN?5?$CFs?6?$AA@ 10037370     glib:person.obj
 0002:0000237c       ??_C@_0O@CNNFCBNJ@address?5?$DN?5?$CFs?6?$AA@ 1003737c     glib:person.obj
 0002:0000238c       ??_C@_0L@OJKKGOAK@?7Name?3?5?$CFs?6?$AA@ 1003738c     glib:person.obj
 0002:00002398       ??_C@_0BJ@DBLICLMI@?7Weight?3?5?$CF?42f?5kilograms?6?$AA@ 10037398     glib:person.obj
 0002:000023b4       ??_C@_0BG@KFJFCBAA@?7Weight?3?5?$CF?42f?5pounds?6?$AA@ 100373b4     glib:person.obj
 0002:000023cc       ??_C@_0BC@CEKIKOJF@?7Height?3?5?$CF?42f?5cm?6?$AA@ 100373cc     glib:person.obj
 0002:000023e0       ??_C@_0BG@IFJEOODF@?7Height?3?5?$CF?42f?5inches?6?$AA@ 100373e0     glib:person.obj
 0002:000023f8       ??_C@_0N@GAKPDGGG@?7Gender?3?5?$CFs?6?$AA@ 100373f8     glib:person.obj
 0002:00002408       ??_C@_0BE@GLFAJPFN@?7Date?5Of?5Birth?3?5?$CFs?6?$AA@ 10037408     glib:person.obj
 0002:0000241c       ??_C@_0BD@OFEKDLBP@?7Phone?5Number?3?5?$CFs?6?$AA@ 1003741c     glib:person.obj
 0002:00002430       ??_C@_0O@GPNDCEFA@?7Address?3?5?$CFs?6?$AA@ 10037430     glib:person.obj
 0002:00002440       ??_C@_0EM@OJMECABL@?$CFs?3?5Average?5dt?5?$DN?5?$CF?46f?5millisecon@ 10037440     glib:fasttimer.obj
 0002:0000248c       ??_C@_0CA@GDBJHEJI@Average?5dt?5?$DN?5?$CF?46f?5milliseconds?6?$AA@ 1003748c     glib:fasttimer.obj
 0002:000024b0       ??_7fastTimer@@6B@         100374b0     glib:fasttimer.obj
 0002:000024b8       ??_7CRF@@6B@               100374b8     glib:crf.obj
 0002:000024bc       ??_C@_0BF@LMAIOBMJ@?$CF02d?$CF02d?$CF02d?$CF02d?4log?$AA@ 100374bc     glib:win_utils.obj
 0002:000024d4       ??_C@_02HAOIJKIC@?$CFc?$AA@ 100374d4     glib:win_utils.obj
 0002:000024d8       ??_C@_09NADIIIHK@?$CFs?$CFs?$CK?4log?$AA@ 100374d8     glib:logger.obj
 0002:000024e4       ??_C@_05CNDJFPDP@?$CF02x?5?$AA@ 100374e4     glib:logger.obj
 0002:000024ec       ??_C@_04PFOHOKJK@?5?5?5?5?$AA@ 100374ec     glib:logger.obj
 0002:000024f4       ??_C@_03NDEAONJP@?5?5?5?$AA@ 100374f4     glib:logger.obj
 0002:000024f8       ??_C@_0BK@CJECPMNJ@Error?3?5format?5?$DN?5NULL?$CB?$CB?$CB?$CB?6?$AA@ 100374f8     glib:logger.obj
 0002:00002514       ??_C@_0BG@PHKDMECF@log?3?5printdepth?5?$DN?5?$CFd?6?$AA@ 10037514     glib:logger.obj
 0002:0000252c       ??_C@_02DKCKIIND@?$CFs?$AA@ 1003752c     glib:logger.obj
 0002:00002530       ??_C@_0CG@OJOMDELO@?6?$CIstring?5to?5long?5in?5Logger?3?3writ@ 10037530     glib:logger.obj
 0002:00002558       ??_C@_03OFAPEBGM@?$CFs?6?$AA@ 10037558     glib:logger.obj
 0002:00002560       ??_7Logger@@6B@            10037560     glib:logger.obj
 0002:00002564       ??_C@_08BOFGLPCP@?6flush?3?6?$AA@ 10037564     glib:utils.obj
 0002:00002570       ??_C@_0BL@IAFEAHFD@i?5?$DN?5255?5end?5?$DN?5?5?5?$CFlu?5?$CI?$CFlu?$CJ?6?$AA@ 10037570     glib:utils.obj
 0002:0000258c       ??_C@_0BL@MGBJAFOA@i?5?$DN?5255?5start?5?$DN?5?$CFlu?5?$CI?$CFlu?$CJ?6?$AA@ 1003758c     glib:utils.obj
 0002:000025a8       ??_C@_0CB@OCKCFBPD@flush?5timeout?5end?5?$DN?5?5?5?$CFlu?5?$CI?$CFlu?$CJ?6@ 100375a8     glib:utils.obj
 0002:000025cc       ??_C@_0CB@KEOPFDEA@flush?5timeout?5start?5?$DN?5?$CFlu?5?$CI?$CFlu?$CJ?6@ 100375cc     glib:utils.obj
 0002:000025f0       ??_C@_04NOJCDH@?$CF02x?$AA@ 100375f0     glib:utils.obj
 0002:000025f8       ??_C@_07IDLJIJNJ@?5?5?5ok1?6?$AA@ 100375f8     glib:serial.obj
 0002:00002600       ??_C@_0BF@PGFIJJBO@?5?5?5ok2?0?5status?5?$DN?5?$CFd?6?$AA@ 10037600     glib:serial.obj
 0002:00002618       ??_C@_04GBDIODIA@?2?2?4?2?$AA@ 10037618     glib:serial.obj
 0002:00002620       ??_C@_0M@DKJNDPIF@?$CFs?0?$CFs?0?$CFd?0?$CFd?$AA@ 10037620     glib:serial.obj
 0002:0000262c       ??_C@_0BI@BMBCJGPM@?5?5?5CreateFile?5error?5?$CFd?6?$AA@ 1003762c     glib:serial.obj
 0002:00002644       ??_C@_0BB@CEDEENOC@setupcomm?5error?6?$AA@ 10037644     glib:serial.obj
 0002:00002658       ??_C@_0BH@MMAOEKNN@setcommtimeouts?5error?6?$AA@ 10037658     glib:serial.obj
 0002:00002670       ??_C@_0BM@EELPGNHM@?5?5?5buildcommdcb?5error?5?$DN?5?$CFd?6?$AA@ 10037670     glib:serial.obj
 0002:0000268c       ??_C@_0BM@DCAIEBPN@?5?5?5setcommstate?5error?5?$DN?5?$CFd?6?$AA@ 1003768c     glib:serial.obj
 0002:000026a8       ??_C@_0BI@KIOCFMHA@Open?$CI?$CJ?3?5returning?5TRUE?6?$AA@ 100376a8     glib:serial.obj
 0002:000026c0       ??_C@_0CH@PFBALDNI@error?3?5couldn?8t?5create?5txControl@ 100376c0     glib:serial.obj
 0002:000026e8       ??_C@_0CF@GACCPLDN@error?3?5couldn?8t?5create?5rxExitlEv@ 100376e8     glib:serial.obj
 0002:00002710       ??_C@_0BF@HOFLJMGE@?5?5?5starting?5close?$CI?$CJ?6?$AA@ 10037710     glib:serial.obj
 0002:00002728       ??_C@_0CN@PIENBFMI@?6serial?5port?5destructor?5closing?5@ 10037728     glib:serial.obj
 0002:00002758       ??_C@_0BJ@FECJHBHL@serial?5port?5max?5in?5?$DN?5?$CFd?6?$AA@ 10037758     glib:serial.obj
 0002:00002774       ??_C@_08CHPECONA@close?52?6?$AA@ 10037774     glib:serial.obj
 0002:00002780       ??_C@_0CD@EBKBAKB@GetHandleInformation?$CI?$CJ?5failed?3?5?$CF@ 10037780     glib:serial.obj
 0002:000027a4       ??_C@_0CK@PAEJMEIC@GetHandleInformation?$CI?$CJ?5OK?0?5flags@ 100377a4     glib:serial.obj
 0002:000027d0       ??_C@_0CN@GKJABIAA@setting?5txControlEvent?0?5shutdown@ 100377d0     glib:serial.obj
 0002:00002800       ??_C@_0BG@HHCFNEGN@back?5from?5setevent?$CI?$CJ?6?$AA@ 10037800     glib:serial.obj
 0002:00002818       ??_C@_0BL@HOGHBFIC@setting?5rxThreadExitEvent?6?$AA@ 10037818     glib:serial.obj
 0002:00002834       ??_C@_0DM@HGGECAJJ@back?5from?5SetEvent?$CIrxThreadExitE@ 10037834     glib:serial.obj
 0002:00002870       ??_C@_0M@JEJKPOCD@count?5?$DN?510?6?$AA@ 10037870     glib:serial.obj
 0002:0000287c       ??_C@_0M@CAFELIIH@count?5?$DN?5?$CFd?6?$AA@ 1003787c     glib:serial.obj
 0002:00002888       ??_C@_0BD@JLAKIKG@?5?5?5closing?5handle?6?$AA@ 10037888     glib:serial.obj
 0002:0000289c       ??_C@_0BP@IMALELDJ@close?55?5?$CI?$CK?$CK?$CK?$CK?$CK?$CK?5ERROR?5?$CK?$CK?$CK?$CK?$CK?$CK?$CJ?6?$AA@ 1003789c     glib:serial.obj
 0002:000028bc       ??_C@_0BF@PFLKHEDF@?5?5?5finished?5close?$CI?$CJ?6?$AA@ 100378bc     glib:serial.obj
 0002:000028d4       ??_C@_0P@GDACEMPM@Unknown?5error?4?$AA@ 100378d4     glib:serial.obj
 0002:000028e4       ??_C@_0BC@LCLEHAKM@Serial?5Port?5Error?$AA@ 100378e4     glib:serial.obj
 0002:000028f8       ??_C@_0CD@IKLICDPJ@error?3?5couldn?8t?5create?5writeEven@ 100378f8     glib:serial.obj
 0002:0000291c       ??_C@_0CI@JOPKNFOI@?6txthread?5awakened?5by?5Close?$CI?$CJ?0?5e@ 1003791c     glib:serial.obj
 0002:00002944       ??_C@_0BJ@BKAMHFKN@ResetEvent?5error?$CI2?$CJ?5?$CFld?6?$AA@ 10037944     glib:serial.obj
 0002:00002960       ??_C@_0BA@IHBOJNIF@WAIT_TIMEOUT?52?6?$AA@ 10037960     glib:serial.obj
 0002:00002970       ??_C@_0BC@IOGIJBHA@wait_abandoned?52?6?$AA@ 10037970     glib:serial.obj
 0002:00002984       ??_C@_0N@LPMGBCOO@?4?2serial?4cpp?$AA@ 10037984     glib:serial.obj
 0002:00002994       ??_C@_0BL@HOCBCDLB@unknown?5error?5at?5?$CFd?5in?5?$CFs?6?$AA@ 10037994     glib:serial.obj
 0002:000029b0       ??_C@_0CK@DKFMMOPE@GetOverlappedResult?3?5ERROR_IO_IN@ 100379b0     glib:serial.obj
 0002:000029dc       ??_C@_0BK@PABAPGOP@GetOverlappedResult?3?5?$CFld?6?$AA@ 100379dc     glib:serial.obj
 0002:000029f8       ??_C@_0O@PFCEEJHN@WAIT_TIMEOUT?6?$AA@ 100379f8     glib:serial.obj
 0002:00002a08       ??_C@_0BA@PJGOIAC@wait_abandoned?6?$AA@ 10037a08     glib:serial.obj
 0002:00002a18       ??_C@_0BG@MHBOGNJH@ResetEvent?5error?5?$CFld?6?$AA@ 10037a18     glib:serial.obj
 0002:00002a30       ??_C@_0BI@GOPEGJJK@tx?5WriteFile?5error?5?$CFld?6?$AA@ 10037a30     glib:serial.obj
 0002:00002a48       ??_C@_0CJ@DBGBGHAJ@turned?5off?5further?5WriteFile?5err@ 10037a48     glib:serial.obj
 0002:00002a74       ??_C@_08FFOHNFNP@txfin?51?6?$AA@ 10037a74     glib:serial.obj
 0002:00002a80       ??_C@_08FHKBGLIG@txfin?52?6?$AA@ 10037a80     glib:serial.obj
 0002:00002a8c       ??_C@_08FGGDABLB@txfin?53?6?$AA@ 10037a8c     glib:serial.obj
 0002:00002a98       ??_C@_08CKKMGDJA@txfin?5x?6?$AA@ 10037a98     glib:serial.obj
 0002:00002aa4       ??_C@_0BL@NNHECGJA@?6starting?5receiver?5thread?6?$AA@ 10037aa4     glib:serial.obj
 0002:00002ac0       ??_C@_0BH@MCAGEKOM@GetCommTimeouts?5error?6?$AA@ 10037ac0     glib:serial.obj
 0002:00002ad8       ??_C@_0BN@IILJPPFH@ReadIntervalTimeout?5?$DN?7?7?7?$CFld?6?$AA@ 10037ad8     glib:serial.obj
 0002:00002af8       ??_C@_0CC@MAGLOAGD@ReadTotalTimeoutMultiplier?5?$DN?7?$CFld@ 10037af8     glib:serial.obj
 0002:00002b1c       ??_C@_0CB@PHDOPJGE@ReadTotalTimeoutConstant?5?$DN?7?7?$CFld?6@ 10037b1c     glib:serial.obj
 0002:00002b40       ??_C@_0CD@GPMHNJPG@WriteTotalTimeoutMultiplier?5?$DN?5?$CFl@ 10037b40     glib:serial.obj
 0002:00002b64       ??_C@_0CB@OIIPDMLI@WriteTotalTimeoutConstant?5?$DN?7?$CFld?6@ 10037b64     glib:serial.obj
 0002:00002b88       ??_C@_0CC@NFPKICCA@error?3?5couldn?8t?5create?5ReadEvent@ 10037b88     glib:serial.obj
 0002:00002bac       ??_C@_0BD@HIJPNFKA@SetCommMask?5error?6?$AA@ 10037bac     glib:serial.obj
 0002:00002bc0       ??_C@_0CE@NPDDAPJH@error?3?5RX?5GetOverlappedResult?3?5?$CF@ 10037bc0     glib:serial.obj
 0002:00002be4       ??_C@_0CI@KIABAAED@rxthread?5awakened?5by?5rxThreadExi@ 10037be4     glib:serial.obj
 0002:00002c0c       ??_C@_0BB@EANEMEPM@RX?5WAIT_TIMEOUT?6?$AA@ 10037c0c     glib:serial.obj
 0002:00002c20       ??_C@_0BD@MFMFMFEB@rx?5wait_abandoned?6?$AA@ 10037c20     glib:serial.obj
 0002:00002c34       ??_C@_0CB@EFGJLOPN@error?3?5WAIT_FAILED?5?$CIerror?3?5?$CFld?$CJ?6@ 10037c34     glib:serial.obj
 0002:00002c58       ??_C@_0BN@DBJEEOLP@ending?5serial?5port?5rxThread?6?$AA@ 10037c58     glib:serial.obj
 0002:00002c78       ??_C@_0BG@KNKPGKDF@calling?5_endthread?$CI?$CJ?6?$AA@ 10037c78     glib:serial.obj
 0002:00002c90       ??_C@_0BI@MBKGPGNC@back?5from?5_endthread?$CI?$CJ?6?$AA@ 10037c90     glib:serial.obj
 0002:00002ca8       ??_C@_0EB@GCIGPNPO@serial?5Receive?$CI?$CJ?5error?5?$DN?5?$CFlu?0?5tu@ 10037ca8     glib:serial.obj
 0002:00002cec       ??_C@_0BH@BJPKPKCD@?5?5?5Com?$CFd?5destructor?51?6?$AA@ 10037cec     glib:serial.obj
 0002:00002d04       ??_C@_0BH@BLLMEEHK@?5?5?5Com?$CFd?5destructor?52?6?$AA@ 10037d04     glib:serial.obj
 0002:00002d1c       ??_C@_0BH@BKHOCOEN@?5?5?5Com?$CFd?5destructor?53?6?$AA@ 10037d1c     glib:serial.obj
 0002:00002d38       ??_7Serial@@6B@            10037d38     glib:serial.obj
 0002:00002d3c       ??_C@_07KLJAFAHP@ant?4log?$AA@ 10037d3c     glib:aunt.obj
 0002:00002d44       ??_C@_0BI@KAMPEFHI@baud?5?$DN?5?$CFd?0?5devnum?5?$DN?5?$CFd?6?$AA@ 10037d44     glib:aunt.obj
 0002:00002d5c       ??_C@_0CG@OFIEJGIG@?6?6pclSerialObject?9?$DOOpen?$CI?$CJ?0?5baud?5@ 10037d5c     glib:aunt.obj
 0002:00002d84       ??_C@_0CM@DMGCLEON@Failed?5to?5connect?5to?5device?5at?5U@ 10037d84     glib:aunt.obj
 0002:00002db0       ??_C@_0BB@ICGPOAFM@?6?6ResetSystem?$CI?$CJ?6?$AA@ 10037db0     glib:aunt.obj
 0002:00002dc4       ??_C@_0BF@EIDLFELJ@ResetSystem?5failed?4?6?$AA@ 10037dc4     glib:aunt.obj
 0002:00002ddc       ??_C@_0DG@HLCCPJAN@SetNetworkKey?$CI?$CFd?0?5?$DM?$CFx?0?5?$CFx?0?5?$CFx?0?5?$CF@ 10037ddc     glib:aunt.obj
 0002:00002e14       ??_C@_0BJ@KLCALFFG@SetNetworkKey?5failed?51?4?6?$AA@ 10037e14     glib:aunt.obj
 0002:00002e30       ??_C@_0BJ@LJJFBKLI@SetNetworkKey?5failed?52?4?6?$AA@ 10037e30     glib:aunt.obj
 0002:00002e4c       ??_C@_09CADNOHIL@init?5done?$AA@ 10037e4c     glib:aunt.obj
 0002:00002e58       ??_C@_06ODINHAEJ@addhr?6?$AA@ 10037e58     glib:aunt.obj
 0002:00002e60       ??_C@_07KCHJCAPA@addhrx?6?$AA@ 10037e60     glib:aunt.obj
 0002:00002e68       ??_C@_0BL@HNLHKCMB@AssignChannel?$CI?$CFd?0?5?$CFd?0?5?$CFd?$CJ?6?$AA@ 10037e68     glib:aunt.obj
 0002:00002e84       ??_C@_0BI@DCEMGPOP@AssignChanel?5failed?51?4?6?$AA@ 10037e84     glib:aunt.obj
 0002:00002e9c       ??_C@_0BO@DKKCMFCB@SetChannelId?$CI?$CFd?0?5?$CFd?0?5?$CFd?0?5?$CFd?$CJ?6?$AA@ 10037e9c     glib:aunt.obj
 0002:00002ebc       ??_C@_0BI@LMHPNKMK@SetChannelId?5failed?51?4?6?$AA@ 10037ebc     glib:aunt.obj
 0002:00002ed4       ??_C@_0BI@KOMKHFCE@SetChannelId?5failed?52?4?6?$AA@ 10037ed4     glib:aunt.obj
 0002:00002eec       ??_C@_0BK@DBLHCMJG@SetChannelPeriod?$CI?$CFd?0?5?$CFd?$CJ?6?$AA@ 10037eec     glib:aunt.obj
 0002:00002f08       ??_C@_0BM@PGHGMILO@SetChannelPeriod?5failed?51?4?6?$AA@ 10037f08     glib:aunt.obj
 0002:00002f24       ??_C@_0BM@OEMDGHFA@SetChannelPeriod?5failed?52?4?6?$AA@ 10037f24     glib:aunt.obj
 0002:00002f40       ??_C@_0BP@FPNKLJKC@SetChannelRFFrequency?$CI?$CFd?0?5?$CFd?$CJ?6?$AA@ 10037f40     glib:aunt.obj
 0002:00002f60       ??_C@_0CB@MNDJDCOP@SetChannelRFFrequency?5failed?51?4?6@ 10037f60     glib:aunt.obj
 0002:00002f84       ??_C@_0CB@NPIMJNAB@SetChannelRFFrequency?5failed?52?4?6@ 10037f84     glib:aunt.obj
 0002:00002fa8       ??_C@_0CB@FMMFPPJI@SetChannelTransmitPower?$CI?$CFd?0?5?$CFd?$CJ?6@ 10037fa8     glib:aunt.obj
 0002:00002fcc       ??_C@_0CC@DJAGLCLJ@SetChannelTransmitPower?5failed?51@ 10037fcc     glib:aunt.obj
 0002:00002ff0       ??_C@_0CC@DLEAAMOA@SetChannelTransmitPower?5failed?52@ 10037ff0     glib:aunt.obj
 0002:00003014       ??_C@_0BB@OPHFFAPF@OpenChannel?$CI?$CFd?$CJ?6?$AA@ 10038014     glib:aunt.obj
 0002:00003028       ??_C@_0BG@MPNILBPL@OpenChannel?5failed?51?6?$AA@ 10038028     glib:aunt.obj
 0002:00003040       ??_C@_0BG@MNJOAPKC@OpenChannel?5failed?52?6?$AA@ 10038040     glib:aunt.obj
 0002:00003058       ??_C@_0BI@DAEODOCM@RxExtMesgsEnable?$CITRUE?$CJ?6?$AA@ 10038058     glib:aunt.obj
 0002:00003070       ??_C@_0BL@IJCEHGFM@RxExtMesgsEnable?5failed?51?6?$AA@ 10038070     glib:aunt.obj
 0002:0000308c       ??_C@_0BL@ILGCMIAF@RxExtMesgsEnable?5failed?52?6?$AA@ 1003808c     glib:aunt.obj
 0002:000030a8       ??_C@_0CK@CANCMPOJ@?7Error?5configuring?5network?5key?3?5@ 100380a8     glib:aunt.obj
 0002:000030d4       ??_C@_0BC@OMBKOHPA@?7network?5key?5set?6?$AA@ 100380d4     glib:aunt.obj
 0002:000030e8       ??_C@_0CD@HHHKFDBG@Error?5assigning?5channel?3?5Code?50?$CF@ 100380e8     glib:aunt.obj
 0002:0000310c       ??_C@_0BD@LILADHHH@?7Channel?5assigned?6?$AA@ 1003810c     glib:aunt.obj
 0002:00003120       ??_C@_0CJ@JCOEAMDG@?7Error?5configuring?5Channel?5ID?3?5C@ 10038120     glib:aunt.obj
 0002:0000314c       ??_C@_0BB@LANCCMB@?7Channel?5ID?5set?6?$AA@ 1003814c     glib:aunt.obj
 0002:00003160       ??_C@_0CI@NAOKLNIA@Error?5configuring?5Channel?5ID?3?5Co@ 10038160     glib:aunt.obj
 0002:00003188       ??_C@_0BF@NGGNGNEO@?7Channel?5period?5set?6?$AA@ 10038188     glib:aunt.obj
 0002:000031a0       ??_C@_0CO@OFFEHIKL@?7Error?5configuring?5Radio?5Frequen@ 100381a0     glib:aunt.obj
 0002:000031d0       ??_C@_0BG@IPOHFEJN@?7Radio?5Frequency?5set?6?$AA@ 100381d0     glib:aunt.obj
 0002:000031e8       ??_C@_0BH@EPLKHNLH@?7channel?5tx?5power?5set?6?$AA@ 100381e8     glib:aunt.obj
 0002:00003200       ??_C@_0CC@OHIGIIH@?7Error?5opening?5channel?3?5Code?50?$CFd@ 10038200     glib:aunt.obj
 0002:00003224       ??_C@_0BB@LDPLKDMN@?7Channel?5opened?6?$AA@ 10038224     glib:aunt.obj
 0002:00003238       ??_C@_0DG@MKLIHLGM@?7Extended?5messages?5not?5supported@ 10038238     glib:aunt.obj
 0002:00003270       ??_C@_0CN@MBIHBGAI@?7Error?5enabling?5extended?5message@ 10038270     glib:aunt.obj
 0002:000032a0       ??_C@_0BN@BEJIDEJO@?7Extended?5messages?5enabled?6?6?$AA@ 100382a0     glib:aunt.obj
 0002:000032c0       ??_C@_0CG@ELMLKADP@?7Error?5unassigning?5channel?3?5Code@ 100382c0     glib:aunt.obj
 0002:000032e8       ??_C@_0BF@EEFAOACN@?7Channel?5unassigned?6?$AA@ 100382e8     glib:aunt.obj
 0002:00003300       ??_C@_0BM@MCGNMIHJ@?7Channel?5is?5already?5closed?6?$AA@ 10038300     glib:aunt.obj
 0002:0000331c       ??_C@_0BJ@FPBDPODC@UnAssignChannel?$CI?$CFd?0?5?$CFd?$CJ?6?$AA@ 1003831c     glib:aunt.obj
 0002:00003338       ??_C@_0CC@IBHMDIED@?7Error?5closing?5channel?3?5Code?50?$CFd@ 10038338     glib:aunt.obj
 0002:0000335c       ??_C@_0DG@POJPKJLF@?7Requested?5message?5not?5supported@ 1003835c     glib:aunt.obj
 0002:00003394       ??_C@_0BC@MCGCJLGD@?7MESG_REQUEST_ID?6?$AA@ 10038394     glib:aunt.obj
 0002:000033a8       ??_C@_0BB@IELHFCDL@?7Channel?5Closed?6?$AA@ 100383a8     glib:aunt.obj
 0002:000033c0       ??_C@_0EC@NFIFGKAC@Tx?3?$CI?$CFd?$CJ?3?5?$FL?$CF02x?$FN?0?$FL?$CF02x?$FN?0?$FL?$CF02x?$FN?0?$FL?$CF@ 100383c0     glib:aunt.obj
 0002:00003404       ??_C@_07JIMFBMBB@Tx?3?5?$CFc?$AN?$AA@ 10038404     glib:aunt.obj
 0002:0000340c       ??_C@_0BB@EKKEOALG@?7Search?5Timeout?6?$AA@ 1003840c     glib:aunt.obj
 0002:00003420       ??_C@_09IMJDLDMB@?7Rx?5Fail?6?$AA@ 10038420     glib:aunt.obj
 0002:0000342c       ??_C@_0BL@MLDKMODK@?7Burst?5receive?5has?5failed?6?$AA@ 1003842c     glib:aunt.obj
 0002:00003448       ??_C@_0BD@NGEEDDNI@Tranfer?5Completed?6?$AA@ 10038448     glib:aunt.obj
 0002:0000345c       ??_C@_0BA@NKFDADPD@Tranfer?5Failed?6?$AA@ 1003845c     glib:aunt.obj
 0002:0000346c       ??_C@_0O@EBCBHN@Go?5to?5Search?6?$AA@ 1003846c     glib:aunt.obj
 0002:0000347c       ??_C@_0BD@HDPELEGE@Channel?5Collision?6?$AA@ 1003847c     glib:aunt.obj
 0002:00003490       ??_C@_0P@BBDCJALM@Burst?5Started?6?$AA@ 10038490     glib:aunt.obj
 0002:000034a0       ??_C@_0BP@ONNMMPBM@Unhandled?5channel?5event?3?50x?$CFX?6?$AA@ 100384a0     glib:aunt.obj
 0002:000034c0       ??_C@_0CI@LBFIGFGK@Unhandled?5response?50?$CFd?5to?5messag@ 100384c0     glib:aunt.obj
 0002:000034e8       ??_C@_0BK@MGNBCOMF@?7RESET?5Complete?0?5reason?3?5?$AA@ 100384e8     glib:aunt.obj
 0002:00003504       ??_C@_09ONBBMBDN@RESET_POR?$AA@ 10038504     glib:aunt.obj
 0002:00003510       ??_C@_0P@BGLEFKFO@RESET_SUSPEND?5?$AA@ 10038510     glib:aunt.obj
 0002:00003520       ??_C@_0M@BCCILIBJ@RESET_SYNC?5?$AA@ 10038520     glib:aunt.obj
 0002:0000352c       ??_C@_0L@FIODIDGJ@RESET_CMD?5?$AA@ 1003852c     glib:aunt.obj
 0002:00003538       ??_C@_0L@KMKNFONB@RESET_WDT?5?$AA@ 10038538     glib:aunt.obj
 0002:00003544       ??_C@_0L@KJIDLOIH@RESET_RST?5?$AA@ 10038544     glib:aunt.obj
 0002:00003550       ??_C@_0BA@OMMJLNDB@?7CAPABILITIES?3?6?$AA@ 10038550     glib:aunt.obj
 0002:00003560       ??_C@_0BI@OELINAJL@?7?7Max?5ANT?5Channels?3?5?$CFd?6?$AA@ 10038560     glib:aunt.obj
 0002:00003578       ??_C@_0BI@HIMIONID@?7?7Max?5ANT?5Networks?3?5?$CFd?6?$AA@ 10038578     glib:aunt.obj
 0002:00003590       ??_C@_0BE@KICFNJCL@?7Standard?5Options?3?6?$AA@ 10038590     glib:aunt.obj
 0002:000035a4       ??_C@_0BP@NEMFBEP@?7?7CAPABILITIES_NO_RX_CHANNELS?6?$AA@ 100385a4     glib:aunt.obj
 0002:000035c4       ??_C@_0BP@KNKJIOJC@?7?7CAPABILITIES_NO_TX_CHANNELS?6?$AA@ 100385c4     glib:aunt.obj
 0002:000035e4       ??_C@_0BP@CMMDODMM@?7?7CAPABILITIES_NO_RX_MESSAGES?6?$AA@ 100385e4     glib:aunt.obj
 0002:00003604       ??_C@_0BP@IMCGDMBB@?7?7CAPABILITIES_NO_TX_MESSAGES?6?$AA@ 10038604     glib:aunt.obj
 0002:00003624       ??_C@_0CB@JFLGNIBB@?7?7CAPABILITIES_NO_ACKD_MESSAGES?6@ 10038624     glib:aunt.obj
 0002:00003648       ??_C@_0CC@IGPJMOHJ@?7?7CAPABILITIES_NO_BURST_TRANSFER@ 10038648     glib:aunt.obj
 0002:0000366c       ??_C@_0BE@BHEMCDPN@?7Advanced?5Options?3?6?$AA@ 1003866c     glib:aunt.obj
 0002:00003680       ??_C@_0CA@PKLOJKNK@?7?7CAPABILITIES_OVERUN_UNDERRUN?6?$AA@ 10038680     glib:aunt.obj
 0002:000036a0       ??_C@_0CA@CDNIOJAJ@?7?7CAPABILITIES_NETWORK_ENABLED?6?$AA@ 100386a0     glib:aunt.obj
 0002:000036c0       ??_C@_0BO@MFGLMMIF@?7?7CAPABILITIES_AP1_VERSION_2?6?$AA@ 100386c0     glib:aunt.obj
 0002:000036e0       ??_C@_0CG@FKIKKDKM@?7?7CAPABILITIES_SERIAL_NUMBER_ENA@ 100386e0     glib:aunt.obj
 0002:00003708       ??_C@_0CN@HNEDPGLH@?7?7CAPABILITIES_PER_CHANNEL_TX_PO@ 10038708     glib:aunt.obj
 0002:00003738       ??_C@_0CM@CDDINPHL@?7?7CAPABILITIES_LOW_PRIORITY_SEAR@ 10038738     glib:aunt.obj
 0002:00003764       ??_C@_0BP@JLMLKAPF@?7?7CAPABILITIES_SCRIPT_ENABLED?6?$AA@ 10038764     glib:aunt.obj
 0002:00003784       ??_C@_0CE@LAEIDEBC@?7?7CAPABILITIES_SEARCH_LIST_ENABL@ 10038784     glib:aunt.obj
 0002:000037a8       ??_C@_0BI@EEMOLFDF@?7Advanced?52?5Options?51?3?6?$AA@ 100387a8     glib:aunt.obj
 0002:000037c0       ??_C@_0BM@ODPEGKFB@?7?7CAPABILITIES_LED_ENABLED?6?$AA@ 100387c0     glib:aunt.obj
 0002:000037dc       ??_C@_0CE@ICLNHCLP@?7?7CAPABILITIES_EXT_MESSAGE_ENABL@ 100387dc     glib:aunt.obj
 0002:00003800       ??_C@_0CC@PDFDJFCM@?7?7CAPABILITIES_SCAN_MODE_ENABLED@ 10038800     glib:aunt.obj
 0002:00003824       ??_C@_0BJ@BFPEDNEM@?7?7CAPABILITIES_RESERVED?6?$AA@ 10038824     glib:aunt.obj
 0002:00003840       ??_C@_0CE@BNDELMNK@?7?7CAPABILITIES_PROX_SEARCH_ENABL@ 10038840     glib:aunt.obj
 0002:00003864       ??_C@_0CD@HBFGKCM@?7?7CAPABILITIES_EXT_ASSIGN_ENABLE@ 10038864     glib:aunt.obj
 0002:00003888       ??_C@_0BH@JCKNHDFL@?7?7CAPABILITIES_FREE_1?6?$AA@ 10038888     glib:aunt.obj
 0002:000038a0       ??_C@_0BN@POEANED@?7?7CAPABILITIES_FIT1_ENABLED?6?$AA@ 100388a0     glib:aunt.obj
 0002:000038c0       ??_C@_0N@HBFHNMJF@?7Got?5Status?6?$AA@ 100388c0     glib:aunt.obj
 0002:000038d0       ??_C@_0BK@JMKIFNGP@STATUS_UNASSIGNED_CHANNEL?$AA@ 100388d0     glib:aunt.obj
 0002:000038ec       ??_C@_0BI@CFAEKDEN@STATUS_ASSIGNED_CHANNEL?$AA@ 100388ec     glib:aunt.obj
 0002:00003904       ??_C@_0BJ@PFJCGAEB@STATUS_SEARCHING_CHANNEL?$AA@ 10038904     glib:aunt.obj
 0002:00003920       ??_C@_0BI@HAHENPFL@STATUS_TRACKING_CHANNEL?$AA@ 10038920     glib:aunt.obj
 0002:00003938       ??_C@_0N@PKDFINOD@?7STATUS?3?5?$CFs?6?$AA@ 10038938     glib:aunt.obj
 0002:00003948       ??_C@_0BJ@JEDAPOJO@?7CHANNEL?5ID?3?5?$CI?$CFd?1?$CFd?1?$CFd?$CJ?6?$AA@ 10038948     glib:aunt.obj
 0002:00003964       ??_C@_0N@EKPJMJOG@VERSION?3?5?$CFs?6?$AA@ 10038964     glib:aunt.obj
 0002:00003974       ??_C@_0BD@OIJMJBDH@Chan?5ID?$CI?$CFd?1?$CFd?1?$CFd?$CJ?6?$AA@ 10038974     glib:aunt.obj
 0002:00003988       ??_C@_0BD@JKGGGJDI@?5?5?5Acked?5Rx?3?$CI?$CFd?$CJ?3?5?$AA@ 10038988     glib:aunt.obj
 0002:0000399c       ??_C@_0BL@IBDCDHBO@?5?5?5Burst?$CI0x?$CF02x?$CJ?5Rx?3?$CI?$CFd?$CJ?3?5?$AA@ 1003899c     glib:aunt.obj
 0002:000039b8       ??_C@_0M@OBDBKFDI@?5?5?5Rx?3?$CI?$CFd?$CJ?6?$AA@ 100389b8     glib:aunt.obj
 0002:000039c4       ??_C@_0BC@DNPCJILK@?5?5?5Acked?5Rx?3?$CI?$CFd?$CJ?6?$AA@ 100389c4     glib:aunt.obj
 0002:000039d8       ??_C@_0BH@HEGIFPIO@Burst?$CI0x?$CF02x?$CJ?5Rx?3?$CI?$CFd?$CJ?6?$AA@ 100389d8     glib:aunt.obj
 0002:000039f0       ??_C@_08KNBNCAAG@Rx?3?$CI?$CFd?$CJ?6?$AA@ 100389f0     glib:aunt.obj
 0002:000039fc       ??_C@_0DJ@IHJFFEAH@?$FL?$CF02x?$FN?0?$FL?$CF02x?$FN?0?$FL?$CF02x?$FN?0?$FL?$CF02x?$FN?0?$FL?$CF02@ 100389fc     glib:aunt.obj
 0002:00003a38       ??_C@_07BBOLIDFB@Rx?3?5?$CFc?6?$AA@ 10038a38     glib:aunt.obj
 0002:00003a40       ??_C@_07MCAEODGB@Default?$AA@ 10038a40     glib:averagetimer.obj
 0002:00003a4c       ??_7AverageTimer@@6B@      10038a4c     glib:averagetimer.obj
 0002:00003a54       ??_7LPFilter@@6B@          10038a54     glib:lpfilter.obj
 0002:00003a58       ??_C@_04HCDDPBNL@TRUE?$AA@ 10038a58     glib:ini.obj
 0002:00003a60       ??_C@_05MAJJAKPI@FALSE?$AA@ 10038a60     glib:ini.obj
 0002:00003a68       ??_C@_02NJPGOMH@?$CFf?$AA@ 10038a68     glib:ini.obj
 0002:00003a6c       ??_C@_03FKNCMABI@?$CFlu?$AA@ 10038a6c     glib:ini.obj
 0002:00003a70       ??_C@_05CLMJGDKL@?$CF08lx?$AA@ 10038a70     glib:ini.obj
 0002:00003a78       ??_C@_07OJNGNPHD@lkj?4lkj?$AA@ 10038a78     glib:ini.obj
 0002:00003a80       ??_C@_03OPHMLOFF@?$CFlx?$AA@ 10038a80     glib:ini.obj
 0002:00003a88       ??_7Ini@@6B@               10038a88     glib:ini.obj
 0002:00003a90       ??_7Timeout@@6B@           10038a90     glib:timeout.obj
 0002:00003a98       ??_7twoPoleFilter@@6B@     10038a98     glib:twopolefilter.obj
 0002:00003aa0       ??_7signalStrengthMeter@@6B@ 10038aa0     glib:signalstrengthmeter.obj
 0002:00003aa4       ??_C@_0CN@ONOBFEHA@?5?5?5PCRE?5compilation?5failed?5at?5of@ 10038aa4     glib:pcre2.obj
 0002:00003ad4       ??_C@_0N@NIPJCDGN@?5?5?5no?5match?6?$AA@ 10038ad4     glib:pcre2.obj
 0002:00003ae4       ??_C@_0BG@FPOPPBPF@?5?5?5matching?5error?5?$CFd?6?$AA@ 10038ae4     glib:pcre2.obj
 0002:00003afc       ??_C@_0CB@MPGEDIAB@?5?5?5match?5succeeded?5at?5offset?5?$CFd?6@ 10038afc     glib:pcre2.obj
 0002:00003b20       ??_C@_0DF@INAHBBGH@?5?5?5ovector?5only?5has?5room?5for?5?$CFd?5@ 10038b20     glib:pcre2.obj
 0002:00003b58       ??_C@_0P@IKHFJGOC@?5?5?5?$CF02d?3?5?$CF?4?$CKs?6?$AA@ 10038b58     glib:pcre2.obj
 0002:00003b68       ??_C@_0BI@BAFDEAKN@?5?5?5no?5named?5substrings?6?$AA@ 10038b68     glib:pcre2.obj
 0002:00003b80       ??_C@_0BF@OIHDLOFB@?5?5?5named?5substrings?6?$AA@ 10038b80     glib:pcre2.obj
 0002:00003b98       ??_C@_0BG@JGLEOGKN@?5?5?5?5?5?5?$CI?$CFd?$CJ?5?$CF?$CKs?3?5?$CF?4?$CKs?6?$AA@ 10038b98     glib:pcre2.obj
 0002:00003bb0       ??_C@_0BD@OOBBIHO@Matching?5error?5?$CFd?6?$AA@ 10038bb0     glib:pcre2.obj
 0002:00003bc4       ??_C@_0CF@NDHEGEOB@?6Match?5succeeded?5again?5at?5offset@ 10038bc4     glib:pcre2.obj
 0002:00003bec       ??_C@_0DC@CPNNJKMC@ovector?5only?5has?5room?5for?5?$CFd?5cap@ 10038bec     glib:pcre2.obj
 0002:00003c20       ??_C@_0L@JPMNONDL@?$CF2d?3?5?$CF?4?$CKs?6?$AA@ 10038c20     glib:pcre2.obj
 0002:00003c2c       ??_C@_0BF@BBPCAKPP@No?5named?5substrings?6?$AA@ 10038c2c     glib:pcre2.obj
 0002:00003c44       ??_C@_0BC@DIJKAPGA@Named?5substrings?6?$AA@ 10038c44     glib:pcre2.obj
 0002:00003c58       ??_C@_0BA@ICOMAHNG@?$CI?$CFd?$CJ?5?$CF?$CKs?3?5?$CF?4?$CKs?6?$AA@ 10038c58     glib:pcre2.obj
 0002:00003c68       ??_C@_07JMELMDLH@md5?4log?$AA@ 10038c68     glib:md5.obj
 0002:00003c70       ??_C@_02HLHIEPKM@?9t?$AA@  10038c70     glib:md5.obj
 0002:00003c74       ??_C@_02NHMNAAKA@?9x?$AA@  10038c74     glib:md5.obj
 0002:00003c78       ??_C@_0O@KMAOGPPO@MD5?5?$CI?$CC?$CFs?$CC?$CJ?5?$DN?5?$AA@ 10038c78     glib:md5.obj
 0002:00003c88       ??_C@_0DA@BPHLHHKO@MD5?5time?5trial?4?5Digesting?5?$CFd?5?$CFd?9@ 10038c88     glib:md5.obj
 0002:00003cb8       ??_C@_06EKCDNFLM@?5done?6?$AA@ 10038cb8     glib:md5.obj
 0002:00003cc0       ??_C@_09OAKFAJHD@Digest?5?$DN?5?$AA@ 10038cc0     glib:md5.obj
 0002:00003ccc       ??_C@_0BF@CIJGKLHD@?6Time?5?$DN?5?$CFld?5seconds?6?$AA@ 10038ccc     glib:md5.obj
 0002:00003ce4       ??_C@_0BK@PMOCPLMP@Speed?5?$DN?5?$CFld?5bytes?1second?6?$AA@ 10038ce4     glib:md5.obj
 0002:00003d00       ??_C@_0BB@BABHFHN@MD5?5test?5suite?3?6?$AA@ 10038d00     glib:md5.obj
 0002:00003d14       ??_C@_0BE@KJKPCOB@?$CFs?5can?8t?5be?5opened?6?$AA@ 10038d14     glib:md5.obj
 0002:00003d28       ??_C@_0M@KPCIIOKB@MD5?5?$CI?$CFs?$CJ?5?$DN?5?$AA@ 10038d28     glib:md5.obj
 0002:00003d38       ??_7Err@@6B@               10038d38     glib:err.obj
 0002:00003d3c       ??_C@_0BG@BHBGPHAN@?$EAUSB?2VID_0FCF?$CGPID_10?$CK?$AA@ 10038d3c     ant_lib:dsi_serial_generic.obj
 0002:00003d58       ??_7?$USBDeviceList@PBVUSBDevice@@@@6B@ 10038d58     ant_lib:dsi_serial_generic.obj
 0002:00003d60       ??_7DSISerialGeneric@@6B@  10038d60     ant_lib:dsi_serial_generic.obj
 0002:00003d90       ??_C@_0EA@FFLBLMLE@Framer?9?$DOWriteMessage?$CI?$CJ?3?5Failed?0?5@ 10038d90     ant_lib:dsi_framer_ant.obj
 0002:00003dd0       ??_C@_02IMONFDHP@Tx?$AA@   10038dd0     ant_lib:dsi_framer_ant.obj
 0002:00003dd4       ??_C@_0P@ILFMLONG@?$CK?$CK?$CKTx?5Error?$CK?$CK?$CK?$AA@ 10038dd4     ant_lib:dsi_framer_ant.obj
 0002:00003de4       ??_C@_07LDMNNBNE@Bad?5CRC?$AA@ 10038de4     ant_lib:dsi_framer_ant.obj
 0002:00003dec       ??_C@_0CN@HJBGHJHN@Framer?9?$DOResetSystem?$CI?$CJ?3?5?5WriteMes@ 10038dec     ant_lib:dsi_framer_ant.obj
 0002:00003e1c       ??_C@_02IIGACPMN@Rx?$AA@   10038e1c     ant_lib:dsi_framer_ant.obj
 0002:00003e20       ??_C@_0CN@JOLMKBOI@Framer?9?$DOSendCommand?$CI?$CJ?3?5?5WriteMes@ 10038e20     ant_lib:dsi_framer_ant.obj
 0002:00003e50       ??_C@_0CB@HIEIEMNM@Framer?9?$DOSendCommand?$CI?$CJ?3?5?5Timeout?4@ 10038e50     ant_lib:dsi_framer_ant.obj
 0002:00003e74       ??_C@_0DH@PMGHGFMM@Framer?9?$DOSendCommand?$CI?$CJ?3?5?5Response@ 10038e74     ant_lib:dsi_framer_ant.obj
 0002:00003eb0       ??_7DSIFramerANT@@6B@      10038eb0     ant_lib:dsi_framer_ant.obj
 0002:00003ed0       ??_7DSISerial@@6B@         10038ed0     ant_lib:dsi_serial.obj
 0002:00003f00       ??_C@_0BA@HGOGAAFC@?$CFs?1setupapi?4dll?$AA@ 10038f00     ant_lib:WinDevice.obj
 0002:00003f10       ??_C@_0BA@JPCNJJAO@?$CFs?1cfgmgr32?4dll?$AA@ 10038f10     ant_lib:WinDevice.obj
 0002:00003f20       ??_C@_0BK@GFJFBLPL@SetupDiCallClassInstaller?$AA@ 10038f20     ant_lib:WinDevice.obj
 0002:00003f3c       ??_C@_0BG@FHHGAHMJ@SetupDiEnumDeviceInfo?$AA@ 10038f3c     ant_lib:WinDevice.obj
 0002:00003f54       ??_C@_0BN@PLKAPGAL@SetupDiDestroyDeviceInfoList?$AA@ 10038f54     ant_lib:WinDevice.obj
 0002:00003f74       ??_C@_0BO@CKIKEHEK@SetupDiSetClassInstallParamsA?$AA@ 10038f74     ant_lib:WinDevice.obj
 0002:00003f94       ??_C@_0BP@NKHOAIEN@SetupDiGetDeviceInstallParamsA?$AA@ 10038f94     ant_lib:WinDevice.obj
 0002:00003fb4       ??_C@_0CC@GLCBFBDA@SetupDiGetDeviceRegistryProperty@ 10038fb4     ant_lib:WinDevice.obj
 0002:00003fd8       ??_C@_0BN@EOFIDGI@SetupDiClassGuidsFromNameExA?$AA@ 10038fd8     ant_lib:WinDevice.obj
 0002:00003ff8       ??_C@_0BH@MCGMLCPH@SetupDiGetClassDevsExA?$AA@ 10038ff8     ant_lib:WinDevice.obj
 0002:00004010       ??_C@_0BP@JNHMPCHF@SetupDiCreateDeviceInfoListExA?$AA@ 10039010     ant_lib:WinDevice.obj
 0002:00004030       ??_C@_0BH@INFHBPOD@SetupDiOpenDeviceInfoA?$AA@ 10039030     ant_lib:WinDevice.obj
 0002:00004048       ??_C@_0CA@CEEONLJE@SetupDiGetDeviceInfoListDetailA?$AA@ 10039048     ant_lib:WinDevice.obj
 0002:00004068       ??_C@_0BF@EJIAMDBD@CM_Get_Device_ID_ExA?$AA@ 10039068     ant_lib:WinDevice.obj
 0002:00004084       ??_7?$USBDeviceList@PBVUSBDeviceSI@@@@6B@ 10039084     ant_lib:usb_device_handle_win.obj
 0002:0000408c       ??_7?$USBDeviceList@PBVUSBDeviceLibusb@@@@6B@ 1003908c     ant_lib:usb_device_handle_win.obj
 0002:00004090       ??_C@_0BA@KKANNMLL@ao_debug_?$CFs?4txt?$AA@ 10039090     ant_lib:dsi_debug.obj
 0002:000040a0       ??_C@_0BE@JKBOFAHI@?$CF10?43f?5?$HL?$CF10lu?$HN?3?5?$CFs?6?$AA@ 100390a0     ant_lib:dsi_debug.obj
 0002:000040b4       ??_C@_0BE@KCBJPLKP@?5?$CK?$CK?$CK?5TRUNCATED?$CB?5?$CK?$CK?$CK?$AA@ 100390b4     ant_lib:dsi_debug.obj
 0002:000040c8       ??_C@_0N@LGLJFEBB@Device?$CFu?4txt?$AA@ 100390c8     ant_lib:dsi_debug.obj
 0002:000040d8       ??_C@_08OCEHEBC@NO?5DATA?6?$AA@ 100390d8     ant_lib:dsi_debug.obj
 0002:000040e4       ??_C@_04HIBGFPH@NULL?$AA@  100390e4     ant_lib:dsi_debug.obj
 0002:000040ec       ??_C@_0BH@EIAAMLAO@?$CF10?43f?5?$HL?$CF10lu?$HN?5?$CFs?5?9?5?$CFs?$AA@ 100390ec     ant_lib:dsi_debug.obj
 0002:00004104       ??_C@_06ICJJNNPE@?$FL?$CF02X?$FN?$AA@ 10039104     ant_lib:dsi_debug.obj
 0002:0000410c       ??_C@_07EALNEHFC@?$FL?$CF02X?$FN?6?$AA@ 1003910c     ant_lib:dsi_debug.obj
 0002:00004114       ??_C@_04HDOCAJNK@?$CFs?$CFs?$AA@ 10039114     ant_lib:dsi_debug.obj
 0002:0000411c       ??_C@_0CC@PIIFFHNM@?6?$CK?$CK?$CK?5ERROR?3?5BUFFER?5OVERFLOW?$CB?5?$CK?$CK?$CK@ 1003911c     ant_lib:dsi_debug.obj
 0002:00004140       ??_C@_01MCMALHOG@a?$AA@    10039140     ant_lib:dsi_debug.obj
 0002:00004144       ??_C@_0BG@EMAOOBLK@?6?$CK?$CK?$CK?5WRITE?5ERROR?5?$CK?$CK?$CK?6?$AA@ 10039144     ant_lib:dsi_debug.obj
 0002:00004160       ??_7DSISerialCallback@@6B@ 10039160     ant_lib:dsi_framer.obj
 0002:0000416c       ??_C@_0BJ@JGFPKCNJ@?$EAUSB?2VID_?$CF04X?$CGPID_?$CF04X?2?$CK?$AA@ 1003916c     ant_lib:usb_device_si.obj
 0002:0000418c       ??_7USBDevice@@6B@         1003918c     ant_lib:usb_device_si.obj
 0002:000041b0       ??_7USBDeviceSI@@6B@       100391b0     ant_lib:usb_device_si.obj
 0002:000041d4       ??_7USBDeviceHandle@@6B@   100391d4     ant_lib:usb_device_handle_si.obj
 0002:000041e8       ??_7USBDeviceHandleSI@@6B@ 100391e8     ant_lib:usb_device_handle_si.obj
 0002:000041fc       ??_7?$USBDeviceList@$$CBVUSBDeviceSI@@@@6B@ 100391fc     ant_lib:usb_device_handle_si.obj
 0002:00004204       ??_7USBDeviceLibusb@@6B@   10039204     ant_lib:usb_device_libusb.obj
 0002:00004224       ??_C@_0BG@BAFPFAKO@ao_libusb_receive?4txt?$AA@ 10039224     ant_lib:usb_device_handle_libusb.obj
 0002:0000423c       ??_C@_0CM@FBBGDNCD@ReceiveThread?$CI?$CJ?3?5BulkSetupAsync?$CI@ 1003923c     ant_lib:usb_device_handle_libusb.obj
 0002:00004268       ??_C@_0CJ@MKNLCPGK@ReceiveThread?$CI?$CJ?3?5SubmitAsync?$CI?$CJ?5E@ 10039268     ant_lib:usb_device_handle_libusb.obj
 0002:00004298       ??_C@_0GM@OGBPHHOA@ReceiveThread?$CI?$CJ?3?5ReapAsyncNocanc@ 10039298     ant_lib:usb_device_handle_libusb.obj
 0002:00004308       ??_C@_0EG@HPAODDGI@ReceiveThread?$CI?$CJ?3?5ReapAsyncNocanc@ 10039308     ant_lib:usb_device_handle_libusb.obj
 0002:00004350       ??_C@_0EA@NNHEBEME@ReceiveThread?$CI?$CJ?3?5ReapAsyncNocanc@ 10039350     ant_lib:usb_device_handle_libusb.obj
 0002:00004390       ??_C@_0EI@FHNGIGGC@ReceiveThread?$CI?$CJ?3?5Failed?5to?5free?5@ 10039390     ant_lib:usb_device_handle_libusb.obj
 0002:000043d8       ??_C@_0CK@JIHJJDIA@ReceiveThread?$CI?$CJ?3?5CancelAsync?$CI?$CJ?5E@ 100393d8     ant_lib:usb_device_handle_libusb.obj
 0002:00004404       ??_C@_0CI@PMGCEEGL@ReceiveThread?$CI?$CJ?3?5FreeAsync?$CI?$CJ?5Err@ 10039404     ant_lib:usb_device_handle_libusb.obj
 0002:00004430       ??_7USBDeviceHandleLibusb@@6B@ 10039430     ant_lib:usb_device_handle_libusb.obj
 0002:00004444       ??_7?$USBDeviceList@$$CBVUSBDeviceLibusb@@@@6B@ 10039444     ant_lib:usb_device_handle_libusb.obj
 0002:00004448       ??_C@_0BE@GBLICEGJ@DSI_SiUSBXp_3_1?4DLL?$AA@ 10039448     ant_lib:dsi_silabs_library.obj
 0002:0000445c       ??_C@_07GJMBHONN@SI_Open?$AA@ 1003945c     ant_lib:dsi_silabs_library.obj
 0002:00004464       ??_C@_0BB@HBICMNFD@SI_GetNumDevices?$AA@ 10039464     ant_lib:dsi_silabs_library.obj
 0002:00004478       ??_C@_08EJBAJKEK@SI_Close?$AA@ 10039478     ant_lib:dsi_silabs_library.obj
 0002:00004484       ??_C@_07GLJAMKBF@SI_Read?$AA@ 10039484     ant_lib:dsi_silabs_library.obj
 0002:0000448c       ??_C@_08COKDLKHN@SI_Write?$AA@ 1003948c     ant_lib:dsi_silabs_library.obj
 0002:00004498       ??_C@_0P@KBDCENGP@SI_SetTimeouts?$AA@ 10039498     ant_lib:dsi_silabs_library.obj
 0002:000044a8       ??_C@_0P@KOCMJLOM@SI_GetTimeouts?$AA@ 100394a8     ant_lib:dsi_silabs_library.obj
 0002:000044b8       ??_C@_0P@KIDCGFAF@SI_SetBaudRate?$AA@ 100394b8     ant_lib:dsi_silabs_library.obj
 0002:000044c8       ??_C@_0BC@BJEHEFKA@SI_SetLineControl?$AA@ 100394c8     ant_lib:dsi_silabs_library.obj
 0002:000044dc       ??_C@_0BC@OPNDAAEK@SI_SetFlowControl?$AA@ 100394dc     ant_lib:dsi_silabs_library.obj
 0002:000044f0       ??_C@_0BA@DIOLJCKA@SI_FlushBuffers?$AA@ 100394f0     ant_lib:dsi_silabs_library.obj
 0002:00004500       ??_C@_0BA@GDCOHDEI@SI_CheckRXQueue?$AA@ 10039500     ant_lib:dsi_silabs_library.obj
 0002:00004510       ??_C@_0BE@PMPAPJFI@SI_GetProductString?$AA@ 10039510     ant_lib:dsi_silabs_library.obj
 0002:00004528       ??_7SiLabsLibrary@@6B@     10039528     ant_lib:dsi_silabs_library.obj
 0002:0000452c       ??_C@_0CA@DCKGMLNE@DSI_CP210xManufacturing_3_1?4dll?$AA@ 1003952c     ant_lib:dsi_cm_library.obj
 0002:0000454c       ??_C@_0BO@POICMDHA@CP210x_GetDeviceProductString?$AA@ 1003954c     ant_lib:dsi_cm_library.obj
 0002:0000456c       ??_C@_0BN@PHLGIDBB@CP210x_GetDeviceSerialNumber?$AA@ 1003956c     ant_lib:dsi_cm_library.obj
 0002:0000458c       ??_C@_0BE@JAFEJHB@CP210x_GetDeviceVid?$AA@ 1003958c     ant_lib:dsi_cm_library.obj
 0002:000045a0       ??_C@_0BE@CMGOBGKN@CP210x_GetDevicePid?$AA@ 100395a0     ant_lib:dsi_cm_library.obj
 0002:000045b4       ??_C@_0N@NDMIDNOM@CP210x_Reset?$AA@ 100395b4     ant_lib:dsi_cm_library.obj
 0002:000045c8       ??_7CMLibrary@@6B@         100395c8     ant_lib:dsi_cm_library.obj
 0002:000045cc       ??_C@_0M@JFHBMJLP@libusb0?4dll?$AA@ 100395cc     ant_lib:dsi_libusb_library.obj
 0002:000045d8       ??_C@_0BE@LKODFGKE@usb_claim_interface?$AA@ 100395d8     ant_lib:dsi_libusb_library.obj
 0002:000045ec       ??_C@_0P@OOBOMNI@usb_get_busses?$AA@ 100395ec     ant_lib:dsi_libusb_library.obj
 0002:000045fc       ??_C@_0P@FIIINLM@usb_clear_halt?$AA@ 100395fc     ant_lib:dsi_libusb_library.obj
 0002:0000460c       ??_C@_0BG@NJHNPIDK@usb_get_string_simple?$AA@ 1003960c     ant_lib:dsi_libusb_library.obj
 0002:00004624       ??_C@_09HNLCFBNL@usb_close?$AA@ 10039624     ant_lib:dsi_libusb_library.obj
 0002:00004630       ??_C@_09OJJFPGGB@usb_reset?$AA@ 10039630     ant_lib:dsi_libusb_library.obj
 0002:0000463c       ??_C@_08CDGCMFAH@usb_init?$AA@ 1003963c     ant_lib:dsi_libusb_library.obj
 0002:00004648       ??_C@_0BA@IGHCNAMJ@usb_find_busses?$AA@ 10039648     ant_lib:dsi_libusb_library.obj
 0002:00004658       ??_C@_0BB@MACJDG@usb_find_devices?$AA@ 10039658     ant_lib:dsi_libusb_library.obj
 0002:0000466c       ??_C@_08KFNDBDLE@usb_open?$AA@ 1003966c     ant_lib:dsi_libusb_library.obj
 0002:00004678       ??_C@_0BG@HMBNANDO@usb_release_interface?$AA@ 10039678     ant_lib:dsi_libusb_library.obj
 0002:00004690       ??_C@_0BE@OBAKDJMM@usb_interrupt_write?$AA@ 10039690     ant_lib:dsi_libusb_library.obj
 0002:000046a4       ??_C@_0O@DDPMGOBL@usb_bulk_read?$AA@ 100396a4     ant_lib:dsi_libusb_library.obj
 0002:000046b4       ??_C@_0L@LNIHHHBD@usb_device?$AA@ 100396b4     ant_lib:dsi_libusb_library.obj
 0002:000046c0       ??_C@_0BG@DCPNGEMA@usb_set_configuration?$AA@ 100396c0     ant_lib:dsi_libusb_library.obj
 0002:000046d8       ??_C@_0O@LFIKLBEJ@usb_set_debug?$AA@ 100396d8     ant_lib:dsi_libusb_library.obj
 0002:000046e8       ??_C@_0BF@MHFNGDIK@usb_bulk_setup_async?$AA@ 100396e8     ant_lib:dsi_libusb_library.obj
 0002:00004700       ??_C@_0BB@DGMGKAKL@usb_submit_async?$AA@ 10039700     ant_lib:dsi_libusb_library.obj
 0002:00004714       ??_C@_0BI@PKHIKAIB@usb_reap_async_nocancel?$AA@ 10039714     ant_lib:dsi_libusb_library.obj
 0002:0000472c       ??_C@_0BB@NAGGKLAM@usb_cancel_async?$AA@ 1003972c     ant_lib:dsi_libusb_library.obj
 0002:00004740       ??_C@_0P@NNHCCJMF@usb_free_async?$AA@ 10039740     ant_lib:dsi_libusb_library.obj
 0002:00004754       ??_7LibusbLibrary@@6B@     10039754     ant_lib:dsi_libusb_library.obj
 0002:00004758       __real@3fb0000000000000    10039758      CIL library: CIL module
 0002:00004760       __real@3fd147ae147ae148    10039760      CIL library: CIL module
 0002:00004768       __real@41f0000000000000    10039768      CIL library: CIL module
 0002:00004770       __real@4090000000000000    10039770      CIL library: CIL module
 0002:00004778       __real@404e000000000000    10039778      CIL library: CIL module
 0002:00004780       __real@4f800000            10039780      CIL library: CIL module
 0002:00004788       __real@40dfffc000000000    10039788      CIL library: CIL module
 0002:00004790       __real@408f400000000000    10039790      CIL library: CIL module
 0002:00004798       __real@3fe0000000000000    10039798      CIL library: CIL module
 0002:000047a0       __real@3f1a36e2eb1c432d    100397a0      CIL library: CIL module
 0002:000047a8       __real@3fd0a3d70a3d70a4    100397a8      CIL library: CIL module
 0002:000047b0       __real@40b05a0000000000    100397b0      CIL library: CIL module
 0002:000047b8       __real@409925604189374c    100397b8      CIL library: CIL module
 0002:000047c0       __real@40b4a00000000000    100397c0      CIL library: CIL module
 0002:000047c8       __real@40ac200000000000    100397c8      CIL library: CIL module
 0002:000047d0       __real@c1200000            100397d0      CIL library: CIL module
 0002:000047d8       __real@3fb99999a0000000    100397d8      CIL library: CIL module
 0002:000047e0       __real@41200000            100397e0      CIL library: CIL module
 0002:000047e8       __real@3f60000000000000    100397e8      CIL library: CIL module
 0002:000047f0       __real@3f8147ae            100397f0      CIL library: CIL module
 0002:000047f8       __real@402e000000000000    100397f8      CIL library: CIL module
 0002:00004800       __real@4044000000000000    10039800      CIL library: CIL module
 0002:00004808       __real@406f400000000000    10039808      CIL library: CIL module
 0002:00004810       __real@3ff0000000000000    10039810      CIL library: CIL module
 0002:00004818       __real@437f0000            10039818      CIL library: CIL module
 0002:0000481c       __real@42b40000            1003981c      CIL library: CIL module
 0002:00004820       __real@ff7fffff            10039820      CIL library: CIL module
 0002:00004824       __real@7f7fffff            10039824      CIL library: CIL module
 0002:00004828       __real@42480000            10039828      CIL library: CIL module
 0002:00004830       __real@4049000000000000    10039830      CIL library: CIL module
 0002:00004838       __real@4020aaaaaaaaaaab    10039838      CIL library: CIL module
 0002:00004840       __real@4059000000000000    10039840      CIL library: CIL module
 0002:00004848       __real@4038000000000000    10039848      CIL library: CIL module
 0002:00004850       __real@4024000000000000    10039850      CIL library: CIL module
 0002:00004858       __real@403e000000000000    10039858      CIL library: CIL module
 0002:00004860       __real@3ff921fb54442d18    10039860      CIL library: CIL module
 0002:00004868       __real@3f91df46a2529d39    10039868      CIL library: CIL module
 0002:00004870       __real@3e8a3d71            10039870      CIL library: CIL module
 0002:00004874       __real@41800000            10039874      CIL library: CIL module
 0002:00004878       __real@3ff9bfdf7e8038a0    10039878      CIL library: CIL module
 0002:00004880       __real@40ed4c0000000000    10039880      CIL library: CIL module
 0002:00004888       __real@4058ffefa0000000    10039888      CIL library: CIL module
 0002:00004890       __real@3fdc9c4da9003eeb    10039890      CIL library: CIL module
 0002:00004898       __real@4086f00000000000    10039898      CIL library: CIL module
 0002:000048a0       __real@3f445c7080000000    100398a0      CIL library: CIL module
 0002:000048a8       __real@400a3f2900000000    100398a8      CIL library: CIL module
 0002:000048b0       __real@3fdd07bbd05810e8    100398b0      CIL library: CIL module
 0002:000048b8       __real@c62b5ae1            100398b8      CIL library: CIL module
 0002:000048c0       __real@4028000000000000    100398c0      CIL library: CIL module
 0002:000048c8       __real@4008000000000000    100398c8      CIL library: CIL module
 0002:000048d0       __real@3fb999999999999a    100398d0      CIL library: CIL module
 0002:000048d8       __real@3ff8000000000000    100398d8      CIL library: CIL module
 0002:000048e0       __real@3f747ae147ae147b    100398e0      CIL library: CIL module
 0002:000048e8       __real@c024000000000000    100398e8      CIL library: CIL module
 0002:000048f0       __real@4039000000000000    100398f0      CIL library: CIL module
 0002:000048f8       __real@3eb74d3b7ba75828    100398f8      CIL library: CIL module
 0002:00004900       __real@4057400000000000    10039900      CIL library: CIL module
 0002:00004908       __real@3fe5d1745d1745d1    10039908      CIL library: CIL module
 0002:00004910       __real@4086800000000000    10039910      CIL library: CIL module
 0002:00004918       __real@400921fb54442d18    10039918      CIL library: CIL module
 0002:00004920       __real@3f9fd36f7e3d1cc1    10039920      CIL library: CIL module
 0002:00004928       __real@3f445c707983d68b    10039928      CIL library: CIL module
 0002:00004930       __real@413e366000000000    10039930      CIL library: CIL module
 0002:00004938       __real@3ef8d9eb9940ae46    10039938      CIL library: CIL module
 0002:00004940       __real@4000000000000000    10039940      CIL library: CIL module
 0002:00004948       __real@3f847ae147ae147b    10039948      CIL library: CIL module
 0002:00004950       __real@400451eb851eb852    10039950      CIL library: CIL module
 0002:00004958       __real@3fd93264c993264c    10039958      CIL library: CIL module
 0002:00004960       __real@4001a305532617c2    10039960      CIL library: CIL module
 0002:00004968       __real@4058901cc14a9de0    10039968      CIL library: CIL module
 0002:00004970       __real@402a228d344a0933    10039970      CIL library: CIL module
 0002:00004978       __real@400ae077d85faed0    10039978      CIL library: CIL module
 0002:00004980       __real@409fc80000000000    10039980      CIL library: CIL module
 0002:00004988       __real@4082eb6db6db6db7    10039988      CIL library: CIL module
 0002:00004990       __real@4064600000000000    10039990      CIL library: CIL module
 0002:00004998       __real@3fd07444a771bf7d    10039998      CIL library: CIL module
 0002:000049a0       __real@400db6db6db6db6e    100399a0      CIL library: CIL module
 0002:000049a8       __real@3fc10624e0000000    100399a8      CIL library: CIL module
 0002:000049b0       __real@40efffe000000000    100399b0      CIL library: CIL module
 0002:000049b8       __real@47efffffe0000000    100399b8      CIL library: CIL module
 0002:000049c0       __real@c7efffffe0000000    100399c0      CIL library: CIL module
 0002:000049c8       __real@4020000000000000    100399c8      CIL library: CIL module
 0002:000049d0       __real@3f847ae140000000    100399d0      CIL library: CIL module
 0002:000049d8       __real@3fc99999a0000000    100399d8      CIL library: CIL module
 0002:000049e0       __real@bfe0000000000000    100399e0      CIL library: CIL module
 0002:000049e8       __real@4070000000000000    100399e8      CIL library: CIL module
 0002:000049f0       __real@4066800000000000    100399f0      CIL library: CIL module
 0002:000049f8       __real@4096cbe4            100399f8      CIL library: CIL module
 0002:00004a00       __real@404ca5dc1a63c1f8    10039a00      CIL library: CIL module
 0002:00004a08       __real@3fc90fdb            10039a08      CIL library: CIL module
 0002:00004a0c       __real@358637bd            10039a0c      CIL library: CIL module
 0002:00004a10       __real@41000000            10039a10      CIL library: CIL module
 0002:00004a14       __real@3bc49ba6            10039a14      CIL library: CIL module
 0002:00004a18       __real@428c0000            10039a18      CIL library: CIL module
 0002:00004a1c       __real@42700000            10039a1c      CIL library: CIL module
 0002:00004a20       __real@405102880c1399e8    10039a20      CIL library: CIL module
 0002:00004a28       __real@3fa42850a1428509    10039a28      CIL library: CIL module
 0002:00004a30       __real@40eef00000000000    10039a30      CIL library: CIL module
 0002:00004a38       __real@3fbfa9cdc4def649    10039a38      CIL library: CIL module
 0002:00004a40       __real@3ec234361b8b7d41    10039a40      CIL library: CIL module
 0002:00004a48       __real@40d00000            10039a48      CIL library: CIL module
 0002:00004a4c       __real@442f0000            10039a4c      CIL library: CIL module
 0002:00004a50       __real@411126ab            10039a50      CIL library: CIL module
 0002:00004a58       __real@4069000000000000    10039a58      CIL library: CIL module
 0002:00004a60       __real@409f860000000000    10039a60      CIL library: CIL module
 0002:00004a68       __real@4075500000000000    10039a68      CIL library: CIL module
 0002:00004a70       __real@3ff3333333333333    10039a70      CIL library: CIL module
 0002:00004a78       __real@4092c00000000000    10039a78      CIL library: CIL module
 0002:00004a80       __real@3f9eb851eb851eb8    10039a80      CIL library: CIL module
 0002:00004a88       __real@4014000000000000    10039a88      CIL library: CIL module
 0002:00004a90       __real@3fe4cccccccccccd    10039a90      CIL library: CIL module
 0002:00004a98       __real@3ff145a1cac08313    10039a98      CIL library: CIL module
 0002:00004aa0       __real@401224d562370a91    10039aa0      CIL library: CIL module
 0002:00004aa8       __real@408ff80000000000    10039aa8      CIL library: CIL module
 0002:00004ab0       __real@3f9a1cac083126e9    10039ab0      CIL library: CIL module
 0002:00004ab8       __real@40055c28f5c28f5c    10039ab8      CIL library: CIL module
 0002:00004ac0       __real@3fecd013a92a3055    10039ac0      CIL library: CIL module
 0002:00004ac8       __real@3ff8e442c0ab8a90    10039ac8      CIL library: CIL module
 0002:00004ad0       __real@3f70ec481a676a61    10039ad0      CIL library: CIL module
 0002:00004ad8       __real@4036e66666666666    10039ad8      CIL library: CIL module
 0002:00004ae0       __real@404011d495182a99    10039ae0      CIL library: CIL module
 0002:00004ae8       __real@404f000000000000    10039ae8      CIL library: CIL module
 0002:00004af0       __real@4034000000000000    10039af0      CIL library: CIL module
 0002:00004af8       __real@3f50624dd2f1a9fc    10039af8      CIL library: CIL module
 0002:00004b00       __real@3ff5b3aa5b3aa5b4    10039b00      CIL library: CIL module
 0002:00004b08       __real@3ff7777777777777    10039b08      CIL library: CIL module
 0002:00004b10       __real@406e400000000000    10039b10      CIL library: CIL module
 0002:00004b18       __real@402399999999999a    10039b18      CIL library: CIL module
 0002:00004b20       __real@4037566960887304    10039b20      CIL library: CIL module
 0002:00004b28       __real@401921fb54442d18    10039b28      CIL library: CIL module
 0002:00004b30       __real@402c000000000000    10039b30      CIL library: CIL module
 0002:00004b38       __real@4040000000000000    10039b38      CIL library: CIL module
 0002:00004b40       __real@4087500000000000    10039b40      CIL library: CIL module
 0002:00004b48       __real@4081300000000000    10039b48      CIL library: CIL module
 0002:00004b50       __real@3fd0000000000000    10039b50      CIL library: CIL module
 0002:00004b58       __real@bf800000            10039b58      CIL library: CIL module
 0002:00004b5c       __real@453b8000            10039b5c      CIL library: CIL module
 0002:00004b60       __real@40bf400000000000    10039b60      CIL library: CIL module
 0002:00004b68       __real@3fdc9c4da9003eea    10039b68      CIL library: CIL module
 0002:00004b70       __real@42c60000            10039b70      CIL library: CIL module
 0002:00004b78       __real@3f789374bc6a7efa    10039b78      CIL library: CIL module
 0002:00004b80       __real@41f26666            10039b80      CIL library: CIL module
 0002:00004b88       __real@405f3999a0000000    10039b88      CIL library: CIL module
 0002:00004b90       __real@40347fff80000000    10039b90      CIL library: CIL module
 0002:00004b98       __real@4054266660000000    10039b98      CIL library: CIL module
 0002:00004ba0       __real@4025333300000000    10039ba0      CIL library: CIL module
 0002:00004ba8       __real@40623cccc0000000    10039ba8      CIL library: CIL module
 0002:00004bb0       __real@4040333380000000    10039bb0      CIL library: CIL module
 0002:00004bb8       __real@40726199a0000000    10039bb8      CIL library: CIL module
 0002:00004bc0       __real@4061b33340000000    10039bc0      CIL library: CIL module
 0002:00004bc8       __real@4056933340000000    10039bc8      CIL library: CIL module
 0002:00004bd0       __real@4038e66600000000    10039bd0      CIL library: CIL module
 0002:00004bd8       __real@403d000000000000    10039bd8      CIL library: CIL module
 0002:00004be0       __real@4018cccd00000000    10039be0      CIL library: CIL module
 0002:00004be8       __real@4027000000000000    10039be8      CIL library: CIL module
 0002:00004bf0       __real@400d999980000000    10039bf0      CIL library: CIL module
 0002:00004bf8       __real@4054000000000000    10039bf8      CIL library: CIL module
 0002:00004c00       __real@406fe00000000000    10039c00      CIL library: CIL module
 0002:00004c08       __real@4060000000000000    10039c08      CIL library: CIL module
 0002:00004c10       __real@40a00000            10039c10      CIL library: CIL module
 0002:00004c18       __real@401e000000000000    10039c18      CIL library: CIL module
 0002:00004c20       __real@42ec0000            10039c20      CIL library: CIL module
 0002:00004c24       __real@438b0000            10039c24      CIL library: CIL module
 0002:00004c28       __real@4017f5c28f5c28f6    10039c28      CIL library: CIL module
 0002:00004c30       __real@408e000000000000    10039c30      CIL library: CIL module
 0002:00004c38       __real@41a00000            10039c38      CIL library: CIL module
 0002:00004c40       __load_config_used         10039c40     MSVCRT:loadcfg.obj
 0002:00004c88       ??_R4type_info@@6B@        10039c88     MSVCRT:ti_inst.obj
 0002:00004c9c       ??_R3type_info@@8          10039c9c     MSVCRT:ti_inst.obj
 0002:00004cac       ??_R2type_info@@8          10039cac     MSVCRT:ti_inst.obj
 0002:00004cb4       ??_R1A@?0A@EA@type_info@@8 10039cb4     MSVCRT:ti_inst.obj
 0002:00004cd0       ??_R4Formula@@6B@          10039cd0     tlib:formula.obj
 0002:00004ce4       ??_R3Formula@@8            10039ce4     tlib:formula.obj
 0002:00004cf4       ??_R2Formula@@8            10039cf4     tlib:formula.obj
 0002:00004cfc       ??_R1A@?0A@EA@Formula@@8   10039cfc     tlib:formula.obj
 0002:00004d18       ??_R4length_error@std@@6B@ 10039d18     tlib:formula.obj
 0002:00004d2c       ??_R3length_error@std@@8   10039d2c     tlib:formula.obj
 0002:00004d3c       ??_R2length_error@std@@8   10039d3c     tlib:formula.obj
 0002:00004d4c       ??_R1A@?0A@EA@length_error@std@@8 10039d4c     tlib:formula.obj
 0002:00004d68       ??_R4logic_error@std@@6B@  10039d68     tlib:formula.obj
 0002:00004d7c       ??_R3logic_error@std@@8    10039d7c     tlib:formula.obj
 0002:00004d8c       ??_R2logic_error@std@@8    10039d8c     tlib:formula.obj
 0002:00004d98       ??_R1A@?0A@EA@logic_error@std@@8 10039d98     tlib:formula.obj
 0002:00004db4       ??_R4bad_alloc@std@@6B@    10039db4     tlib:formula.obj
 0002:00004dc8       ??_R3bad_alloc@std@@8      10039dc8     tlib:formula.obj
 0002:00004dd8       ??_R2bad_alloc@std@@8      10039dd8     tlib:formula.obj
 0002:00004de4       ??_R1A@?0A@EA@exception@std@@8 10039de4     tlib:formula.obj
 0002:00004e00       ??_R3exception@std@@8      10039e00     tlib:formula.obj
 0002:00004e10       ??_R2exception@std@@8      10039e10     tlib:formula.obj
 0002:00004e18       ??_R1A@?0A@EA@bad_alloc@std@@8 10039e18     tlib:formula.obj
 0002:00004e34       ??_R4Monarch@@6B@          10039e34     tlib:monarch.obj
 0002:00004e48       ??_R3Monarch@@8            10039e48     tlib:monarch.obj
 0002:00004e58       ??_R2Monarch@@8            10039e58     tlib:monarch.obj
 0002:00004e60       ??_R1A@?0A@EA@Monarch@@8   10039e60     tlib:monarch.obj
 0002:00004e7c       ??_R4Physics@@6B@          10039e7c     tlib:physics.obj
 0002:00004e90       ??_R3Physics@@8            10039e90     tlib:physics.obj
 0002:00004ea0       ??_R2Physics@@8            10039ea0     tlib:physics.obj
 0002:00004ea8       ??_R1A@?0A@EA@Physics@@8   10039ea8     tlib:physics.obj
 0002:00004ec4       ??_R4Person@@6B@           10039ec4     tlib:physics.obj
 0002:00004ed8       ??_R3Person@@8             10039ed8     tlib:physics.obj
 0002:00004ee8       ??_R2Person@@8             10039ee8     tlib:physics.obj
 0002:00004ef0       ??_R1A@?0A@EA@Person@@8    10039ef0     tlib:physics.obj
 0002:00004f0c       ??_R4fatalError@@6B@       10039f0c     tlib:physics.obj
 0002:00004f20       ??_R3fatalError@@8         10039f20     tlib:physics.obj
 0002:00004f30       ??_R2fatalError@@8         10039f30     tlib:physics.obj
 0002:00004f38       ??_R1A@?0A@EA@fatalError@@8 10039f38     tlib:physics.obj
 0002:00004f54       ??_R4Bike@@6B@             10039f54     tlib:bike.obj
 0002:00004f68       ??_R3Bike@@8               10039f68     tlib:bike.obj
 0002:00004f78       ??_R2Bike@@8               10039f78     tlib:bike.obj
 0002:00004f80       ??_R1A@?0A@EA@Bike@@8      10039f80     tlib:bike.obj
 0002:00004f9c       ??_R4dataSource@@6B@       10039f9c     tlib:datasource.obj
 0002:00004fb0       ??_R3dataSource@@8         10039fb0     tlib:datasource.obj
 0002:00004fc0       ??_R2dataSource@@8         10039fc0     tlib:datasource.obj
 0002:00004fc8       ??_R1A@?0A@EA@dataSource@@8 10039fc8     tlib:datasource.obj
 0002:00004fe4       ??_R4Decoder@@6B@          10039fe4     tlib:decoder.obj
 0002:00004ff8       ??_R3Decoder@@8            10039ff8     tlib:decoder.obj
 0002:00005008       ??_R2Decoder@@8            1003a008     tlib:decoder.obj
 0002:00005010       ??_R1A@?0A@EA@Decoder@@8   1003a010     tlib:decoder.obj
 0002:0000502c       ??_R4Velotron@@6B@         1003a02c     tlib:velotron.obj
 0002:00005040       ??_R3Velotron@@8           1003a040     tlib:velotron.obj
 0002:00005050       ??_R2Velotron@@8           1003a050     tlib:velotron.obj
 0002:00005060       ??_R1A@?0A@EA@RTD@@8       1003a060     tlib:velotron.obj
 0002:0000507c       ??_R3RTD@@8                1003a07c     tlib:velotron.obj
 0002:0000508c       ??_R2RTD@@8                1003a08c     tlib:velotron.obj
 0002:00005098       ??_R1A@?0A@EA@Velotron@@8  1003a098     tlib:velotron.obj
 0002:000050b4       ??_R4RTD@@6B@              1003a0b4     tlib:rtd.obj
 0002:000050c8       ??_R4Performance@@6B@      1003a0c8     tlib:performance.obj
 0002:000050dc       ??_R3Performance@@8        1003a0dc     tlib:performance.obj
 0002:000050ec       ??_R2Performance@@8        1003a0ec     tlib:performance.obj
 0002:000050f8       ??_R1A@?0A@EA@Performance@@8 1003a0f8     tlib:performance.obj
 0002:00005114       ??_R4Simulator@@6B@        1003a114     tlib:simulator.obj
 0002:00005128       ??_R3Simulator@@8          1003a128     tlib:simulator.obj
 0002:00005138       ??_R2Simulator@@8          1003a138     tlib:simulator.obj
 0002:00005144       ??_R1A@?0A@EA@Simulator@@8 1003a144     tlib:simulator.obj
 0002:00005160       ??_R4Computrainer@@6B@     1003a160     tlib:computrainer.obj
 0002:00005174       ??_R3Computrainer@@8       1003a174     tlib:computrainer.obj
 0002:00005184       ??_R2Computrainer@@8       1003a184     tlib:computrainer.obj
 0002:00005194       ??_R1A@?0A@EA@Computrainer@@8 1003a194     tlib:computrainer.obj
 0002:000051b0       ??_R4NVRAM@@6B@            1003a1b0     tlib:nvram.obj
 0002:000051c4       ??_R3NVRAM@@8              1003a1c4     tlib:nvram.obj
 0002:000051d4       ??_R2NVRAM@@8              1003a1d4     tlib:nvram.obj
 0002:000051dc       ??_R1A@?0A@EA@NVRAM@@8     1003a1dc     tlib:nvram.obj
 0002:000051f8       ??_R4Course@@6B@           1003a1f8     tlib:course.obj
 0002:0000520c       ??_R3Course@@8             1003a20c     tlib:course.obj
 0002:0000521c       ??_R2Course@@8             1003a21c     tlib:course.obj
 0002:00005224       ??_R1A@?0A@EA@Course@@8    1003a224     tlib:course.obj
 0002:00005240       ??_R4velotronDecoder@@6B@  1003a240     tlib:velotron_decoder.obj
 0002:00005254       ??_R3velotronDecoder@@8    1003a254     tlib:velotron_decoder.obj
 0002:00005264       ??_R2velotronDecoder@@8    1003a264     tlib:velotron_decoder.obj
 0002:00005270       ??_R1A@?0A@EA@velotronDecoder@@8 1003a270     tlib:velotron_decoder.obj
 0002:0000528c       ??_R4MD5@@6B@              1003a28c     tlib:rmp.obj
 0002:000052a0       ??_R3MD5@@8                1003a2a0     tlib:rmp.obj
 0002:000052b0       ??_R2MD5@@8                1003a2b0     tlib:rmp.obj
 0002:000052b8       ??_R1A@?0A@EA@MD5@@8       1003a2b8     tlib:rmp.obj
 0002:000052d4       ??_R4performanceDecoder@@6B@ 1003a2d4     tlib:performance_decoder.obj
 0002:000052e8       ??_R3performanceDecoder@@8 1003a2e8     tlib:performance_decoder.obj
 0002:000052f8       ??_R2performanceDecoder@@8 1003a2f8     tlib:performance_decoder.obj
 0002:00005304       ??_R1A@?0A@EA@performanceDecoder@@8 1003a304     tlib:performance_decoder.obj
 0002:00005320       ??_R4simDecoder@@6B@       1003a320     tlib:simdecoder.obj
 0002:00005334       ??_R3simDecoder@@8         1003a334     tlib:simdecoder.obj
 0002:00005344       ??_R2simDecoder@@8         1003a344     tlib:simdecoder.obj
 0002:00005350       ??_R1A@?0A@EA@simDecoder@@8 1003a350     tlib:simdecoder.obj
 0002:0000536c       ??_R4computrainerDecoder@@6B@ 1003a36c     tlib:computrainer_decoder.obj
 0002:00005380       ??_R3computrainerDecoder@@8 1003a380     tlib:computrainer_decoder.obj
 0002:00005390       ??_R2computrainerDecoder@@8 1003a390     tlib:computrainer_decoder.obj
 0002:0000539c       ??_R1A@?0A@EA@computrainerDecoder@@8 1003a39c     tlib:computrainer_decoder.obj
 0002:000053b8       ??_R4fastTimer@@6B@        1003a3b8     glib:fasttimer.obj
 0002:000053cc       ??_R3fastTimer@@8          1003a3cc     glib:fasttimer.obj
 0002:000053dc       ??_R2fastTimer@@8          1003a3dc     glib:fasttimer.obj
 0002:000053e4       ??_R1A@?0A@EA@fastTimer@@8 1003a3e4     glib:fasttimer.obj
 0002:00005400       ??_R4CRF@@6B@              1003a400     glib:crf.obj
 0002:00005414       ??_R3CRF@@8                1003a414     glib:crf.obj
 0002:00005424       ??_R2CRF@@8                1003a424     glib:crf.obj
 0002:0000542c       ??_R1A@?0A@EA@CRF@@8       1003a42c     glib:crf.obj
 0002:00005448       ??_R4Logger@@6B@           1003a448     glib:logger.obj
 0002:0000545c       ??_R3Logger@@8             1003a45c     glib:logger.obj
 0002:0000546c       ??_R2Logger@@8             1003a46c     glib:logger.obj
 0002:00005474       ??_R1A@?0A@EA@Logger@@8    1003a474     glib:logger.obj
 0002:00005490       ??_R4Serial@@6B@           1003a490     glib:serial.obj
 0002:000054a4       ??_R3Serial@@8             1003a4a4     glib:serial.obj
 0002:000054b4       ??_R2Serial@@8             1003a4b4     glib:serial.obj
 0002:000054bc       ??_R1A@?0A@EA@Serial@@8    1003a4bc     glib:serial.obj
 0002:000054d8       ??_R4AverageTimer@@6B@     1003a4d8     glib:averagetimer.obj
 0002:000054ec       ??_R3AverageTimer@@8       1003a4ec     glib:averagetimer.obj
 0002:000054fc       ??_R2AverageTimer@@8       1003a4fc     glib:averagetimer.obj
 0002:00005504       ??_R1A@?0A@EA@AverageTimer@@8 1003a504     glib:averagetimer.obj
 0002:00005520       ??_R4LPFilter@@6B@         1003a520     glib:lpfilter.obj
 0002:00005534       ??_R3LPFilter@@8           1003a534     glib:lpfilter.obj
 0002:00005544       ??_R2LPFilter@@8           1003a544     glib:lpfilter.obj
 0002:0000554c       ??_R1A@?0A@EA@LPFilter@@8  1003a54c     glib:lpfilter.obj
 0002:00005568       ??_R4Ini@@6B@              1003a568     glib:ini.obj
 0002:0000557c       ??_R3Ini@@8                1003a57c     glib:ini.obj
 0002:0000558c       ??_R2Ini@@8                1003a58c     glib:ini.obj
 0002:00005594       ??_R1A@?0A@EA@Ini@@8       1003a594     glib:ini.obj
 0002:000055b0       ??_R4Timeout@@6B@          1003a5b0     glib:timeout.obj
 0002:000055c4       ??_R3Timeout@@8            1003a5c4     glib:timeout.obj
 0002:000055d4       ??_R2Timeout@@8            1003a5d4     glib:timeout.obj
 0002:000055dc       ??_R1A@?0A@EA@Timeout@@8   1003a5dc     glib:timeout.obj
 0002:000055f8       ??_R4twoPoleFilter@@6B@    1003a5f8     glib:twopolefilter.obj
 0002:0000560c       ??_R3twoPoleFilter@@8      1003a60c     glib:twopolefilter.obj
 0002:0000561c       ??_R2twoPoleFilter@@8      1003a61c     glib:twopolefilter.obj
 0002:00005624       ??_R1A@?0A@EA@twoPoleFilter@@8 1003a624     glib:twopolefilter.obj
 0002:00005640       ??_R4signalStrengthMeter@@6B@ 1003a640     glib:signalstrengthmeter.obj
 0002:00005654       ??_R3signalStrengthMeter@@8 1003a654     glib:signalstrengthmeter.obj
 0002:00005664       ??_R2signalStrengthMeter@@8 1003a664     glib:signalstrengthmeter.obj
 0002:0000566c       ??_R1A@?0A@EA@signalStrengthMeter@@8 1003a66c     glib:signalstrengthmeter.obj
 0002:00005688       ??_R4Err@@6B@              1003a688     glib:err.obj
 0002:0000569c       ??_R3Err@@8                1003a69c     glib:err.obj
 0002:000056ac       ??_R2Err@@8                1003a6ac     glib:err.obj
 0002:000056b4       ??_R1A@?0A@EA@Err@@8       1003a6b4     glib:err.obj
 0002:000056d0       ??_R4DSISerialGeneric@@6B@ 1003a6d0     ant_lib:dsi_serial_generic.obj
 0002:000056e4       ??_R3DSISerialGeneric@@8   1003a6e4     ant_lib:dsi_serial_generic.obj
 0002:000056f4       ??_R2DSISerialGeneric@@8   1003a6f4     ant_lib:dsi_serial_generic.obj
 0002:00005700       ??_R1A@?0A@EA@DSISerial@@8 1003a700     ant_lib:dsi_serial_generic.obj
 0002:0000571c       ??_R3DSISerial@@8          1003a71c     ant_lib:dsi_serial_generic.obj
 0002:0000572c       ??_R2DSISerial@@8          1003a72c     ant_lib:dsi_serial_generic.obj
 0002:00005734       ??_R1A@?0A@EA@DSISerialGeneric@@8 1003a734     ant_lib:dsi_serial_generic.obj
 0002:00005750       ??_R4?$USBDeviceList@PBVUSBDevice@@@@6B@ 1003a750     ant_lib:dsi_serial_generic.obj
 0002:00005764       ??_R3?$USBDeviceList@PBVUSBDevice@@@@8 1003a764     ant_lib:dsi_serial_generic.obj
 0002:00005774       ??_R2?$USBDeviceList@PBVUSBDevice@@@@8 1003a774     ant_lib:dsi_serial_generic.obj
 0002:0000577c       ??_R1A@?0A@EA@?$USBDeviceList@PBVUSBDevice@@@@8 1003a77c     ant_lib:dsi_serial_generic.obj
 0002:00005798       ??_R4DSIFramerANT@@6B@     1003a798     ant_lib:dsi_framer_ant.obj
 0002:000057ac       ??_R3DSIFramerANT@@8       1003a7ac     ant_lib:dsi_framer_ant.obj
 0002:000057bc       ??_R2DSIFramerANT@@8       1003a7bc     ant_lib:dsi_framer_ant.obj
 0002:000057cc       ??_R1A@?0A@EA@DSIFramer@@8 1003a7cc     ant_lib:dsi_framer_ant.obj
 0002:000057e8       ??_R3DSIFramer@@8          1003a7e8     ant_lib:dsi_framer_ant.obj
 0002:000057f8       ??_R2DSIFramer@@8          1003a7f8     ant_lib:dsi_framer_ant.obj
 0002:00005804       ??_R1A@?0A@EA@DSISerialCallback@@8 1003a804     ant_lib:dsi_framer_ant.obj
 0002:00005820       ??_R3DSISerialCallback@@8  1003a820     ant_lib:dsi_framer_ant.obj
 0002:00005830       ??_R2DSISerialCallback@@8  1003a830     ant_lib:dsi_framer_ant.obj
 0002:00005838       ??_R1A@?0A@EA@DSIFramerANT@@8 1003a838     ant_lib:dsi_framer_ant.obj
 0002:00005854       ??_R4DSISerial@@6B@        1003a854     ant_lib:dsi_serial.obj
 0002:00005868       ??_R4?$USBDeviceList@PBVUSBDeviceLibusb@@@@6B@ 1003a868     ant_lib:usb_device_handle_win.obj
 0002:0000587c       ??_R3?$USBDeviceList@PBVUSBDeviceLibusb@@@@8 1003a87c     ant_lib:usb_device_handle_win.obj
 0002:0000588c       ??_R2?$USBDeviceList@PBVUSBDeviceLibusb@@@@8 1003a88c     ant_lib:usb_device_handle_win.obj
 0002:00005894       ??_R1A@?0A@EA@?$USBDeviceList@PBVUSBDeviceLibusb@@@@8 1003a894     ant_lib:usb_device_handle_win.obj
 0002:000058b0       ??_R4?$USBDeviceList@PBVUSBDeviceSI@@@@6B@ 1003a8b0     ant_lib:usb_device_handle_win.obj
 0002:000058c4       ??_R3?$USBDeviceList@PBVUSBDeviceSI@@@@8 1003a8c4     ant_lib:usb_device_handle_win.obj
 0002:000058d4       ??_R2?$USBDeviceList@PBVUSBDeviceSI@@@@8 1003a8d4     ant_lib:usb_device_handle_win.obj
 0002:000058dc       ??_R1A@?0A@EA@?$USBDeviceList@PBVUSBDeviceSI@@@@8 1003a8dc     ant_lib:usb_device_handle_win.obj
 0002:000058f8       ??_R4DSISerialCallback@@6B@ 1003a8f8     ant_lib:dsi_framer.obj
 0002:0000590c       ??_R4USBDeviceSI@@6B@      1003a90c     ant_lib:usb_device_si.obj
 0002:00005920       ??_R3USBDeviceSI@@8        1003a920     ant_lib:usb_device_si.obj
 0002:00005930       ??_R2USBDeviceSI@@8        1003a930     ant_lib:usb_device_si.obj
 0002:0000593c       ??_R1A@?0A@EA@USBDeviceSI@@8 1003a93c     ant_lib:usb_device_si.obj
 0002:00005958       ??_R4USBDevice@@6B@        1003a958     ant_lib:usb_device_si.obj
 0002:0000596c       ??_R3USBDevice@@8          1003a96c     ant_lib:usb_device_si.obj
 0002:0000597c       ??_R2USBDevice@@8          1003a97c     ant_lib:usb_device_si.obj
 0002:00005984       ??_R1A@?0A@EA@USBDevice@@8 1003a984     ant_lib:usb_device_si.obj
 0002:000059a0       ??_R4?$USBDeviceList@$$CBVUSBDeviceSI@@@@6B@ 1003a9a0     ant_lib:usb_device_handle_si.obj
 0002:000059b4       ??_R3?$USBDeviceList@$$CBVUSBDeviceSI@@@@8 1003a9b4     ant_lib:usb_device_handle_si.obj
 0002:000059c4       ??_R2?$USBDeviceList@$$CBVUSBDeviceSI@@@@8 1003a9c4     ant_lib:usb_device_handle_si.obj
 0002:000059cc       ??_R1A@?0A@EA@?$USBDeviceList@$$CBVUSBDeviceSI@@@@8 1003a9cc     ant_lib:usb_device_handle_si.obj
 0002:000059e8       ??_R4USBDeviceHandleSI@@6B@ 1003a9e8     ant_lib:usb_device_handle_si.obj
 0002:000059fc       ??_R3USBDeviceHandleSI@@8  1003a9fc     ant_lib:usb_device_handle_si.obj
 0002:00005a0c       ??_R2USBDeviceHandleSI@@8  1003aa0c     ant_lib:usb_device_handle_si.obj
 0002:00005a18       ??_R1A@?0A@EA@USBDeviceHandleSI@@8 1003aa18     ant_lib:usb_device_handle_si.obj
 0002:00005a34       ??_R4USBDeviceHandle@@6B@  1003aa34     ant_lib:usb_device_handle_si.obj
 0002:00005a48       ??_R3USBDeviceHandle@@8    1003aa48     ant_lib:usb_device_handle_si.obj
 0002:00005a58       ??_R2USBDeviceHandle@@8    1003aa58     ant_lib:usb_device_handle_si.obj
 0002:00005a60       ??_R1A@?0A@EA@USBDeviceHandle@@8 1003aa60     ant_lib:usb_device_handle_si.obj
 0002:00005a7c       ??_R4USBDeviceLibusb@@6B@  1003aa7c     ant_lib:usb_device_libusb.obj
 0002:00005a90       ??_R3USBDeviceLibusb@@8    1003aa90     ant_lib:usb_device_libusb.obj
 0002:00005aa0       ??_R2USBDeviceLibusb@@8    1003aaa0     ant_lib:usb_device_libusb.obj
 0002:00005aac       ??_R1A@?0A@EA@USBDeviceLibusb@@8 1003aaac     ant_lib:usb_device_libusb.obj
 0002:00005ac8       ??_R4?$USBDeviceList@$$CBVUSBDeviceLibusb@@@@6B@ 1003aac8     ant_lib:usb_device_handle_libusb.obj
 0002:00005adc       ??_R3?$USBDeviceList@$$CBVUSBDeviceLibusb@@@@8 1003aadc     ant_lib:usb_device_handle_libusb.obj
 0002:00005aec       ??_R2?$USBDeviceList@$$CBVUSBDeviceLibusb@@@@8 1003aaec     ant_lib:usb_device_handle_libusb.obj
 0002:00005af4       ??_R1A@?0A@EA@?$USBDeviceList@$$CBVUSBDeviceLibusb@@@@8 1003aaf4     ant_lib:usb_device_handle_libusb.obj
 0002:00005b10       ??_R4USBDeviceHandleLibusb@@6B@ 1003ab10     ant_lib:usb_device_handle_libusb.obj
 0002:00005b24       ??_R3USBDeviceHandleLibusb@@8 1003ab24     ant_lib:usb_device_handle_libusb.obj
 0002:00005b34       ??_R2USBDeviceHandleLibusb@@8 1003ab34     ant_lib:usb_device_handle_libusb.obj
 0002:00005b40       ??_R1A@?0A@EA@USBDeviceHandleLibusb@@8 1003ab40     ant_lib:usb_device_handle_libusb.obj
 0002:00005b5c       ??_R4SiLabsLibrary@@6B@    1003ab5c     ant_lib:dsi_silabs_library.obj
 0002:00005b70       ??_R3SiLabsLibrary@@8      1003ab70     ant_lib:dsi_silabs_library.obj
 0002:00005b80       ??_R2SiLabsLibrary@@8      1003ab80     ant_lib:dsi_silabs_library.obj
 0002:00005b88       ??_R1A@?0A@EA@SiLabsLibrary@@8 1003ab88     ant_lib:dsi_silabs_library.obj
 0002:00005ba4       ??_R4CMLibrary@@6B@        1003aba4     ant_lib:dsi_cm_library.obj
 0002:00005bb8       ??_R3CMLibrary@@8          1003abb8     ant_lib:dsi_cm_library.obj
 0002:00005bc8       ??_R2CMLibrary@@8          1003abc8     ant_lib:dsi_cm_library.obj
 0002:00005bd0       ??_R1A@?0A@EA@CMLibrary@@8 1003abd0     ant_lib:dsi_cm_library.obj
 0002:00005bec       ??_R4LibusbLibrary@@6B@    1003abec     ant_lib:dsi_libusb_library.obj
 0002:00005c00       ??_R3LibusbLibrary@@8      1003ac00     ant_lib:dsi_libusb_library.obj
 0002:00005c10       ??_R2LibusbLibrary@@8      1003ac10     ant_lib:dsi_libusb_library.obj
 0002:00005c18       ??_R1A@?0A@EA@LibusbLibrary@@8 1003ac18     ant_lib:dsi_libusb_library.obj
 0002:00005c40       ___safe_se_handler_table   1003ac40     <linker-defined>
 0002:00005e14       ___rtc_iaa                 1003ae14     MSVCRT:_initsect_.obj
 0002:00005e18       ___rtc_izz                 1003ae18     MSVCRT:_initsect_.obj
 0002:00005e1c       ___rtc_taa                 1003ae1c     MSVCRT:_initsect_.obj
 0002:00005e20       ___rtc_tzz                 1003ae20     MSVCRT:_initsect_.obj
 0002:00006234       __CT??_R0?AVlength_error@std@@@8??0length_error@std@@QAE@ABV01@@Z40 1003b234     tlib:formula.obj
 0002:00006250       __CT??_R0?AVlogic_error@std@@@8??0logic_error@std@@QAE@ABV01@@Z40 1003b250     tlib:formula.obj
 0002:0000626c       __CT??_R0?AVexception@std@@@8??0exception@std@@QAE@ABV01@@Z12 1003b26c     tlib:formula.obj
 0002:00006288       __CTA3?AVlength_error@std@@ 1003b288     tlib:formula.obj
 0002:00006298       __TI3?AVlength_error@std@@ 1003b298     tlib:formula.obj
 0002:000062a8       __CT??_R0?AVbad_alloc@std@@@8??0bad_alloc@std@@QAE@ABV01@@Z12 1003b2a8     tlib:formula.obj
 0002:000062c4       __CTA2?AVbad_alloc@std@@   1003b2c4     tlib:formula.obj
 0002:000062d0       __TI2?AVbad_alloc@std@@    1003b2d0     tlib:formula.obj
 0002:000062e0       __CT??_R0PAD@84            1003b2e0     tlib:physics.obj
 0002:000062fc       __CT??_R0PAX@84            1003b2fc     tlib:physics.obj
 0002:00006318       __CTA2PAD                  1003b318     tlib:physics.obj
 0002:00006324       __TI2PAD                   1003b324     tlib:physics.obj
 0002:00006334       __CT??_R0?AVfatalError@@@8??0fatalError@@QAE@ABV0@@Z268 1003b334     tlib:physics.obj
 0002:00006350       __CTA1?AVfatalError@@      1003b350     tlib:physics.obj
 0002:00006358       __TI1?AVfatalError@@       1003b358     tlib:physics.obj
 0002:00006368       __CT??_R0H@84              1003b368     glib:serial.obj
 0002:00006384       __CTA1H                    1003b384     glib:serial.obj
 0002:0000638c       __TI1H                     1003b38c     glib:serial.obj
 0002:0000639c       __CT??_R0?AW4Enum@SiLabsError@@@84 1003b39c     ant_lib:dsi_silabs_library.obj
 0002:000063b8       __CTA1?AW4Enum@SiLabsError@@ 1003b3b8     ant_lib:dsi_silabs_library.obj
 0002:000063c0       __TI1?AW4Enum@SiLabsError@@ 1003b3c0     ant_lib:dsi_silabs_library.obj
 0002:000063d0       __CT??_R0?AW4Enum@CMError@@@84 1003b3d0     ant_lib:dsi_cm_library.obj
 0002:000063ec       __CTA1?AW4Enum@CMError@@   1003b3ec     ant_lib:dsi_cm_library.obj
 0002:000063f4       __TI1?AW4Enum@CMError@@    1003b3f4     ant_lib:dsi_cm_library.obj
 0002:00006404       __CT??_R0?AW4Enum@LibusbError@@@84 1003b404     ant_lib:dsi_libusb_library.obj
 0002:00006420       __CTA1?AW4Enum@LibusbError@@ 1003b420     ant_lib:dsi_libusb_library.obj
 0002:00006428       __TI1?AW4Enum@LibusbError@@ 1003b428     ant_lib:dsi_libusb_library.obj
 0002:00007e18       __IMPORT_DESCRIPTOR_WINMM  1003ce18     winmm:WINMM.dll
 0002:00007e2c       __IMPORT_DESCRIPTOR_KERNEL32 1003ce2c     kernel32:KERNEL32.dll
 0002:00007e40       __IMPORT_DESCRIPTOR_USER32 1003ce40     user32:USER32.dll
 0002:00007e54       __IMPORT_DESCRIPTOR_SHELL32 1003ce54     shell32:SHELL32.dll
 0002:00007e68       __IMPORT_DESCRIPTOR_MSVCP90 1003ce68     msvcprt:MSVCP90.dll
 0002:00007e7c       __IMPORT_DESCRIPTOR_MSVCR90 1003ce7c     MSVCRT:MSVCR90.dll
 0002:00007e90       __IMPORT_DESCRIPTOR_pcre3  1003ce90     pcre:pcre3.dll
 0002:00007ea4       __NULL_IMPORT_DESCRIPTOR   1003cea4     winmm:WINMM.dll
 0003:00000040       ?DEVICE_TIMEOUT_MS@@3KA    10042040     dll_globals.obj
 0003:00000044       ?devstrs@@3PAPBDA          10042044     dll_globals.obj
 0003:0000006c       ?bluetooth_delay@@3_NA     1004206c     dll_globals.obj
 0003:00000070       ?ctmask@@3PAHA             10042070     dll_globals.obj
 0003:00000088       ?vtmask@@3PAHA             10042088     dll_globals.obj
 0003:000000a0       ?err_strs@@3PAPBDA         100420a0     errors.obj
 0003:00000134       ??_R0?AVtype_info@@@8      10042134     MSVCRT:ti_inst.obj
 0003:0000014c       ___security_cookie         1004214c     MSVCRT:gs_cookie.obj
 0003:00000150       ___security_cookie_complement 10042150     MSVCRT:gs_cookie.obj
 0003:00000160       ___native_dllmain_reason   10042160     MSVCRT:natstart.obj
 0003:00000164       ___native_vcclrit_reason   10042164     MSVCRT:natstart.obj
 0003:00000168       ??_R0?AVFormula@@@8        10042168     tlib:formula.obj
 0003:0000022c       ?ant_key@@3PAEA            1004222c     glib:aunt.obj
 0003:00000234       ?ant_baud@@3GA             10042234     glib:aunt.obj
 0003:00000236       ?MAX_NO_EVENTS@@3EA        10042236     glib:aunt.obj
 0003:000002f0       ?mphs@simDecoder@@2PANA    100422f0     tlib:simdecoder.obj
 0003:0000036c       ?COPYRIGHT@RMP@@2PBDB      1004236c     tlib:rmp.obj
 0003:00000550       ?front_defaults@Bike@@2PAHA 10042550     tlib:bike.obj
 0003:00000568       ?rear_defaults@Bike@@2PAHA 10042568     tlib:bike.obj
 0003:000005d4       ?modestrs@Physics@@2PAPBDA 100425d4     tlib:physics.obj
 0003:00001ca0       ?clDeviceList@USBDeviceHandleSI@@0V?$USBDeviceList@$$CBVUSBDeviceSI@@@@A 10043ca0     ant_lib:usb_device_handle_si.obj
 0003:00001cbc       ?clDeviceList@USBDeviceHandleLibusb@@0V?$USBDeviceList@$$CBVUSBDeviceLibusb@@@@A 10043cbc     ant_lib:usb_device_handle_libusb.obj
 0003:00001cd8       ??_R0?AVlength_error@std@@@8 10043cd8     tlib:formula.obj
 0003:00001cf8       ??_R0?AVlogic_error@std@@@8 10043cf8     tlib:formula.obj
 0003:00001d18       ??_R0?AVexception@std@@@8  10043d18     tlib:formula.obj
 0003:00001d34       ??_R0?AVbad_alloc@std@@@8  10043d34     tlib:formula.obj
 0003:00001d50       ??_R0?AVMonarch@@@8        10043d50     tlib:monarch.obj
 0003:00001d68       ??_R0?AVPhysics@@@8        10043d68     tlib:physics.obj
 0003:00001d80       ??_R0?AVPerson@@@8         10043d80     tlib:physics.obj
 0003:00001d98       ??_R0PAD@8                 10043d98     tlib:physics.obj
 0003:00001da8       ??_R0PAX@8                 10043da8     tlib:physics.obj
 0003:00001db8       ??_R0?AVfatalError@@@8     10043db8     tlib:physics.obj
 0003:00001dd4       ??_R0?AVBike@@@8           10043dd4     tlib:bike.obj
 0003:00001de8       ??_R0?AVdataSource@@@8     10043de8     tlib:datasource.obj
 0003:00001e04       ??_R0?AVDecoder@@@8        10043e04     tlib:decoder.obj
 0003:00001e1c       ??_R0?AVRTD@@@8            10043e1c     tlib:velotron.obj
 0003:00001e30       ??_R0?AVVelotron@@@8       10043e30     tlib:velotron.obj
 0003:00001e4c       ??_R0H@8                   10043e4c     tlib:rtd.obj
 0003:00001e58       ??_R0?AVPerformance@@@8    10043e58     tlib:performance.obj
 0003:00001e74       ??_R0?AVSimulator@@@8      10043e74     tlib:simulator.obj
 0003:00001e8c       ??_R0?AVComputrainer@@@8   10043e8c     tlib:computrainer.obj
 0003:00001ea8       ??_R0?AVNVRAM@@@8          10043ea8     tlib:nvram.obj
 0003:00001ebc       ??_R0?AVCourse@@@8         10043ebc     tlib:course.obj
 0003:00001ed4       ??_R0?AVvelotronDecoder@@@8 10043ed4     tlib:velotron_decoder.obj
 0003:00001ef4       ??_R0?AVMD5@@@8            10043ef4     tlib:rmp.obj
 0003:00001f08       ??_R0?AVperformanceDecoder@@@8 10043f08     tlib:performance_decoder.obj
 0003:00001f2c       ??_R0?AVsimDecoder@@@8     10043f2c     tlib:simdecoder.obj
 0003:00001f48       ??_R0?AVcomputrainerDecoder@@@8 10043f48     tlib:computrainer_decoder.obj
 0003:00001f6c       ??_R0?AVfastTimer@@@8      10043f6c     glib:fasttimer.obj
 0003:00001f84       ??_R0?AVCRF@@@8            10043f84     glib:crf.obj
 0003:00001f98       ??_R0?AVLogger@@@8         10043f98     glib:logger.obj
 0003:00001fb0       ??_R0?AVSerial@@@8         10043fb0     glib:serial.obj
 0003:00001fd4       ??_R0?AVAverageTimer@@@8   10043fd4     glib:averagetimer.obj
 0003:00001ff0       ??_R0?AVLPFilter@@@8       10043ff0     glib:lpfilter.obj
 0003:00002008       ??_R0?AVIni@@@8            10044008     glib:ini.obj
 0003:0000201c       ??_R0?AVTimeout@@@8        1004401c     glib:timeout.obj
 0003:00002034       ??_R0?AVtwoPoleFilter@@@8  10044034     glib:twopolefilter.obj
 0003:00002050       ??_R0?AVsignalStrengthMeter@@@8 10044050     glib:signalstrengthmeter.obj
 0003:00002074       ??_R0?AVErr@@@8            10044074     glib:err.obj
 0003:00002088       ??_R0?AVDSISerial@@@8      10044088     ant_lib:dsi_serial_generic.obj
 0003:000020a0       ??_R0?AVDSISerialGeneric@@@8 100440a0     ant_lib:dsi_serial_generic.obj
 0003:000020c0       ??_R0?AV?$USBDeviceList@PBVUSBDevice@@@@@8 100440c0     ant_lib:dsi_serial_generic.obj
 0003:000020f0       ??_R0?AVDSISerialCallback@@@8 100440f0     ant_lib:dsi_framer_ant.obj
 0003:00002110       ??_R0?AVDSIFramer@@@8      10044110     ant_lib:dsi_framer_ant.obj
 0003:00002128       ??_R0?AVDSIFramerANT@@@8   10044128     ant_lib:dsi_framer_ant.obj
 0003:00002144       ??_R0?AV?$USBDeviceList@PBVUSBDeviceLibusb@@@@@8 10044144     ant_lib:usb_device_handle_win.obj
 0003:00002178       ??_R0?AV?$USBDeviceList@PBVUSBDeviceSI@@@@@8 10044178     ant_lib:usb_device_handle_win.obj
 0003:000021a8       ??_R0?AVUSBDevice@@@8      100441a8     ant_lib:usb_device_handle_win.obj
 0003:000021c0       ??_R0?AVUSBDeviceSI@@@8    100441c0     ant_lib:usb_device_handle_win.obj
 0003:000021dc       ??_R0?AVUSBDeviceLibusb@@@8 100441dc     ant_lib:usb_device_handle_win.obj
 0003:000021fc       ??_R0?AV?$USBDeviceList@$$CBVUSBDeviceSI@@@@@8 100441fc     ant_lib:usb_device_handle_si.obj
 0003:00002230       ??_R0?AVUSBDeviceHandleSI@@@8 10044230     ant_lib:usb_device_handle_si.obj
 0003:00002250       ??_R0?AVUSBDeviceHandle@@@8 10044250     ant_lib:usb_device_handle_si.obj
 0003:00002270       ??_R0?AV?$USBDeviceList@$$CBVUSBDeviceLibusb@@@@@8 10044270     ant_lib:usb_device_handle_libusb.obj
 0003:000022a8       ??_R0?AVUSBDeviceHandleLibusb@@@8 100442a8     ant_lib:usb_device_handle_libusb.obj
 0003:000022cc       ??_R0?AVSiLabsLibrary@@@8  100442cc     ant_lib:dsi_silabs_library.obj
 0003:000022e8       ??_R0?AW4Enum@SiLabsError@@@8 100442e8     ant_lib:dsi_silabs_library.obj
 0003:00002308       ??_R0?AVCMLibrary@@@8      10044308     ant_lib:dsi_cm_library.obj
 0003:00002320       ??_R0?AW4Enum@CMError@@@8  10044320     ant_lib:dsi_cm_library.obj
 0003:0000233c       ??_R0?AVLibusbLibrary@@@8  1004433c     ant_lib:dsi_libusb_library.obj
 0003:00002358       ??_R0?AW4Enum@LibusbError@@@8 10044358     ant_lib:dsi_libusb_library.obj
 0003:00002380       ?gstring@@3PADA            10044380     dll_globals.obj
 0003:00002b80       ?glog@@3PAVLogger@@A       10044b80     dll_globals.obj
 0003:00002b84       ?instances@@3HA            10044b84     dll_globals.obj
 0003:00002b88       ?gfile_mode@@3_NA          10044b88     dll_globals.obj
 0003:00002b89       ?calibrating@@3_NA         10044b89     dll_globals.obj
 0003:00002b8a       ?connected@@3_NA           10044b8a     dll_globals.obj
 0003:00002b8c       ?last_port_time@@3KA       10044b8c     dll_globals.obj
 0003:00002b90       ?devices@@3PAUDEVICE@@A    10044b90     dll_globals.obj
 0003:00027390       ?cryptor@@3VCRF@@A         10069390     dll_globals.obj
 0003:0002784c       __forceCRTManifestRTM      1006984c     MSVCRT:crtmanifestrtm.obj
 0003:00027850       ?__type_info_root_node@@3U__type_info_node@@A 10069850     MSVCRT:tncleanup.obj
 0003:00027858       ?gMachineCaps@@3U_MACHINE_CAPS@@A 10069858     glib:win_utils.obj
 0003:0002786c       ?usTime1024@@3GA           1006986c     glib:aunt.obj
 0003:0002786e       ?ant_circumference_cm@@3EA 1006986e     glib:aunt.obj
 0003:0002786f       ?ant_done@@3_NA            1006986f     glib:aunt.obj
 0003:00027870       ?ant_wheel_rpm@@3MA        10069870     glib:aunt.obj
 0003:00027874       ?usPreviousTime1024@@3GA   10069874     glib:aunt.obj
 0003:00027876       ?ucEventCount@@3EA         10069876     glib:aunt.obj
 0003:00027877       ?ucMfgID@@3EA              10069877     glib:aunt.obj
 0003:00027878       ?ant_str@@3PADA            10069878     glib:aunt.obj
 0003:00027978       ?pclSerialObject@@3PAVDSISerialGeneric@@A 10069978     glib:aunt.obj
 0003:0002797c       ?ulAcumTime1024@@3KA       1006997c     glib:aunt.obj
 0003:00027980       ?usSpdPreviousEventCount@@3GA 10069980     glib:aunt.obj
 0003:00027982       ?ant_channel_opened@@3_NA  10069982     glib:aunt.obj
 0003:00027983       ?ant_display@@3_NA         10069983     glib:aunt.obj
 0003:00027984       ?ant_tid@@3KA              10069984     glib:aunt.obj
 0003:00027988       ?ant_packet@@3PAEA         10069988     glib:aunt.obj
 0003:00027990       ?ulSpdAcumTime1024@@3KA    10069990     glib:aunt.obj
 0003:00027994       ?usCadTime1024@@3GA        10069994     glib:aunt.obj
 0003:00027996       ?bursting@@3_NA            10069996     glib:aunt.obj
 0003:00027997       ?inprocess@@3_NA           10069997     glib:aunt.obj
 0003:00027998       ?ant_sensors@@3PAUANTDEF@@A 10069998     glib:aunt.obj
 0003:000279e0       ?ant_txbuf@@3PAEA          100699e0     glib:aunt.obj
 0003:000279e8       ?ulCadAcumEventCount@@3KA  100699e8     glib:aunt.obj
 0003:000279ec       ?usDeviceVID@@3GA          100699ec     glib:aunt.obj
 0003:000279ee       ?ant_hr@@3EA               100699ee     glib:aunt.obj
 0003:000279ef       ?ucModelNum@@3EA           100699ef     glib:aunt.obj
 0003:000279f0       ?pstr@@3PADA               100699f0     glib:aunt.obj
 0003:00027af0       ?ant_caps@@3PAEA           10069af0     glib:aunt.obj
 0003:00027af5       ?ant_closed@@3_NA          10069af5     glib:aunt.obj
 0003:00027af6       ?ucStatusByte@@3EA         10069af6     glib:aunt.obj
 0003:00027af7       ?ucStatePage@@3EA          10069af7     glib:aunt.obj
 0003:00027af8       ?usCadPreviousEventCount@@3GA 10069af8     glib:aunt.obj
 0003:00027afa       ?ant_broadcasting@@3_NA    10069afa     glib:aunt.obj
 0003:00027afb       ?ucSwVersion@@3EA          10069afb     glib:aunt.obj
 0003:00027afc       ?mutexTestDone@@3PAXA      10069afc     glib:aunt.obj
 0003:00027b00       ?aucDeviceDescription@@3PAEA 10069b00     glib:aunt.obj
 0003:00027c00       ?ant_gstring@@3PADA        10069c00     glib:aunt.obj
 0003:00028400       ?usSpdEventCount@@3GA      1006a400     glib:aunt.obj
 0003:00028402       ?ant_coasting@@3_NA        1006a402     glib:aunt.obj
 0003:00028403       ?ucPreviousEventCount@@3EA 1006a403     glib:aunt.obj
 0003:00028404       ?ulDistance@@3KA           1006a404     glib:aunt.obj
 0003:00028408       ?ant_bp@@3HA               1006a408     glib:aunt.obj
 0003:0002840c       ?usSpdTime1024@@3GA        1006a40c     glib:aunt.obj
 0003:0002840e       ?ant_stopping@@3_NA        1006a40e     glib:aunt.obj
 0003:0002840f       ?ant_calculated_hr@@3EA    1006a40f     glib:aunt.obj
 0003:00028410       ?astrStatus@@3PAY0CA@DA    1006a410     glib:aunt.obj
 0003:00028490       ?ant_cadence@@3MA          1006a490     glib:aunt.obj
 0003:00028494       ?framer@@3PAVDSIFramerANT@@A 1006a494     glib:aunt.obj
 0003:00028498       ?uiDSIThread@@3PAXA        1006a498     glib:aunt.obj
 0003:0002849c       ?ulCadAcumTime1024@@3KA    1006a49c     glib:aunt.obj
 0003:000284a0       ?ant_speed@@3MA            1006a4a0     glib:aunt.obj
 0003:000284a4       ?usSerialNum@@3GA          1006a4a4     glib:aunt.obj
 0003:000284a6       ?ant_msg@@3EA              1006a4a6     glib:aunt.obj
 0003:000284a7       ?ant_initialized@@3_NA     1006a4a7     glib:aunt.obj
 0003:000284a8       ?condTestDone@@3UDSI_CONDITION_VAR@@A 1006a4a8     glib:aunt.obj
 0003:000284d0       ?ulElapsedTime2@@3KA       1006a4d0     glib:aunt.obj
 0003:000284d4       ?usDevicePID@@3GA          1006a4d4     glib:aunt.obj
 0003:000284d6       ?ant_ack@@3EA              1006a4d6     glib:aunt.obj
 0003:000284d7       ?ucNoEventCount@@3EA       1006a4d7     glib:aunt.obj
 0003:000284d8       ?ant_error_string@@3PADA   1006a4d8     glib:aunt.obj
 0003:000285d8       ?ant_keyfunc@@3P6AXXZA     1006a5d8     glib:aunt.obj
 0003:000285dc       ?eState@@3W4BSCState@@A    1006a5dc     glib:aunt.obj
 0003:000285e0       ?usCadPreviousTime1024@@3GA 1006a5e0     glib:aunt.obj
 0003:000285e2       ?ant_rundone@@3_NA         1006a5e2     glib:aunt.obj
 0003:000285e3       ?ucHwVersion@@3EA          1006a5e3     glib:aunt.obj
 0003:000285e4       ?ulAcumEventCount@@3KA     1006a5e4     glib:aunt.obj
 0003:000285e8       ?ulSpdAcumEventCount@@3KA  1006a5e8     glib:aunt.obj
 0003:000285ec       ?ant_logname@@3PADA        1006a5ec     glib:aunt.obj
 0003:000285fc       ?usSpdPreviousTime1024@@3GA 1006a5fc     glib:aunt.obj
 0003:000285fe       ?ucNoCadEventCount@@3EA    1006a5fe     glib:aunt.obj
 0003:000285ff       ?ucNoSpdEventCount@@3EA    1006a5ff     glib:aunt.obj
 0003:00028600       ?aucDeviceSerial@@3PAEA    1006a600     glib:aunt.obj
 0003:00028700       ?usCadEventCount@@3GA      1006a700     glib:aunt.obj
 0003:00028704       ?usR_RInterval1024@@3GA    1006a704     glib:aunt.obj
 0003:00028708       ?SetupAPI_OpenDeviceInfo@@3P6GHPAXPBDPAUHWND__@@KPAU_SP_DEVINFO_DATA@@@ZA 1006a708     ant_lib:WinDevice.obj
 0003:0002870c       ?SetupAPI_DestroyDeviceInfoList@@3P6GHPAX@ZA 1006a70c     ant_lib:WinDevice.obj
 0003:00028710       ?SetupAPI_GetClassDevsEx@@3P6GPAXPBU_GUID@@PBDPAUHWND__@@KPAX13@ZA 1006a710     ant_lib:WinDevice.obj
 0003:00028714       ?SetupAPI_CreateDeviceInfoListEx@@3P6GPAXPBU_GUID@@PAUHWND__@@PBDPAX@ZA 1006a714     ant_lib:WinDevice.obj
 0003:00028718       ?hCfgMgrDll@@3PAUHINSTANCE__@@A 1006a718     ant_lib:WinDevice.obj
 0003:0002871c       ?SetupAPI_EnumDeviceInfo@@3P6GHPAXKPAU_SP_DEVINFO_DATA@@@ZA 1006a71c     ant_lib:WinDevice.obj
 0003:00028720       ?SetupAPI_GetDeviceInstallParams@@3P6GHPAXPAU_SP_DEVINFO_DATA@@PAU_SP_DEVINSTALL_PARAMS_A@@@ZA 1006a720     ant_lib:WinDevice.obj
 0003:00028724       ?hSetupDll@@3PAUHINSTANCE__@@A 1006a724     ant_lib:WinDevice.obj
 0003:00028728       ?SetupAPI_ClassGuidsFromNameEx@@3P6GHPBDPAU_GUID@@KPAK0PAX@ZA 1006a728     ant_lib:WinDevice.obj
 0003:0002872c       ?SetupAPI_GetDeviceRegistryProperty@@3P6GHPAXPAU_SP_DEVINFO_DATA@@KPAKPAEK2@ZA 1006a72c     ant_lib:WinDevice.obj
 0003:00028730       ?SetupAPI_GetDeviceInfoListDetail@@3P6GHPAXPAU_SP_DEVINFO_LIST_DETAIL_DATA_A@@@ZA 1006a730     ant_lib:WinDevice.obj
 0003:00028734       ?CfgMgr32_Get_Device_ID_Ex@@3P6GKKPADKKPAX@ZA 1006a734     ant_lib:WinDevice.obj
 0003:00028738       ?SetupAPI_SetClassInstallParams@@3P6GHPAXPAU_SP_DEVINFO_DATA@@PAU_SP_CLASSINSTALL_HEADER@@K@ZA 1006a738     ant_lib:WinDevice.obj
 0003:0002873c       ?SetupAPI_CallClassInstaller@@3P6GHIPAXPAU_SP_DEVINFO_DATA@@@ZA 1006a73c     ant_lib:WinDevice.obj
 0003:00028740       ?apclSerialBuffer@@3PAPAVBuffer@@A 1006a740     ant_lib:dsi_debug.obj
 0003:00028b3c       ?bWriteEnable@@3HA         1006ab3c     ant_lib:dsi_debug.obj
 0003:00028b40       ?aucExecutablePath@@3PAEA  1006ab40     ant_lib:dsi_debug.obj
 0003:00028c40       ?ulStartTime@@3KA          1006ac40     ant_lib:dsi_debug.obj
 0003:00028c44       ?stSerialBufferMutex@@3PAXA 1006ac44     ant_lib:dsi_debug.obj
 0003:00028c48       ?aucLogDirectory@@3PAEA    1006ac48     ant_lib:dsi_debug.obj
 0003:00028d48       ?stThreadBufferMutex@@3PAXA 1006ad48     ant_lib:dsi_debug.obj
 0003:00028d4c       ?apstThread@@3PAPAU_TASK_PROP@@A 1006ad4c     ant_lib:dsi_debug.obj
 0003:00028d74       ?count@Formula@@0HA        1006ad74     tlib:formula.obj
 0003:00028d78       ?mode@Physics@@2W4MODE@1@A 1006ad78     tlib:physics.obj
 0003:00028d7c       ?gblog@Physics@@2_NA       1006ad7c     tlib:physics.obj
 0003:00028d7d       ?bini@Physics@@2_NA        1006ad7d     tlib:physics.obj
 0003:00028d7e       ?gblog@Bike@@2_NA          1006ad7e     tlib:bike.obj
 0003:00028d7f       ?gbgearslog@Bike@@2_NA     1006ad7f     tlib:bike.obj
 0003:00028d80       ?gblog@dataSource@@2_NA    1006ad80     tlib:datasource.obj
 0003:00028d81       ?decoderlog@Decoder@@2_NA  1006ad81     tlib:decoder.obj
 0003:00028d82       ?bini@Decoder@@2_NA        1006ad82     tlib:decoder.obj
 0003:00028d83       ?bini@Heartrate@@2_NA      1006ad83     tlib:heartrate.obj
 0003:00028d84       ?instances@Decoder@@1HA    1006ad84     tlib:decoder.obj
 0003:00028d88       ?abs_tick@Decoder@@1HA     1006ad88     tlib:decoder.obj
 0003:00028d8c       ?hash@RMP@@0PAEA           1006ad8c     tlib:rmp.obj
 0003:00028dbc       ?asciihexhash@RMP@@0PADA   1006adbc     tlib:rmp.obj
 0003:00028dec       ?n_sim_decoders@simDecoder@@0HA 1006adec     tlib:simdecoder.obj
 0003:00028df0       ?vidname_from_file@RMP@@2PADA 1006adf0     tlib:rmp.obj
 0003:00028e30       ?gstr@RMP@@0PADA           1006ae30     tlib:rmp.obj
 0003:00028f30       ?devnum@@3HA               1006af30     glib:aunt.obj
 0003:00028f34       ?netnum@@3HA               1006af34     glib:aunt.obj
 0003:00028f38       ?ant_logstream@@3PAU_iobuf@@A 1006af38     glib:aunt.obj
 0003:00028f3c       ?bInitialized@DSIDebug@@0HA 1006af3c     ant_lib:dsi_debug.obj
 0003:00028f40       ?lastUsbResetTime@DSISerialGeneric@@0_JA 1006af40     ant_lib:dsi_serial_generic.obj
 0003:00028f48       ?bStaticSet@SiLabsLibrary@@0HA 1006af48     ant_lib:dsi_silabs_library.obj
 0003:00028f4c       ?bStaticSet@CMLibrary@@0HA 1006af4c     ant_lib:dsi_cm_library.obj
 0003:00028f50       ?bStaticSet@LibusbLibrary@@0HA 1006af50     ant_lib:dsi_libusb_library.obj
 0003:00028f54       ?hdrstrings@@3V?$vector@V?$basic_string@DU?$char_traits@D@std@@V?$allocator@D@2@@std@@V?$allocator@V?$basic_string@DU?$char_traits@D@std@@V?$allocator@D@2@@std@@@2@@std@@A 1006af54     tlib:physics.obj
 0003:00028f6c       ?rc4stack@@3V?$stack@UTCRF@@V?$deque@UTCRF@@V?$allocator@UTCRF@@@std@@@std@@@std@@A 1006af6c     glib:crf.obj
 0003:00028f8c       ?dirs@@3V?$vector@V?$basic_string@DU?$char_traits@D@std@@V?$allocator@D@2@@std@@V?$allocator@V?$basic_string@DU?$char_traits@D@std@@V?$allocator@D@2@@std@@@2@@std@@A 1006af8c     glib:globals.obj
 0003:00028fa4       ?clAutoInstance@SiLabsLibrary@@0V?$auto_ptr@VSiLabsLibrary@@@std@@A 1006afa4     ant_lib:dsi_silabs_library.obj
 0003:00028fa8       ?clAutoInstance@CMLibrary@@0V?$auto_ptr@VCMLibrary@@@std@@A 1006afa8     ant_lib:dsi_cm_library.obj
 0003:00028fac       ?clAutoInstance@LibusbLibrary@@0V?$auto_ptr@VLibusbLibrary@@@std@@A 1006afac     ant_lib:dsi_libusb_library.obj
 0003:00028fdc       __adjust_fdiv              1006afdc     <common>
 0003:00028fe0       ___native_startup_state    1006afe0     <common>
 0003:00028fe4       ___native_startup_lock     1006afe4     <common>
 0003:00028fe8       ___sse2_available          1006afe8     <common>
 0003:00028fec       ___dyn_tls_init_callback   1006afec     <common>
 0003:00028ff0       ___onexitend               1006aff0     <common>
 0003:00028ff4       ___onexitbegin             1006aff4     <common>

 entry point at        0001:00031867

 Static symbols

 0001:000008a5       __catch$??0?$deque@UFORMULA_PAIR@@V?$allocator@UFORMULA_PAIR@@@std@@@std@@QAE@ABV01@@Z$0 100018a5 f i  CIL library: CIL module
 0001:00001368       __catch$??$_Insert@V?$_Deque_const_iterator@UFORMULA_PAIR@@V?$allocator@UFORMULA_PAIR@@@std@@$00@std@@@?$deque@UFORMULA_PAIR@@V?$allocator@UFORMULA_PAIR@@@std@@@std@@QAEXV?$_Deque_const_iterator@UFORMULA_PAIR@@V?$allocator@UFORMULA_PAIR@@@std@@$00@1@00Uinput_iterator_tag@1@@Z$0 10002368 f i  CIL library: CIL module
 0001:00001418       __catch$??$_Insert@V?$_Deque_const_iterator@UFORMULA_PAIR@@V?$allocator@UFORMULA_PAIR@@@std@@$00@std@@@?$deque@UFORMULA_PAIR@@V?$allocator@UFORMULA_PAIR@@@std@@@std@@QAEXV?$_Deque_const_iterator@UFORMULA_PAIR@@V?$allocator@UFORMULA_PAIR@@@std@@$00@1@00Uinput_iterator_tag@1@@Z$2 10002418 f i  CIL library: CIL module
 0001:0000d6e5       __catch$??0?$deque@NV?$allocator@N@std@@@std@@QAE@ABV01@@Z$0 1000e6e5 f i  CIL library: CIL module
 0001:0000ddca       __catch$??$_Insert@V?$_Deque_const_iterator@NV?$allocator@N@std@@$00@std@@@?$deque@NV?$allocator@N@std@@@std@@QAEXV?$_Deque_const_iterator@NV?$allocator@N@std@@$00@1@00Uinput_iterator_tag@1@@Z$0 1000edca f i  CIL library: CIL module
 0001:0000de72       __catch$??$_Insert@V?$_Deque_const_iterator@NV?$allocator@N@std@@$00@std@@@?$deque@NV?$allocator@N@std@@@std@@QAEXV?$_Deque_const_iterator@NV?$allocator@N@std@@$00@1@00Uinput_iterator_tag@1@@Z$2 1000ee72 f i  CIL library: CIL module
 0001:0000f003       __catch$??0RTD@@QAE@PBDHAAVRIDER_DATA@@PAVCourse@@PAVBike@@_NW4LoggingType@@@Z$0 10010003 f    CIL library: CIL module
 0001:00011129       __catch$??0?$vector@UFPOINT@@V?$allocator@UFPOINT@@@std@@@std@@QAE@ABV01@@Z$0 10012129 f i  CIL library: CIL module
 0001:000115c1       __catch$?_Insert_n@?$vector@UFPOINT@@V?$allocator@UFPOINT@@@std@@@std@@IAEXV?$_Vector_const_iterator@UFPOINT@@V?$allocator@UFPOINT@@@std@@@2@IABUFPOINT@@@Z$0 100125c1 f i  CIL library: CIL module
 0001:000115cd       __catch$?_Insert_n@?$vector@UFPOINT@@V?$allocator@UFPOINT@@@std@@@std@@IAEXV?$_Vector_const_iterator@UFPOINT@@V?$allocator@UFPOINT@@@std@@@2@IABUFPOINT@@@Z$2 100125cd f i  CIL library: CIL module
 0001:00011929       __catch$?_Insert_n@?$vector@USEC@@V?$allocator@USEC@@@std@@@std@@IAEXV?$_Vector_const_iterator@USEC@@V?$allocator@USEC@@@std@@@2@IABUSEC@@@Z$0 10012929 f i  CIL library: CIL module
 0001:00011935       __catch$?_Insert_n@?$vector@USEC@@V?$allocator@USEC@@@std@@@std@@IAEXV?$_Vector_const_iterator@USEC@@V?$allocator@USEC@@@std@@@2@IABUSEC@@@Z$2 10012935 f i  CIL library: CIL module
 0001:00013dc4       __catch$?connect@NVRAM@@QAEXXZ$0 10014dc4 f    CIL library: CIL module
 0001:0001dc49       __catch$?_Insert_n@?$vector@V?$basic_string@DU?$char_traits@D@std@@V?$allocator@D@2@@std@@V?$allocator@V?$basic_string@DU?$char_traits@D@std@@V?$allocator@D@2@@std@@@2@@std@@IAEXV?$_Vector_const_iterator@V?$basic_string@DU?$char_traits@D@std@@V?$allocator@D@2@@std@@V?$allocator@V?$basic_string@DU?$char_traits@D@std@@V?$allocator@D@2@@std@@@2@@2@IABV?$basic_string@DU?$char_traits@D@std@@V?$allocator@D@2@@2@@Z$0 1001ec49 f i  CIL library: CIL module
 0001:0001dd54       __catch$?_Insert_n@?$vector@V?$basic_string@DU?$char_traits@D@std@@V?$allocator@D@2@@std@@V?$allocator@V?$basic_string@DU?$char_traits@D@std@@V?$allocator@D@2@@std@@@2@@std@@IAEXV?$_Vector_const_iterator@V?$basic_string@DU?$char_traits@D@std@@V?$allocator@D@2@@std@@V?$allocator@V?$basic_string@DU?$char_traits@D@std@@V?$allocator@D@2@@std@@@2@@2@IABV?$basic_string@DU?$char_traits@D@std@@V?$allocator@D@2@@2@@Z$2 1001ed54 f i  CIL library: CIL module
 0001:0001df0a       __catch$??$_Uninit_fill_n@PAV?$basic_string@DU?$char_traits@D@std@@V?$allocator@D@2@@std@@IV12@V?$allocator@V?$basic_string@DU?$char_traits@D@std@@V?$allocator@D@2@@std@@@2@@std@@YAXPAV?$basic_string@DU?$char_traits@D@std@@V?$allocator@D@2@@0@IABV10@AAV?$allocator@V?$basic_string@DU?$char_traits@D@std@@V?$allocator@D@2@@std@@@0@U_Nonscalar_ptr_iterator_tag@0@U_Range_checked_iterator_tag@0@@Z$0 1001ef0a f i  CIL library: CIL module
 0001:0001e026       __catch$??$_Uninit_move@PAV?$basic_string@DU?$char_traits@D@std@@V?$allocator@D@2@@std@@PAV12@V?$allocator@V?$basic_string@DU?$char_traits@D@std@@V?$allocator@D@2@@std@@@2@@std@@YAPAV?$basic_string@DU?$char_traits@D@std@@V?$allocator@D@2@@0@PAV10@00AAV?$allocator@V?$basic_string@DU?$char_traits@D@std@@V?$allocator@D@2@@std@@@0@U_Swap_move_tag@0@U_Range_checked_iterator_tag@0@@Z$0 1001f026 f i  CIL library: CIL module
 0001:00020a20       ?RunMessageThread@@YAPAXPAX@Z 10021a20 f    CIL library: CIL module
 0001:00029b0b       __catch$??0USBDeviceHandleSI@@IAE@ABVUSBDeviceSI@@K@Z$0 1002ab0b f    CIL library: CIL module
 0001:00029d62       __catch$?Open@USBDeviceHandleSI@@SAHABVUSBDeviceSI@@AAPAV1@K@Z$0 1002ad62 f    CIL library: CIL module
 0001:0002b32e       __catch$?Open@USBDeviceHandleLibusb@@SAHABVUSBDeviceLibusb@@AAPAV1@@Z$0 1002c32e f    CIL library: CIL module
 0001:0002b587       __catch$??0USBDeviceHandleLibusb@@IAE@ABVUSBDeviceLibusb@@@Z$0 1002c587 f    CIL library: CIL module
 0001:0002c306       __catch$?Load@SiLabsLibrary@@SAHAAV?$auto_ptr@$$CBVSiLabsLibrary@@@std@@@Z$0 1002d306 f    CIL library: CIL module
 0001:0002c416       __catch$??0SiLabsLibrary@@QAE@XZ$0 1002d416 f    CIL library: CIL module
 0001:0002c6ae       __catch$??0CMLibrary@@QAE@XZ$0 1002d6ae f    CIL library: CIL module
 0001:0002c876       __catch$?Load@LibusbLibrary@@SAHAAV?$auto_ptr@$$CBVLibusbLibrary@@@std@@@Z$0 1002d876 f    CIL library: CIL module
 0001:0002c99e       __catch$??0LibusbLibrary@@QAE@XZ$0 1002d99e f    CIL library: CIL module
 0001:0002d7f0       __catch$_x010fb505c40bbb260c9bf6a981018cfb$0 1002e7f0 f   dll.obj
 0001:0002d93a       __catch$_x010fb505c40bbb260c9bf6a981018cfb$1 1002e93a f   dll.obj
 0001:0002db96       __catch$_x010fb505c40bbb260c9bf6a981018cfb$3 1002eb96 f   dll.obj
 0001:000314dc       _pre_c_init                100324dc f   MSVCRT:crtdll.obj
 0001:00031751       ___DllMainCRTStartup       10032751 f   MSVCRT:crtdll.obj
 0001:00031a1a       _has_osfxsr_set            10032a1a f   MSVCRT:cpu_disp.obj
 0001:00031e90       __unwindfunclet$??0RIDER_DATA@@QAE@ABV0@@Z$0 10032e90 f   dll.obj
 0001:00031e98       __ehhandler$??0RIDER_DATA@@QAE@ABV0@@Z 10032e98 f   dll.obj
 0001:00031ec0       __unwindfunclet$_x010fb505c40bbb260c9bf6a981018cfb$6 10032ec0 f   dll.obj
 0001:00031ec8       __unwindfunclet$_x010fb505c40bbb260c9bf6a981018cfb$7 10032ec8 f   dll.obj
 0001:00031ed3       __unwindfunclet$_x010fb505c40bbb260c9bf6a981018cfb$8 10032ed3 f   dll.obj
 0001:00031ede       __ehhandler$_x010fb505c40bbb260c9bf6a981018cfb 10032ede f   dll.obj
 0001:00031f10       __unwindfunclet$??__Edevices@@YAXXZ$1 10032f10 f   dll_globals.obj
 0001:00031f1a       __ehhandler$??__Edevices@@YAXXZ 10032f1a f   dll_globals.obj
 0001:00031f40       __unwindfunclet$??0EV@@QAE@HW4EnumDeviceType@@VRIDER_DATA@@PAUPARAMS@Bike@@PAVCourse@@W4LoggingType@@@Z$0 10032f40 f   ev.obj
 0001:00031f48       __unwindfunclet$??0EV@@QAE@HW4EnumDeviceType@@VRIDER_DATA@@PAUPARAMS@Bike@@PAVCourse@@W4LoggingType@@@Z$1 10032f48 f   ev.obj
 0001:00031f56       __unwindfunclet$??0EV@@QAE@HW4EnumDeviceType@@VRIDER_DATA@@PAUPARAMS@Bike@@PAVCourse@@W4LoggingType@@@Z$2 10032f56 f   ev.obj
 0001:00031f61       __unwindfunclet$??0EV@@QAE@HW4EnumDeviceType@@VRIDER_DATA@@PAUPARAMS@Bike@@PAVCourse@@W4LoggingType@@@Z$3 10032f61 f   ev.obj
 0001:00031f6c       __unwindfunclet$??0EV@@QAE@HW4EnumDeviceType@@VRIDER_DATA@@PAUPARAMS@Bike@@PAVCourse@@W4LoggingType@@@Z$4 10032f6c f   ev.obj
 0001:00031f77       __unwindfunclet$??0EV@@QAE@HW4EnumDeviceType@@VRIDER_DATA@@PAUPARAMS@Bike@@PAVCourse@@W4LoggingType@@@Z$5 10032f77 f   ev.obj
 0001:00031f82       __unwindfunclet$??0EV@@QAE@HW4EnumDeviceType@@VRIDER_DATA@@PAUPARAMS@Bike@@PAVCourse@@W4LoggingType@@@Z$6 10032f82 f   ev.obj
 0001:00031f8d       __ehhandler$??0EV@@QAE@HW4EnumDeviceType@@VRIDER_DATA@@PAUPARAMS@Bike@@PAVCourse@@W4LoggingType@@@Z 10032f8d f   ev.obj
 0001:00031fb0       __unwindfunclet$??1EV@@QAE@XZ$0 10032fb0 f   ev.obj
 0001:00031fbe       __ehhandler$??1EV@@QAE@XZ  10032fbe f   ev.obj
 0001:00031fe0       __unwindfunclet$?read_velotron@@YAHPAVSerial@@@Z$1 10032fe0 f   internal.obj
 0001:00031feb       __unwindfunclet$?read_velotron@@YAHPAVSerial@@@Z$2 10032feb f   internal.obj
 0001:00031ff9       __ehhandler$?read_velotron@@YAHPAVSerial@@@Z 10032ff9 f   internal.obj
 0001:00032030       __unwindfunclet$?get_computrainer_firmware@@YAPBDH@Z$0 10033030 f   internal.obj
 0001:00032030       __unwindfunclet$?get_computrainer_cal@@YAPBDH@Z$0 10033030 f   internal.obj
 0001:0003203b       __unwindfunclet$?get_computrainer_cal@@YAPBDH@Z$1 1003303b f   internal.obj
 0001:0003203b       __unwindfunclet$?get_computrainer_firmware@@YAPBDH@Z$1 1003303b f   internal.obj
 0001:00032046       __unwindfunclet$?get_computrainer_cal@@YAPBDH@Z$2 10033046 f   internal.obj
 0001:00032046       __unwindfunclet$?get_computrainer_firmware@@YAPBDH@Z$2 10033046 f   internal.obj
 0001:00032051       __unwindfunclet$?get_computrainer_firmware@@YAPBDH@Z$3 10033051 f   internal.obj
 0001:00032051       __unwindfunclet$?get_computrainer_cal@@YAPBDH@Z$3 10033051 f   internal.obj
 0001:0003205f       __ehhandler$?get_computrainer_cal@@YAPBDH@Z 1003305f f   internal.obj
 0001:0003205f       __ehhandler$?get_computrainer_firmware@@YAPBDH@Z 1003305f f   internal.obj
 0001:00032090       __unwindfunclet$?get_velotron_firmware@@YAPBDH@Z$0 10033090 f   internal.obj
 0001:0003209b       __ehhandler$?get_velotron_firmware@@YAPBDH@Z 1003309b f   internal.obj
 0001:000320d0       __unwindfunclet$?get_velotron_cal@@YAPBDH@Z$0 100330d0 f   internal.obj
 0001:000320db       __ehhandler$?get_velotron_cal@@YAPBDH@Z 100330db f   internal.obj
 0001:00032110       __unwindfunclet$?read_computrainer@@YAHPAVSerial@@@Z$1 10033110 f   internal.obj
 0001:0003211b       __unwindfunclet$?read_computrainer@@YAHPAVSerial@@@Z$2 1003311b f   internal.obj
 0001:00032126       __unwindfunclet$?read_computrainer@@YAHPAVSerial@@@Z$3 10033126 f   internal.obj
 0001:00032131       __unwindfunclet$?read_computrainer@@YAHPAVSerial@@@Z$4 10033131 f   internal.obj
 0001:0003213c       __unwindfunclet$?read_computrainer@@YAHPAVSerial@@@Z$5 1003313c f   internal.obj
 0001:0003214a       __ehhandler$?read_computrainer@@YAHPAVSerial@@@Z 1003314a f   internal.obj
 0001:00032180       __unwindfunclet$?setup_standard_dirs@@YAXPBD@Z$0 10033180 f   internal.obj
 0001:00032189       __unwindfunclet$?setup_standard_dirs@@YAXPBD@Z$1 10033189 f   internal.obj
 0001:00032192       __unwindfunclet$?setup_standard_dirs@@YAXPBD@Z$2 10033192 f   internal.obj
 0001:0003219b       __unwindfunclet$?setup_standard_dirs@@YAXPBD@Z$3 1003319b f   internal.obj
 0001:000321a4       __unwindfunclet$?setup_standard_dirs@@YAXPBD@Z$4 100331a4 f   internal.obj
 0001:000321ad       __unwindfunclet$?setup_standard_dirs@@YAXPBD@Z$5 100331ad f   internal.obj
 0001:000321b6       __unwindfunclet$?setup_standard_dirs@@YAXPBD@Z$6 100331b6 f   internal.obj
 0001:000321bf       __unwindfunclet$?setup_standard_dirs@@YAXPBD@Z$7 100331bf f   internal.obj
 0001:000321c8       __unwindfunclet$?setup_standard_dirs@@YAXPBD@Z$8 100331c8 f   internal.obj
 0001:000321d1       __unwindfunclet$?setup_standard_dirs@@YAXPBD@Z$9 100331d1 f   internal.obj
 0001:000321da       __ehhandler$?setup_standard_dirs@@YAXPBD@Z 100331da f   internal.obj
 0001:00032200       __unwindfunclet$??0LibusbLibrary@@QAE@XZ$2 10033200 f    CIL library: CIL module
 0001:0003220b       __ehhandler$??0LibusbLibrary@@QAE@XZ 1003320b f    CIL library: CIL module
 0001:00032230       __unwindfunclet$?Load@LibusbLibrary@@SAHAAV?$auto_ptr@$$CBVLibusbLibrary@@@std@@@Z$2 10033230 f    CIL library: CIL module
 0001:0003223b       __ehhandler$?Load@LibusbLibrary@@SAHAAV?$auto_ptr@$$CBVLibusbLibrary@@@std@@@Z 1003323b f    CIL library: CIL module
 0001:00032260       __unwindfunclet$??0CMLibrary@@QAE@XZ$2 10033260 f    CIL library: CIL module
 0001:0003226b       __ehhandler$??0CMLibrary@@QAE@XZ 1003326b f    CIL library: CIL module
 0001:00032290       __unwindfunclet$??0SiLabsLibrary@@QAE@XZ$2 10033290 f    CIL library: CIL module
 0001:0003229b       __ehhandler$??0SiLabsLibrary@@QAE@XZ 1003329b f    CIL library: CIL module
 0001:000322c0       __unwindfunclet$?Load@SiLabsLibrary@@SAHAAV?$auto_ptr@$$CBVSiLabsLibrary@@@std@@@Z$2 100332c0 f    CIL library: CIL module
 0001:000322cb       __ehhandler$?Load@SiLabsLibrary@@SAHAAV?$auto_ptr@$$CBVSiLabsLibrary@@@std@@@Z 100332cb f    CIL library: CIL module
 0001:000322f0       __unwindfunclet$??1PerfData@@QAE@XZ$0 100332f0 f    CIL library: CIL module
 0001:000322ff       __unwindfunclet$??1PerfData@@QAE@XZ$1 100332ff f    CIL library: CIL module
 0001:0003230e       __ehhandler$??1PerfData@@QAE@XZ 1003330e f    CIL library: CIL module
 0001:00032330       __unwindfunclet$??0PerfData@@QAE@XZ$0 10033330 f    CIL library: CIL module
 0001:0003233f       __unwindfunclet$??0PerfData@@QAE@XZ$1 1003333f f    CIL library: CIL module
 0001:0003234e       __ehhandler$??0PerfData@@QAE@XZ 1003334e f    CIL library: CIL module
 0001:00032370       __unwindfunclet$??0SS@@QAE@XZ$1 10033370 f    CIL library: CIL module
 0001:0003237b       __ehhandler$??0SS@@QAE@XZ  1003337b f    CIL library: CIL module
 0001:000323a0       __unwindfunclet$??0PERSON_DATA@@QAE@XZ$0 100333a0 f    CIL library: CIL module
 0001:000323a0       __unwindfunclet$??1PERSON_DATA@@QAE@XZ$0 100333a0 f    CIL library: CIL module
 0001:000323ac       __unwindfunclet$??0PERSON_DATA@@QAE@XZ$1 100333ac f    CIL library: CIL module
 0001:000323ac       __unwindfunclet$??1PERSON_DATA@@QAE@XZ$1 100333ac f    CIL library: CIL module
 0001:000323b8       __unwindfunclet$??0PERSON_DATA@@QAE@XZ$2 100333b8 f    CIL library: CIL module
 0001:000323b8       __unwindfunclet$??1PERSON_DATA@@QAE@XZ$2 100333b8 f    CIL library: CIL module
 0001:000323c4       __unwindfunclet$??1PERSON_DATA@@QAE@XZ$3 100333c4 f    CIL library: CIL module
 0001:000323c4       __unwindfunclet$??0PERSON_DATA@@QAE@XZ$3 100333c4 f    CIL library: CIL module
 0001:000323d0       __unwindfunclet$??1PERSON_DATA@@QAE@XZ$4 100333d0 f    CIL library: CIL module
 0001:000323d0       __unwindfunclet$??0PERSON_DATA@@QAE@XZ$4 100333d0 f    CIL library: CIL module
 0001:000323df       __unwindfunclet$??0PERSON_DATA@@QAE@XZ$5 100333df f    CIL library: CIL module
 0001:000323df       __unwindfunclet$??1PERSON_DATA@@QAE@XZ$5 100333df f    CIL library: CIL module
 0001:000323ee       __unwindfunclet$??1PERSON_DATA@@QAE@XZ$6 100333ee f    CIL library: CIL module
 0001:000323ee       __unwindfunclet$??0PERSON_DATA@@QAE@XZ$6 100333ee f    CIL library: CIL module
 0001:000323fd       __unwindfunclet$??0PERSON_DATA@@QAE@XZ$7 100333fd f    CIL library: CIL module
 0001:000323fd       __unwindfunclet$??1PERSON_DATA@@QAE@XZ$7 100333fd f    CIL library: CIL module
 0001:0003240c       __ehhandler$??0PERSON_DATA@@QAE@XZ 1003340c f    CIL library: CIL module
 0001:0003240c       __ehhandler$??1PERSON_DATA@@QAE@XZ 1003340c f    CIL library: CIL module
 0001:00032430       __unwindfunclet$??0PERSON_DATA@@QAE@ABU0@@Z$0 10033430 f    CIL library: CIL module
 0001:0003243c       __unwindfunclet$??0PERSON_DATA@@QAE@ABU0@@Z$1 1003343c f    CIL library: CIL module
 0001:00032448       __unwindfunclet$??0PERSON_DATA@@QAE@ABU0@@Z$2 10033448 f    CIL library: CIL module
 0001:00032454       __unwindfunclet$??0PERSON_DATA@@QAE@ABU0@@Z$3 10033454 f    CIL library: CIL module
 0001:00032460       __unwindfunclet$??0PERSON_DATA@@QAE@ABU0@@Z$4 10033460 f    CIL library: CIL module
 0001:0003246f       __unwindfunclet$??0PERSON_DATA@@QAE@ABU0@@Z$5 1003346f f    CIL library: CIL module
 0001:0003247e       __unwindfunclet$??0PERSON_DATA@@QAE@ABU0@@Z$6 1003347e f    CIL library: CIL module
 0001:0003248d       __unwindfunclet$??0PERSON_DATA@@QAE@ABU0@@Z$7 1003348d f    CIL library: CIL module
 0001:0003249c       __ehhandler$??0PERSON_DATA@@QAE@ABU0@@Z 1003349c f    CIL library: CIL module
 0001:000324c0       __unwindfunclet$??0logic_error@std@@QAE@ABV01@@Z$0 100334c0 f    CIL library: CIL module
 0001:000324c9       __ehhandler$??0logic_error@std@@QAE@ABV01@@Z 100334c9 f    CIL library: CIL module
 0001:000324f0       __unwindfunclet$??0logic_error@std@@QAE@ABV?$basic_string@DU?$char_traits@D@std@@V?$allocator@D@2@@1@@Z$0 100334f0 f    CIL library: CIL module
 0001:000324f9       __ehhandler$??0logic_error@std@@QAE@ABV?$basic_string@DU?$char_traits@D@std@@V?$allocator@D@2@@1@@Z 100334f9 f    CIL library: CIL module
 0001:00032520       __unwindfunclet$??1?$TSQueue@EV?$deque@EV?$allocator@E@std@@@std@@@@QAE@XZ$0 10033520 f    CIL library: CIL module
 0001:0003252b       __ehhandler$??1?$TSQueue@EV?$deque@EV?$allocator@E@std@@@std@@@@QAE@XZ 1003352b f    CIL library: CIL module
 0001:00032550       __unwindfunclet$?TryOpen@USBDeviceHandleLibusb@@SAHABVUSBDeviceLibusb@@@Z$0 10033550 f    CIL library: CIL module
 0001:00032558       __ehhandler$?TryOpen@USBDeviceHandleLibusb@@SAHABVUSBDeviceLibusb@@@Z 10033558 f    CIL library: CIL module
 0001:00032580       __unwindfunclet$??0USBDeviceSI@@QAE@ABV0@@Z$0 10033580 f    CIL library: CIL module
 0001:00032580       __unwindfunclet$??0USBDeviceLibusb@@QAE@ABV0@@Z$0 10033580 f    CIL library: CIL module
 0001:00032588       __ehhandler$??0USBDeviceLibusb@@QAE@ABV0@@Z 10033588 f    CIL library: CIL module
 0001:00032588       __ehhandler$??0USBDeviceSI@@QAE@ABV0@@Z 10033588 f    CIL library: CIL module
 0001:000325b0       __unwindfunclet$??0USBDeviceLibusb@@QAE@AAUusb_device@@@Z$0 100335b0 f    CIL library: CIL module
 0001:000325b8       __unwindfunclet$??0USBDeviceLibusb@@QAE@AAUusb_device@@@Z$1 100335b8 f    CIL library: CIL module
 0001:000325c0       __ehhandler$??0USBDeviceLibusb@@QAE@AAUusb_device@@@Z 100335c0 f    CIL library: CIL module
 0001:000325e0       __unwindfunclet$??0?$vector@UGEARINFO@@V?$allocator@UGEARINFO@@@std@@@std@@QAE@XZ$0 100335e0 f    CIL library: CIL module
 0001:000325e0       __unwindfunclet$??1?$queue@DV?$deque@DV?$allocator@D@std@@@std@@@std@@QAE@XZ$1 100335e0 f    CIL library: CIL module
 0001:000325e8       __ehhandler$??0?$vector@UGEARINFO@@V?$allocator@UGEARINFO@@@std@@@std@@QAE@XZ 100335e8 f    CIL library: CIL module
 0001:000325e8       __ehhandler$??1?$queue@DV?$deque@DV?$allocator@D@std@@@std@@@std@@QAE@XZ 100335e8 f    CIL library: CIL module
 0001:00032610       __unwindfunclet$??1?$TSQueue@DV?$deque@DV?$allocator@D@std@@@std@@@@QAE@XZ$0 10033610 f    CIL library: CIL module
 0001:0003261d       __unwindfunclet$??1?$TSQueue@DV?$deque@DV?$allocator@D@std@@@std@@@@QAE@XZ$2 1003361d f    CIL library: CIL module
 0001:00032625       __ehhandler$??1?$TSQueue@DV?$deque@DV?$allocator@D@std@@@std@@@@QAE@XZ 10033625 f    CIL library: CIL module
 0001:00032640       __unwindfunclet$?TryOpen@USBDeviceHandleSI@@SAHABVUSBDeviceSI@@@Z$0 10033640 f    CIL library: CIL module
 0001:00032648       __ehhandler$?TryOpen@USBDeviceHandleSI@@SAHABVUSBDeviceSI@@@Z 10033648 f    CIL library: CIL module
 0001:00032670       __unwindfunclet$??0USBDeviceSI@@QAE@E@Z$0 10033670 f    CIL library: CIL module
 0001:0003267b       __unwindfunclet$??0USBDeviceSI@@QAE@E@Z$1 1003367b f    CIL library: CIL module
 0001:00032686       __ehhandler$??0USBDeviceSI@@QAE@E@Z 10033686 f    CIL library: CIL module
 0001:000326c0       __unwindfunclet$?CopyANTDevice@USBDeviceHandle@@SAHAAPBVUSBDevice@@PBV2@@Z$1 100336c0 f    CIL library: CIL module
 0001:000326cb       __unwindfunclet$?CopyANTDevice@USBDeviceHandle@@SAHAAPBVUSBDevice@@PBV2@@Z$0 100336cb f    CIL library: CIL module
 0001:000326d6       __ehhandler$?CopyANTDevice@USBDeviceHandle@@SAHAAPBVUSBDevice@@PBV2@@Z 100336d6 f    CIL library: CIL module
 0001:00032700       __unwindfunclet$??1DSIFramerANT@@UAE@XZ$0 10033700 f    CIL library: CIL module
 0001:00032708       __ehhandler$??1DSIFramerANT@@UAE@XZ 10033708 f    CIL library: CIL module
 0001:00032730       __unwindfunclet$??0DSIFramerANT@@QAE@PAVDSISerial@@@Z$0 10033730 f    CIL library: CIL module
 0001:00032738       __ehhandler$??0DSIFramerANT@@QAE@PAVDSISerial@@@Z 10033738 f    CIL library: CIL module
 0001:00032760       __unwindfunclet$??1DSISerialGeneric@@UAE@XZ$0 10033760 f    CIL library: CIL module
 0001:00032768       __ehhandler$??1DSISerialGeneric@@UAE@XZ 10033768 f    CIL library: CIL module
 0001:00032790       __unwindfunclet$??$_Uninit_fill_n@PAV?$basic_string@DU?$char_traits@D@std@@V?$allocator@D@2@@std@@IV12@V?$allocator@V?$basic_string@DU?$char_traits@D@std@@V?$allocator@D@2@@std@@@2@@std@@YAXPAV?$basic_string@DU?$char_traits@D@std@@V?$allocator@D@2@@0@IABV10@AAV?$allocator@V?$basic_string@DU?$char_traits@D@std@@V?$allocator@D@2@@std@@@0@U_Nonscalar_ptr_iterator_tag@0@U_Range_checked_iterator_tag@0@@Z$2 10033790 f    CIL library: CIL module
 0001:000327a1       __ehhandler$??$_Uninit_fill_n@PAV?$basic_string@DU?$char_traits@D@std@@V?$allocator@D@2@@std@@IV12@V?$allocator@V?$basic_string@DU?$char_traits@D@std@@V?$allocator@D@2@@std@@@2@@std@@YAXPAV?$basic_string@DU?$char_traits@D@std@@V?$allocator@D@2@@0@IABV10@AAV?$allocator@V?$basic_string@DU?$char_traits@D@std@@V?$allocator@D@2@@std@@@0@U_Nonscalar_ptr_iterator_tag@0@U_Range_checked_iterator_tag@0@@Z 100337a1 f    CIL library: CIL module
 0001:000327c0       __unwindfunclet$?finalize@RMP@@QAEHXZ$0 100337c0 f    CIL library: CIL module
 0001:000327ce       __ehhandler$?finalize@RMP@@QAEHXZ 100337ce f    CIL library: CIL module
 0001:00032800       __unwindfunclet$??1RMP@@QAE@XZ$0 10033800 f    CIL library: CIL module
 0001:00032808       __ehhandler$??1RMP@@QAE@XZ 10033808 f    CIL library: CIL module
 0001:00032830       __unwindfunclet$??1Physics@@UAE@XZ$0 10033830 f    CIL library: CIL module
 0001:0003283b       __ehhandler$??1Physics@@UAE@XZ 1003383b f    CIL library: CIL module
 0001:00032860       __unwindfunclet$??0Physics@@QAE@PAVBike@@NN@Z$0 10033860 f    CIL library: CIL module
 0001:0003286b       __ehhandler$??0Physics@@QAE@PAVBike@@NN@Z 1003386b f    CIL library: CIL module
 0001:00032890       __unwindfunclet$??1Formula@@UAE@XZ$0 10033890 f    CIL library: CIL module
 0001:0003289e       __ehhandler$??1Formula@@UAE@XZ 1003389e f    CIL library: CIL module
 0001:000328c0       __unwindfunclet$??0?$vector@UFPOINT@@V?$allocator@UFPOINT@@@std@@@std@@QAE@XZ$0 100338c0 f    CIL library: CIL module
 0001:000328c0       __unwindfunclet$??0?$vector@PAPBVUSBDevice@@V?$allocator@PAPBVUSBDevice@@@std@@@std@@QAE@XZ$0 100338c0 f    CIL library: CIL module
 0001:000328c0       __unwindfunclet$??0?$vector@UNode@RMP@@V?$allocator@UNode@RMP@@@std@@@std@@QAE@XZ$0 100338c0 f    CIL library: CIL module
 0001:000328c0       __unwindfunclet$??0?$vector@PBVUSBDeviceLibusb@@V?$allocator@PBVUSBDeviceLibusb@@@std@@@std@@QAE@XZ$0 100338c0 f    CIL library: CIL module
 0001:000328c0       __unwindfunclet$??0?$vector@MV?$allocator@M@std@@@std@@QAE@XZ$0 100338c0 f    CIL library: CIL module
 0001:000328c0       __unwindfunclet$??0?$vector@PAPBVUSBDeviceSI@@V?$allocator@PAPBVUSBDeviceSI@@@std@@@std@@QAE@XZ$0 100338c0 f    CIL library: CIL module
 0001:000328c0       __unwindfunclet$??0?$vector@USEC@@V?$allocator@USEC@@@std@@@std@@QAE@XZ$0 100338c0 f    CIL library: CIL module
 0001:000328c0       __unwindfunclet$??0?$vector@PAPBVUSBDeviceLibusb@@V?$allocator@PAPBVUSBDeviceLibusb@@@std@@@std@@QAE@XZ$0 100338c0 f    CIL library: CIL module
 0001:000328c0       __unwindfunclet$??0?$vector@PBVUSBDeviceSI@@V?$allocator@PBVUSBDeviceSI@@@std@@@std@@QAE@XZ$0 100338c0 f    CIL library: CIL module
 0001:000328c8       __ehhandler$??0?$vector@PAPBVUSBDeviceLibusb@@V?$allocator@PAPBVUSBDeviceLibusb@@@std@@@std@@QAE@XZ 100338c8 f    CIL library: CIL module
 0001:000328c8       __ehhandler$??0?$vector@USEC@@V?$allocator@USEC@@@std@@@std@@QAE@XZ 100338c8 f    CIL library: CIL module
 0001:000328c8       __ehhandler$??0?$vector@UFPOINT@@V?$allocator@UFPOINT@@@std@@@std@@QAE@XZ 100338c8 f    CIL library: CIL module
 0001:000328c8       __ehhandler$??0?$vector@UNode@RMP@@V?$allocator@UNode@RMP@@@std@@@std@@QAE@XZ 100338c8 f    CIL library: CIL module
 0001:000328c8       __ehhandler$??0?$vector@PAPBVUSBDevice@@V?$allocator@PAPBVUSBDevice@@@std@@@std@@QAE@XZ 100338c8 f    CIL library: CIL module
 0001:000328c8       __ehhandler$??0?$vector@PAPBVUSBDeviceSI@@V?$allocator@PAPBVUSBDeviceSI@@@std@@@std@@QAE@XZ 100338c8 f    CIL library: CIL module
 0001:000328c8       __ehhandler$??0?$vector@PBVUSBDeviceLibusb@@V?$allocator@PBVUSBDeviceLibusb@@@std@@@std@@QAE@XZ 100338c8 f    CIL library: CIL module
 0001:000328c8       __ehhandler$??0?$vector@PBVUSBDeviceSI@@V?$allocator@PBVUSBDeviceSI@@@std@@@std@@QAE@XZ 100338c8 f    CIL library: CIL module
 0001:000328c8       __ehhandler$??0?$vector@MV?$allocator@M@std@@@std@@QAE@XZ 100338c8 f    CIL library: CIL module
 0001:000328f0       __unwindfunclet$??0?$TSQueue@EV?$deque@EV?$allocator@E@std@@@std@@@@QAE@XZ$0 100338f0 f    CIL library: CIL module
 0001:000328fb       __ehhandler$??0?$TSQueue@EV?$deque@EV?$allocator@E@std@@@std@@@@QAE@XZ 100338fb f    CIL library: CIL module
 0001:00032920       __unwindfunclet$??1USBDeviceHandleLibusb@@MAE@XZ$0 10033920 f    CIL library: CIL module
 0001:00032928       __unwindfunclet$??1USBDeviceHandleLibusb@@MAE@XZ$1 10033928 f    CIL library: CIL module
 0001:00032933       __ehhandler$??1USBDeviceHandleLibusb@@MAE@XZ 10033933 f    CIL library: CIL module
 0001:00032950       __unwindfunclet$?_Xlen@?$deque@EV?$allocator@E@std@@@std@@KAXXZ$0 10033950 f    CIL library: CIL module
 0001:00032950       __unwindfunclet$?_Xlen@?$deque@DV?$allocator@D@std@@@std@@KAXXZ$0 10033950 f    CIL library: CIL module
 0001:00032959       __ehhandler$?_Xlen@?$deque@DV?$allocator@D@std@@@std@@KAXXZ 10033959 f    CIL library: CIL module
 0001:00032959       __ehhandler$?_Xlen@?$deque@EV?$allocator@E@std@@@std@@KAXXZ 10033959 f    CIL library: CIL module
 0001:00032980       __unwindfunclet$??0?$TSQueue@DV?$deque@DV?$allocator@D@std@@@std@@@@QAE@XZ$0 10033980 f    CIL library: CIL module
 0001:0003298d       __ehhandler$??0?$TSQueue@DV?$deque@DV?$allocator@D@std@@@std@@@@QAE@XZ 1003398d f    CIL library: CIL module
 0001:000329b0       __unwindfunclet$??1USBDeviceHandleSI@@MAE@XZ$0 100339b0 f    CIL library: CIL module
 0001:000329b8       __unwindfunclet$??1USBDeviceHandleSI@@MAE@XZ$1 100339b8 f    CIL library: CIL module
 0001:000329c3       __unwindfunclet$??1USBDeviceHandleSI@@MAE@XZ$2 100339c3 f    CIL library: CIL module
 0001:000329ce       __ehhandler$??1USBDeviceHandleSI@@MAE@XZ 100339ce f    CIL library: CIL module
 0001:000329f0       __unwindfunclet$?SendCommand@DSIFramerANT@@IAEHPAUANT_MESSAGE@@GK@Z$0 100339f0 f    CIL library: CIL module
 0001:000329fb       __ehhandler$?SendCommand@DSIFramerANT@@IAEHPAUANT_MESSAGE@@GK@Z 100339fb f    CIL library: CIL module
 0001:00032a20       __unwindfunclet$?ant_init@@YAHP6AXXZ@Z$1 10033a20 f    CIL library: CIL module
 0001:00032a2b       __ehhandler$?ant_init@@YAHP6AXXZ@Z 10033a2b f    CIL library: CIL module
 0001:00032a50       __unwindfunclet$??$_Uninit_move@PAV?$basic_string@DU?$char_traits@D@std@@V?$allocator@D@2@@std@@PAV12@V?$allocator@V?$basic_string@DU?$char_traits@D@std@@V?$allocator@D@2@@std@@@2@@std@@YAPAV?$basic_string@DU?$char_traits@D@std@@V?$allocator@D@2@@0@PAV10@00AAV?$allocator@V?$basic_string@DU?$char_traits@D@std@@V?$allocator@D@2@@std@@@0@U_Swap_move_tag@0@U_Range_checked_iterator_tag@0@@Z$2 10033a50 f    CIL library: CIL module
 0001:00032a59       __unwindfunclet$??$_Uninit_move@PAV?$basic_string@DU?$char_traits@D@std@@V?$allocator@D@2@@std@@PAV12@V?$allocator@V?$basic_string@DU?$char_traits@D@std@@V?$allocator@D@2@@std@@@2@@std@@YAPAV?$basic_string@DU?$char_traits@D@std@@V?$allocator@D@2@@0@PAV10@00AAV?$allocator@V?$basic_string@DU?$char_traits@D@std@@V?$allocator@D@2@@std@@@0@U_Swap_move_tag@0@U_Range_checked_iterator_tag@0@@Z$3 10033a59 f    CIL library: CIL module
 0001:00032a6a       __ehhandler$??$_Uninit_move@PAV?$basic_string@DU?$char_traits@D@std@@V?$allocator@D@2@@std@@PAV12@V?$allocator@V?$basic_string@DU?$char_traits@D@std@@V?$allocator@D@2@@std@@@2@@std@@YAPAV?$basic_string@DU?$char_traits@D@std@@V?$allocator@D@2@@0@PAV10@00AAV?$allocator@V?$basic_string@DU?$char_traits@D@std@@V?$allocator@D@2@@std@@@0@U_Swap_move_tag@0@U_Range_checked_iterator_tag@0@@Z 10033a6a f    CIL library: CIL module
 0001:00032a90       __unwindfunclet$??0RMP@@QAE@XZ$0 10033a90 f    CIL library: CIL module
 0001:00032a98       __unwindfunclet$??0RMP@@QAE@XZ$1 10033a98 f    CIL library: CIL module
 0001:00032aa3       __ehhandler$??0RMP@@QAE@XZ 10033aa3 f    CIL library: CIL module
 0001:00032ac0       __unwindfunclet$??1Heartrate@@QAE@XZ$0 10033ac0 f    CIL library: CIL module
 0001:00032acb       __ehhandler$??1Heartrate@@QAE@XZ 10033acb f    CIL library: CIL module
 0001:00032af0       __unwindfunclet$??1Course@@UAE@XZ$0 10033af0 f    CIL library: CIL module
 0001:00032afe       __unwindfunclet$??1Course@@UAE@XZ$1 10033afe f    CIL library: CIL module
 0001:00032b0c       __unwindfunclet$??1Course@@UAE@XZ$2 10033b0c f    CIL library: CIL module
 0001:00032b1a       __ehhandler$??1Course@@UAE@XZ 10033b1a f    CIL library: CIL module
 0001:00032b40       __unwindfunclet$?connect@NVRAM@@QAEXXZ$2 10033b40 f    CIL library: CIL module
 0001:00032b4b       __ehhandler$?connect@NVRAM@@QAEXXZ 10033b4b f    CIL library: CIL module
 0001:00032b70       __unwindfunclet$?_Xlen@?$deque@NV?$allocator@N@std@@@std@@KAXXZ$0 10033b70 f    CIL library: CIL module
 0001:00032b70       __unwindfunclet$?_Xlen@?$vector@V?$basic_string@DU?$char_traits@D@std@@V?$allocator@D@2@@std@@V?$allocator@V?$basic_string@DU?$char_traits@D@std@@V?$allocator@D@2@@std@@@2@@std@@KAXXZ$0 10033b70 f    CIL library: CIL module
 0001:00032b70       __unwindfunclet$?_Xlen@?$vector@UFPOINT@@V?$allocator@UFPOINT@@@std@@@std@@KAXXZ$0 10033b70 f    CIL library: CIL module
 0001:00032b70       __unwindfunclet$?_Xlen@?$vector@PBVUSBDeviceLibusb@@V?$allocator@PBVUSBDeviceLibusb@@@std@@@std@@KAXXZ$0 10033b70 f    CIL library: CIL module
 0001:00032b70       __unwindfunclet$?_Xlen@?$deque@UFORMULA_PAIR@@V?$allocator@UFORMULA_PAIR@@@std@@@std@@KAXXZ$0 10033b70 f    CIL library: CIL module
 0001:00032b70       __unwindfunclet$?_Xlen@?$vector@PBVUSBDeviceSI@@V?$allocator@PBVUSBDeviceSI@@@std@@@std@@KAXXZ$0 10033b70 f    CIL library: CIL module
 0001:00032b70       __unwindfunclet$?_Xlen@?$vector@USEC@@V?$allocator@USEC@@@std@@@std@@KAXXZ$0 10033b70 f    CIL library: CIL module
 0001:00032b70       __unwindfunclet$?_Xlen@?$vector@MV?$allocator@M@std@@@std@@KAXXZ$0 10033b70 f    CIL library: CIL module
 0001:00032b70       __unwindfunclet$?_Xlen@?$vector@PAPBVUSBDeviceLibusb@@V?$allocator@PAPBVUSBDeviceLibusb@@@std@@@std@@KAXXZ$0 10033b70 f    CIL library: CIL module
 0001:00032b70       __unwindfunclet$?_Xlen@?$deque@UTCRF@@V?$allocator@UTCRF@@@std@@@std@@KAXXZ$0 10033b70 f    CIL library: CIL module
 0001:00032b70       __unwindfunclet$?_Xlen@?$vector@PAPBVUSBDeviceSI@@V?$allocator@PAPBVUSBDeviceSI@@@std@@@std@@KAXXZ$0 10033b70 f    CIL library: CIL module
 0001:00032b70       __unwindfunclet$?_Xlen@?$vector@PAPBVUSBDevice@@V?$allocator@PAPBVUSBDevice@@@std@@@std@@KAXXZ$0 10033b70 f    CIL library: CIL module
 0001:00032b79       __ehhandler$?_Xlen@?$deque@UTCRF@@V?$allocator@UTCRF@@@std@@@std@@KAXXZ 10033b79 f    CIL library: CIL module
 0001:00032b79       __ehhandler$?_Xlen@?$vector@MV?$allocator@M@std@@@std@@KAXXZ 10033b79 f    CIL library: CIL module
 0001:00032b79       __ehhandler$?_Xlen@?$deque@NV?$allocator@N@std@@@std@@KAXXZ 10033b79 f    CIL library: CIL module
 0001:00032b79       __ehhandler$?_Xlen@?$vector@UFPOINT@@V?$allocator@UFPOINT@@@std@@@std@@KAXXZ 10033b79 f    CIL library: CIL module
 0001:00032b79       __ehhandler$?_Xlen@?$vector@V?$basic_string@DU?$char_traits@D@std@@V?$allocator@D@2@@std@@V?$allocator@V?$basic_string@DU?$char_traits@D@std@@V?$allocator@D@2@@std@@@2@@std@@KAXXZ 10033b79 f    CIL library: CIL module
 0001:00032b79       __ehhandler$?_Xlen@?$vector@PBVUSBDeviceLibusb@@V?$allocator@PBVUSBDeviceLibusb@@@std@@@std@@KAXXZ 10033b79 f    CIL library: CIL module
 0001:00032b79       __ehhandler$?_Xlen@?$deque@UFORMULA_PAIR@@V?$allocator@UFORMULA_PAIR@@@std@@@std@@KAXXZ 10033b79 f    CIL library: CIL module
 0001:00032b79       __ehhandler$?_Xlen@?$vector@PAPBVUSBDevice@@V?$allocator@PAPBVUSBDevice@@@std@@@std@@KAXXZ 10033b79 f    CIL library: CIL module
 0001:00032b79       __ehhandler$?_Xlen@?$vector@USEC@@V?$allocator@USEC@@@std@@@std@@KAXXZ 10033b79 f    CIL library: CIL module
 0001:00032b79       __ehhandler$?_Xlen@?$vector@PBVUSBDeviceSI@@V?$allocator@PBVUSBDeviceSI@@@std@@@std@@KAXXZ 10033b79 f    CIL library: CIL module
 0001:00032b79       __ehhandler$?_Xlen@?$vector@PAPBVUSBDeviceLibusb@@V?$allocator@PAPBVUSBDeviceLibusb@@@std@@@std@@KAXXZ 10033b79 f    CIL library: CIL module
 0001:00032b79       __ehhandler$?_Xlen@?$vector@PAPBVUSBDeviceSI@@V?$allocator@PAPBVUSBDeviceSI@@@std@@@std@@KAXXZ 10033b79 f    CIL library: CIL module
 0001:00032ba0       __ehhandler$?_Insert_n@?$vector@UFPOINT@@V?$allocator@UFPOINT@@@std@@@std@@IAEXV?$_Vector_const_iterator@UFPOINT@@V?$allocator@UFPOINT@@@std@@@2@IABUFPOINT@@@Z 10033ba0 f    CIL library: CIL module
 0001:00032bc0       __unwindfunclet$??0?$vector@UFPOINT@@V?$allocator@UFPOINT@@@std@@@std@@QAE@ABV01@@Z$2 10033bc0 f    CIL library: CIL module
 0001:00032bc8       __ehhandler$??0?$vector@UFPOINT@@V?$allocator@UFPOINT@@@std@@@std@@QAE@ABV01@@Z 10033bc8 f    CIL library: CIL module
 0001:00032bf0       __unwindfunclet$?create_perf_file@RTD@@AAEXXZ$0 10033bf0 f    CIL library: CIL module
 0001:00032bfe       __ehhandler$?create_perf_file@RTD@@AAEXXZ 10033bfe f    CIL library: CIL module
 0001:00032c20       __unwindfunclet$??1Decoder@@UAE@XZ$0 10033c20 f    CIL library: CIL module
 0001:00032c2e       __ehhandler$??1Decoder@@UAE@XZ 10033c2e f    CIL library: CIL module
 0001:00032c50       __unwindfunclet$??1dataSource@@UAE@XZ$0 10033c50 f    CIL library: CIL module
 0001:00032c5e       __unwindfunclet$??1dataSource@@UAE@XZ$1 10033c5e f    CIL library: CIL module
 0001:00032c6c       __ehhandler$??1dataSource@@UAE@XZ 10033c6c f    CIL library: CIL module
 0001:00032c90       __unwindfunclet$??0dataSource@@QAE@AAVRIDER_DATA@@PAVCourse@@PAVBike@@W4LoggingType@@@Z$0 10033c90 f    CIL library: CIL module
 0001:00032c9e       __unwindfunclet$??0dataSource@@QAE@AAVRIDER_DATA@@PAVCourse@@PAVBike@@W4LoggingType@@@Z$1 10033c9e f    CIL library: CIL module
 0001:00032cac       __ehhandler$??0dataSource@@QAE@AAVRIDER_DATA@@PAVCourse@@PAVBike@@W4LoggingType@@@Z 10033cac f    CIL library: CIL module
 0001:00032cd0       __unwindfunclet$??0Formula@@QAE@M@Z$0 10033cd0 f    CIL library: CIL module
 0001:00032cde       __ehhandler$??0Formula@@QAE@M@Z 10033cde f    CIL library: CIL module
 0001:00032d00       __unwindfunclet$?Add@?$USBDeviceList@$$CBVUSBDeviceLibusb@@@@QAEXABVUSBDeviceLibusb@@@Z$0 10033d00 f    CIL library: CIL module
 0001:00032d00       __unwindfunclet$?Add@?$USBDeviceList@$$CBVUSBDeviceSI@@@@QAEXABVUSBDeviceSI@@@Z$0 10033d00 f    CIL library: CIL module
 0001:00032d0b       __ehhandler$?Add@?$USBDeviceList@$$CBVUSBDeviceLibusb@@@@QAEXABVUSBDeviceLibusb@@@Z 10033d0b f    CIL library: CIL module
 0001:00032d0b       __ehhandler$?Add@?$USBDeviceList@$$CBVUSBDeviceSI@@@@QAEXABVUSBDeviceSI@@@Z 10033d0b f    CIL library: CIL module
 0001:00032d30       __unwindfunclet$??1?$USBDeviceList@$$CBVUSBDeviceLibusb@@@@UAE@XZ$0 10033d30 f    CIL library: CIL module
 0001:00032d30       __unwindfunclet$??1?$USBDeviceList@$$CBVUSBDeviceSI@@@@UAE@XZ$0 10033d30 f    CIL library: CIL module
 0001:00032d3b       __ehhandler$??1?$USBDeviceList@$$CBVUSBDeviceSI@@@@UAE@XZ 10033d3b f    CIL library: CIL module
 0001:00032d3b       __ehhandler$??1?$USBDeviceList@$$CBVUSBDeviceLibusb@@@@UAE@XZ 10033d3b f    CIL library: CIL module
 0001:00032d60       __unwindfunclet$??0USBDeviceHandleSI@@IAE@ABVUSBDeviceSI@@K@Z$2 10033d60 f    CIL library: CIL module
 0001:00032d68       __unwindfunclet$??0USBDeviceHandleSI@@IAE@ABVUSBDeviceSI@@K@Z$3 10033d68 f    CIL library: CIL module
 0001:00032d73       __unwindfunclet$??0USBDeviceHandleSI@@IAE@ABVUSBDeviceSI@@K@Z$4 10033d73 f    CIL library: CIL module
 0001:00032d7e       __unwindfunclet$??0USBDeviceHandleSI@@IAE@ABVUSBDeviceSI@@K@Z$5 10033d7e f    CIL library: CIL module
 0001:00032d8b       __unwindfunclet$??0USBDeviceHandleSI@@IAE@ABVUSBDeviceSI@@K@Z$6 10033d8b f    CIL library: CIL module
 0001:00032d98       __ehhandler$??0USBDeviceHandleSI@@IAE@ABVUSBDeviceSI@@K@Z 10033d98 f    CIL library: CIL module
 0001:00032dc0       __unwindfunclet$?SerialWrite@DSIDebug@@SAHEPBDPAEG@Z$0 10033dc0 f    CIL library: CIL module
 0001:00032dce       __ehhandler$?SerialWrite@DSIDebug@@SAHEPBDPAEG@Z 10033dce f    CIL library: CIL module
 0001:00032e00       __unwindfunclet$??0_TASK_PROP@@QAE@KPAE0@Z$0 10033e00 f    CIL library: CIL module
 0001:00032e0b       __ehhandler$??0_TASK_PROP@@QAE@KPAE0@Z 10033e0b f    CIL library: CIL module
 0001:00032e30       __unwindfunclet$?_Insert_n@?$vector@V?$basic_string@DU?$char_traits@D@std@@V?$allocator@D@2@@std@@V?$allocator@V?$basic_string@DU?$char_traits@D@std@@V?$allocator@D@2@@std@@@2@@std@@IAEXV?$_Vector_const_iterator@V?$basic_string@DU?$char_traits@D@std@@V?$allocator@D@2@@std@@V?$allocator@V?$basic_string@DU?$char_traits@D@std@@V?$allocator@D@2@@std@@@2@@2@IABV?$basic_string@DU?$char_traits@D@std@@V?$allocator@D@2@@2@@Z$4 10033e30 f    CIL library: CIL module
 0001:00032e39       __unwindfunclet$?_Insert_n@?$vector@V?$basic_string@DU?$char_traits@D@std@@V?$allocator@D@2@@std@@V?$allocator@V?$basic_string@DU?$char_traits@D@std@@V?$allocator@D@2@@std@@@2@@std@@IAEXV?$_Vector_const_iterator@V?$basic_string@DU?$char_traits@D@std@@V?$allocator@D@2@@std@@V?$allocator@V?$basic_string@DU?$char_traits@D@std@@V?$allocator@D@2@@std@@@2@@2@IABV?$basic_string@DU?$char_traits@D@std@@V?$allocator@D@2@@2@@Z$5 10033e39 f    CIL library: CIL module
 0001:00032e42       __ehhandler$?_Insert_n@?$vector@V?$basic_string@DU?$char_traits@D@std@@V?$allocator@D@2@@std@@V?$allocator@V?$basic_string@DU?$char_traits@D@std@@V?$allocator@D@2@@std@@@2@@std@@IAEXV?$_Vector_const_iterator@V?$basic_string@DU?$char_traits@D@std@@V?$allocator@D@2@@std@@V?$allocator@V?$basic_string@DU?$char_traits@D@std@@V?$allocator@D@2@@std@@@2@@2@IABV?$basic_string@DU?$char_traits@D@std@@V?$allocator@D@2@@2@@Z 10033e42 f    CIL library: CIL module
 0001:00032e70       __unwindfunclet$??0computrainerDecoder@@QAE@PAVCourse@@AAVRIDER_DATA@@H@Z$0 10033e70 f    CIL library: CIL module
 0001:00032e70       __unwindfunclet$??1performanceDecoder@@UAE@XZ$0 10033e70 f    CIL library: CIL module
 0001:00032e70       __unwindfunclet$??1computrainerDecoder@@UAE@XZ$0 10033e70 f    CIL library: CIL module
 0001:00032e70       __unwindfunclet$??1simDecoder@@UAE@XZ$0 10033e70 f    CIL library: CIL module
 0001:00032e78       __ehhandler$??1computrainerDecoder@@UAE@XZ 10033e78 f    CIL library: CIL module
 0001:00032e78       __ehhandler$??1simDecoder@@UAE@XZ 10033e78 f    CIL library: CIL module
 0001:00032e78       __ehhandler$??1performanceDecoder@@UAE@XZ 10033e78 f    CIL library: CIL module
 0001:00032e78       __ehhandler$??0computrainerDecoder@@QAE@PAVCourse@@AAVRIDER_DATA@@H@Z 10033e78 f    CIL library: CIL module
 0001:00032ea0       __unwindfunclet$??1velotronDecoder@@UAE@XZ$0 10033ea0 f    CIL library: CIL module
 0001:00032ea8       __ehhandler$??1velotronDecoder@@UAE@XZ 10033ea8 f    CIL library: CIL module
 0001:00032ed0       __unwindfunclet$??0Course@@QAE@PBD@Z$0 10033ed0 f    CIL library: CIL module
 0001:00032ede       __unwindfunclet$??0Course@@QAE@PBD@Z$1 10033ede f    CIL library: CIL module
 0001:00032eec       __ehhandler$??0Course@@QAE@PBD@Z 10033eec f    CIL library: CIL module
 0001:00032f10       __unwindfunclet$??1Performance@@UAE@XZ$0 10033f10 f    CIL library: CIL module
 0001:00032f10       __unwindfunclet$??1Simulator@@UAE@XZ$0 10033f10 f    CIL library: CIL module
 0001:00032f18       __ehhandler$??1Simulator@@UAE@XZ 10033f18 f    CIL library: CIL module
 0001:00032f18       __ehhandler$??1Performance@@UAE@XZ 10033f18 f    CIL library: CIL module
 0001:00032f40       __ehhandler$?_Insert_n@?$vector@USEC@@V?$allocator@USEC@@@std@@@std@@IAEXV?$_Vector_const_iterator@USEC@@V?$allocator@USEC@@@std@@@2@IABUSEC@@@Z 10033f40 f    CIL library: CIL module
 0001:00032f60       __unwindfunclet$?check_perf@Performance@@QAEHPBDAAK@Z$0 10033f60 f    CIL library: CIL module
 0001:00032f6b       __ehhandler$?check_perf@Performance@@QAEHPBDAAK@Z 10033f6b f    CIL library: CIL module
 0001:00032fa0       __unwindfunclet$??1RTD@@UAE@XZ$0 10033fa0 f    CIL library: CIL module
 0001:00032fa8       __unwindfunclet$??1RTD@@UAE@XZ$1 10033fa8 f    CIL library: CIL module
 0001:00032fb6       __unwindfunclet$??1RTD@@UAE@XZ$2 10033fb6 f    CIL library: CIL module
 0001:00032fc4       __unwindfunclet$??1RTD@@UAE@XZ$3 10033fc4 f    CIL library: CIL module
 0001:00032fd2       __unwindfunclet$??1RTD@@UAE@XZ$4 10033fd2 f    CIL library: CIL module
 0001:00032fe0       __ehhandler$??1RTD@@UAE@XZ 10033fe0 f    CIL library: CIL module
 0001:00033000       __unwindfunclet$??0RTD@@QAE@PAVSerial@@AAVRIDER_DATA@@PAVCourse@@_NPAVBike@@W4LoggingType@@@Z$0 10034000 f    CIL library: CIL module
 0001:0003300b       __unwindfunclet$??0RTD@@QAE@PAVSerial@@AAVRIDER_DATA@@PAVCourse@@_NPAVBike@@W4LoggingType@@@Z$1 1003400b f    CIL library: CIL module
 0001:0003301c       __unwindfunclet$??0RTD@@QAE@PAVSerial@@AAVRIDER_DATA@@PAVCourse@@_NPAVBike@@W4LoggingType@@@Z$2 1003401c f    CIL library: CIL module
 0001:0003302d       __unwindfunclet$??0RTD@@QAE@PAVSerial@@AAVRIDER_DATA@@PAVCourse@@_NPAVBike@@W4LoggingType@@@Z$3 1003402d f    CIL library: CIL module
 0001:0003303e       __unwindfunclet$??0RTD@@QAE@PAVSerial@@AAVRIDER_DATA@@PAVCourse@@_NPAVBike@@W4LoggingType@@@Z$4 1003403e f    CIL library: CIL module
 0001:0003304f       __ehhandler$??0RTD@@QAE@PAVSerial@@AAVRIDER_DATA@@PAVCourse@@_NPAVBike@@W4LoggingType@@@Z 1003404f f    CIL library: CIL module
 0001:00033080       __unwindfunclet$??0RTD@@QAE@PBDHAAVRIDER_DATA@@PAVCourse@@PAVBike@@_NW4LoggingType@@@Z$2 10034080 f    CIL library: CIL module
 0001:00033088       __unwindfunclet$??0RTD@@QAE@PBDHAAVRIDER_DATA@@PAVCourse@@PAVBike@@_NW4LoggingType@@@Z$3 10034088 f    CIL library: CIL module
 0001:00033096       __unwindfunclet$??0RTD@@QAE@PBDHAAVRIDER_DATA@@PAVCourse@@PAVBike@@_NW4LoggingType@@@Z$4 10034096 f    CIL library: CIL module
 0001:000330a4       __unwindfunclet$??0RTD@@QAE@PBDHAAVRIDER_DATA@@PAVCourse@@PAVBike@@_NW4LoggingType@@@Z$5 100340a4 f    CIL library: CIL module
 0001:000330b2       __unwindfunclet$??0RTD@@QAE@PBDHAAVRIDER_DATA@@PAVCourse@@PAVBike@@_NW4LoggingType@@@Z$6 100340b2 f    CIL library: CIL module
 0001:000330c0       __unwindfunclet$??0RTD@@QAE@PBDHAAVRIDER_DATA@@PAVCourse@@PAVBike@@_NW4LoggingType@@@Z$8 100340c0 f    CIL library: CIL module
 0001:000330cb       __ehhandler$??0RTD@@QAE@PBDHAAVRIDER_DATA@@PAVCourse@@PAVBike@@_NW4LoggingType@@@Z 100340cb f    CIL library: CIL module
 0001:00033100       __unwindfunclet$??0Decoder@@QAE@HPAVCourse@@AAVRIDER_DATA@@H@Z$0 10034100 f    CIL library: CIL module
 0001:00033111       __unwindfunclet$??0Decoder@@QAE@HPAVCourse@@AAVRIDER_DATA@@H@Z$2 10034111 f    CIL library: CIL module
 0001:0003311f       __unwindfunclet$??0Decoder@@QAE@HPAVCourse@@AAVRIDER_DATA@@H@Z$4 1003411f f    CIL library: CIL module
 0001:0003312d       __ehhandler$??0Decoder@@QAE@HPAVCourse@@AAVRIDER_DATA@@H@Z 1003412d f    CIL library: CIL module
 0001:00033160       __ehhandler$??$_Insert@V?$_Deque_const_iterator@UFORMULA_PAIR@@V?$allocator@UFORMULA_PAIR@@@std@@$00@std@@@?$deque@UFORMULA_PAIR@@V?$allocator@UFORMULA_PAIR@@@std@@@std@@QAEXV?$_Deque_const_iterator@UFORMULA_PAIR@@V?$allocator@UFORMULA_PAIR@@@std@@$00@1@00Uinput_iterator_tag@1@@Z 10034160 f    CIL library: CIL module
 0001:00033180       __unwindfunclet$??0?$deque@UFORMULA_PAIR@@V?$allocator@UFORMULA_PAIR@@@std@@@std@@QAE@ABV01@@Z$2 10034180 f    CIL library: CIL module
 0001:00033188       __ehhandler$??0?$deque@UFORMULA_PAIR@@V?$allocator@UFORMULA_PAIR@@@std@@@std@@QAE@ABV01@@Z 10034188 f    CIL library: CIL module
 0001:000331b0       __unwindfunclet$?Open@USBDeviceHandleSI@@SAHABVUSBDeviceSI@@AAPAV1@K@Z$2 100341b0 f    CIL library: CIL module
 0001:000331bb       __ehhandler$?Open@USBDeviceHandleSI@@SAHABVUSBDeviceSI@@AAPAV1@K@Z 100341bb f    CIL library: CIL module
 0001:000331e0       __unwindfunclet$?ThreadInit@DSIDebug@@SAHPBD@Z$0 100341e0 f    CIL library: CIL module
 0001:000331ee       __ehhandler$?ThreadInit@DSIDebug@@SAHPBD@Z 100341ee f    CIL library: CIL module
 0001:00033220       __unwindfunclet$??0?$USBDeviceList@PBVUSBDeviceLibusb@@@@QAE@ABV0@@Z$0 10034220 f    CIL library: CIL module
 0001:00033220       __unwindfunclet$??0?$USBDeviceList@PBVUSBDeviceSI@@@@QAE@ABV0@@Z$0 10034220 f    CIL library: CIL module
 0001:0003322b       __ehhandler$??0?$USBDeviceList@PBVUSBDeviceLibusb@@@@QAE@ABV0@@Z 1003422b f    CIL library: CIL module
 0001:0003322b       __ehhandler$??0?$USBDeviceList@PBVUSBDeviceSI@@@@QAE@ABV0@@Z 1003422b f    CIL library: CIL module
 0001:00033250       __unwindfunclet$??0performanceDecoder@@QAE@PAVCourse@@AAVRIDER_DATA@@@Z$0 10034250 f    CIL library: CIL module
 0001:00033250       __unwindfunclet$??0simDecoder@@QAE@PAVCourse@@AAVRIDER_DATA@@@Z$0 10034250 f    CIL library: CIL module
 0001:00033258       __ehhandler$??0simDecoder@@QAE@PAVCourse@@AAVRIDER_DATA@@@Z 10034258 f    CIL library: CIL module
 0001:00033258       __ehhandler$??0performanceDecoder@@QAE@PAVCourse@@AAVRIDER_DATA@@@Z 10034258 f    CIL library: CIL module
 0001:00033280       __unwindfunclet$??0Heartrate@@QAE@XZ$0 10034280 f    CIL library: CIL module
 0001:0003328b       __unwindfunclet$??0Heartrate@@QAE@XZ$3 1003428b f    CIL library: CIL module
 0001:00033296       __unwindfunclet$??0Heartrate@@QAE@XZ$4 10034296 f    CIL library: CIL module
 0001:000332a1       __ehhandler$??0Heartrate@@QAE@XZ 100342a1 f    CIL library: CIL module
 0001:000332c0       __unwindfunclet$??0Course@@QAE@V?$vector@UFPOINT@@V?$allocator@UFPOINT@@@std@@@std@@PBD@Z$0 100342c0 f    CIL library: CIL module
 0001:000332c8       __unwindfunclet$??0Course@@QAE@V?$vector@UFPOINT@@V?$allocator@UFPOINT@@@std@@@std@@PBD@Z$1 100342c8 f    CIL library: CIL module
 0001:000332d6       __unwindfunclet$??0Course@@QAE@V?$vector@UFPOINT@@V?$allocator@UFPOINT@@@std@@@std@@PBD@Z$2 100342d6 f    CIL library: CIL module
 0001:000332e4       __unwindfunclet$??0Course@@QAE@V?$vector@UFPOINT@@V?$allocator@UFPOINT@@@std@@@std@@PBD@Z$3 100342e4 f    CIL library: CIL module
 0001:000332f2       __ehhandler$??0Course@@QAE@V?$vector@UFPOINT@@V?$allocator@UFPOINT@@@std@@@std@@PBD@Z 100342f2 f    CIL library: CIL module
 0001:00033310       __unwindfunclet$?init@Computrainer@@AAEXXZ$0 10034310 f    CIL library: CIL module
 0001:0003331b       __ehhandler$?init@Computrainer@@AAEXXZ 1003431b f    CIL library: CIL module
 0001:00033340       __unwindfunclet$??1Computrainer@@UAE@XZ$0 10034340 f    CIL library: CIL module
 0001:00033348       __ehhandler$??1Computrainer@@UAE@XZ 10034348 f    CIL library: CIL module
 0001:00033370       __unwindfunclet$??0Computrainer@@QAE@PAVSerial@@AAVRIDER_DATA@@PAVCourse@@PAVBike@@W4LoggingType@@@Z$0 10034370 f    CIL library: CIL module
 0001:00033378       __ehhandler$??0Computrainer@@QAE@PAVSerial@@AAVRIDER_DATA@@PAVCourse@@PAVBike@@W4LoggingType@@@Z 10034378 f    CIL library: CIL module
 0001:000333a0       __unwindfunclet$??0Computrainer@@QAE@PBDAAVRIDER_DATA@@PAVCourse@@PAVBike@@W4LoggingType@@@Z$0 100343a0 f    CIL library: CIL module
 0001:000333a8       __ehhandler$??0Computrainer@@QAE@PBDAAVRIDER_DATA@@PAVCourse@@PAVBike@@W4LoggingType@@@Z 100343a8 f    CIL library: CIL module
 0001:000333d0       __unwindfunclet$??0Simulator@@QAE@AAVRIDER_DATA@@_NPAVCourse@@PBD@Z$0 100343d0 f    CIL library: CIL module
 0001:000333d8       __unwindfunclet$??0Simulator@@QAE@AAVRIDER_DATA@@_NPAVCourse@@PBD@Z$1 100343d8 f    CIL library: CIL module
 0001:000333e3       __ehhandler$??0Simulator@@QAE@AAVRIDER_DATA@@_NPAVCourse@@PBD@Z 100343e3 f    CIL library: CIL module
 0001:00033400       __unwindfunclet$?set_performance_file_name@Performance@@UAEXPBD@Z$0 10034400 f    CIL library: CIL module
 0001:0003340b       __unwindfunclet$?set_performance_file_name@Performance@@UAEXPBD@Z$1 1003440b f    CIL library: CIL module
 0001:00033419       __ehhandler$?set_performance_file_name@Performance@@UAEXPBD@Z 10034419 f    CIL library: CIL module
 0001:00033450       __unwindfunclet$??0Performance@@QAE@AAVRIDER_DATA@@_NPBD@Z$0 10034450 f    CIL library: CIL module
 0001:00033458       __unwindfunclet$??0Performance@@QAE@AAVRIDER_DATA@@_NPBD@Z$1 10034458 f    CIL library: CIL module
 0001:00033463       __ehhandler$??0Performance@@QAE@AAVRIDER_DATA@@_NPBD@Z 10034463 f    CIL library: CIL module
 0001:00033480       __ehhandler$??$_Insert@V?$_Deque_const_iterator@NV?$allocator@N@std@@$00@std@@@?$deque@NV?$allocator@N@std@@@std@@QAEXV?$_Deque_const_iterator@NV?$allocator@N@std@@$00@1@00Uinput_iterator_tag@1@@Z 10034480 f    CIL library: CIL module
 0001:000334a0       __unwindfunclet$??0?$deque@NV?$allocator@N@std@@@std@@QAE@ABV01@@Z$2 100344a0 f    CIL library: CIL module
 0001:000334a8       __ehhandler$??0?$deque@NV?$allocator@N@std@@@std@@QAE@ABV01@@Z 100344a8 f    CIL library: CIL module
 0001:000334d0       __unwindfunclet$?GetAllDevices@USBDeviceHandleLibusb@@SA?BV?$USBDeviceList@PBVUSBDeviceLibusb@@@@XZ$0 100344d0 f    CIL library: CIL module
 0001:000334db       __unwindfunclet$?GetAllDevices@USBDeviceHandleLibusb@@SA?BV?$USBDeviceList@PBVUSBDeviceLibusb@@@@XZ$1 100344db f    CIL library: CIL module
 0001:000334e6       __unwindfunclet$?GetAllDevices@USBDeviceHandleLibusb@@SA?BV?$USBDeviceList@PBVUSBDeviceLibusb@@@@XZ$2 100344e6 f    CIL library: CIL module
 0001:000334f1       __unwindfunclet$?GetAllDevices@USBDeviceHandleLibusb@@SA?BV?$USBDeviceList@PBVUSBDeviceLibusb@@@@XZ$3 100344f1 f    CIL library: CIL module
 0001:00033510       __unwindfunclet$?GetAllDevices@USBDeviceHandleLibusb@@SA?BV?$USBDeviceList@PBVUSBDeviceLibusb@@@@XZ$4 10034510 f    CIL library: CIL module
 0001:0003351b       __ehhandler$?GetAllDevices@USBDeviceHandleLibusb@@SA?BV?$USBDeviceList@PBVUSBDeviceLibusb@@@@XZ 1003451b f    CIL library: CIL module
 0001:00033540       __unwindfunclet$?GetAllDevices@USBDeviceHandleSI@@SA?BV?$USBDeviceList@PBVUSBDeviceSI@@@@XZ$0 10034540 f    CIL library: CIL module
 0001:0003354b       __unwindfunclet$?GetAllDevices@USBDeviceHandleSI@@SA?BV?$USBDeviceList@PBVUSBDeviceSI@@@@XZ$1 1003454b f    CIL library: CIL module
 0001:00033556       __unwindfunclet$?GetAllDevices@USBDeviceHandleSI@@SA?BV?$USBDeviceList@PBVUSBDeviceSI@@@@XZ$2 10034556 f    CIL library: CIL module
 0001:00033561       __unwindfunclet$?GetAllDevices@USBDeviceHandleSI@@SA?BV?$USBDeviceList@PBVUSBDeviceSI@@@@XZ$3 10034561 f    CIL library: CIL module
 0001:00033580       __unwindfunclet$?GetAllDevices@USBDeviceHandleSI@@SA?BV?$USBDeviceList@PBVUSBDeviceSI@@@@XZ$4 10034580 f    CIL library: CIL module
 0001:0003358b       __ehhandler$?GetAllDevices@USBDeviceHandleSI@@SA?BV?$USBDeviceList@PBVUSBDeviceSI@@@@XZ 1003458b f    CIL library: CIL module
 0001:000335b0       __unwindfunclet$?GetSubList@?$USBDeviceList@PBVUSBDeviceLibusb@@@@QBE?AV1@P6AHABQBVUSBDeviceLibusb@@@Z@Z$0 100345b0 f    CIL library: CIL module
 0001:000335b8       __unwindfunclet$?GetSubList@?$USBDeviceList@PBVUSBDeviceLibusb@@@@QBE?AV1@P6AHABQBVUSBDeviceLibusb@@@Z@Z$4 100345b8 f    CIL library: CIL module
 0001:000335c0       __unwindfunclet$?GetSubList@?$USBDeviceList@PBVUSBDeviceLibusb@@@@QBE?AV1@P6AHABQBVUSBDeviceLibusb@@@Z@Z$3 100345c0 f    CIL library: CIL module
 0001:000335cb       __ehhandler$?GetSubList@?$USBDeviceList@PBVUSBDeviceLibusb@@@@QBE?AV1@P6AHABQBVUSBDeviceLibusb@@@Z@Z 100345cb f    CIL library: CIL module
 0001:000335f0       __unwindfunclet$?GetSubList@?$USBDeviceList@PBVUSBDeviceSI@@@@QBE?AV1@P6AHABQBVUSBDeviceSI@@@Z@Z$0 100345f0 f    CIL library: CIL module
 0001:000335f8       __unwindfunclet$?GetSubList@?$USBDeviceList@PBVUSBDeviceSI@@@@QBE?AV1@P6AHABQBVUSBDeviceSI@@@Z@Z$4 100345f8 f    CIL library: CIL module
 0001:00033600       __unwindfunclet$?GetSubList@?$USBDeviceList@PBVUSBDeviceSI@@@@QBE?AV1@P6AHABQBVUSBDeviceSI@@@Z@Z$3 10034600 f    CIL library: CIL module
 0001:0003360b       __ehhandler$?GetSubList@?$USBDeviceList@PBVUSBDeviceSI@@@@QBE?AV1@P6AHABQBVUSBDeviceSI@@@Z@Z 1003460b f    CIL library: CIL module
 0001:00033630       __unwindfunclet$?GetAvailableDevices@USBDeviceHandle@@SA?BV?$USBDeviceList@PBVUSBDevice@@@@K@Z$0 10034630 f    CIL library: CIL module
 0001:00033630       __unwindfunclet$?GetAllDevices@USBDeviceHandle@@SA?BV?$USBDeviceList@PBVUSBDevice@@@@K@Z$0 10034630 f    CIL library: CIL module
 0001:00033649       __unwindfunclet$?GetAllDevices@USBDeviceHandle@@SA?BV?$USBDeviceList@PBVUSBDevice@@@@K@Z$1 10034649 f    CIL library: CIL module
 0001:00033649       __unwindfunclet$?GetAvailableDevices@USBDeviceHandle@@SA?BV?$USBDeviceList@PBVUSBDevice@@@@K@Z$1 10034649 f    CIL library: CIL module
 0001:00033651       __unwindfunclet$?GetAllDevices@USBDeviceHandle@@SA?BV?$USBDeviceList@PBVUSBDevice@@@@K@Z$2 10034651 f    CIL library: CIL module
 0001:00033651       __unwindfunclet$?GetAvailableDevices@USBDeviceHandle@@SA?BV?$USBDeviceList@PBVUSBDevice@@@@K@Z$2 10034651 f    CIL library: CIL module
 0001:00033659       __unwindfunclet$?GetAllDevices@USBDeviceHandle@@SA?BV?$USBDeviceList@PBVUSBDevice@@@@K@Z$3 10034659 f    CIL library: CIL module
 0001:00033659       __unwindfunclet$?GetAvailableDevices@USBDeviceHandle@@SA?BV?$USBDeviceList@PBVUSBDevice@@@@K@Z$3 10034659 f    CIL library: CIL module
 0001:00033661       __unwindfunclet$?GetAllDevices@USBDeviceHandle@@SA?BV?$USBDeviceList@PBVUSBDevice@@@@K@Z$4 10034661 f    CIL library: CIL module
 0001:00033661       __unwindfunclet$?GetAvailableDevices@USBDeviceHandle@@SA?BV?$USBDeviceList@PBVUSBDevice@@@@K@Z$4 10034661 f    CIL library: CIL module
 0001:00033669       __ehhandler$?GetAvailableDevices@USBDeviceHandle@@SA?BV?$USBDeviceList@PBVUSBDevice@@@@K@Z 10034669 f    CIL library: CIL module
 0001:00033669       __ehhandler$?GetAllDevices@USBDeviceHandle@@SA?BV?$USBDeviceList@PBVUSBDevice@@@@K@Z 10034669 f    CIL library: CIL module
 0001:00033690       __unwindfunclet$?USBReset@DSISerialGeneric@@QAEXXZ$0 10034690 f    CIL library: CIL module
 0001:00033698       __ehhandler$?USBReset@DSISerialGeneric@@QAEXXZ 10034698 f    CIL library: CIL module
 0001:000336c0       __unwindfunclet$?GetDeviceUSBInfo@DSISerialGeneric@@UAEHEPAE0G@Z$0 100346c0 f    CIL library: CIL module
 0001:000336c8       __ehhandler$?GetDeviceUSBInfo@DSISerialGeneric@@UAEHEPAE0G@Z 100346c8 f    CIL library: CIL module
 0001:000336f0       __unwindfunclet$??0velotronDecoder@@QAE@PAVCourse@@AAVRIDER_DATA@@PAVBike@@PAVPhysics@@H@Z$0 100346f0 f    CIL library: CIL module
 0001:000336f8       __unwindfunclet$??0velotronDecoder@@QAE@PAVCourse@@AAVRIDER_DATA@@PAVBike@@PAVPhysics@@H@Z$2 100346f8 f    CIL library: CIL module
 0001:00033703       __unwindfunclet$??0velotronDecoder@@QAE@PAVCourse@@AAVRIDER_DATA@@PAVBike@@PAVPhysics@@H@Z$3 10034703 f    CIL library: CIL module
 0001:0003370e       __unwindfunclet$??0velotronDecoder@@QAE@PAVCourse@@AAVRIDER_DATA@@PAVBike@@PAVPhysics@@H@Z$4 1003470e f    CIL library: CIL module
 0001:00033719       __ehhandler$??0velotronDecoder@@QAE@PAVCourse@@AAVRIDER_DATA@@PAVBike@@PAVPhysics@@H@Z 10034719 f    CIL library: CIL module
 0001:00033740       __unwindfunclet$?init@Velotron@@AAEXXZ$3 10034740 f    CIL library: CIL module
 0001:0003374b       __unwindfunclet$?init@Velotron@@AAEXXZ$4 1003474b f    CIL library: CIL module
 0001:00033756       __unwindfunclet$?init@Velotron@@AAEXXZ$5 10034756 f    CIL library: CIL module
 0001:00033761       __unwindfunclet$?init@Velotron@@AAEXXZ$6 10034761 f    CIL library: CIL module
 0001:0003376c       __unwindfunclet$?init@Velotron@@AAEXXZ$7 1003476c f    CIL library: CIL module
 0001:00033777       __ehhandler$?init@Velotron@@AAEXXZ 10034777 f    CIL library: CIL module
 0001:000337a0       __unwindfunclet$??1Velotron@@UAE@XZ$0 100347a0 f    CIL library: CIL module
 0001:000337a0       __unwindfunclet$??0Velotron@@QAE@PBDAAVRIDER_DATA@@PAVCourse@@PAVBike@@W4LoggingType@@@Z$0 100347a0 f    CIL library: CIL module
 0001:000337a8       __ehhandler$??1Velotron@@UAE@XZ 100347a8 f    CIL library: CIL module
 0001:000337a8       __ehhandler$??0Velotron@@QAE@PBDAAVRIDER_DATA@@PAVCourse@@PAVBike@@W4LoggingType@@@Z 100347a8 f    CIL library: CIL module
 0001:000337d0       __unwindfunclet$??0USBDeviceHandleLibusb@@IAE@ABVUSBDeviceLibusb@@@Z$2 100347d0 f    CIL library: CIL module
 0001:000337d8       __unwindfunclet$??0USBDeviceHandleLibusb@@IAE@ABVUSBDeviceLibusb@@@Z$3 100347d8 f    CIL library: CIL module
 0001:000337e3       __unwindfunclet$??0USBDeviceHandleLibusb@@IAE@ABVUSBDeviceLibusb@@@Z$4 100347e3 f    CIL library: CIL module
 0001:000337f0       __unwindfunclet$??0USBDeviceHandleLibusb@@IAE@ABVUSBDeviceLibusb@@@Z$5 100347f0 f    CIL library: CIL module
 0001:000337fd       __ehhandler$??0USBDeviceHandleLibusb@@IAE@ABVUSBDeviceLibusb@@@Z 100347fd f    CIL library: CIL module
 0001:00033820       __unwindfunclet$?Open@USBDeviceHandleLibusb@@SAHABVUSBDeviceLibusb@@AAPAV1@@Z$2 10034820 f    CIL library: CIL module
 0001:0003382b       __ehhandler$?Open@USBDeviceHandleLibusb@@SAHABVUSBDeviceLibusb@@AAPAV1@@Z 1003482b f    CIL library: CIL module
 0001:00033850       __unwindfunclet$?GetAvailableDevices@USBDeviceHandleLibusb@@SA?BV?$USBDeviceList@PBVUSBDeviceLibusb@@@@XZ$0 10034850 f    CIL library: CIL module
 0001:00033858       __ehhandler$?GetAvailableDevices@USBDeviceHandleLibusb@@SA?BV?$USBDeviceList@PBVUSBDeviceLibusb@@@@XZ 10034858 f    CIL library: CIL module
 0001:00033880       __unwindfunclet$?GetAvailableDevices@USBDeviceHandleSI@@SA?BV?$USBDeviceList@PBVUSBDeviceSI@@@@XZ$0 10034880 f    CIL library: CIL module
 0001:00033888       __ehhandler$?GetAvailableDevices@USBDeviceHandleSI@@SA?BV?$USBDeviceList@PBVUSBDeviceSI@@@@XZ 10034888 f    CIL library: CIL module
 0001:000338b0       __unwindfunclet$?Open@DSISerialGeneric@@UAEHXZ$0 100348b0 f    CIL library: CIL module
 0001:000338b8       __ehhandler$?Open@DSISerialGeneric@@UAEHXZ 100348b8 f    CIL library: CIL module
 0001:000338e0       __unwindfunclet$?AutoInit@DSISerialGeneric@@UAEHXZ$0 100348e0 f    CIL library: CIL module
 0001:000338e8       __ehhandler$?AutoInit@DSISerialGeneric@@UAEHXZ 100348e8 f    CIL library: CIL module
 0001:00033910       __unwindfunclet$??__Ehdrstrings@@YAXXZ$0 10034910 f    CIL library: CIL module
 0001:0003391a       __ehhandler$??__Ehdrstrings@@YAXXZ 1003491a f    CIL library: CIL module
 0001:00033940       __unwindfunclet$??__Edirs@@YAXXZ$0 10034940 f    CIL library: CIL module
 0001:0003394a       __ehhandler$??__Edirs@@YAXXZ 1003494a f    CIL library: CIL module
 0001:00033970       __unwindfunclet$??__E?clDeviceList@USBDeviceHandleLibusb@@0V?$USBDeviceList@$$CBVUSBDeviceLibusb@@@@A@@YAXXZ$1 10034970 f    CIL library: CIL module
 0001:00033970       __unwindfunclet$??__E?clDeviceList@USBDeviceHandleSI@@0V?$USBDeviceList@$$CBVUSBDeviceSI@@@@A@@YAXXZ$1 10034970 f    CIL library: CIL module
 0001:00033978       __ehhandler$??__E?clDeviceList@USBDeviceHandleSI@@0V?$USBDeviceList@$$CBVUSBDeviceSI@@@@A@@YAXXZ 10034978 f    CIL library: CIL module
 0001:00033978       __ehhandler$??__E?clDeviceList@USBDeviceHandleLibusb@@0V?$USBDeviceList@$$CBVUSBDeviceLibusb@@@@A@@YAXXZ 10034978 f    CIL library: CIL module
 0001:000339a0       __unwindfunclet$??__Fhdrstrings@@YAXXZ$0 100349a0 f    CIL library: CIL module
 0001:000339aa       __ehhandler$??__Fhdrstrings@@YAXXZ 100349aa f    CIL library: CIL module
 0001:000339d0       __unwindfunclet$??__Fdirs@@YAXXZ$0 100349d0 f    CIL library: CIL module
 0001:000339da       __ehhandler$??__Fdirs@@YAXXZ 100349da f    CIL library: CIL module
 0001:00033a00       ??__Ehdrstrings@@YAXXZ     10034a00 f    CIL library: CIL module
 0001:00033a70       ??__Erc4stack@@YAXXZ       10034a70 f    CIL library: CIL module
 0001:00033ac0       ??__Edirs@@YAXXZ           10034ac0 f    CIL library: CIL module
 0001:00033b30       ??__E?clDeviceList@USBDeviceHandleSI@@0V?$USBDeviceList@$$CBVUSBDeviceSI@@@@A@@YAXXZ 10034b30 f    CIL library: CIL module
 0001:00033ba0       ??__E?clDeviceList@USBDeviceHandleLibusb@@0V?$USBDeviceList@$$CBVUSBDeviceLibusb@@@@A@@YAXXZ 10034ba0 f    CIL library: CIL module
 0001:00033c10       ??__E?clAutoInstance@SiLabsLibrary@@0V?$auto_ptr@VSiLabsLibrary@@@std@@A@@YAXXZ 10034c10 f    CIL library: CIL module
 0001:00033c20       ??__E?clAutoInstance@CMLibrary@@0V?$auto_ptr@VCMLibrary@@@std@@A@@YAXXZ 10034c20 f    CIL library: CIL module
 0001:00033c30       ??__E?clAutoInstance@LibusbLibrary@@0V?$auto_ptr@VLibusbLibrary@@@std@@A@@YAXXZ 10034c30 f    CIL library: CIL module
 0001:00033c40       ??__Edevices@@YAXXZ        10034c40 f   dll_globals.obj
 0001:00033d50       ??__Ecryptor@@YAXXZ        10034d50 f   dll_globals.obj
 0001:00033d70       ??__Fhdrstrings@@YAXXZ     10034d70 f    CIL library: CIL module
 0001:00033dd0       ??__Frc4stack@@YAXXZ       10034dd0 f    CIL library: CIL module
 0001:00033df0       ??__Fdirs@@YAXXZ           10034df0 f    CIL library: CIL module
 0001:00033e50       ??__F?clDeviceList@USBDeviceHandleSI@@0V?$USBDeviceList@$$CBVUSBDeviceSI@@@@A@@YAXXZ 10034e50 f    CIL library: CIL module
 0001:00033e60       ??__F?clDeviceList@USBDeviceHandleLibusb@@0V?$USBDeviceList@$$CBVUSBDeviceLibusb@@@@A@@YAXXZ 10034e60 f    CIL library: CIL module
 0001:00033e70       ??__F?clAutoInstance@SiLabsLibrary@@0V?$auto_ptr@VSiLabsLibrary@@@std@@A@@YAXXZ 10034e70 f    CIL library: CIL module
 0001:00033e90       ??__F?clAutoInstance@CMLibrary@@0V?$auto_ptr@VCMLibrary@@@std@@A@@YAXXZ 10034e90 f    CIL library: CIL module
 0001:00033eb0       ??__F?clAutoInstance@LibusbLibrary@@0V?$auto_ptr@VLibusbLibrary@@@std@@A@@YAXXZ 10034eb0 f    CIL library: CIL module
 0001:00033ed0       ??__Fcryptor@@YAXXZ        10034ed0 f   dll_globals.obj
 0001:00033ee0       ??__Fdevices@@YAXXZ        10034ee0 f   dll_globals.obj
