 cpp_tester

 Timestamp is 5899ff7a (Tue Feb  7 12:10:18 2017)

 Preferred load address is 00400000

 Start         Length     Name                   Class
 0001:00000000 0003efa2H .textbss                DATA
 0002:00000000 000067c0H .text$di                CODE
 0002:000067c0 000799f0H .text$mn                CODE
 0002:000801b0 000076f0H .text$x                 CODE
 0002:000878a0 0000112cH .text$yd                CODE
 0003:00000000 00000104H .CRT$XCA                DATA
 0003:00000104 00000104H .CRT$XCAA               DATA
 0003:00000208 00000128H .CRT$XCU                DATA
 0003:00000330 00000104H .CRT$XCZ                DATA
 0003:00000434 00000104H .CRT$XIA                DATA
 0003:00000538 00000104H .CRT$XIAA               DATA
 0003:0000063c 00000104H .CRT$XIAC               DATA
 0003:00000740 00000104H .CRT$XIC                DATA
 0003:00000844 00000104H .CRT$XIZ                DATA
 0003:00000948 00000004H .CRT$XLA                DATA
 0003:0000094c 00000004H .CRT$XLZ                DATA
 0003:00000950 00000104H .CRT$XPA                DATA
 0003:00000a54 00000104H .CRT$XPZ                DATA
 0003:00000b58 00000104H .CRT$XTA                DATA
 0003:00000c5c 00000104H .CRT$XTZ                DATA
 0003:00000d60 00019c9cH .rdata                  DATA
 0003:0001a9fc 0000011cH .rdata$T                DATA
 0003:0001ab18 00000c3cH .rdata$r                DATA
 0003:0001b754 00000178H .rdata$zzzdbg           DATA
 0003:0001b8cc 00000104H .rtc$IAA                DATA
 0003:0001b9d0 00000154H .rtc$IMZ                DATA
 0003:0001bb24 00000104H .rtc$IZZ                DATA
 0003:0001bc28 00000104H .rtc$TAA                DATA
 0003:0001bd2c 00000154H .rtc$TMZ                DATA
 0003:0001be80 00000108H .rtc$TZZ                DATA
 0003:0001bf88 000065f8H .xdata$x                DATA
 0003:00022580 0000357bH .edata                  DATA
 0004:00000000 000021ecH .data                   DATA
 0004:000021ec 0000052cH .data$r                 DATA
 0004:00002718 00001724H .bss                    DATA
 0005:00000000 00000c94H .idata$5                DATA
 0005:00000c94 00000118H .idata$2                DATA
 0005:00000dac 00000014H .idata$3                DATA
 0005:00000dc0 00000c94H .idata$4                DATA
 0005:00001a54 00003f40H .idata$6                DATA
 0006:00000000 00000188H .gfids$y                DATA
 0007:00000000 00000104H .tls                    DATA
 0007:00000104 00000104H .tls$                   DATA
 0007:00000208 00000101H .tls$ZZZ                DATA
 0008:00000000 00000104H .00cfg                  DATA
 0009:00000000 00000170H .rsrc$01                DATA
 0009:00000170 000002ccH .rsrc$02                DATA

  Address         Publics by Value              Rva+Base       Lib:Object

 0000:00000000       ___guard_fids_table        00000000     <absolute>
 0000:00000000       ___guard_fids_count        00000000     <absolute>
 0000:00000000       ___guard_iat_count         00000000     <absolute>
 0000:00000000       ___guard_iat_table         00000000     <absolute>
 0000:00000000       ___dynamic_value_reloc_table 00000000     <absolute>
 0000:00000000       ___safe_se_handler_table   00000000     <absolute>
 0000:00000000       ___guard_longjmp_count     00000000     <absolute>
 0000:00000000       ___guard_longjmp_table     00000000     <absolute>
 0000:00000000       ___safe_se_handler_count   00000000     <absolute>
 0000:0000002c       __tls_array                0000002c     <absolute>
 0000:00000100       ___guard_flags             00000100     <absolute>
 0000:00000000       ___ImageBase               00400000     <linker-defined>
 0001:00000000       __enc$textbss$begin        00401000     <linker-defined>
 0001:0003efa2       __enc$textbss$end          0043ffa2     <linker-defined>
 0002:000067c0       ??$?0$$V@?$_Compressed_pair@U?$_Wrap_alloc@V?$allocator@D@std@@@std@@V?$_String_val@U?$_Simple_types@D@std@@@2@$00@std@@QAE@U_Zero_then_variadic_args_t@1@@Z 004467c0 f i test.obj
 0002:00006870       ??$?0$$V@?$_Compressed_pair@U?$_Wrap_alloc@V?$allocator@V?$basic_string@DU?$char_traits@D@std@@V?$allocator@D@2@@std@@@std@@@std@@V?$_Vector_val@U?$_Simple_types@V?$basic_string@DU?$char_traits@D@std@@V?$allocator@D@2@@std@@@std@@@2@$00@std@@QAE@U_Zero_then_variadic_args_t@1@@Z 00446870 f i test.obj
 0002:00006920       ??$?0AAU?$_Wrap_alloc@V?$allocator@D@std@@@std@@@?$_Wrap_alloc@V?$allocator@U_Container_proxy@std@@@std@@@std@@QAE@AAU?$_Wrap_alloc@V?$allocator@D@std@@@1@@Z 00446920 f i test.obj
 0002:00006990       ??$?0AAU?$_Wrap_alloc@V?$allocator@UFORMULA2_PAIR@@@std@@@std@@@?$_Wrap_alloc@V?$allocator@PAUFORMULA2_PAIR@@@std@@@std@@QAE@AAU?$_Wrap_alloc@V?$allocator@UFORMULA2_PAIR@@@std@@@1@@Z 00446990 f i test.obj
 0002:00006a00       ??$?0AAU?$_Wrap_alloc@V?$allocator@UFORMULA2_PAIR@@@std@@@std@@@?$_Wrap_alloc@V?$allocator@U_Container_proxy@std@@@std@@@std@@QAE@AAU?$_Wrap_alloc@V?$allocator@UFORMULA2_PAIR@@@std@@@1@@Z 00446a00 f i test.obj
 0002:00006a70       ??$?0AAU?$_Wrap_alloc@V?$allocator@UFORMULA_PAIR@@@std@@@std@@@?$_Wrap_alloc@V?$allocator@PAUFORMULA_PAIR@@@std@@@std@@QAE@AAU?$_Wrap_alloc@V?$allocator@UFORMULA_PAIR@@@std@@@1@@Z 00446a70 f i test.obj
 0002:00006ae0       ??$?0AAU?$_Wrap_alloc@V?$allocator@UFORMULA_PAIR@@@std@@@std@@@?$_Wrap_alloc@V?$allocator@U_Container_proxy@std@@@std@@@std@@QAE@AAU?$_Wrap_alloc@V?$allocator@UFORMULA_PAIR@@@std@@@1@@Z 00446ae0 f i test.obj
 0002:00006b50       ??$?0AAU?$_Wrap_alloc@V?$allocator@V?$basic_string@DU?$char_traits@D@std@@V?$allocator@D@2@@std@@@std@@@std@@@?$_Wrap_alloc@V?$allocator@U_Container_proxy@std@@@std@@@std@@QAE@AAU?$_Wrap_alloc@V?$allocator@V?$basic_string@DU?$char_traits@D@std@@V?$allocator@D@2@@std@@@std@@@1@@Z 00446b50 f i test.obj
 0002:00006bc0       ??$?0D@?$allocator@U_Container_proxy@std@@@std@@QAE@ABV?$allocator@D@1@@Z 00446bc0 f i test.obj
 0002:00006c00       ??$?0U?$_Wrap_alloc@V?$allocator@D@std@@@std@@$$V@?$_Compressed_pair@U?$_Wrap_alloc@V?$allocator@D@std@@@std@@V?$_String_val@U?$_Simple_types@D@std@@@2@$00@std@@QAE@U_One_then_variadic_args_t@1@$$QAU?$_Wrap_alloc@V?$allocator@D@std@@@1@@Z 00446c00 f i test.obj
 0002:00006cc0       ??$?0U?$_Wrap_alloc@V?$allocator@D@std@@@std@@X@?$_String_alloc@U?$_String_base_types@DV?$allocator@D@std@@@std@@@std@@QAE@$$QAU?$_Wrap_alloc@V?$allocator@D@std@@@1@@Z 00446cc0 f i test.obj
 0002:00006d80       ??$?0U?$_Wrap_alloc@V?$allocator@UFORMULA2_PAIR@@@std@@@std@@$$V@?$_Compressed_pair@U?$_Wrap_alloc@V?$allocator@UFORMULA2_PAIR@@@std@@@std@@V?$_Deque_val@U?$_Deque_simple_types@UFORMULA2_PAIR@@@std@@@2@$00@std@@QAE@U_One_then_variadic_args_t@1@$$QAU?$_Wrap_alloc@V?$allocator@UFORMULA2_PAIR@@@std@@@1@@Z 00446d80 f i test.obj
 0002:00006e40       ??$?0U?$_Wrap_alloc@V?$allocator@UFORMULA2_PAIR@@@std@@@std@@@?$_Deque_alloc@U?$_Deque_base_types@UFORMULA2_PAIR@@V?$allocator@UFORMULA2_PAIR@@@std@@@std@@@std@@QAE@$$QAU?$_Wrap_alloc@V?$allocator@UFORMULA2_PAIR@@@std@@@1@@Z 00446e40 f i test.obj
 0002:00006f00       ??$?0U?$_Wrap_alloc@V?$allocator@UFORMULA_PAIR@@@std@@@std@@$$V@?$_Compressed_pair@U?$_Wrap_alloc@V?$allocator@UFORMULA_PAIR@@@std@@@std@@V?$_Deque_val@U?$_Deque_simple_types@UFORMULA_PAIR@@@std@@@2@$00@std@@QAE@U_One_then_variadic_args_t@1@$$QAU?$_Wrap_alloc@V?$allocator@UFORMULA_PAIR@@@std@@@1@@Z 00446f00 f i test.obj
 0002:00006fc0       ??$?0U?$_Wrap_alloc@V?$allocator@UFORMULA_PAIR@@@std@@@std@@@?$_Deque_alloc@U?$_Deque_base_types@UFORMULA_PAIR@@V?$allocator@UFORMULA_PAIR@@@std@@@std@@@std@@QAE@$$QAU?$_Wrap_alloc@V?$allocator@UFORMULA_PAIR@@@std@@@1@@Z 00446fc0 f i test.obj
 0002:00007080       ??$?0UFORMULA2_PAIR@@@?$allocator@PAUFORMULA2_PAIR@@@std@@QAE@ABV?$allocator@UFORMULA2_PAIR@@@1@@Z 00447080 f i test.obj
 0002:000070c0       ??$?0UFORMULA2_PAIR@@@?$allocator@U_Container_proxy@std@@@std@@QAE@ABV?$allocator@UFORMULA2_PAIR@@@1@@Z 004470c0 f i test.obj
 0002:00007100       ??$?0UFORMULA_PAIR@@@?$allocator@PAUFORMULA_PAIR@@@std@@QAE@ABV?$allocator@UFORMULA_PAIR@@@1@@Z 00447100 f i test.obj
 0002:00007140       ??$?0UFORMULA_PAIR@@@?$allocator@U_Container_proxy@std@@@std@@QAE@ABV?$allocator@UFORMULA_PAIR@@@1@@Z 00447140 f i test.obj
 0002:00007180       ??$?0V?$allocator@UFORMULA2_PAIR@@@std@@@?$_Wrap_alloc@V?$allocator@UFORMULA2_PAIR@@@std@@@std@@QAE@$$QAV?$allocator@UFORMULA2_PAIR@@@1@@Z 00447180 f i test.obj
 0002:000071f0       ??$?0V?$allocator@UFORMULA_PAIR@@@std@@@?$_Wrap_alloc@V?$allocator@UFORMULA_PAIR@@@std@@@std@@QAE@$$QAV?$allocator@UFORMULA_PAIR@@@1@@Z 004471f0 f i test.obj
 0002:00007260       ??$?0V?$basic_string@DU?$char_traits@D@std@@V?$allocator@D@2@@std@@@?$allocator@U_Container_proxy@std@@@std@@QAE@ABV?$allocator@V?$basic_string@DU?$char_traits@D@std@@V?$allocator@D@2@@std@@@1@@Z 00447260 f i test.obj
 0002:000072a0       ??$?8UFORMULA2_PAIR@@U0@@std@@YA_NABV?$allocator@UFORMULA2_PAIR@@@0@0@Z 004472a0 f i test.obj
 0002:000072d0       ??$?8UFORMULA_PAIR@@U0@@std@@YA_NABV?$allocator@UFORMULA_PAIR@@@0@0@Z 004472d0 f i test.obj
 0002:00007300       ??$?8V?$allocator@UFORMULA2_PAIR@@@std@@V01@@std@@YA_NABU?$_Wrap_alloc@V?$allocator@UFORMULA2_PAIR@@@std@@@0@0@Z 00447300 f i test.obj
 0002:00007360       ??$?8V?$allocator@UFORMULA_PAIR@@@std@@V01@@std@@YA_NABU?$_Wrap_alloc@V?$allocator@UFORMULA_PAIR@@@std@@@0@0@Z 00447360 f i test.obj
 0002:000073c0       ??$?9V?$allocator@UFORMULA2_PAIR@@@std@@V01@@std@@YA_NABU?$_Wrap_alloc@V?$allocator@UFORMULA2_PAIR@@@std@@@0@0@Z 004473c0 f i test.obj
 0002:00007440       ??$?9V?$allocator@UFORMULA_PAIR@@@std@@V01@@std@@YA_NABU?$_Wrap_alloc@V?$allocator@UFORMULA_PAIR@@@std@@@0@0@Z 00447440 f i test.obj
 0002:000074c0       ??$_Addressof@D@std@@YAPADAADU?$integral_constant@_N$0A@@0@@Z 004474c0 f i test.obj
 0002:00007500       ??$_Addressof@PAUFORMULA2_PAIR@@@std@@YAPAPAUFORMULA2_PAIR@@AAPAU1@U?$integral_constant@_N$0A@@0@@Z 00447500 f i test.obj
 0002:00007540       ??$_Addressof@PAUFORMULA_PAIR@@@std@@YAPAPAUFORMULA_PAIR@@AAPAU1@U?$integral_constant@_N$0A@@0@@Z 00447540 f i test.obj
 0002:00007580       ??$_Addressof@V?$basic_string@DU?$char_traits@D@std@@V?$allocator@D@2@@std@@@std@@YAPAV?$basic_string@DU?$char_traits@D@std@@V?$allocator@D@2@@0@AAV10@U?$integral_constant@_N$0A@@0@@Z 00447580 f i test.obj
 0002:000075c0       ??$_Construct@V?$_Deque_const_iterator@V?$_Deque_val@U?$_Deque_simple_types@UFORMULA2_PAIR@@@std@@@std@@@std@@@?$deque@UFORMULA2_PAIR@@V?$allocator@UFORMULA2_PAIR@@@std@@@std@@QAEXV?$_Deque_const_iterator@V?$_Deque_val@U?$_Deque_simple_types@UFORMULA2_PAIR@@@std@@@std@@@1@0@Z 004475c0 f i test.obj
 0002:000076e0       ??$_Construct@V?$_Deque_const_iterator@V?$_Deque_val@U?$_Deque_simple_types@UFORMULA_PAIR@@@std@@@std@@@std@@@?$deque@UFORMULA_PAIR@@V?$allocator@UFORMULA_PAIR@@@std@@@std@@QAEXV?$_Deque_const_iterator@V?$_Deque_val@U?$_Deque_simple_types@UFORMULA_PAIR@@@std@@@std@@@1@0@Z 004476e0 f i test.obj
 0002:00007800       ??$_Copy_memmove@PAPAUFORMULA2_PAIR@@PAPAU1@@std@@YAPAPAUFORMULA2_PAIR@@PAPAU1@00@Z 00447800 f i test.obj
 0002:00007890       ??$_Copy_memmove@PAPAUFORMULA_PAIR@@PAPAU1@@std@@YAPAPAUFORMULA_PAIR@@PAPAU1@00@Z 00447890 f i test.obj
 0002:00007920       ??$_Copy_no_deprecate1@V?$_Deque_unchecked_const_iterator@V?$_Deque_val@U?$_Deque_simple_types@UFORMULA2_PAIR@@@std@@@std@@@std@@V?$_Deque_iterator@V?$_Deque_val@U?$_Deque_simple_types@UFORMULA2_PAIR@@@std@@@std@@@2@@std@@YA?AV?$_Deque_iterator@V?$_Deque_val@U?$_Deque_simple_types@UFORMULA2_PAIR@@@std@@@std@@@0@V?$_Deque_unchecked_const_iterator@V?$_Deque_val@U?$_Deque_simple_types@UFORMULA2_PAIR@@@std@@@std@@@0@0V10@Urandom_access_iterator_tag@0@2@Z 00447920 f i test.obj
 0002:00007ab0       ??$_Copy_no_deprecate1@V?$_Deque_unchecked_const_iterator@V?$_Deque_val@U?$_Deque_simple_types@UFORMULA_PAIR@@@std@@@std@@@std@@V?$_Deque_iterator@V?$_Deque_val@U?$_Deque_simple_types@UFORMULA_PAIR@@@std@@@std@@@2@@std@@YA?AV?$_Deque_iterator@V?$_Deque_val@U?$_Deque_simple_types@UFORMULA_PAIR@@@std@@@std@@@0@V?$_Deque_unchecked_const_iterator@V?$_Deque_val@U?$_Deque_simple_types@UFORMULA_PAIR@@@std@@@std@@@0@0V10@Urandom_access_iterator_tag@0@2@Z 00447ab0 f i test.obj
 0002:00007c40       ??$_Copy_no_deprecate@V?$_Deque_const_iterator@V?$_Deque_val@U?$_Deque_simple_types@UFORMULA2_PAIR@@@std@@@std@@@std@@V?$_Deque_iterator@V?$_Deque_val@U?$_Deque_simple_types@UFORMULA2_PAIR@@@std@@@std@@@2@@std@@YA?AV?$_Deque_iterator@V?$_Deque_val@U?$_Deque_simple_types@UFORMULA2_PAIR@@@std@@@std@@@0@V?$_Deque_const_iterator@V?$_Deque_val@U?$_Deque_simple_types@UFORMULA2_PAIR@@@std@@@std@@@0@0V10@@Z 00447c40 f i test.obj
 0002:00007ef0       ??$_Copy_no_deprecate@V?$_Deque_const_iterator@V?$_Deque_val@U?$_Deque_simple_types@UFORMULA_PAIR@@@std@@@std@@@std@@V?$_Deque_iterator@V?$_Deque_val@U?$_Deque_simple_types@UFORMULA_PAIR@@@std@@@std@@@2@@std@@YA?AV?$_Deque_iterator@V?$_Deque_val@U?$_Deque_simple_types@UFORMULA_PAIR@@@std@@@std@@@0@V?$_Deque_const_iterator@V?$_Deque_val@U?$_Deque_simple_types@UFORMULA_PAIR@@@std@@@std@@@0@0V10@@Z 00447ef0 f i test.obj
 0002:000081a0       ??$_Copy_unchecked1@V?$_Deque_unchecked_const_iterator@V?$_Deque_val@U?$_Deque_simple_types@UFORMULA2_PAIR@@@std@@@std@@@std@@V?$_Deque_unchecked_iterator@V?$_Deque_val@U?$_Deque_simple_types@UFORMULA2_PAIR@@@std@@@std@@@2@@std@@YA?AV?$_Deque_unchecked_iterator@V?$_Deque_val@U?$_Deque_simple_types@UFORMULA2_PAIR@@@std@@@std@@@0@V?$_Deque_unchecked_const_iterator@V?$_Deque_val@U?$_Deque_simple_types@UFORMULA2_PAIR@@@std@@@std@@@0@0V10@U_General_ptr_iterator_tag@0@@Z 004481a0 f i test.obj
 0002:00008250       ??$_Copy_unchecked1@V?$_Deque_unchecked_const_iterator@V?$_Deque_val@U?$_Deque_simple_types@UFORMULA_PAIR@@@std@@@std@@@std@@V?$_Deque_unchecked_iterator@V?$_Deque_val@U?$_Deque_simple_types@UFORMULA_PAIR@@@std@@@std@@@2@@std@@YA?AV?$_Deque_unchecked_iterator@V?$_Deque_val@U?$_Deque_simple_types@UFORMULA_PAIR@@@std@@@std@@@0@V?$_Deque_unchecked_const_iterator@V?$_Deque_val@U?$_Deque_simple_types@UFORMULA_PAIR@@@std@@@std@@@0@0V10@U_General_ptr_iterator_tag@0@@Z 00448250 f i test.obj
 0002:00008300       ??$_Copy_unchecked@V?$_Deque_unchecked_const_iterator@V?$_Deque_val@U?$_Deque_simple_types@UFORMULA2_PAIR@@@std@@@std@@@std@@V?$_Deque_unchecked_iterator@V?$_Deque_val@U?$_Deque_simple_types@UFORMULA2_PAIR@@@std@@@std@@@2@@std@@YA?AV?$_Deque_unchecked_iterator@V?$_Deque_val@U?$_Deque_simple_types@UFORMULA2_PAIR@@@std@@@std@@@0@V?$_Deque_unchecked_const_iterator@V?$_Deque_val@U?$_Deque_simple_types@UFORMULA2_PAIR@@@std@@@std@@@0@0V10@@Z 00448300 f i test.obj
 0002:000083a0       ??$_Copy_unchecked@V?$_Deque_unchecked_const_iterator@V?$_Deque_val@U?$_Deque_simple_types@UFORMULA_PAIR@@@std@@@std@@@std@@V?$_Deque_unchecked_iterator@V?$_Deque_val@U?$_Deque_simple_types@UFORMULA_PAIR@@@std@@@std@@@2@@std@@YA?AV?$_Deque_unchecked_iterator@V?$_Deque_val@U?$_Deque_simple_types@UFORMULA_PAIR@@@std@@@std@@@0@V?$_Deque_unchecked_const_iterator@V?$_Deque_val@U?$_Deque_simple_types@UFORMULA_PAIR@@@std@@@std@@@0@0V10@@Z 004483a0 f i test.obj
 0002:00008440       ??$_Debug_pointer@$$CBD@std@@YAXPBDPB_WI@Z 00448440 f i test.obj
 0002:000084b0       ??$_Debug_pointer@V?$_Deque_const_iterator@V?$_Deque_val@U?$_Deque_simple_types@UFORMULA2_PAIR@@@std@@@std@@@std@@@std@@YAXAAV?$_Deque_const_iterator@V?$_Deque_val@U?$_Deque_simple_types@UFORMULA2_PAIR@@@std@@@std@@@0@PB_WI@Z 004484b0 f i test.obj
 0002:000084e0       ??$_Debug_pointer@V?$_Deque_const_iterator@V?$_Deque_val@U?$_Deque_simple_types@UFORMULA_PAIR@@@std@@@std@@@std@@@std@@YAXAAV?$_Deque_const_iterator@V?$_Deque_val@U?$_Deque_simple_types@UFORMULA_PAIR@@@std@@@std@@@0@PB_WI@Z 004484e0 f i test.obj
 0002:00008510       ??$_Debug_pointer@V?$_Deque_iterator@V?$_Deque_val@U?$_Deque_simple_types@UFORMULA2_PAIR@@@std@@@std@@@std@@@std@@YAXAAV?$_Deque_iterator@V?$_Deque_val@U?$_Deque_simple_types@UFORMULA2_PAIR@@@std@@@std@@@0@PB_WI@Z 00448510 f i test.obj
 0002:00008540       ??$_Debug_pointer@V?$_Deque_iterator@V?$_Deque_val@U?$_Deque_simple_types@UFORMULA_PAIR@@@std@@@std@@@std@@@std@@YAXAAV?$_Deque_iterator@V?$_Deque_val@U?$_Deque_simple_types@UFORMULA_PAIR@@@std@@@std@@@0@PB_WI@Z 00448540 f i test.obj
 0002:00008570       ??$_Debug_pointer@V?$_Deque_unchecked_iterator@V?$_Deque_val@U?$_Deque_simple_types@UFORMULA2_PAIR@@@std@@@std@@@std@@@std@@YAXAAV?$_Deque_unchecked_iterator@V?$_Deque_val@U?$_Deque_simple_types@UFORMULA2_PAIR@@@std@@@std@@@0@PB_WI@Z 00448570 f i test.obj
 0002:000085a0       ??$_Debug_pointer@V?$_Deque_unchecked_iterator@V?$_Deque_val@U?$_Deque_simple_types@UFORMULA_PAIR@@@std@@@std@@@std@@@std@@YAXAAV?$_Deque_unchecked_iterator@V?$_Deque_val@U?$_Deque_simple_types@UFORMULA_PAIR@@@std@@@std@@@0@PB_WI@Z 004485a0 f i test.obj
 0002:000085d0       ??$_Debug_pointer_if@$$CBD@std@@YAX_NPBDPB_WI@Z 004485d0 f i test.obj
 0002:00008650       ??$_Debug_range2@V?$_Deque_const_iterator@V?$_Deque_val@U?$_Deque_simple_types@UFORMULA2_PAIR@@@std@@@std@@@std@@@std@@YAXV?$_Deque_const_iterator@V?$_Deque_val@U?$_Deque_simple_types@UFORMULA2_PAIR@@@std@@@std@@@0@0PB_WIUrandom_access_iterator_tag@0@@Z 00448650 f i test.obj
 0002:00008780       ??$_Debug_range2@V?$_Deque_const_iterator@V?$_Deque_val@U?$_Deque_simple_types@UFORMULA_PAIR@@@std@@@std@@@std@@@std@@YAXV?$_Deque_const_iterator@V?$_Deque_val@U?$_Deque_simple_types@UFORMULA_PAIR@@@std@@@std@@@0@0PB_WIUrandom_access_iterator_tag@0@@Z 00448780 f i test.obj
 0002:000088b0       ??$_Debug_range2@V?$_Deque_iterator@V?$_Deque_val@U?$_Deque_simple_types@UFORMULA2_PAIR@@@std@@@std@@@std@@@std@@YAXV?$_Deque_iterator@V?$_Deque_val@U?$_Deque_simple_types@UFORMULA2_PAIR@@@std@@@std@@@0@0PB_WIUrandom_access_iterator_tag@0@@Z 004488b0 f i test.obj
 0002:000089e0       ??$_Debug_range2@V?$_Deque_iterator@V?$_Deque_val@U?$_Deque_simple_types@UFORMULA_PAIR@@@std@@@std@@@std@@@std@@YAXV?$_Deque_iterator@V?$_Deque_val@U?$_Deque_simple_types@UFORMULA_PAIR@@@std@@@std@@@0@0PB_WIUrandom_access_iterator_tag@0@@Z 004489e0 f i test.obj
 0002:00008b10       ??$_Debug_range2@V?$_Deque_unchecked_iterator@V?$_Deque_val@U?$_Deque_simple_types@UFORMULA2_PAIR@@@std@@@std@@@std@@@std@@YAXV?$_Deque_unchecked_iterator@V?$_Deque_val@U?$_Deque_simple_types@UFORMULA2_PAIR@@@std@@@std@@@0@0PB_WIUrandom_access_iterator_tag@0@@Z 00448b10 f i test.obj
 0002:00008be0       ??$_Debug_range2@V?$_Deque_unchecked_iterator@V?$_Deque_val@U?$_Deque_simple_types@UFORMULA_PAIR@@@std@@@std@@@std@@@std@@YAXV?$_Deque_unchecked_iterator@V?$_Deque_val@U?$_Deque_simple_types@UFORMULA_PAIR@@@std@@@std@@@0@0PB_WIUrandom_access_iterator_tag@0@@Z 00448be0 f i test.obj
 0002:00008cb0       ??$_Debug_range@V?$_Deque_const_iterator@V?$_Deque_val@U?$_Deque_simple_types@UFORMULA2_PAIR@@@std@@@std@@@std@@@std@@YAXV?$_Deque_const_iterator@V?$_Deque_val@U?$_Deque_simple_types@UFORMULA2_PAIR@@@std@@@std@@@0@0PB_WI@Z 00448cb0 f i test.obj
 0002:00008df0       ??$_Debug_range@V?$_Deque_const_iterator@V?$_Deque_val@U?$_Deque_simple_types@UFORMULA_PAIR@@@std@@@std@@@std@@@std@@YAXV?$_Deque_const_iterator@V?$_Deque_val@U?$_Deque_simple_types@UFORMULA_PAIR@@@std@@@std@@@0@0PB_WI@Z 00448df0 f i test.obj
 0002:00008f30       ??$_Debug_range@V?$_Deque_iterator@V?$_Deque_val@U?$_Deque_simple_types@UFORMULA2_PAIR@@@std@@@std@@@std@@@std@@YAXV?$_Deque_iterator@V?$_Deque_val@U?$_Deque_simple_types@UFORMULA2_PAIR@@@std@@@std@@@0@0PB_WI@Z 00448f30 f i test.obj
 0002:00009070       ??$_Debug_range@V?$_Deque_iterator@V?$_Deque_val@U?$_Deque_simple_types@UFORMULA_PAIR@@@std@@@std@@@std@@@std@@YAXV?$_Deque_iterator@V?$_Deque_val@U?$_Deque_simple_types@UFORMULA_PAIR@@@std@@@std@@@0@0PB_WI@Z 00449070 f i test.obj
 0002:000091b0       ??$_Debug_range@V?$_Deque_unchecked_iterator@V?$_Deque_val@U?$_Deque_simple_types@UFORMULA2_PAIR@@@std@@@std@@@std@@@std@@YAXV?$_Deque_unchecked_iterator@V?$_Deque_val@U?$_Deque_simple_types@UFORMULA2_PAIR@@@std@@@std@@@0@0PB_WI@Z 004491b0 f i test.obj
 0002:00009240       ??$_Debug_range@V?$_Deque_unchecked_iterator@V?$_Deque_val@U?$_Deque_simple_types@UFORMULA_PAIR@@@std@@@std@@@std@@@std@@YAXV?$_Deque_unchecked_iterator@V?$_Deque_val@U?$_Deque_simple_types@UFORMULA_PAIR@@@std@@@std@@@0@0PB_WI@Z 00449240 f i test.obj
 0002:000092d0       ??$_Debug_range_ptr2@V?$_Deque_const_iterator@V?$_Deque_val@U?$_Deque_simple_types@UFORMULA2_PAIR@@@std@@@std@@@std@@V?$_Deque_iterator@V?$_Deque_val@U?$_Deque_simple_types@UFORMULA2_PAIR@@@std@@@std@@@2@@std@@YAXV?$_Deque_const_iterator@V?$_Deque_val@U?$_Deque_simple_types@UFORMULA2_PAIR@@@std@@@std@@@0@0AAV?$_Deque_iterator@V?$_Deque_val@U?$_Deque_simple_types@UFORMULA2_PAIR@@@std@@@std@@@0@PB_WIUrandom_access_iterator_tag@0@@Z 004492d0 f i test.obj
 0002:00009410       ??$_Debug_range_ptr2@V?$_Deque_const_iterator@V?$_Deque_val@U?$_Deque_simple_types@UFORMULA_PAIR@@@std@@@std@@@std@@V?$_Deque_iterator@V?$_Deque_val@U?$_Deque_simple_types@UFORMULA_PAIR@@@std@@@std@@@2@@std@@YAXV?$_Deque_const_iterator@V?$_Deque_val@U?$_Deque_simple_types@UFORMULA_PAIR@@@std@@@std@@@0@0AAV?$_Deque_iterator@V?$_Deque_val@U?$_Deque_simple_types@UFORMULA_PAIR@@@std@@@std@@@0@PB_WIUrandom_access_iterator_tag@0@@Z 00449410 f i test.obj
 0002:00009550       ??$_Debug_range_ptr2@V?$_Deque_iterator@V?$_Deque_val@U?$_Deque_simple_types@UFORMULA2_PAIR@@@std@@@std@@@std@@V12@@std@@YAXV?$_Deque_iterator@V?$_Deque_val@U?$_Deque_simple_types@UFORMULA2_PAIR@@@std@@@std@@@0@0AAV10@PB_WIUrandom_access_iterator_tag@0@@Z 00449550 f i test.obj
 0002:00009690       ??$_Debug_range_ptr2@V?$_Deque_iterator@V?$_Deque_val@U?$_Deque_simple_types@UFORMULA_PAIR@@@std@@@std@@@std@@V12@@std@@YAXV?$_Deque_iterator@V?$_Deque_val@U?$_Deque_simple_types@UFORMULA_PAIR@@@std@@@std@@@0@0AAV10@PB_WIUrandom_access_iterator_tag@0@@Z 00449690 f i test.obj
 0002:000097d0       ??$_Debug_range_ptr@V?$_Deque_const_iterator@V?$_Deque_val@U?$_Deque_simple_types@UFORMULA2_PAIR@@@std@@@std@@@std@@V?$_Deque_iterator@V?$_Deque_val@U?$_Deque_simple_types@UFORMULA2_PAIR@@@std@@@std@@@2@@std@@YAXV?$_Deque_const_iterator@V?$_Deque_val@U?$_Deque_simple_types@UFORMULA2_PAIR@@@std@@@std@@@0@0AAV?$_Deque_iterator@V?$_Deque_val@U?$_Deque_simple_types@UFORMULA2_PAIR@@@std@@@std@@@0@PB_WI@Z 004497d0 f i test.obj
 0002:00009920       ??$_Debug_range_ptr@V?$_Deque_const_iterator@V?$_Deque_val@U?$_Deque_simple_types@UFORMULA_PAIR@@@std@@@std@@@std@@V?$_Deque_iterator@V?$_Deque_val@U?$_Deque_simple_types@UFORMULA_PAIR@@@std@@@std@@@2@@std@@YAXV?$_Deque_const_iterator@V?$_Deque_val@U?$_Deque_simple_types@UFORMULA_PAIR@@@std@@@std@@@0@0AAV?$_Deque_iterator@V?$_Deque_val@U?$_Deque_simple_types@UFORMULA_PAIR@@@std@@@std@@@0@PB_WI@Z 00449920 f i test.obj
 0002:00009a70       ??$_Debug_range_ptr@V?$_Deque_iterator@V?$_Deque_val@U?$_Deque_simple_types@UFORMULA2_PAIR@@@std@@@std@@@std@@V12@@std@@YAXV?$_Deque_iterator@V?$_Deque_val@U?$_Deque_simple_types@UFORMULA2_PAIR@@@std@@@std@@@0@0AAV10@PB_WI@Z 00449a70 f i test.obj
 0002:00009bc0       ??$_Debug_range_ptr@V?$_Deque_iterator@V?$_Deque_val@U?$_Deque_simple_types@UFORMULA_PAIR@@@std@@@std@@@std@@V12@@std@@YAXV?$_Deque_iterator@V?$_Deque_val@U?$_Deque_simple_types@UFORMULA_PAIR@@@std@@@std@@@0@0AAV10@PB_WI@Z 00449bc0 f i test.obj
 0002:00009d10       ??$_Destroy_range@U?$_Wrap_alloc@V?$allocator@PAUFORMULA2_PAIR@@@std@@@std@@@std@@YAXPAPAUFORMULA2_PAIR@@0AAU?$_Wrap_alloc@V?$allocator@PAUFORMULA2_PAIR@@@std@@@0@@Z 00449d10 f i test.obj
 0002:00009d90       ??$_Destroy_range@U?$_Wrap_alloc@V?$allocator@PAUFORMULA_PAIR@@@std@@@std@@@std@@YAXPAPAUFORMULA_PAIR@@0AAU?$_Wrap_alloc@V?$allocator@PAUFORMULA_PAIR@@@std@@@0@@Z 00449d90 f i test.obj
 0002:00009e10       ??$_Destroy_range@U?$_Wrap_alloc@V?$allocator@V?$basic_string@DU?$char_traits@D@std@@V?$allocator@D@2@@std@@@std@@@std@@@std@@YAXPAV?$basic_string@DU?$char_traits@D@std@@V?$allocator@D@2@@0@0AAU?$_Wrap_alloc@V?$allocator@V?$basic_string@DU?$char_traits@D@std@@V?$allocator@D@2@@std@@@std@@@0@@Z 00449e10 f i test.obj
 0002:00009e90       ??$_Is_checked@V?$_Deque_iterator@V?$_Deque_val@U?$_Deque_simple_types@UFORMULA2_PAIR@@@std@@@std@@@std@@@std@@YA?AU?$integral_constant@_N$00@0@V?$_Deque_iterator@V?$_Deque_val@U?$_Deque_simple_types@UFORMULA2_PAIR@@@std@@@std@@@0@@Z 00449e90 f i test.obj
 0002:00009f40       ??$_Is_checked@V?$_Deque_iterator@V?$_Deque_val@U?$_Deque_simple_types@UFORMULA_PAIR@@@std@@@std@@@std@@@std@@YA?AU?$integral_constant@_N$00@0@V?$_Deque_iterator@V?$_Deque_val@U?$_Deque_simple_types@UFORMULA_PAIR@@@std@@@std@@@0@@Z 00449f40 f i test.obj
 0002:00009ff0       ??$_Iter_cat@V?$_Deque_const_iterator@V?$_Deque_val@U?$_Deque_simple_types@UFORMULA2_PAIR@@@std@@@std@@@std@@@std@@YA?AUrandom_access_iterator_tag@0@ABV?$_Deque_const_iterator@V?$_Deque_val@U?$_Deque_simple_types@UFORMULA2_PAIR@@@std@@@std@@@0@@Z 00449ff0 f i test.obj
 0002:0000a030       ??$_Iter_cat@V?$_Deque_const_iterator@V?$_Deque_val@U?$_Deque_simple_types@UFORMULA_PAIR@@@std@@@std@@@std@@@std@@YA?AUrandom_access_iterator_tag@0@ABV?$_Deque_const_iterator@V?$_Deque_val@U?$_Deque_simple_types@UFORMULA_PAIR@@@std@@@std@@@0@@Z 0044a030 f i test.obj
 0002:0000a070       ??$_Iter_cat@V?$_Deque_iterator@V?$_Deque_val@U?$_Deque_simple_types@UFORMULA2_PAIR@@@std@@@std@@@std@@@std@@YA?AUrandom_access_iterator_tag@0@ABV?$_Deque_iterator@V?$_Deque_val@U?$_Deque_simple_types@UFORMULA2_PAIR@@@std@@@std@@@0@@Z 0044a070 f i test.obj
 0002:0000a0b0       ??$_Iter_cat@V?$_Deque_iterator@V?$_Deque_val@U?$_Deque_simple_types@UFORMULA_PAIR@@@std@@@std@@@std@@@std@@YA?AUrandom_access_iterator_tag@0@ABV?$_Deque_iterator@V?$_Deque_val@U?$_Deque_simple_types@UFORMULA_PAIR@@@std@@@std@@@0@@Z 0044a0b0 f i test.obj
 0002:0000a0f0       ??$_Iter_cat@V?$_Deque_unchecked_iterator@V?$_Deque_val@U?$_Deque_simple_types@UFORMULA2_PAIR@@@std@@@std@@@std@@@std@@YA?AUrandom_access_iterator_tag@0@ABV?$_Deque_unchecked_iterator@V?$_Deque_val@U?$_Deque_simple_types@UFORMULA2_PAIR@@@std@@@std@@@0@@Z 0044a0f0 f i test.obj
 0002:0000a130       ??$_Iter_cat@V?$_Deque_unchecked_iterator@V?$_Deque_val@U?$_Deque_simple_types@UFORMULA_PAIR@@@std@@@std@@@std@@@std@@YA?AUrandom_access_iterator_tag@0@ABV?$_Deque_unchecked_iterator@V?$_Deque_val@U?$_Deque_simple_types@UFORMULA_PAIR@@@std@@@std@@@0@@Z 0044a130 f i test.obj
 0002:0000a170       ??$_Move_backward1@V?$_Deque_unchecked_iterator@V?$_Deque_val@U?$_Deque_simple_types@UFORMULA2_PAIR@@@std@@@std@@@std@@V?$_Deque_iterator@V?$_Deque_val@U?$_Deque_simple_types@UFORMULA2_PAIR@@@std@@@std@@@2@@std@@YA?AV?$_Deque_iterator@V?$_Deque_val@U?$_Deque_simple_types@UFORMULA2_PAIR@@@std@@@std@@@0@V?$_Deque_unchecked_iterator@V?$_Deque_val@U?$_Deque_simple_types@UFORMULA2_PAIR@@@std@@@std@@@0@0V10@Urandom_access_iterator_tag@0@2@Z 0044a170 f i test.obj
 0002:0000a300       ??$_Move_backward1@V?$_Deque_unchecked_iterator@V?$_Deque_val@U?$_Deque_simple_types@UFORMULA_PAIR@@@std@@@std@@@std@@V?$_Deque_iterator@V?$_Deque_val@U?$_Deque_simple_types@UFORMULA_PAIR@@@std@@@std@@@2@@std@@YA?AV?$_Deque_iterator@V?$_Deque_val@U?$_Deque_simple_types@UFORMULA_PAIR@@@std@@@std@@@0@V?$_Deque_unchecked_iterator@V?$_Deque_val@U?$_Deque_simple_types@UFORMULA_PAIR@@@std@@@std@@@0@0V10@Urandom_access_iterator_tag@0@2@Z 0044a300 f i test.obj
 0002:0000a490       ??$_Move_backward_unchecked1@V?$_Deque_unchecked_iterator@V?$_Deque_val@U?$_Deque_simple_types@UFORMULA2_PAIR@@@std@@@std@@@std@@V12@@std@@YA?AV?$_Deque_unchecked_iterator@V?$_Deque_val@U?$_Deque_simple_types@UFORMULA2_PAIR@@@std@@@std@@@0@V10@00U_General_ptr_iterator_tag@0@@Z 0044a490 f i test.obj
 0002:0000a540       ??$_Move_backward_unchecked1@V?$_Deque_unchecked_iterator@V?$_Deque_val@U?$_Deque_simple_types@UFORMULA_PAIR@@@std@@@std@@@std@@V12@@std@@YA?AV?$_Deque_unchecked_iterator@V?$_Deque_val@U?$_Deque_simple_types@UFORMULA_PAIR@@@std@@@std@@@0@V10@00U_General_ptr_iterator_tag@0@@Z 0044a540 f i test.obj
 0002:0000a5f0       ??$_Move_backward_unchecked@V?$_Deque_unchecked_iterator@V?$_Deque_val@U?$_Deque_simple_types@UFORMULA2_PAIR@@@std@@@std@@@std@@V12@@std@@YA?AV?$_Deque_unchecked_iterator@V?$_Deque_val@U?$_Deque_simple_types@UFORMULA2_PAIR@@@std@@@std@@@0@V10@00@Z 0044a5f0 f i test.obj
 0002:0000a690       ??$_Move_backward_unchecked@V?$_Deque_unchecked_iterator@V?$_Deque_val@U?$_Deque_simple_types@UFORMULA_PAIR@@@std@@@std@@@std@@V12@@std@@YA?AV?$_Deque_unchecked_iterator@V?$_Deque_val@U?$_Deque_simple_types@UFORMULA_PAIR@@@std@@@std@@@0@V10@00@Z 0044a690 f i test.obj
 0002:0000a730       ??$_Move_no_deprecate1@V?$_Deque_unchecked_iterator@V?$_Deque_val@U?$_Deque_simple_types@UFORMULA2_PAIR@@@std@@@std@@@std@@V?$_Deque_iterator@V?$_Deque_val@U?$_Deque_simple_types@UFORMULA2_PAIR@@@std@@@std@@@2@@std@@YA?AV?$_Deque_iterator@V?$_Deque_val@U?$_Deque_simple_types@UFORMULA2_PAIR@@@std@@@std@@@0@V?$_Deque_unchecked_iterator@V?$_Deque_val@U?$_Deque_simple_types@UFORMULA2_PAIR@@@std@@@std@@@0@0V10@Urandom_access_iterator_tag@0@2@Z 0044a730 f i test.obj
 0002:0000a8c0       ??$_Move_no_deprecate1@V?$_Deque_unchecked_iterator@V?$_Deque_val@U?$_Deque_simple_types@UFORMULA_PAIR@@@std@@@std@@@std@@V?$_Deque_iterator@V?$_Deque_val@U?$_Deque_simple_types@UFORMULA_PAIR@@@std@@@std@@@2@@std@@YA?AV?$_Deque_iterator@V?$_Deque_val@U?$_Deque_simple_types@UFORMULA_PAIR@@@std@@@std@@@0@V?$_Deque_unchecked_iterator@V?$_Deque_val@U?$_Deque_simple_types@UFORMULA_PAIR@@@std@@@std@@@0@0V10@Urandom_access_iterator_tag@0@2@Z 0044a8c0 f i test.obj
 0002:0000aa50       ??$_Move_no_deprecate@V?$_Deque_iterator@V?$_Deque_val@U?$_Deque_simple_types@UFORMULA2_PAIR@@@std@@@std@@@std@@V12@@std@@YA?AV?$_Deque_iterator@V?$_Deque_val@U?$_Deque_simple_types@UFORMULA2_PAIR@@@std@@@std@@@0@V10@00@Z 0044aa50 f i test.obj
 0002:0000ad00       ??$_Move_no_deprecate@V?$_Deque_iterator@V?$_Deque_val@U?$_Deque_simple_types@UFORMULA_PAIR@@@std@@@std@@@std@@V12@@std@@YA?AV?$_Deque_iterator@V?$_Deque_val@U?$_Deque_simple_types@UFORMULA_PAIR@@@std@@@std@@@0@V10@00@Z 0044ad00 f i test.obj
 0002:0000afb0       ??$_Move_unchecked1@V?$_Deque_unchecked_iterator@V?$_Deque_val@U?$_Deque_simple_types@UFORMULA2_PAIR@@@std@@@std@@@std@@V12@@std@@YA?AV?$_Deque_unchecked_iterator@V?$_Deque_val@U?$_Deque_simple_types@UFORMULA2_PAIR@@@std@@@std@@@0@V10@00U_General_ptr_iterator_tag@0@@Z 0044afb0 f i test.obj
 0002:0000b060       ??$_Move_unchecked1@V?$_Deque_unchecked_iterator@V?$_Deque_val@U?$_Deque_simple_types@UFORMULA_PAIR@@@std@@@std@@@std@@V12@@std@@YA?AV?$_Deque_unchecked_iterator@V?$_Deque_val@U?$_Deque_simple_types@UFORMULA_PAIR@@@std@@@std@@@0@V10@00U_General_ptr_iterator_tag@0@@Z 0044b060 f i test.obj
 0002:0000b110       ??$_Move_unchecked@V?$_Deque_unchecked_iterator@V?$_Deque_val@U?$_Deque_simple_types@UFORMULA2_PAIR@@@std@@@std@@@std@@V12@@std@@YA?AV?$_Deque_unchecked_iterator@V?$_Deque_val@U?$_Deque_simple_types@UFORMULA2_PAIR@@@std@@@std@@@0@V10@00@Z 0044b110 f i test.obj
 0002:0000b1b0       ??$_Move_unchecked@V?$_Deque_unchecked_iterator@V?$_Deque_val@U?$_Deque_simple_types@UFORMULA_PAIR@@@std@@@std@@@std@@V12@@std@@YA?AV?$_Deque_unchecked_iterator@V?$_Deque_val@U?$_Deque_simple_types@UFORMULA_PAIR@@@std@@@std@@@0@V10@00@Z 0044b1b0 f i test.obj
 0002:0000b250       ??$_Pocca@U?$_Wrap_alloc@V?$allocator@UFORMULA2_PAIR@@@std@@@std@@@std@@YAXAAU?$_Wrap_alloc@V?$allocator@UFORMULA2_PAIR@@@std@@@0@ABU10@@Z 0044b250 f i test.obj
 0002:0000b2e0       ??$_Pocca@U?$_Wrap_alloc@V?$allocator@UFORMULA2_PAIR@@@std@@@std@@@std@@YAXAAU?$_Wrap_alloc@V?$allocator@UFORMULA2_PAIR@@@std@@@0@ABU10@U?$integral_constant@_N$0A@@0@@Z 0044b2e0 f i test.obj
 0002:0000b310       ??$_Pocca@U?$_Wrap_alloc@V?$allocator@UFORMULA_PAIR@@@std@@@std@@@std@@YAXAAU?$_Wrap_alloc@V?$allocator@UFORMULA_PAIR@@@std@@@0@ABU10@@Z 0044b310 f i test.obj
 0002:0000b3a0       ??$_Pocca@U?$_Wrap_alloc@V?$allocator@UFORMULA_PAIR@@@std@@@std@@@std@@YAXAAU?$_Wrap_alloc@V?$allocator@UFORMULA_PAIR@@@std@@@0@ABU10@U?$integral_constant@_N$0A@@0@@Z 0044b3a0 f i test.obj
 0002:0000b3d0       ??$_Ptr_copy_cat@PAUFORMULA2_PAIR@@PAU1@@std@@YA?AU_Really_trivial_ptr_iterator_tag@0@ABQAPAUFORMULA2_PAIR@@0@Z 0044b3d0 f i test.obj
 0002:0000b410       ??$_Ptr_copy_cat@PAUFORMULA_PAIR@@PAU1@@std@@YA?AU_Really_trivial_ptr_iterator_tag@0@ABQAPAUFORMULA_PAIR@@0@Z 0044b410 f i test.obj
 0002:0000b450       ??$_Ptr_copy_cat@V?$_Deque_unchecked_const_iterator@V?$_Deque_val@U?$_Deque_simple_types@UFORMULA2_PAIR@@@std@@@std@@@std@@V?$_Deque_unchecked_iterator@V?$_Deque_val@U?$_Deque_simple_types@UFORMULA2_PAIR@@@std@@@std@@@2@@std@@YA?AU_General_ptr_iterator_tag@0@ABV?$_Deque_unchecked_const_iterator@V?$_Deque_val@U?$_Deque_simple_types@UFORMULA2_PAIR@@@std@@@std@@@0@ABV?$_Deque_unchecked_iterator@V?$_Deque_val@U?$_Deque_simple_types@UFORMULA2_PAIR@@@std@@@std@@@0@@Z 0044b450 f i test.obj
 0002:0000b490       ??$_Ptr_copy_cat@V?$_Deque_unchecked_const_iterator@V?$_Deque_val@U?$_Deque_simple_types@UFORMULA_PAIR@@@std@@@std@@@std@@V?$_Deque_unchecked_iterator@V?$_Deque_val@U?$_Deque_simple_types@UFORMULA_PAIR@@@std@@@std@@@2@@std@@YA?AU_General_ptr_iterator_tag@0@ABV?$_Deque_unchecked_const_iterator@V?$_Deque_val@U?$_Deque_simple_types@UFORMULA_PAIR@@@std@@@std@@@0@ABV?$_Deque_unchecked_iterator@V?$_Deque_val@U?$_Deque_simple_types@UFORMULA_PAIR@@@std@@@std@@@0@@Z 0044b490 f i test.obj
 0002:0000b4d0       ??$_Ptr_move_cat@V?$_Deque_unchecked_iterator@V?$_Deque_val@U?$_Deque_simple_types@UFORMULA2_PAIR@@@std@@@std@@@std@@V12@@std@@YA?AU_General_ptr_iterator_tag@0@ABV?$_Deque_unchecked_iterator@V?$_Deque_val@U?$_Deque_simple_types@UFORMULA2_PAIR@@@std@@@std@@@0@0@Z 0044b4d0 f i test.obj
 0002:0000b510       ??$_Ptr_move_cat@V?$_Deque_unchecked_iterator@V?$_Deque_val@U?$_Deque_simple_types@UFORMULA_PAIR@@@std@@@std@@@std@@V12@@std@@YA?AU_General_ptr_iterator_tag@0@ABV?$_Deque_unchecked_iterator@V?$_Deque_val@U?$_Deque_simple_types@UFORMULA_PAIR@@@std@@@std@@@0@0@Z 0044b510 f i test.obj
 0002:0000b550       ??$_Ptr_move_cat@V?$basic_string@DU?$char_traits@D@std@@V?$allocator@D@2@@std@@V12@@std@@YA?AU_General_ptr_iterator_tag@0@ABQAV?$basic_string@DU?$char_traits@D@std@@V?$allocator@D@2@@0@0@Z 0044b550 f i test.obj
 0002:0000b590       ??$_Rechecked@PAPAUFORMULA2_PAIR@@PAPAU1@@std@@YAAAPAPAUFORMULA2_PAIR@@AAPAPAU1@PAPAU1@@Z 0044b590 f i test.obj
 0002:0000b5d0       ??$_Rechecked@PAPAUFORMULA_PAIR@@PAPAU1@@std@@YAAAPAPAUFORMULA_PAIR@@AAPAPAU1@PAPAU1@@Z 0044b5d0 f i test.obj
 0002:0000b610       ??$_Rechecked@PAV?$basic_string@DU?$char_traits@D@std@@V?$allocator@D@2@@std@@PAV12@@std@@YAAAPAV?$basic_string@DU?$char_traits@D@std@@V?$allocator@D@2@@0@AAPAV10@PAV10@@Z 0044b610 f i test.obj
 0002:0000b650       ??$_Rechecked@V?$_Deque_val@U?$_Deque_simple_types@UFORMULA2_PAIR@@@std@@@std@@@std@@YAAAV?$_Deque_iterator@V?$_Deque_val@U?$_Deque_simple_types@UFORMULA2_PAIR@@@std@@@std@@@0@AAV10@V?$_Deque_unchecked_iterator@V?$_Deque_val@U?$_Deque_simple_types@UFORMULA2_PAIR@@@std@@@std@@@0@@Z 0044b650 f i test.obj
 0002:0000b6b0       ??$_Rechecked@V?$_Deque_val@U?$_Deque_simple_types@UFORMULA_PAIR@@@std@@@std@@@std@@YAAAV?$_Deque_iterator@V?$_Deque_val@U?$_Deque_simple_types@UFORMULA_PAIR@@@std@@@std@@@0@AAV10@V?$_Deque_unchecked_iterator@V?$_Deque_val@U?$_Deque_simple_types@UFORMULA_PAIR@@@std@@@std@@@0@@Z 0044b6b0 f i test.obj
 0002:0000b710       ??$_Reverse@V?$_Deque_unchecked_iterator@V?$_Deque_val@U?$_Deque_simple_types@UFORMULA2_PAIR@@@std@@@std@@@std@@@std@@YAXV?$_Deque_unchecked_iterator@V?$_Deque_val@U?$_Deque_simple_types@UFORMULA2_PAIR@@@std@@@std@@@0@0Ubidirectional_iterator_tag@0@@Z 0044b710 f i test.obj
 0002:0000b7c0       ??$_Reverse@V?$_Deque_unchecked_iterator@V?$_Deque_val@U?$_Deque_simple_types@UFORMULA_PAIR@@@std@@@std@@@std@@@std@@YAXV?$_Deque_unchecked_iterator@V?$_Deque_val@U?$_Deque_simple_types@UFORMULA_PAIR@@@std@@@std@@@0@0Ubidirectional_iterator_tag@0@@Z 0044b7c0 f i test.obj
 0002:0000b870       ??$_Rotate@V?$_Deque_unchecked_iterator@V?$_Deque_val@U?$_Deque_simple_types@UFORMULA2_PAIR@@@std@@@std@@@std@@@std@@YA?AV?$_Deque_unchecked_iterator@V?$_Deque_val@U?$_Deque_simple_types@UFORMULA2_PAIR@@@std@@@std@@@0@V10@00Urandom_access_iterator_tag@0@@Z 0044b870 f i test.obj
 0002:0000b930       ??$_Rotate@V?$_Deque_unchecked_iterator@V?$_Deque_val@U?$_Deque_simple_types@UFORMULA_PAIR@@@std@@@std@@@std@@@std@@YA?AV?$_Deque_unchecked_iterator@V?$_Deque_val@U?$_Deque_simple_types@UFORMULA_PAIR@@@std@@@std@@@0@V10@00Urandom_access_iterator_tag@0@@Z 0044b930 f i test.obj
 0002:0000b9f0       ??$_Umove@PAV?$basic_string@DU?$char_traits@D@std@@V?$allocator@D@2@@std@@@?$vector@V?$basic_string@DU?$char_traits@D@std@@V?$allocator@D@2@@std@@V?$allocator@V?$basic_string@DU?$char_traits@D@std@@V?$allocator@D@2@@std@@@2@@std@@IAEPAV?$basic_string@DU?$char_traits@D@std@@V?$allocator@D@2@@1@PAV21@00@Z 0044b9f0 f i test.obj
 0002:0000ba60       ??$_Unchecked@PAPAUFORMULA2_PAIR@@@std@@YAPAPAUFORMULA2_PAIR@@PAPAU1@@Z 0044ba60 f i test.obj
 0002:0000baa0       ??$_Unchecked@PAPAUFORMULA_PAIR@@@std@@YAPAPAUFORMULA_PAIR@@PAPAU1@@Z 0044baa0 f i test.obj
 0002:0000bae0       ??$_Unchecked@PAV?$basic_string@DU?$char_traits@D@std@@V?$allocator@D@2@@std@@@std@@YAPAV?$basic_string@DU?$char_traits@D@std@@V?$allocator@D@2@@0@PAV10@@Z 0044bae0 f i test.obj
 0002:0000bb20       ??$_Unchecked@V?$_Deque_unchecked_iterator@V?$_Deque_val@U?$_Deque_simple_types@UFORMULA2_PAIR@@@std@@@std@@@std@@@std@@YA?AV?$_Deque_unchecked_iterator@V?$_Deque_val@U?$_Deque_simple_types@UFORMULA2_PAIR@@@std@@@std@@@0@V10@@Z 0044bb20 f i test.obj
 0002:0000bb70       ??$_Unchecked@V?$_Deque_unchecked_iterator@V?$_Deque_val@U?$_Deque_simple_types@UFORMULA_PAIR@@@std@@@std@@@std@@@std@@YA?AV?$_Deque_unchecked_iterator@V?$_Deque_val@U?$_Deque_simple_types@UFORMULA_PAIR@@@std@@@std@@@0@V10@@Z 0044bb70 f i test.obj
 0002:0000bbc0       ??$_Unchecked@V?$_Deque_val@U?$_Deque_simple_types@UFORMULA2_PAIR@@@std@@@std@@@std@@YA?AV?$_Deque_unchecked_const_iterator@V?$_Deque_val@U?$_Deque_simple_types@UFORMULA2_PAIR@@@std@@@std@@@0@V?$_Deque_const_iterator@V?$_Deque_val@U?$_Deque_simple_types@UFORMULA2_PAIR@@@std@@@std@@@0@@Z 0044bbc0 f i test.obj
 0002:0000bc70       ??$_Unchecked@V?$_Deque_val@U?$_Deque_simple_types@UFORMULA2_PAIR@@@std@@@std@@@std@@YA?AV?$_Deque_unchecked_iterator@V?$_Deque_val@U?$_Deque_simple_types@UFORMULA2_PAIR@@@std@@@std@@@0@V?$_Deque_iterator@V?$_Deque_val@U?$_Deque_simple_types@UFORMULA2_PAIR@@@std@@@std@@@0@@Z 0044bc70 f i test.obj
 0002:0000bd20       ??$_Unchecked@V?$_Deque_val@U?$_Deque_simple_types@UFORMULA_PAIR@@@std@@@std@@@std@@YA?AV?$_Deque_unchecked_const_iterator@V?$_Deque_val@U?$_Deque_simple_types@UFORMULA_PAIR@@@std@@@std@@@0@V?$_Deque_const_iterator@V?$_Deque_val@U?$_Deque_simple_types@UFORMULA_PAIR@@@std@@@std@@@0@@Z 0044bd20 f i test.obj
 0002:0000bdd0       ??$_Unchecked@V?$_Deque_val@U?$_Deque_simple_types@UFORMULA_PAIR@@@std@@@std@@@std@@YA?AV?$_Deque_unchecked_iterator@V?$_Deque_val@U?$_Deque_simple_types@UFORMULA_PAIR@@@std@@@std@@@0@V?$_Deque_iterator@V?$_Deque_val@U?$_Deque_simple_types@UFORMULA_PAIR@@@std@@@std@@@0@@Z 0044bdd0 f i test.obj
 0002:0000be80       ??$_Uninitialized_copy@PAPAUFORMULA2_PAIR@@PAPAU1@U?$_Wrap_alloc@V?$allocator@PAUFORMULA2_PAIR@@@std@@@std@@@std@@YAPAPAUFORMULA2_PAIR@@PAPAU1@00AAU?$_Wrap_alloc@V?$allocator@PAUFORMULA2_PAIR@@@std@@@0@@Z 0044be80 f i test.obj
 0002:0000bf20       ??$_Uninitialized_copy@PAPAUFORMULA_PAIR@@PAPAU1@U?$_Wrap_alloc@V?$allocator@PAUFORMULA_PAIR@@@std@@@std@@@std@@YAPAPAUFORMULA_PAIR@@PAPAU1@00AAU?$_Wrap_alloc@V?$allocator@PAUFORMULA_PAIR@@@std@@@0@@Z 0044bf20 f i test.obj
 0002:0000bfc0       ??$_Uninitialized_copy_al_unchecked1@PAUFORMULA2_PAIR@@PAU1@@std@@YAPAPAUFORMULA2_PAIR@@PAPAU1@00AAU?$_Wrap_alloc@V?$allocator@PAUFORMULA2_PAIR@@@std@@@0@U_Really_trivial_ptr_iterator_tag@0@@Z 0044bfc0 f i test.obj
 0002:0000c020       ??$_Uninitialized_copy_al_unchecked1@PAUFORMULA_PAIR@@PAU1@@std@@YAPAPAUFORMULA_PAIR@@PAPAU1@00AAU?$_Wrap_alloc@V?$allocator@PAUFORMULA_PAIR@@@std@@@0@U_Really_trivial_ptr_iterator_tag@0@@Z 0044c020 f i test.obj
 0002:0000c080       ??$_Uninitialized_copy_al_unchecked@PAPAUFORMULA2_PAIR@@PAPAU1@U?$_Wrap_alloc@V?$allocator@PAUFORMULA2_PAIR@@@std@@@std@@@std@@YAPAPAUFORMULA2_PAIR@@PAPAU1@00AAU?$_Wrap_alloc@V?$allocator@PAUFORMULA2_PAIR@@@std@@@0@@Z 0044c080 f i test.obj
 0002:0000c100       ??$_Uninitialized_copy_al_unchecked@PAPAUFORMULA_PAIR@@PAPAU1@U?$_Wrap_alloc@V?$allocator@PAUFORMULA_PAIR@@@std@@@std@@@std@@YAPAPAUFORMULA_PAIR@@PAPAU1@00AAU?$_Wrap_alloc@V?$allocator@PAUFORMULA_PAIR@@@std@@@0@@Z 0044c100 f i test.obj
 0002:0000c180       ??$_Uninitialized_default_fill_n1@PAPAUFORMULA2_PAIR@@I@std@@YAXPAPAUFORMULA2_PAIR@@IAAU?$_Wrap_alloc@V?$allocator@PAUFORMULA2_PAIR@@@std@@@0@U?$integral_constant@_N$00@0@@Z 0044c180 f i test.obj
 0002:0000c1e0       ??$_Uninitialized_default_fill_n1@PAPAUFORMULA_PAIR@@I@std@@YAXPAPAUFORMULA_PAIR@@IAAU?$_Wrap_alloc@V?$allocator@PAUFORMULA_PAIR@@@std@@@0@U?$integral_constant@_N$00@0@@Z 0044c1e0 f i test.obj
 0002:0000c240       ??$_Uninitialized_default_fill_n@PAPAUFORMULA2_PAIR@@IU?$_Wrap_alloc@V?$allocator@PAUFORMULA2_PAIR@@@std@@@std@@@std@@YAXPAPAUFORMULA2_PAIR@@IAAU?$_Wrap_alloc@V?$allocator@PAUFORMULA2_PAIR@@@std@@@0@@Z 0044c240 f i test.obj
 0002:0000c2b0       ??$_Uninitialized_default_fill_n@PAPAUFORMULA_PAIR@@IU?$_Wrap_alloc@V?$allocator@PAUFORMULA_PAIR@@@std@@@std@@@std@@YAXPAPAUFORMULA_PAIR@@IAAU?$_Wrap_alloc@V?$allocator@PAUFORMULA_PAIR@@@std@@@0@@Z 0044c2b0 f i test.obj
 0002:0000c320       ??$_Uninitialized_move@PAV?$basic_string@DU?$char_traits@D@std@@V?$allocator@D@2@@std@@PAV12@U?$_Wrap_alloc@V?$allocator@V?$basic_string@DU?$char_traits@D@std@@V?$allocator@D@2@@std@@@std@@@2@@std@@YAPAV?$basic_string@DU?$char_traits@D@std@@V?$allocator@D@2@@0@PAV10@00AAU?$_Wrap_alloc@V?$allocator@V?$basic_string@DU?$char_traits@D@std@@V?$allocator@D@2@@std@@@std@@@0@@Z 0044c320 f i test.obj
 0002:0000c3c0       ??$_Uninitialized_move_al_unchecked1@PAV?$basic_string@DU?$char_traits@D@std@@V?$allocator@D@2@@std@@PAV12@V?$allocator@V?$basic_string@DU?$char_traits@D@std@@V?$allocator@D@2@@std@@@2@@std@@YAPAV?$basic_string@DU?$char_traits@D@std@@V?$allocator@D@2@@0@PAV10@00AAU?$_Wrap_alloc@V?$allocator@V?$basic_string@DU?$char_traits@D@std@@V?$allocator@D@2@@std@@@std@@@0@U_General_ptr_iterator_tag@0@@Z 0044c3c0 f i test.obj
 0002:0000c4f0       ??$_Uninitialized_move_al_unchecked@PAV?$basic_string@DU?$char_traits@D@std@@V?$allocator@D@2@@std@@PAV12@U?$_Wrap_alloc@V?$allocator@V?$basic_string@DU?$char_traits@D@std@@V?$allocator@D@2@@std@@@std@@@2@@std@@YAPAV?$basic_string@DU?$char_traits@D@std@@V?$allocator@D@2@@0@PAV10@00AAU?$_Wrap_alloc@V?$allocator@V?$basic_string@DU?$char_traits@D@std@@V?$allocator@D@2@@std@@@std@@@0@@Z 0044c4f0 f i test.obj
 0002:0000c580       ??$__vcrt_va_start_verify_argument_type@QBD@@YAXXZ 0044c580 f i test.obj
 0002:0000c5b0       ??$__vcrt_va_start_verify_argument_type@QB_W@@YAXXZ 0044c5b0 f i test.obj
 0002:0000c5e0       ??$addressof@D@std@@YAPADAAD@Z 0044c5e0 f i test.obj
 0002:0000c640       ??$addressof@PAUFORMULA2_PAIR@@@std@@YAPAPAUFORMULA2_PAIR@@AAPAU1@@Z 0044c640 f i test.obj
 0002:0000c6a0       ??$addressof@PAUFORMULA_PAIR@@@std@@YAPAPAUFORMULA_PAIR@@AAPAU1@@Z 0044c6a0 f i test.obj
 0002:0000c700       ??$addressof@V?$basic_string@DU?$char_traits@D@std@@V?$allocator@D@2@@std@@@std@@YAPAV?$basic_string@DU?$char_traits@D@std@@V?$allocator@D@2@@0@AAV10@@Z 0044c700 f i test.obj
 0002:0000c760       ??$construct@PADAAPAD@?$_Wrap_alloc@V?$allocator@D@std@@@std@@QAEXPAPADAAPAD@Z 0044c760 f i test.obj
 0002:0000c7d0       ??$construct@PADAAPAD@?$allocator@D@std@@QAEXPAPADAAPAD@Z 0044c7d0 f i test.obj
 0002:0000c880       ??$construct@PADAAPAD@?$allocator_traits@V?$allocator@D@std@@@std@@SAXAAV?$allocator@D@1@PAPADAAPAD@Z 0044c880 f i test.obj
 0002:0000c8e0       ??$construct@UFORMULA2_PAIR@@ABU1@@?$_Wrap_alloc@V?$allocator@UFORMULA2_PAIR@@@std@@@std@@QAEXPAUFORMULA2_PAIR@@ABU2@@Z 0044c8e0 f i test.obj
 0002:0000c950       ??$construct@UFORMULA2_PAIR@@ABU1@@?$allocator@UFORMULA2_PAIR@@@std@@QAEXPAUFORMULA2_PAIR@@ABU2@@Z 0044c950 f i test.obj
 0002:0000ca00       ??$construct@UFORMULA2_PAIR@@ABU1@@?$allocator_traits@V?$allocator@UFORMULA2_PAIR@@@std@@@std@@SAXAAV?$allocator@UFORMULA2_PAIR@@@1@PAUFORMULA2_PAIR@@ABU3@@Z 0044ca00 f i test.obj
 0002:0000ca60       ??$construct@UFORMULA_PAIR@@ABU1@@?$_Wrap_alloc@V?$allocator@UFORMULA_PAIR@@@std@@@std@@QAEXPAUFORMULA_PAIR@@ABU2@@Z 0044ca60 f i test.obj
 0002:0000cad0       ??$construct@UFORMULA_PAIR@@ABU1@@?$allocator@UFORMULA_PAIR@@@std@@QAEXPAUFORMULA_PAIR@@ABU2@@Z 0044cad0 f i test.obj
 0002:0000cb80       ??$construct@UFORMULA_PAIR@@ABU1@@?$allocator_traits@V?$allocator@UFORMULA_PAIR@@@std@@@std@@SAXAAV?$allocator@UFORMULA_PAIR@@@1@PAUFORMULA_PAIR@@ABU3@@Z 0044cb80 f i test.obj
 0002:0000cbe0       ??$construct@U_Container_proxy@std@@U12@@?$_Wrap_alloc@V?$allocator@U_Container_proxy@std@@@std@@@std@@QAEXPAU_Container_proxy@1@$$QAU21@@Z 0044cbe0 f i test.obj
 0002:0000cc50       ??$construct@U_Container_proxy@std@@U12@@?$allocator@U_Container_proxy@std@@@std@@QAEXPAU_Container_proxy@1@$$QAU21@@Z 0044cc50 f i test.obj
 0002:0000cd00       ??$construct@U_Container_proxy@std@@U12@@?$allocator_traits@V?$allocator@U_Container_proxy@std@@@std@@@std@@SAXAAV?$allocator@U_Container_proxy@std@@@1@PAU_Container_proxy@1@$$QAU31@@Z 0044cd00 f i test.obj
 0002:0000cd60       ??$construct@V?$basic_string@DU?$char_traits@D@std@@V?$allocator@D@2@@std@@V12@@?$_Wrap_alloc@V?$allocator@V?$basic_string@DU?$char_traits@D@std@@V?$allocator@D@2@@std@@@std@@@std@@QAEXPAV?$basic_string@DU?$char_traits@D@std@@V?$allocator@D@2@@1@$$QAV21@@Z 0044cd60 f i test.obj
 0002:0000cdd0       ??$construct@V?$basic_string@DU?$char_traits@D@std@@V?$allocator@D@2@@std@@V12@@?$allocator@V?$basic_string@DU?$char_traits@D@std@@V?$allocator@D@2@@std@@@std@@QAEXPAV?$basic_string@DU?$char_traits@D@std@@V?$allocator@D@2@@1@$$QAV21@@Z 0044cdd0 f i test.obj
 0002:0000ce70       ??$construct@V?$basic_string@DU?$char_traits@D@std@@V?$allocator@D@2@@std@@V12@@?$allocator_traits@V?$allocator@V?$basic_string@DU?$char_traits@D@std@@V?$allocator@D@2@@std@@@std@@@std@@SAXAAV?$allocator@V?$basic_string@DU?$char_traits@D@std@@V?$allocator@D@2@@std@@@1@PAV?$basic_string@DU?$char_traits@D@std@@V?$allocator@D@2@@1@$$QAV31@@Z 0044ce70 f i test.obj
 0002:0000ced0       ??$copy@V?$_Deque_const_iterator@V?$_Deque_val@U?$_Deque_simple_types@UFORMULA2_PAIR@@@std@@@std@@@std@@V?$_Deque_iterator@V?$_Deque_val@U?$_Deque_simple_types@UFORMULA2_PAIR@@@std@@@std@@@2@@std@@YA?AV?$_Deque_iterator@V?$_Deque_val@U?$_Deque_simple_types@UFORMULA2_PAIR@@@std@@@std@@@0@V?$_Deque_const_iterator@V?$_Deque_val@U?$_Deque_simple_types@UFORMULA2_PAIR@@@std@@@std@@@0@0V10@@Z 0044ced0 f i test.obj
 0002:0000d0d0       ??$copy@V?$_Deque_const_iterator@V?$_Deque_val@U?$_Deque_simple_types@UFORMULA_PAIR@@@std@@@std@@@std@@V?$_Deque_iterator@V?$_Deque_val@U?$_Deque_simple_types@UFORMULA_PAIR@@@std@@@std@@@2@@std@@YA?AV?$_Deque_iterator@V?$_Deque_val@U?$_Deque_simple_types@UFORMULA_PAIR@@@std@@@std@@@0@V?$_Deque_const_iterator@V?$_Deque_val@U?$_Deque_simple_types@UFORMULA_PAIR@@@std@@@std@@@0@0V10@@Z 0044d0d0 f i test.obj
 0002:0000d2d0       ??$destroy@PAD@?$_Wrap_alloc@V?$allocator@D@std@@@std@@QAEXPAPAD@Z 0044d2d0 f i test.obj
 0002:0000d330       ??$destroy@PAD@?$allocator@D@std@@QAEXPAPAD@Z 0044d330 f i test.obj
 0002:0000d370       ??$destroy@PAD@?$allocator_traits@V?$allocator@D@std@@@std@@SAXAAV?$allocator@D@1@PAPAD@Z 0044d370 f i test.obj
 0002:0000d3c0       ??$destroy@PAUFORMULA2_PAIR@@@?$_Wrap_alloc@V?$allocator@PAUFORMULA2_PAIR@@@std@@@std@@QAEXPAPAUFORMULA2_PAIR@@@Z 0044d3c0 f i test.obj
 0002:0000d420       ??$destroy@PAUFORMULA2_PAIR@@@?$_Wrap_alloc@V?$allocator@UFORMULA2_PAIR@@@std@@@std@@QAEXPAPAUFORMULA2_PAIR@@@Z 0044d420 f i test.obj
 0002:0000d480       ??$destroy@PAUFORMULA2_PAIR@@@?$allocator@PAUFORMULA2_PAIR@@@std@@QAEXPAPAUFORMULA2_PAIR@@@Z 0044d480 f i test.obj
 0002:0000d4c0       ??$destroy@PAUFORMULA2_PAIR@@@?$allocator@UFORMULA2_PAIR@@@std@@QAEXPAPAUFORMULA2_PAIR@@@Z 0044d4c0 f i test.obj
 0002:0000d500       ??$destroy@PAUFORMULA2_PAIR@@@?$allocator_traits@V?$allocator@PAUFORMULA2_PAIR@@@std@@@std@@SAXAAV?$allocator@PAUFORMULA2_PAIR@@@1@PAPAUFORMULA2_PAIR@@@Z 0044d500 f i test.obj
 0002:0000d550       ??$destroy@PAUFORMULA2_PAIR@@@?$allocator_traits@V?$allocator@UFORMULA2_PAIR@@@std@@@std@@SAXAAV?$allocator@UFORMULA2_PAIR@@@1@PAPAUFORMULA2_PAIR@@@Z 0044d550 f i test.obj
 0002:0000d5a0       ??$destroy@PAUFORMULA_PAIR@@@?$_Wrap_alloc@V?$allocator@PAUFORMULA_PAIR@@@std@@@std@@QAEXPAPAUFORMULA_PAIR@@@Z 0044d5a0 f i test.obj
 0002:0000d600       ??$destroy@PAUFORMULA_PAIR@@@?$_Wrap_alloc@V?$allocator@UFORMULA_PAIR@@@std@@@std@@QAEXPAPAUFORMULA_PAIR@@@Z 0044d600 f i test.obj
 0002:0000d660       ??$destroy@PAUFORMULA_PAIR@@@?$allocator@PAUFORMULA_PAIR@@@std@@QAEXPAPAUFORMULA_PAIR@@@Z 0044d660 f i test.obj
 0002:0000d6a0       ??$destroy@PAUFORMULA_PAIR@@@?$allocator@UFORMULA_PAIR@@@std@@QAEXPAPAUFORMULA_PAIR@@@Z 0044d6a0 f i test.obj
 0002:0000d6e0       ??$destroy@PAUFORMULA_PAIR@@@?$allocator_traits@V?$allocator@PAUFORMULA_PAIR@@@std@@@std@@SAXAAV?$allocator@PAUFORMULA_PAIR@@@1@PAPAUFORMULA_PAIR@@@Z 0044d6e0 f i test.obj
 0002:0000d730       ??$destroy@PAUFORMULA_PAIR@@@?$allocator_traits@V?$allocator@UFORMULA_PAIR@@@std@@@std@@SAXAAV?$allocator@UFORMULA_PAIR@@@1@PAPAUFORMULA_PAIR@@@Z 0044d730 f i test.obj
 0002:0000d780       ??$destroy@UFORMULA2_PAIR@@@?$_Wrap_alloc@V?$allocator@UFORMULA2_PAIR@@@std@@@std@@QAEXPAUFORMULA2_PAIR@@@Z 0044d780 f i test.obj
 0002:0000d7e0       ??$destroy@UFORMULA2_PAIR@@@?$allocator@UFORMULA2_PAIR@@@std@@QAEXPAUFORMULA2_PAIR@@@Z 0044d7e0 f i test.obj
 0002:0000d820       ??$destroy@UFORMULA2_PAIR@@@?$allocator_traits@V?$allocator@UFORMULA2_PAIR@@@std@@@std@@SAXAAV?$allocator@UFORMULA2_PAIR@@@1@PAUFORMULA2_PAIR@@@Z 0044d820 f i test.obj
 0002:0000d870       ??$destroy@UFORMULA_PAIR@@@?$_Wrap_alloc@V?$allocator@UFORMULA_PAIR@@@std@@@std@@QAEXPAUFORMULA_PAIR@@@Z 0044d870 f i test.obj
 0002:0000d8d0       ??$destroy@UFORMULA_PAIR@@@?$allocator@UFORMULA_PAIR@@@std@@QAEXPAUFORMULA_PAIR@@@Z 0044d8d0 f i test.obj
 0002:0000d910       ??$destroy@UFORMULA_PAIR@@@?$allocator_traits@V?$allocator@UFORMULA_PAIR@@@std@@@std@@SAXAAV?$allocator@UFORMULA_PAIR@@@1@PAUFORMULA_PAIR@@@Z 0044d910 f i test.obj
 0002:0000d960       ??$destroy@U_Container_proxy@std@@@?$_Wrap_alloc@V?$allocator@U_Container_proxy@std@@@std@@@std@@QAEXPAU_Container_proxy@1@@Z 0044d960 f i test.obj
 0002:0000d9c0       ??$destroy@U_Container_proxy@std@@@?$allocator@U_Container_proxy@std@@@std@@QAEXPAU_Container_proxy@1@@Z 0044d9c0 f i test.obj
 0002:0000da00       ??$destroy@U_Container_proxy@std@@@?$allocator_traits@V?$allocator@U_Container_proxy@std@@@std@@@std@@SAXAAV?$allocator@U_Container_proxy@std@@@1@PAU_Container_proxy@1@@Z 0044da00 f i test.obj
 0002:0000da50       ??$destroy@V?$basic_string@DU?$char_traits@D@std@@V?$allocator@D@2@@std@@@?$_Wrap_alloc@V?$allocator@V?$basic_string@DU?$char_traits@D@std@@V?$allocator@D@2@@std@@@std@@@std@@QAEXPAV?$basic_string@DU?$char_traits@D@std@@V?$allocator@D@2@@1@@Z 0044da50 f i test.obj
 0002:0000dab0       ??$destroy@V?$basic_string@DU?$char_traits@D@std@@V?$allocator@D@2@@std@@@?$allocator@V?$basic_string@DU?$char_traits@D@std@@V?$allocator@D@2@@std@@@std@@QAEXPAV?$basic_string@DU?$char_traits@D@std@@V?$allocator@D@2@@1@@Z 0044dab0 f i test.obj
 0002:0000db10       ??$destroy@V?$basic_string@DU?$char_traits@D@std@@V?$allocator@D@2@@std@@@?$allocator_traits@V?$allocator@V?$basic_string@DU?$char_traits@D@std@@V?$allocator@D@2@@std@@@std@@@std@@SAXAAV?$allocator@V?$basic_string@DU?$char_traits@D@std@@V?$allocator@D@2@@std@@@1@PAV?$basic_string@DU?$char_traits@D@std@@V?$allocator@D@2@@1@@Z 0044db10 f i test.obj
 0002:0000db60       ??$emplace_back@ABUFORMULA2_PAIR@@@?$deque@UFORMULA2_PAIR@@V?$allocator@UFORMULA2_PAIR@@@std@@@std@@QAEXABUFORMULA2_PAIR@@@Z 0044db60 f i test.obj
 0002:0000dd40       ??$emplace_back@ABUFORMULA_PAIR@@@?$deque@UFORMULA_PAIR@@V?$allocator@UFORMULA_PAIR@@@std@@@std@@QAEXABUFORMULA_PAIR@@@Z 0044dd40 f i test.obj
 0002:0000df20       ??$forward@AAPAD@std@@YAAAPADAAPAD@Z 0044df20 f i test.obj
 0002:0000df60       ??$forward@AAU?$_Wrap_alloc@V?$allocator@D@std@@@std@@@std@@YAAAU?$_Wrap_alloc@V?$allocator@D@std@@@0@AAU10@@Z 0044df60 f i test.obj
 0002:0000dfa0       ??$forward@AAU?$_Wrap_alloc@V?$allocator@UFORMULA2_PAIR@@@std@@@std@@@std@@YAAAU?$_Wrap_alloc@V?$allocator@UFORMULA2_PAIR@@@std@@@0@AAU10@@Z 0044dfa0 f i test.obj
 0002:0000dfe0       ??$forward@AAU?$_Wrap_alloc@V?$allocator@UFORMULA_PAIR@@@std@@@std@@@std@@YAAAU?$_Wrap_alloc@V?$allocator@UFORMULA_PAIR@@@std@@@0@AAU10@@Z 0044dfe0 f i test.obj
 0002:0000e020       ??$forward@AAU?$_Wrap_alloc@V?$allocator@V?$basic_string@DU?$char_traits@D@std@@V?$allocator@D@2@@std@@@std@@@std@@@std@@YAAAU?$_Wrap_alloc@V?$allocator@V?$basic_string@DU?$char_traits@D@std@@V?$allocator@D@2@@std@@@std@@@0@AAU10@@Z 0044e020 f i test.obj
 0002:0000e060       ??$forward@ABUFORMULA2_PAIR@@@std@@YAABUFORMULA2_PAIR@@ABU1@@Z 0044e060 f i test.obj
 0002:0000e0a0       ??$forward@ABUFORMULA_PAIR@@@std@@YAABUFORMULA_PAIR@@ABU1@@Z 0044e0a0 f i test.obj
 0002:0000e0e0       ??$forward@U?$_Wrap_alloc@V?$allocator@D@std@@@std@@@std@@YA$$QAU?$_Wrap_alloc@V?$allocator@D@std@@@0@AAU10@@Z 0044e0e0 f i test.obj
 0002:0000e120       ??$forward@U?$_Wrap_alloc@V?$allocator@UFORMULA2_PAIR@@@std@@@std@@@std@@YA$$QAU?$_Wrap_alloc@V?$allocator@UFORMULA2_PAIR@@@std@@@0@AAU10@@Z 0044e120 f i test.obj
 0002:0000e160       ??$forward@U?$_Wrap_alloc@V?$allocator@UFORMULA_PAIR@@@std@@@std@@@std@@YA$$QAU?$_Wrap_alloc@V?$allocator@UFORMULA_PAIR@@@std@@@0@AAU10@@Z 0044e160 f i test.obj
 0002:0000e1a0       ??$forward@U_Container_proxy@std@@@std@@YA$$QAU_Container_proxy@0@AAU10@@Z 0044e1a0 f i test.obj
 0002:0000e1e0       ??$forward@V?$allocator@UFORMULA2_PAIR@@@std@@@std@@YA$$QAV?$allocator@UFORMULA2_PAIR@@@0@AAV10@@Z 0044e1e0 f i test.obj
 0002:0000e220       ??$forward@V?$allocator@UFORMULA_PAIR@@@std@@@std@@YA$$QAV?$allocator@UFORMULA_PAIR@@@0@AAV10@@Z 0044e220 f i test.obj
 0002:0000e260       ??$forward@V?$basic_string@DU?$char_traits@D@std@@V?$allocator@D@2@@std@@@std@@YA$$QAV?$basic_string@DU?$char_traits@D@std@@V?$allocator@D@2@@0@AAV10@@Z 0044e260 f i test.obj
 0002:0000e2a0       ??$insert@V?$_Deque_const_iterator@V?$_Deque_val@U?$_Deque_simple_types@UFORMULA2_PAIR@@@std@@@std@@@std@@@?$deque@UFORMULA2_PAIR@@V?$allocator@UFORMULA2_PAIR@@@std@@@std@@QAE?AV?$_Deque_iterator@V?$_Deque_val@U?$_Deque_simple_types@UFORMULA2_PAIR@@@std@@@std@@@1@V?$_Deque_const_iterator@V?$_Deque_val@U?$_Deque_simple_types@UFORMULA2_PAIR@@@std@@@std@@@1@00@Z 0044e2a0 f i test.obj
 0002:0000ea30       ??$insert@V?$_Deque_const_iterator@V?$_Deque_val@U?$_Deque_simple_types@UFORMULA_PAIR@@@std@@@std@@@std@@@?$deque@UFORMULA_PAIR@@V?$allocator@UFORMULA_PAIR@@@std@@@std@@QAE?AV?$_Deque_iterator@V?$_Deque_val@U?$_Deque_simple_types@UFORMULA_PAIR@@@std@@@std@@@1@V?$_Deque_const_iterator@V?$_Deque_val@U?$_Deque_simple_types@UFORMULA_PAIR@@@std@@@std@@@1@00@Z 0044ea30 f i test.obj
 0002:0000f1c0       ??$iter_swap@V?$_Deque_unchecked_iterator@V?$_Deque_val@U?$_Deque_simple_types@UFORMULA2_PAIR@@@std@@@std@@@std@@V12@@std@@YAXV?$_Deque_unchecked_iterator@V?$_Deque_val@U?$_Deque_simple_types@UFORMULA2_PAIR@@@std@@@std@@@0@0@Z 0044f1c0 f i test.obj
 0002:0000f220       ??$iter_swap@V?$_Deque_unchecked_iterator@V?$_Deque_val@U?$_Deque_simple_types@UFORMULA_PAIR@@@std@@@std@@@std@@V12@@std@@YAXV?$_Deque_unchecked_iterator@V?$_Deque_val@U?$_Deque_simple_types@UFORMULA_PAIR@@@std@@@std@@@0@0@Z 0044f220 f i test.obj
 0002:0000f280       ??$move@AAU?$_Wrap_alloc@V?$allocator@D@std@@@std@@@std@@YA$$QAU?$_Wrap_alloc@V?$allocator@D@std@@@0@AAU10@@Z 0044f280 f i test.obj
 0002:0000f2c0       ??$move@AAU?$_Wrap_alloc@V?$allocator@UFORMULA2_PAIR@@@std@@@std@@@std@@YA$$QAU?$_Wrap_alloc@V?$allocator@UFORMULA2_PAIR@@@std@@@0@AAU10@@Z 0044f2c0 f i test.obj
 0002:0000f300       ??$move@AAU?$_Wrap_alloc@V?$allocator@UFORMULA_PAIR@@@std@@@std@@@std@@YA$$QAU?$_Wrap_alloc@V?$allocator@UFORMULA_PAIR@@@std@@@0@AAU10@@Z 0044f300 f i test.obj
 0002:0000f340       ??$move@AAUFORMULA2_PAIR@@@std@@YA$$QAUFORMULA2_PAIR@@AAU1@@Z 0044f340 f i test.obj
 0002:0000f380       ??$move@AAUFORMULA_PAIR@@@std@@YA$$QAUFORMULA_PAIR@@AAU1@@Z 0044f380 f i test.obj
 0002:0000f3c0       ??$move@AAV?$basic_string@DU?$char_traits@D@std@@V?$allocator@D@2@@std@@@std@@YA$$QAV?$basic_string@DU?$char_traits@D@std@@V?$allocator@D@2@@0@AAV10@@Z 0044f3c0 f i test.obj
 0002:0000f400       ??$move@V?$_Deque_iterator@V?$_Deque_val@U?$_Deque_simple_types@UFORMULA2_PAIR@@@std@@@std@@@std@@V12@@std@@YA?AV?$_Deque_iterator@V?$_Deque_val@U?$_Deque_simple_types@UFORMULA2_PAIR@@@std@@@std@@@0@V10@00@Z 0044f400 f i test.obj
 0002:0000f600       ??$move@V?$_Deque_iterator@V?$_Deque_val@U?$_Deque_simple_types@UFORMULA_PAIR@@@std@@@std@@@std@@V12@@std@@YA?AV?$_Deque_iterator@V?$_Deque_val@U?$_Deque_simple_types@UFORMULA_PAIR@@@std@@@std@@@0@V10@00@Z 0044f600 f i test.obj
 0002:0000f800       ??$move_backward@V?$_Deque_iterator@V?$_Deque_val@U?$_Deque_simple_types@UFORMULA2_PAIR@@@std@@@std@@@std@@V12@@std@@YA?AV?$_Deque_iterator@V?$_Deque_val@U?$_Deque_simple_types@UFORMULA2_PAIR@@@std@@@std@@@0@V10@00@Z 0044f800 f i test.obj
 0002:0000fb20       ??$move_backward@V?$_Deque_iterator@V?$_Deque_val@U?$_Deque_simple_types@UFORMULA_PAIR@@@std@@@std@@@std@@V12@@std@@YA?AV?$_Deque_iterator@V?$_Deque_val@U?$_Deque_simple_types@UFORMULA_PAIR@@@std@@@std@@@0@V10@00@Z 0044fb20 f i test.obj
 0002:0000fe40       ??$reverse@V?$_Deque_iterator@V?$_Deque_val@U?$_Deque_simple_types@UFORMULA2_PAIR@@@std@@@std@@@std@@@std@@YAXV?$_Deque_iterator@V?$_Deque_val@U?$_Deque_simple_types@UFORMULA2_PAIR@@@std@@@std@@@0@0@Z 0044fe40 f i test.obj
 0002:00010060       ??$reverse@V?$_Deque_iterator@V?$_Deque_val@U?$_Deque_simple_types@UFORMULA_PAIR@@@std@@@std@@@std@@@std@@YAXV?$_Deque_iterator@V?$_Deque_val@U?$_Deque_simple_types@UFORMULA_PAIR@@@std@@@std@@@0@0@Z 00450060 f i test.obj
 0002:00010280       ??$reverse@V?$_Deque_unchecked_iterator@V?$_Deque_val@U?$_Deque_simple_types@UFORMULA2_PAIR@@@std@@@std@@@std@@@std@@YAXV?$_Deque_unchecked_iterator@V?$_Deque_val@U?$_Deque_simple_types@UFORMULA2_PAIR@@@std@@@std@@@0@0@Z 00450280 f i test.obj
 0002:00010370       ??$reverse@V?$_Deque_unchecked_iterator@V?$_Deque_val@U?$_Deque_simple_types@UFORMULA_PAIR@@@std@@@std@@@std@@@std@@YAXV?$_Deque_unchecked_iterator@V?$_Deque_val@U?$_Deque_simple_types@UFORMULA_PAIR@@@std@@@std@@@0@0@Z 00450370 f i test.obj
 0002:00010460       ??$rotate@V?$_Deque_iterator@V?$_Deque_val@U?$_Deque_simple_types@UFORMULA2_PAIR@@@std@@@std@@@std@@@std@@YA?AV?$_Deque_iterator@V?$_Deque_val@U?$_Deque_simple_types@UFORMULA2_PAIR@@@std@@@std@@@0@V10@00@Z 00450460 f i test.obj
 0002:000108b0       ??$rotate@V?$_Deque_iterator@V?$_Deque_val@U?$_Deque_simple_types@UFORMULA_PAIR@@@std@@@std@@@std@@@std@@YA?AV?$_Deque_iterator@V?$_Deque_val@U?$_Deque_simple_types@UFORMULA_PAIR@@@std@@@std@@@0@V10@00@Z 004508b0 f i test.obj
 0002:00010d00       ??$swap@UFORMULA2_PAIR@@@std@@YAXAAUFORMULA2_PAIR@@0@Z 00450d00 f i test.obj
 0002:00010dd0       ??$swap@UFORMULA_PAIR@@@std@@YAXAAUFORMULA_PAIR@@0@Z 00450dd0 f i test.obj
 0002:00010ea0       ??0?$_Deque_const_iterator@V?$_Deque_val@U?$_Deque_simple_types@UFORMULA2_PAIR@@@std@@@std@@@std@@QAE@$$QAV01@@Z 00450ea0 f i test.obj
 0002:00010f50       ??0?$_Deque_const_iterator@V?$_Deque_val@U?$_Deque_simple_types@UFORMULA2_PAIR@@@std@@@std@@@std@@QAE@ABV01@@Z 00450f50 f i test.obj
 0002:00011000       ??0?$_Deque_const_iterator@V?$_Deque_val@U?$_Deque_simple_types@UFORMULA2_PAIR@@@std@@@std@@@std@@QAE@IPBU_Container_base12@1@@Z 00451000 f i test.obj
 0002:000110c0       ??0?$_Deque_const_iterator@V?$_Deque_val@U?$_Deque_simple_types@UFORMULA_PAIR@@@std@@@std@@@std@@QAE@$$QAV01@@Z 004510c0 f i test.obj
 0002:00011170       ??0?$_Deque_const_iterator@V?$_Deque_val@U?$_Deque_simple_types@UFORMULA_PAIR@@@std@@@std@@@std@@QAE@ABV01@@Z 00451170 f i test.obj
 0002:00011220       ??0?$_Deque_const_iterator@V?$_Deque_val@U?$_Deque_simple_types@UFORMULA_PAIR@@@std@@@std@@@std@@QAE@IPBU_Container_base12@1@@Z 00451220 f i test.obj
 0002:000112e0       ??0?$_Deque_iterator@V?$_Deque_val@U?$_Deque_simple_types@UFORMULA2_PAIR@@@std@@@std@@@std@@QAE@$$QAV01@@Z 004512e0 f i test.obj
 0002:00011380       ??0?$_Deque_iterator@V?$_Deque_val@U?$_Deque_simple_types@UFORMULA2_PAIR@@@std@@@std@@@std@@QAE@ABV01@@Z 00451380 f i test.obj
 0002:00011420       ??0?$_Deque_iterator@V?$_Deque_val@U?$_Deque_simple_types@UFORMULA2_PAIR@@@std@@@std@@@std@@QAE@IPBU_Container_base12@1@@Z 00451420 f i test.obj
 0002:000114d0       ??0?$_Deque_iterator@V?$_Deque_val@U?$_Deque_simple_types@UFORMULA_PAIR@@@std@@@std@@@std@@QAE@$$QAV01@@Z 004514d0 f i test.obj
 0002:00011570       ??0?$_Deque_iterator@V?$_Deque_val@U?$_Deque_simple_types@UFORMULA_PAIR@@@std@@@std@@@std@@QAE@ABV01@@Z 00451570 f i test.obj
 0002:00011610       ??0?$_Deque_iterator@V?$_Deque_val@U?$_Deque_simple_types@UFORMULA_PAIR@@@std@@@std@@@std@@QAE@IPBU_Container_base12@1@@Z 00451610 f i test.obj
 0002:000116c0       ??0?$_Deque_unchecked_const_iterator@V?$_Deque_val@U?$_Deque_simple_types@UFORMULA2_PAIR@@@std@@@std@@@std@@QAE@IPBU_Container_base12@1@@Z 004516c0 f i test.obj
 0002:00011710       ??0?$_Deque_unchecked_const_iterator@V?$_Deque_val@U?$_Deque_simple_types@UFORMULA_PAIR@@@std@@@std@@@std@@QAE@IPBU_Container_base12@1@@Z 00451710 f i test.obj
 0002:00011760       ??0?$_Deque_unchecked_iterator@V?$_Deque_val@U?$_Deque_simple_types@UFORMULA2_PAIR@@@std@@@std@@@std@@QAE@IPBU_Container_base12@1@@Z 00451760 f i test.obj
 0002:000117c0       ??0?$_Deque_unchecked_iterator@V?$_Deque_val@U?$_Deque_simple_types@UFORMULA_PAIR@@@std@@@std@@@std@@QAE@IPBU_Container_base12@1@@Z 004517c0 f i test.obj
 0002:00011820       ??0?$_Deque_val@U?$_Deque_simple_types@UFORMULA2_PAIR@@@std@@@std@@QAE@XZ 00451820 f i test.obj
 0002:000118f0       ??0?$_Deque_val@U?$_Deque_simple_types@UFORMULA_PAIR@@@std@@@std@@QAE@XZ 004518f0 f i test.obj
 0002:000119c0       ??0?$_String_alloc@U?$_String_base_types@DV?$allocator@D@std@@@std@@@std@@QAE@XZ 004519c0 f i test.obj
 0002:00011a70       ??0?$_String_val@U?$_Simple_types@D@std@@@std@@QAE@XZ 00451a70 f i test.obj
 0002:00011b30       ??0?$_Vector_alloc@U?$_Vec_base_types@V?$basic_string@DU?$char_traits@D@std@@V?$allocator@D@2@@std@@V?$allocator@V?$basic_string@DU?$char_traits@D@std@@V?$allocator@D@2@@std@@@2@@std@@@std@@QAE@XZ 00451b30 f i test.obj
 0002:00011be0       ??0?$_Vector_val@U?$_Simple_types@V?$basic_string@DU?$char_traits@D@std@@V?$allocator@D@2@@std@@@std@@@std@@QAE@XZ 00451be0 f i test.obj
 0002:00011ca0       ??0?$_Wrap_alloc@V?$allocator@D@std@@@std@@QAE@$$QAU01@@Z 00451ca0 f i test.obj
 0002:00011d10       ??0?$_Wrap_alloc@V?$allocator@D@std@@@std@@QAE@XZ 00451d10 f i test.obj
 0002:00011d70       ??0?$_Wrap_alloc@V?$allocator@UFORMULA2_PAIR@@@std@@@std@@QAE@$$QAU01@@Z 00451d70 f i test.obj
 0002:00011de0       ??0?$_Wrap_alloc@V?$allocator@UFORMULA_PAIR@@@std@@@std@@QAE@$$QAU01@@Z 00451de0 f i test.obj
 0002:00011e50       ??0?$_Wrap_alloc@V?$allocator@V?$basic_string@DU?$char_traits@D@std@@V?$allocator@D@2@@std@@@std@@@std@@QAE@XZ 00451e50 f i test.obj
 0002:00011eb0       ??0?$allocator@D@std@@QAE@ABV01@@Z 00451eb0 f i test.obj
 0002:00011ef0       ??0?$allocator@D@std@@QAE@XZ 00451ef0 f i test.obj
 0002:00011f30       ??0?$allocator@UFORMULA2_PAIR@@@std@@QAE@ABV01@@Z 00451f30 f i test.obj
 0002:00011f70       ??0?$allocator@UFORMULA_PAIR@@@std@@QAE@ABV01@@Z 00451f70 f i test.obj
 0002:00011fb0       ??0?$allocator@V?$basic_string@DU?$char_traits@D@std@@V?$allocator@D@2@@std@@@std@@QAE@XZ 00451fb0 f i test.obj
 0002:00011ff0       ??0?$basic_string@DU?$char_traits@D@std@@V?$allocator@D@2@@std@@QAE@$$QAV01@@Z 00451ff0 f i test.obj
 0002:000120d0       ??0?$basic_string@DU?$char_traits@D@std@@V?$allocator@D@2@@std@@QAE@PBD@Z 004520d0 f i test.obj
 0002:00012190       ??0?$deque@UFORMULA2_PAIR@@V?$allocator@UFORMULA2_PAIR@@@std@@@std@@QAE@ABV01@@Z 00452190 f i test.obj
 0002:000122d0       ??0?$deque@UFORMULA_PAIR@@V?$allocator@UFORMULA_PAIR@@@std@@@std@@QAE@ABV01@@Z 004522d0 f i test.obj
 0002:00012410       ??0?$vector@V?$basic_string@DU?$char_traits@D@std@@V?$allocator@D@2@@std@@V?$allocator@V?$basic_string@DU?$char_traits@D@std@@V?$allocator@D@2@@std@@@2@@std@@QAE@XZ 00452410 f i test.obj
 0002:000124b0       ??0Formula@@QAE@ABV0@@Z    004524b0 f i test.obj
 0002:00012690       ??0Monarch@@QAE@ABV0@@Z    00452690 f i test.obj
 0002:000128b0       ??0Physics@@QAE@ABV0@@Z    004528b0 f i test.obj
 0002:000139f0       ??0SE_Exception@@QAE@ABV0@@Z 004539f0 f i test.obj
 0002:00013a60       ??0SE_Exception@@QAE@IK@Z  00453a60 f i test.obj
 0002:00013ac0       ??0_Container_base12@std@@QAE@XZ 00453ac0 f i test.obj
 0002:00013b10       ??0_Container_proxy@std@@QAE@XZ 00453b10 f i test.obj
 0002:00013b60       ??0_Iterator_base12@std@@QAE@ABU01@@Z 00453b60 f i test.obj
 0002:00013be0       ??0_Iterator_base12@std@@QAE@XZ 00453be0 f i test.obj
 0002:00013c30       ??0fatalError@@QAE@ABV0@@Z 00453c30 f i test.obj
 0002:00013cb0       ??0qtFormula@@QAE@ABV0@@Z  00453cb0 f i test.obj
 0002:00013ed0       ??1?$_Compressed_pair@U?$_Wrap_alloc@V?$allocator@D@std@@@std@@V?$_String_val@U?$_Simple_types@D@std@@@2@$00@std@@QAE@XZ 00453ed0 f i test.obj
 0002:00013f70       ??1?$_Compressed_pair@U?$_Wrap_alloc@V?$allocator@UFORMULA2_PAIR@@@std@@@std@@V?$_Deque_val@U?$_Deque_simple_types@UFORMULA2_PAIR@@@std@@@2@$00@std@@QAE@XZ 00453f70 f i test.obj
 0002:00014010       ??1?$_Compressed_pair@U?$_Wrap_alloc@V?$allocator@UFORMULA_PAIR@@@std@@@std@@V?$_Deque_val@U?$_Deque_simple_types@UFORMULA_PAIR@@@std@@@2@$00@std@@QAE@XZ 00454010 f i test.obj
 0002:000140b0       ??1?$_Compressed_pair@U?$_Wrap_alloc@V?$allocator@V?$basic_string@DU?$char_traits@D@std@@V?$allocator@D@2@@std@@@std@@@std@@V?$_Vector_val@U?$_Simple_types@V?$basic_string@DU?$char_traits@D@std@@V?$allocator@D@2@@std@@@std@@@2@$00@std@@QAE@XZ 004540b0 f i test.obj
 0002:00014150       ??1?$_Deque_alloc@U?$_Deque_base_types@UFORMULA2_PAIR@@V?$allocator@UFORMULA2_PAIR@@@std@@@std@@@std@@QAE@XZ 00454150 f i test.obj
 0002:000141f0       ??1?$_Deque_alloc@U?$_Deque_base_types@UFORMULA_PAIR@@V?$allocator@UFORMULA_PAIR@@@std@@@std@@@std@@QAE@XZ 004541f0 f i test.obj
 0002:00014290       ??1?$_Deque_const_iterator@V?$_Deque_val@U?$_Deque_simple_types@UFORMULA2_PAIR@@@std@@@std@@@std@@QAE@XZ 00454290 f i test.obj
 0002:00014330       ??1?$_Deque_const_iterator@V?$_Deque_val@U?$_Deque_simple_types@UFORMULA_PAIR@@@std@@@std@@@std@@QAE@XZ 00454330 f i test.obj
 0002:000143d0       ??1?$_Deque_iterator@V?$_Deque_val@U?$_Deque_simple_types@UFORMULA2_PAIR@@@std@@@std@@@std@@QAE@XZ 004543d0 f i test.obj
 0002:00014470       ??1?$_Deque_iterator@V?$_Deque_val@U?$_Deque_simple_types@UFORMULA_PAIR@@@std@@@std@@@std@@QAE@XZ 00454470 f i test.obj
 0002:00014510       ??1?$_Deque_val@U?$_Deque_simple_types@UFORMULA2_PAIR@@@std@@@std@@QAE@XZ 00454510 f i test.obj
 0002:000145b0       ??1?$_Deque_val@U?$_Deque_simple_types@UFORMULA_PAIR@@@std@@@std@@QAE@XZ 004545b0 f i test.obj
 0002:00014650       ??1?$_String_alloc@U?$_String_base_types@DV?$allocator@D@std@@@std@@@std@@QAE@XZ 00454650 f i test.obj
 0002:000146f0       ??1?$_String_val@U?$_Simple_types@D@std@@@std@@QAE@XZ 004546f0 f i test.obj
 0002:00014790       ??1?$_Vector_alloc@U?$_Vec_base_types@V?$basic_string@DU?$char_traits@D@std@@V?$allocator@D@2@@std@@V?$allocator@V?$basic_string@DU?$char_traits@D@std@@V?$allocator@D@2@@std@@@2@@std@@@std@@QAE@XZ 00454790 f i test.obj
 0002:00014830       ??1?$_Vector_val@U?$_Simple_types@V?$basic_string@DU?$char_traits@D@std@@V?$allocator@D@2@@std@@@std@@@std@@QAE@XZ 00454830 f i test.obj
 0002:000148d0       ??1?$basic_string@DU?$char_traits@D@std@@V?$allocator@D@2@@std@@QAE@XZ 004548d0 f i test.obj
 0002:00014980       ??1?$deque@UFORMULA2_PAIR@@V?$allocator@UFORMULA2_PAIR@@@std@@@std@@QAE@XZ 00454980 f i test.obj
 0002:00014a20       ??1?$deque@UFORMULA_PAIR@@V?$allocator@UFORMULA_PAIR@@@std@@@std@@QAE@XZ 00454a20 f i test.obj
 0002:00014ac0       ??1?$vector@V?$basic_string@DU?$char_traits@D@std@@V?$allocator@D@2@@std@@V?$allocator@V?$basic_string@DU?$char_traits@D@std@@V?$allocator@D@2@@std@@@2@@std@@QAE@XZ 00454ac0 f i test.obj
 0002:00014b60       ??1SE_Exception@@UAE@XZ    00454b60 f i test.obj
 0002:00014ba0       ??1_Container_base12@std@@QAE@XZ 00454ba0 f i test.obj
 0002:00014c30       ??1_Iterator_base12@std@@QAE@XZ 00454c30 f i test.obj
 0002:00014d30       ??2@YAPAXIPAX@Z            00454d30 f i test.obj
 0002:00014d70       ??4?$deque@UFORMULA2_PAIR@@V?$allocator@UFORMULA2_PAIR@@@std@@@std@@QAEAAV01@ABV01@@Z 00454d70 f i test.obj
 0002:00015300       ??4?$deque@UFORMULA_PAIR@@V?$allocator@UFORMULA_PAIR@@@std@@@std@@QAEAAV01@ABV01@@Z 00455300 f i test.obj
 0002:00015890       ??4Formula@@QAEAAV0@ABV0@@Z 00455890 f i test.obj
 0002:00015a40       ??4Monarch@@QAEAAV0@ABV0@@Z 00455a40 f i test.obj
 0002:00015c50       ??4Physics@@QAEAAV0@ABV0@@Z 00455c50 f i test.obj
 0002:00016d60       ??4_Iterator_base12@std@@QAEAAU01@ABU01@@Z 00456d60 f i test.obj
 0002:00016ea0       ??4qtFormula@@QAEAAV0@ABV0@@Z 00456ea0 f i test.obj
 0002:00017090       ??8?$_Deque_const_iterator@V?$_Deque_val@U?$_Deque_simple_types@UFORMULA2_PAIR@@@std@@@std@@@std@@QBE_NABV01@@Z 00457090 f i test.obj
 0002:00017120       ??8?$_Deque_const_iterator@V?$_Deque_val@U?$_Deque_simple_types@UFORMULA_PAIR@@@std@@@std@@@std@@QBE_NABV01@@Z 00457120 f i test.obj
 0002:000171b0       ??8?$_Deque_unchecked_const_iterator@V?$_Deque_val@U?$_Deque_simple_types@UFORMULA2_PAIR@@@std@@@std@@@std@@QBE_NABV01@@Z 004571b0 f i test.obj
 0002:00017220       ??8?$_Deque_unchecked_const_iterator@V?$_Deque_val@U?$_Deque_simple_types@UFORMULA_PAIR@@@std@@@std@@@std@@QBE_NABV01@@Z 00457220 f i test.obj
 0002:00017290       ??9?$_Deque_const_iterator@V?$_Deque_val@U?$_Deque_simple_types@UFORMULA2_PAIR@@@std@@@std@@@std@@QBE_NABV01@@Z 00457290 f i test.obj
 0002:00017320       ??9?$_Deque_const_iterator@V?$_Deque_val@U?$_Deque_simple_types@UFORMULA_PAIR@@@std@@@std@@@std@@QBE_NABV01@@Z 00457320 f i test.obj
 0002:000173b0       ??9?$_Deque_unchecked_const_iterator@V?$_Deque_val@U?$_Deque_simple_types@UFORMULA2_PAIR@@@std@@@std@@@std@@QBE_NABV01@@Z 004573b0 f i test.obj
 0002:00017440       ??9?$_Deque_unchecked_const_iterator@V?$_Deque_val@U?$_Deque_simple_types@UFORMULA_PAIR@@@std@@@std@@@std@@QBE_NABV01@@Z 00457440 f i test.obj
 0002:000174d0       ??A?$vector@V?$basic_string@DU?$char_traits@D@std@@V?$allocator@D@2@@std@@V?$allocator@V?$basic_string@DU?$char_traits@D@std@@V?$allocator@D@2@@std@@@2@@std@@QAEAAV?$basic_string@DU?$char_traits@D@std@@V?$allocator@D@2@@1@I@Z 004574d0 f i test.obj
 0002:000175f0       ??D?$_Deque_const_iterator@V?$_Deque_val@U?$_Deque_simple_types@UFORMULA2_PAIR@@@std@@@std@@@std@@QBEABUFORMULA2_PAIR@@XZ 004575f0 f i test.obj
 0002:00017770       ??D?$_Deque_const_iterator@V?$_Deque_val@U?$_Deque_simple_types@UFORMULA_PAIR@@@std@@@std@@@std@@QBEABUFORMULA_PAIR@@XZ 00457770 f i test.obj
 0002:000178f0       ??D?$_Deque_unchecked_const_iterator@V?$_Deque_val@U?$_Deque_simple_types@UFORMULA2_PAIR@@@std@@@std@@@std@@QBEABUFORMULA2_PAIR@@XZ 004578f0 f i test.obj
 0002:00017980       ??D?$_Deque_unchecked_const_iterator@V?$_Deque_val@U?$_Deque_simple_types@UFORMULA_PAIR@@@std@@@std@@@std@@QBEABUFORMULA_PAIR@@XZ 00457980 f i test.obj
 0002:00017a10       ??D?$_Deque_unchecked_iterator@V?$_Deque_val@U?$_Deque_simple_types@UFORMULA2_PAIR@@@std@@@std@@@std@@QBEAAUFORMULA2_PAIR@@XZ 00457a10 f i test.obj
 0002:00017a60       ??D?$_Deque_unchecked_iterator@V?$_Deque_val@U?$_Deque_simple_types@UFORMULA_PAIR@@@std@@@std@@@std@@QBEAAUFORMULA_PAIR@@XZ 00457a60 f i test.obj
 0002:00017ab0       ??E?$_Deque_const_iterator@V?$_Deque_val@U?$_Deque_simple_types@UFORMULA2_PAIR@@@std@@@std@@@std@@QAEAAV01@XZ 00457ab0 f i test.obj
 0002:00017bf0       ??E?$_Deque_const_iterator@V?$_Deque_val@U?$_Deque_simple_types@UFORMULA_PAIR@@@std@@@std@@@std@@QAEAAV01@XZ 00457bf0 f i test.obj
 0002:00017d30       ??E?$_Deque_unchecked_const_iterator@V?$_Deque_val@U?$_Deque_simple_types@UFORMULA2_PAIR@@@std@@@std@@@std@@QAEAAV01@XZ 00457d30 f i test.obj
 0002:00017d80       ??E?$_Deque_unchecked_const_iterator@V?$_Deque_val@U?$_Deque_simple_types@UFORMULA_PAIR@@@std@@@std@@@std@@QAEAAV01@XZ 00457d80 f i test.obj
 0002:00017dd0       ??E?$_Deque_unchecked_iterator@V?$_Deque_val@U?$_Deque_simple_types@UFORMULA2_PAIR@@@std@@@std@@@std@@QAEAAV01@XZ 00457dd0 f i test.obj
 0002:00017e30       ??E?$_Deque_unchecked_iterator@V?$_Deque_val@U?$_Deque_simple_types@UFORMULA_PAIR@@@std@@@std@@@std@@QAEAAV01@XZ 00457e30 f i test.obj
 0002:00017e90       ??F?$_Deque_unchecked_const_iterator@V?$_Deque_val@U?$_Deque_simple_types@UFORMULA2_PAIR@@@std@@@std@@@std@@QAEAAV01@XZ 00457e90 f i test.obj
 0002:00017ee0       ??F?$_Deque_unchecked_const_iterator@V?$_Deque_val@U?$_Deque_simple_types@UFORMULA_PAIR@@@std@@@std@@@std@@QAEAAV01@XZ 00457ee0 f i test.obj
 0002:00017f30       ??F?$_Deque_unchecked_iterator@V?$_Deque_val@U?$_Deque_simple_types@UFORMULA2_PAIR@@@std@@@std@@@std@@QAEAAV01@XZ 00457f30 f i test.obj
 0002:00017f90       ??F?$_Deque_unchecked_iterator@V?$_Deque_val@U?$_Deque_simple_types@UFORMULA_PAIR@@@std@@@std@@@std@@QAEAAV01@XZ 00457f90 f i test.obj
 0002:00017ff0       ??G?$_Deque_const_iterator@V?$_Deque_val@U?$_Deque_simple_types@UFORMULA2_PAIR@@@std@@@std@@@std@@QBEHABV01@@Z 00457ff0 f i test.obj
 0002:000180a0       ??G?$_Deque_const_iterator@V?$_Deque_val@U?$_Deque_simple_types@UFORMULA_PAIR@@@std@@@std@@@std@@QBEHABV01@@Z 004580a0 f i test.obj
 0002:00018150       ??G?$_Deque_iterator@V?$_Deque_val@U?$_Deque_simple_types@UFORMULA2_PAIR@@@std@@@std@@@std@@QBE?AV01@H@Z 00458150 f i test.obj
 0002:00018270       ??G?$_Deque_iterator@V?$_Deque_val@U?$_Deque_simple_types@UFORMULA2_PAIR@@@std@@@std@@@std@@QBEHABV?$_Deque_const_iterator@V?$_Deque_val@U?$_Deque_simple_types@UFORMULA2_PAIR@@@std@@@std@@@1@@Z 00458270 f i test.obj
 0002:000182d0       ??G?$_Deque_iterator@V?$_Deque_val@U?$_Deque_simple_types@UFORMULA_PAIR@@@std@@@std@@@std@@QBE?AV01@H@Z 004582d0 f i test.obj
 0002:000183f0       ??G?$_Deque_iterator@V?$_Deque_val@U?$_Deque_simple_types@UFORMULA_PAIR@@@std@@@std@@@std@@QBEHABV?$_Deque_const_iterator@V?$_Deque_val@U?$_Deque_simple_types@UFORMULA_PAIR@@@std@@@std@@@1@@Z 004583f0 f i test.obj
 0002:00018450       ??G?$_Deque_unchecked_const_iterator@V?$_Deque_val@U?$_Deque_simple_types@UFORMULA2_PAIR@@@std@@@std@@@std@@QBEHABV01@@Z 00458450 f i test.obj
 0002:000184e0       ??G?$_Deque_unchecked_const_iterator@V?$_Deque_val@U?$_Deque_simple_types@UFORMULA_PAIR@@@std@@@std@@@std@@QBEHABV01@@Z 004584e0 f i test.obj
 0002:00018570       ??G?$_Deque_unchecked_iterator@V?$_Deque_val@U?$_Deque_simple_types@UFORMULA2_PAIR@@@std@@@std@@@std@@QBEHABV?$_Deque_unchecked_const_iterator@V?$_Deque_val@U?$_Deque_simple_types@UFORMULA2_PAIR@@@std@@@std@@@1@@Z 00458570 f i test.obj
 0002:000185d0       ??G?$_Deque_unchecked_iterator@V?$_Deque_val@U?$_Deque_simple_types@UFORMULA_PAIR@@@std@@@std@@@std@@QBEHABV?$_Deque_unchecked_const_iterator@V?$_Deque_val@U?$_Deque_simple_types@UFORMULA_PAIR@@@std@@@std@@@1@@Z 004585d0 f i test.obj
 0002:00018630       ??H?$_Deque_const_iterator@V?$_Deque_val@U?$_Deque_simple_types@UFORMULA2_PAIR@@@std@@@std@@@std@@QBE?AV01@H@Z 00458630 f i test.obj
 0002:00018750       ??H?$_Deque_const_iterator@V?$_Deque_val@U?$_Deque_simple_types@UFORMULA_PAIR@@@std@@@std@@@std@@QBE?AV01@H@Z 00458750 f i test.obj
 0002:00018870       ??H?$_Deque_iterator@V?$_Deque_val@U?$_Deque_simple_types@UFORMULA2_PAIR@@@std@@@std@@@std@@QBE?AV01@H@Z 00458870 f i test.obj
 0002:00018990       ??H?$_Deque_iterator@V?$_Deque_val@U?$_Deque_simple_types@UFORMULA_PAIR@@@std@@@std@@@std@@QBE?AV01@H@Z 00458990 f i test.obj
 0002:00018ab0       ??H?$_Deque_unchecked_iterator@V?$_Deque_val@U?$_Deque_simple_types@UFORMULA2_PAIR@@@std@@@std@@@std@@QBE?AV01@H@Z 00458ab0 f i test.obj
 0002:00018b60       ??H?$_Deque_unchecked_iterator@V?$_Deque_val@U?$_Deque_simple_types@UFORMULA_PAIR@@@std@@@std@@@std@@QBE?AV01@H@Z 00458b60 f i test.obj
 0002:00018c10       ??M?$_Deque_const_iterator@V?$_Deque_val@U?$_Deque_simple_types@UFORMULA2_PAIR@@@std@@@std@@@std@@QBE_NABV01@@Z 00458c10 f i test.obj
 0002:00018ca0       ??M?$_Deque_const_iterator@V?$_Deque_val@U?$_Deque_simple_types@UFORMULA_PAIR@@@std@@@std@@@std@@QBE_NABV01@@Z 00458ca0 f i test.obj
 0002:00018d30       ??M?$_Deque_unchecked_const_iterator@V?$_Deque_val@U?$_Deque_simple_types@UFORMULA2_PAIR@@@std@@@std@@@std@@QBE_NABV01@@Z 00458d30 f i test.obj
 0002:00018da0       ??M?$_Deque_unchecked_const_iterator@V?$_Deque_val@U?$_Deque_simple_types@UFORMULA_PAIR@@@std@@@std@@@std@@QBE_NABV01@@Z 00458da0 f i test.obj
 0002:00018e10       ??Y?$_Deque_const_iterator@V?$_Deque_val@U?$_Deque_simple_types@UFORMULA2_PAIR@@@std@@@std@@@std@@QAEAAV01@H@Z 00458e10 f i test.obj
 0002:00018f70       ??Y?$_Deque_const_iterator@V?$_Deque_val@U?$_Deque_simple_types@UFORMULA_PAIR@@@std@@@std@@@std@@QAEAAV01@H@Z 00458f70 f i test.obj
 0002:000190d0       ??Y?$_Deque_iterator@V?$_Deque_val@U?$_Deque_simple_types@UFORMULA2_PAIR@@@std@@@std@@@std@@QAEAAV01@H@Z 004590d0 f i test.obj
 0002:00019120       ??Y?$_Deque_iterator@V?$_Deque_val@U?$_Deque_simple_types@UFORMULA_PAIR@@@std@@@std@@@std@@QAEAAV01@H@Z 00459120 f i test.obj
 0002:00019170       ??Y?$_Deque_unchecked_const_iterator@V?$_Deque_val@U?$_Deque_simple_types@UFORMULA2_PAIR@@@std@@@std@@@std@@QAEAAV01@H@Z 00459170 f i test.obj
 0002:000191c0       ??Y?$_Deque_unchecked_const_iterator@V?$_Deque_val@U?$_Deque_simple_types@UFORMULA_PAIR@@@std@@@std@@@std@@QAEAAV01@H@Z 004591c0 f i test.obj
 0002:00019210       ??Y?$_Deque_unchecked_iterator@V?$_Deque_val@U?$_Deque_simple_types@UFORMULA2_PAIR@@@std@@@std@@@std@@QAEAAV01@H@Z 00459210 f i test.obj
 0002:00019270       ??Y?$_Deque_unchecked_iterator@V?$_Deque_val@U?$_Deque_simple_types@UFORMULA_PAIR@@@std@@@std@@@std@@QAEAAV01@H@Z 00459270 f i test.obj
 0002:000192d0       ??Z?$_Deque_iterator@V?$_Deque_val@U?$_Deque_simple_types@UFORMULA2_PAIR@@@std@@@std@@@std@@QAEAAV01@H@Z 004592d0 f i test.obj
 0002:00019330       ??Z?$_Deque_iterator@V?$_Deque_val@U?$_Deque_simple_types@UFORMULA_PAIR@@@std@@@std@@@std@@QAEAAV01@H@Z 00459330 f i test.obj
 0002:00019390       ??_EFormula@@UAEPAXI@Z     00459390 f i test.obj
 0002:000194a0       ??_EMonarch@@UAEPAXI@Z     004594a0 f i test.obj
 0002:000195b0       ??_EPhysics@@UAEPAXI@Z     004595b0 f i test.obj
 0002:000196c0       ??_EfatalError@@UAEPAXI@Z  004596c0 f i test.obj
 0002:000197d0       ??_EqtFormula@@UAEPAXI@Z   004597d0 f i test.obj
 0002:000198e0       ??_FANT@RACERMATE@@QAEXXZ  004598e0 f i test.obj
 0002:00019940       ??_FFormula@@QAEXXZ        00459940 f i test.obj
 0002:000199a0       ??_FMonarch@@QAEXXZ        004599a0 f i test.obj
 0002:00019a10       ??_FfastTimer@@QAEXXZ      00459a10 f i test.obj
 0002:00019a70       ??_FqtFormula@@QAEXXZ      00459a70 f i test.obj
 0002:00019ad0       ??_G?$basic_string@DU?$char_traits@D@std@@V?$allocator@D@2@@std@@QAEPAXI@Z 00459ad0 f i test.obj
 0002:00019b40       ??_GFormula@@UAEPAXI@Z     00459b40 f i test.obj
 0002:00019bc0       ??_GMonarch@@UAEPAXI@Z     00459bc0 f i test.obj
 0002:00019c40       ??_GPhysics@@UAEPAXI@Z     00459c40 f i test.obj
 0002:00019cc0       ??_GSE_Exception@@UAEPAXI@Z 00459cc0 f i test.obj
 0002:00019cc0       ??_ESE_Exception@@UAEPAXI@Z 00459cc0 f i test.obj
 0002:00019d30       ??_GfatalError@@UAEPAXI@Z  00459d30 f i test.obj
 0002:00019db0       ??_GqtFormula@@UAEPAXI@Z   00459db0 f i test.obj
 0002:00019e30       ??_H@YGXPAXIIP6EPAX0@Z@Z   00459e30 f i test.obj
 0002:00019ee0       ?_Adopt@_Iterator_base12@std@@QAEXPBU_Container_base12@2@@Z 00459ee0 f i test.obj
 0002:0001a090       ?_Alloc_proxy@?$_Deque_alloc@U?$_Deque_base_types@UFORMULA2_PAIR@@V?$allocator@UFORMULA2_PAIR@@@std@@@std@@@std@@QAEXXZ 0045a090 f i test.obj
 0002:0001a190       ?_Alloc_proxy@?$_Deque_alloc@U?$_Deque_base_types@UFORMULA_PAIR@@V?$allocator@UFORMULA_PAIR@@@std@@@std@@@std@@QAEXXZ 0045a190 f i test.obj
 0002:0001a290       ?_Alloc_proxy@?$_String_alloc@U?$_String_base_types@DV?$allocator@D@std@@@std@@@std@@QAEXXZ 0045a290 f i test.obj
 0002:0001a390       ?_Alloc_proxy@?$_Vector_alloc@U?$_Vec_base_types@V?$basic_string@DU?$char_traits@D@std@@V?$allocator@D@2@@std@@V?$allocator@V?$basic_string@DU?$char_traits@D@std@@V?$allocator@D@2@@std@@@2@@std@@@std@@QAEXXZ 0045a390 f i test.obj
 0002:0001a490       ?_Allocate@std@@YAPAXII_N@Z 0045a490 f i test.obj
 0002:0001a6f0       ?_Assign_rv@?$basic_string@DU?$char_traits@D@std@@V?$allocator@D@2@@std@@QAEX$$QAV12@@Z 0045a6f0 f i test.obj
 0002:0001a800       ?_Bx@?$_String_alloc@U?$_String_base_types@DV?$allocator@D@std@@@std@@@std@@QAEAAT_Bxty@?$_String_val@U?$_Simple_types@D@std@@@2@XZ 0045a800 f i test.obj
 0002:0001a860       ?_Check_offset@?$basic_string@DU?$char_traits@D@std@@V?$allocator@D@2@@std@@QBEXI@Z 0045a860 f i test.obj
 0002:0001a8d0       ?_Clamp_suffix_size@?$basic_string@DU?$char_traits@D@std@@V?$allocator@D@2@@std@@QBEIII@Z 0045a8d0 f i test.obj
 0002:0001a950       ?_Clrcont@_Iterator_base12@std@@QAEXXZ 0045a950 f i test.obj
 0002:0001a990       ?_Compat@?$_Deque_const_iterator@V?$_Deque_val@U?$_Deque_simple_types@UFORMULA2_PAIR@@@std@@@std@@@std@@QBEXABV12@@Z 0045a990 f i test.obj
 0002:0001aab0       ?_Compat@?$_Deque_const_iterator@V?$_Deque_val@U?$_Deque_simple_types@UFORMULA_PAIR@@@std@@@std@@@std@@QBEXABV12@@Z 0045aab0 f i test.obj
 0002:0001abd0       ?_Copy@?$basic_string@DU?$char_traits@D@std@@V?$allocator@D@2@@std@@QAEXII@Z 0045abd0 f i test.obj
 0002:0001ae60       ?_Copy_alloc@?$_Deque_alloc@U?$_Deque_base_types@UFORMULA2_PAIR@@V?$allocator@UFORMULA2_PAIR@@@std@@@std@@@std@@QAEXABU?$_Wrap_alloc@V?$allocator@UFORMULA2_PAIR@@@std@@@2@@Z 0045ae60 f i test.obj
 0002:0001aee0       ?_Copy_alloc@?$_Deque_alloc@U?$_Deque_base_types@UFORMULA_PAIR@@V?$allocator@UFORMULA_PAIR@@@std@@@std@@@std@@QAEXABU?$_Wrap_alloc@V?$allocator@UFORMULA_PAIR@@@std@@@2@@Z 0045aee0 f i test.obj
 0002:0001af60       ?_Deallocate@std@@YAXPAXII@Z 0045af60 f i test.obj
 0002:0001b4a0       ?_Destroy@?$vector@V?$basic_string@DU?$char_traits@D@std@@V?$allocator@D@2@@std@@V?$allocator@V?$basic_string@DU?$char_traits@D@std@@V?$allocator@D@2@@std@@@2@@std@@IAEXPAV?$basic_string@DU?$char_traits@D@std@@V?$allocator@D@2@@2@0@Z 0045b4a0 f i test.obj
 0002:0001b510       ?_Eos@?$basic_string@DU?$char_traits@D@std@@V?$allocator@D@2@@std@@QAEXI@Z 0045b510 f i test.obj
 0002:0001b5a0       ?_Free_proxy@?$_Deque_alloc@U?$_Deque_base_types@UFORMULA2_PAIR@@V?$allocator@UFORMULA2_PAIR@@@std@@@std@@@std@@QAEXXZ 0045b5a0 f i test.obj
 0002:0001b690       ?_Free_proxy@?$_Deque_alloc@U?$_Deque_base_types@UFORMULA_PAIR@@V?$allocator@UFORMULA_PAIR@@@std@@@std@@@std@@QAEXXZ 0045b690 f i test.obj
 0002:0001b780       ?_Free_proxy@?$_String_alloc@U?$_String_base_types@DV?$allocator@D@std@@@std@@@std@@QAEXXZ 0045b780 f i test.obj
 0002:0001b870       ?_Free_proxy@?$_Vector_alloc@U?$_Vec_base_types@V?$basic_string@DU?$char_traits@D@std@@V?$allocator@D@2@@std@@V?$allocator@V?$basic_string@DU?$char_traits@D@std@@V?$allocator@D@2@@std@@@2@@std@@@std@@QAEXXZ 0045b870 f i test.obj
 0002:0001b960       ?_Get_data@?$_Deque_alloc@U?$_Deque_base_types@UFORMULA2_PAIR@@V?$allocator@UFORMULA2_PAIR@@@std@@@std@@@std@@QAEAAV?$_Deque_val@U?$_Deque_simple_types@UFORMULA2_PAIR@@@std@@@2@XZ 0045b960 f i test.obj
 0002:0001b9b0       ?_Get_data@?$_Deque_alloc@U?$_Deque_base_types@UFORMULA2_PAIR@@V?$allocator@UFORMULA2_PAIR@@@std@@@std@@@std@@QBEABV?$_Deque_val@U?$_Deque_simple_types@UFORMULA2_PAIR@@@std@@@2@XZ 0045b9b0 f i test.obj
 0002:0001ba00       ?_Get_data@?$_Deque_alloc@U?$_Deque_base_types@UFORMULA_PAIR@@V?$allocator@UFORMULA_PAIR@@@std@@@std@@@std@@QAEAAV?$_Deque_val@U?$_Deque_simple_types@UFORMULA_PAIR@@@std@@@2@XZ 0045ba00 f i test.obj
 0002:0001ba50       ?_Get_data@?$_Deque_alloc@U?$_Deque_base_types@UFORMULA_PAIR@@V?$allocator@UFORMULA_PAIR@@@std@@@std@@@std@@QBEABV?$_Deque_val@U?$_Deque_simple_types@UFORMULA_PAIR@@@std@@@2@XZ 0045ba50 f i test.obj
 0002:0001baa0       ?_Get_data@?$_String_alloc@U?$_String_base_types@DV?$allocator@D@std@@@std@@@std@@QAEAAV?$_String_val@U?$_Simple_types@D@std@@@2@XZ 0045baa0 f i test.obj
 0002:0001baf0       ?_Get_data@?$_String_alloc@U?$_String_base_types@DV?$allocator@D@std@@@std@@@std@@QBEABV?$_String_val@U?$_Simple_types@D@std@@@2@XZ 0045baf0 f i test.obj
 0002:0001bb40       ?_Get_data@?$_Vector_alloc@U?$_Vec_base_types@V?$basic_string@DU?$char_traits@D@std@@V?$allocator@D@2@@std@@V?$allocator@V?$basic_string@DU?$char_traits@D@std@@V?$allocator@D@2@@std@@@2@@std@@@std@@QAEAAV?$_Vector_val@U?$_Simple_types@V?$basic_string@DU?$char_traits@D@std@@V?$allocator@D@2@@std@@@std@@@2@XZ 0045bb40 f i test.obj
 0002:0001bb90       ?_Get_data@?$_Vector_alloc@U?$_Vec_base_types@V?$basic_string@DU?$char_traits@D@std@@V?$allocator@D@2@@std@@V?$allocator@V?$basic_string@DU?$char_traits@D@std@@V?$allocator@D@2@@std@@@2@@std@@@std@@QBEABV?$_Vector_val@U?$_Simple_types@V?$basic_string@DU?$char_traits@D@std@@V?$allocator@D@2@@std@@@std@@@2@XZ 0045bb90 f i test.obj
 0002:0001bbe0       ?_Get_first@?$_Compressed_pair@U?$_Wrap_alloc@V?$allocator@D@std@@@std@@V?$_String_val@U?$_Simple_types@D@std@@@2@$00@std@@QAEAAU?$_Wrap_alloc@V?$allocator@D@std@@@2@XZ 0045bbe0 f i test.obj
 0002:0001bc20       ?_Get_first@?$_Compressed_pair@U?$_Wrap_alloc@V?$allocator@D@std@@@std@@V?$_String_val@U?$_Simple_types@D@std@@@2@$00@std@@QBEABU?$_Wrap_alloc@V?$allocator@D@std@@@2@XZ 0045bc20 f i test.obj
 0002:0001bc60       ?_Get_first@?$_Compressed_pair@U?$_Wrap_alloc@V?$allocator@UFORMULA2_PAIR@@@std@@@std@@V?$_Deque_val@U?$_Deque_simple_types@UFORMULA2_PAIR@@@std@@@2@$00@std@@QAEAAU?$_Wrap_alloc@V?$allocator@UFORMULA2_PAIR@@@std@@@2@XZ 0045bc60 f i test.obj
 0002:0001bca0       ?_Get_first@?$_Compressed_pair@U?$_Wrap_alloc@V?$allocator@UFORMULA2_PAIR@@@std@@@std@@V?$_Deque_val@U?$_Deque_simple_types@UFORMULA2_PAIR@@@std@@@2@$00@std@@QBEABU?$_Wrap_alloc@V?$allocator@UFORMULA2_PAIR@@@std@@@2@XZ 0045bca0 f i test.obj
 0002:0001bce0       ?_Get_first@?$_Compressed_pair@U?$_Wrap_alloc@V?$allocator@UFORMULA_PAIR@@@std@@@std@@V?$_Deque_val@U?$_Deque_simple_types@UFORMULA_PAIR@@@std@@@2@$00@std@@QAEAAU?$_Wrap_alloc@V?$allocator@UFORMULA_PAIR@@@std@@@2@XZ 0045bce0 f i test.obj
 0002:0001bd20       ?_Get_first@?$_Compressed_pair@U?$_Wrap_alloc@V?$allocator@UFORMULA_PAIR@@@std@@@std@@V?$_Deque_val@U?$_Deque_simple_types@UFORMULA_PAIR@@@std@@@2@$00@std@@QBEABU?$_Wrap_alloc@V?$allocator@UFORMULA_PAIR@@@std@@@2@XZ 0045bd20 f i test.obj
 0002:0001bd60       ?_Get_first@?$_Compressed_pair@U?$_Wrap_alloc@V?$allocator@V?$basic_string@DU?$char_traits@D@std@@V?$allocator@D@2@@std@@@std@@@std@@V?$_Vector_val@U?$_Simple_types@V?$basic_string@DU?$char_traits@D@std@@V?$allocator@D@2@@std@@@std@@@2@$00@std@@QAEAAU?$_Wrap_alloc@V?$allocator@V?$basic_string@DU?$char_traits@D@std@@V?$allocator@D@2@@std@@@std@@@2@XZ 0045bd60 f i test.obj
 0002:0001bda0       ?_Get_first@?$_Compressed_pair@U?$_Wrap_alloc@V?$allocator@V?$basic_string@DU?$char_traits@D@std@@V?$allocator@D@2@@std@@@std@@@std@@V?$_Vector_val@U?$_Simple_types@V?$basic_string@DU?$char_traits@D@std@@V?$allocator@D@2@@std@@@std@@@2@$00@std@@QBEABU?$_Wrap_alloc@V?$allocator@V?$basic_string@DU?$char_traits@D@std@@V?$allocator@D@2@@std@@@std@@@2@XZ 0045bda0 f i test.obj
 0002:0001bde0       ?_Get_second@?$_Compressed_pair@U?$_Wrap_alloc@V?$allocator@D@std@@@std@@V?$_String_val@U?$_Simple_types@D@std@@@2@$00@std@@QAEAAV?$_String_val@U?$_Simple_types@D@std@@@2@XZ 0045bde0 f i test.obj
 0002:0001be20       ?_Get_second@?$_Compressed_pair@U?$_Wrap_alloc@V?$allocator@D@std@@@std@@V?$_String_val@U?$_Simple_types@D@std@@@2@$00@std@@QBEABV?$_String_val@U?$_Simple_types@D@std@@@2@XZ 0045be20 f i test.obj
 0002:0001be60       ?_Get_second@?$_Compressed_pair@U?$_Wrap_alloc@V?$allocator@UFORMULA2_PAIR@@@std@@@std@@V?$_Deque_val@U?$_Deque_simple_types@UFORMULA2_PAIR@@@std@@@2@$00@std@@QAEAAV?$_Deque_val@U?$_Deque_simple_types@UFORMULA2_PAIR@@@std@@@2@XZ 0045be60 f i test.obj
 0002:0001bea0       ?_Get_second@?$_Compressed_pair@U?$_Wrap_alloc@V?$allocator@UFORMULA2_PAIR@@@std@@@std@@V?$_Deque_val@U?$_Deque_simple_types@UFORMULA2_PAIR@@@std@@@2@$00@std@@QBEABV?$_Deque_val@U?$_Deque_simple_types@UFORMULA2_PAIR@@@std@@@2@XZ 0045bea0 f i test.obj
 0002:0001bee0       ?_Get_second@?$_Compressed_pair@U?$_Wrap_alloc@V?$allocator@UFORMULA_PAIR@@@std@@@std@@V?$_Deque_val@U?$_Deque_simple_types@UFORMULA_PAIR@@@std@@@2@$00@std@@QAEAAV?$_Deque_val@U?$_Deque_simple_types@UFORMULA_PAIR@@@std@@@2@XZ 0045bee0 f i test.obj
 0002:0001bf20       ?_Get_second@?$_Compressed_pair@U?$_Wrap_alloc@V?$allocator@UFORMULA_PAIR@@@std@@@std@@V?$_Deque_val@U?$_Deque_simple_types@UFORMULA_PAIR@@@std@@@2@$00@std@@QBEABV?$_Deque_val@U?$_Deque_simple_types@UFORMULA_PAIR@@@std@@@2@XZ 0045bf20 f i test.obj
 0002:0001bf60       ?_Get_second@?$_Compressed_pair@U?$_Wrap_alloc@V?$allocator@V?$basic_string@DU?$char_traits@D@std@@V?$allocator@D@2@@std@@@std@@@std@@V?$_Vector_val@U?$_Simple_types@V?$basic_string@DU?$char_traits@D@std@@V?$allocator@D@2@@std@@@std@@@2@$00@std@@QAEAAV?$_Vector_val@U?$_Simple_types@V?$basic_string@DU?$char_traits@D@std@@V?$allocator@D@2@@std@@@std@@@2@XZ 0045bf60 f i test.obj
 0002:0001bfa0       ?_Get_second@?$_Compressed_pair@U?$_Wrap_alloc@V?$allocator@V?$basic_string@DU?$char_traits@D@std@@V?$allocator@D@2@@std@@@std@@@std@@V?$_Vector_val@U?$_Simple_types@V?$basic_string@DU?$char_traits@D@std@@V?$allocator@D@2@@std@@@std@@@2@$00@std@@QBEABV?$_Vector_val@U?$_Simple_types@V?$basic_string@DU?$char_traits@D@std@@V?$allocator@D@2@@std@@@std@@@2@XZ 0045bfa0 f i test.obj
 0002:0001bfe0       ?_Getal@?$_Deque_alloc@U?$_Deque_base_types@UFORMULA2_PAIR@@V?$allocator@UFORMULA2_PAIR@@@std@@@std@@@std@@QAEAAU?$_Wrap_alloc@V?$allocator@UFORMULA2_PAIR@@@std@@@2@XZ 0045bfe0 f i test.obj
 0002:0001c030       ?_Getal@?$_Deque_alloc@U?$_Deque_base_types@UFORMULA2_PAIR@@V?$allocator@UFORMULA2_PAIR@@@std@@@std@@@std@@QBEABU?$_Wrap_alloc@V?$allocator@UFORMULA2_PAIR@@@std@@@2@XZ 0045c030 f i test.obj
 0002:0001c080       ?_Getal@?$_Deque_alloc@U?$_Deque_base_types@UFORMULA_PAIR@@V?$allocator@UFORMULA_PAIR@@@std@@@std@@@std@@QAEAAU?$_Wrap_alloc@V?$allocator@UFORMULA_PAIR@@@std@@@2@XZ 0045c080 f i test.obj
 0002:0001c0d0       ?_Getal@?$_Deque_alloc@U?$_Deque_base_types@UFORMULA_PAIR@@V?$allocator@UFORMULA_PAIR@@@std@@@std@@@std@@QBEABU?$_Wrap_alloc@V?$allocator@UFORMULA_PAIR@@@std@@@2@XZ 0045c0d0 f i test.obj
 0002:0001c120       ?_Getal@?$_String_alloc@U?$_String_base_types@DV?$allocator@D@std@@@std@@@std@@QAEAAU?$_Wrap_alloc@V?$allocator@D@std@@@2@XZ 0045c120 f i test.obj
 0002:0001c170       ?_Getal@?$_String_alloc@U?$_String_base_types@DV?$allocator@D@std@@@std@@@std@@QBEABU?$_Wrap_alloc@V?$allocator@D@std@@@2@XZ 0045c170 f i test.obj
 0002:0001c1c0       ?_Getal@?$_Vector_alloc@U?$_Vec_base_types@V?$basic_string@DU?$char_traits@D@std@@V?$allocator@D@2@@std@@V?$allocator@V?$basic_string@DU?$char_traits@D@std@@V?$allocator@D@2@@std@@@2@@std@@@std@@QAEAAU?$_Wrap_alloc@V?$allocator@V?$basic_string@DU?$char_traits@D@std@@V?$allocator@D@2@@std@@@std@@@2@XZ 0045c1c0 f i test.obj
 0002:0001c210       ?_Getal@?$_Vector_alloc@U?$_Vec_base_types@V?$basic_string@DU?$char_traits@D@std@@V?$allocator@D@2@@std@@V?$allocator@V?$basic_string@DU?$char_traits@D@std@@V?$allocator@D@2@@std@@@2@@std@@@std@@QBEABU?$_Wrap_alloc@V?$allocator@V?$basic_string@DU?$char_traits@D@std@@V?$allocator@D@2@@std@@@std@@@2@XZ 0045c210 f i test.obj
 0002:0001c260       ?_Getblock@?$_Deque_alloc@U?$_Deque_base_types@UFORMULA2_PAIR@@V?$allocator@UFORMULA2_PAIR@@@std@@@std@@@std@@QBEII@Z 0045c260 f i test.obj
 0002:0001c2c0       ?_Getblock@?$_Deque_alloc@U?$_Deque_base_types@UFORMULA_PAIR@@V?$allocator@UFORMULA_PAIR@@@std@@@std@@@std@@QBEII@Z 0045c2c0 f i test.obj
 0002:0001c320       ?_Getblock@?$_Deque_val@U?$_Deque_simple_types@UFORMULA2_PAIR@@@std@@@std@@QBEII@Z 0045c320 f i test.obj
 0002:0001c370       ?_Getblock@?$_Deque_val@U?$_Deque_simple_types@UFORMULA_PAIR@@@std@@@std@@QBEII@Z 0045c370 f i test.obj
 0002:0001c3c0       ?_Getcont@_Iterator_base12@std@@QBEPBU_Container_base12@2@XZ 0045c3c0 f i test.obj
 0002:0001c430       ?_Getpfirst@?$_Deque_alloc@U?$_Deque_base_types@UFORMULA2_PAIR@@V?$allocator@UFORMULA2_PAIR@@@std@@@std@@@std@@QBEPAPAU_Iterator_base12@2@XZ 0045c430 f i test.obj
 0002:0001c490       ?_Getpfirst@?$_Deque_alloc@U?$_Deque_base_types@UFORMULA_PAIR@@V?$allocator@UFORMULA_PAIR@@@std@@@std@@@std@@QBEPAPAU_Iterator_base12@2@XZ 0045c490 f i test.obj
 0002:0001c4f0       ?_Getpfirst@?$_Vector_alloc@U?$_Vec_base_types@V?$basic_string@DU?$char_traits@D@std@@V?$allocator@D@2@@std@@V?$allocator@V?$basic_string@DU?$char_traits@D@std@@V?$allocator@D@2@@std@@@2@@std@@@std@@QBEPAPAU_Iterator_base12@2@XZ 0045c4f0 f i test.obj
 0002:0001c550       ?_Getpfirst@_Container_base12@std@@QBEPAPAU_Iterator_base12@2@XZ 0045c550 f i test.obj
 0002:0001c5c0       ?_Getpnext@_Iterator_base12@std@@QAEPAPAU12@XZ 0045c5c0 f i test.obj
 0002:0001c600       ?_Grow@?$basic_string@DU?$char_traits@D@std@@V?$allocator@D@2@@std@@QAE_NI_N@Z 0045c600 f i test.obj
 0002:0001c730       ?_Grow_to@?$vector@V?$basic_string@DU?$char_traits@D@std@@V?$allocator@D@2@@std@@V?$allocator@V?$basic_string@DU?$char_traits@D@std@@V?$allocator@D@2@@std@@@2@@std@@IBEII@Z 0045c730 f i test.obj
 0002:0001c7e0       ?_Growmap@?$deque@UFORMULA2_PAIR@@V?$allocator@UFORMULA2_PAIR@@@std@@@std@@IAEXI@Z 0045c7e0 f i test.obj
 0002:0001cb70       ?_Growmap@?$deque@UFORMULA_PAIR@@V?$allocator@UFORMULA_PAIR@@@std@@@std@@IAEXI@Z 0045cb70 f i test.obj
 0002:0001cf00       ?_Inside@?$basic_string@DU?$char_traits@D@std@@V?$allocator@D@2@@std@@QAE_NPBD@Z 0045cf00 f i test.obj
 0002:0001cf90       ?_Inside@?$vector@V?$basic_string@DU?$char_traits@D@std@@V?$allocator@D@2@@std@@V?$allocator@V?$basic_string@DU?$char_traits@D@std@@V?$allocator@D@2@@std@@@2@@std@@IBE_NPBV?$basic_string@DU?$char_traits@D@std@@V?$allocator@D@2@@2@@Z 0045cf90 f i test.obj
 0002:0001d020       ?_Make_iter@?$deque@UFORMULA2_PAIR@@V?$allocator@UFORMULA2_PAIR@@@std@@@std@@QBE?AV?$_Deque_iterator@V?$_Deque_val@U?$_Deque_simple_types@UFORMULA2_PAIR@@@std@@@std@@@2@V?$_Deque_const_iterator@V?$_Deque_val@U?$_Deque_simple_types@UFORMULA2_PAIR@@@std@@@std@@@2@@Z 0045d020 f i test.obj
 0002:0001d0f0       ?_Make_iter@?$deque@UFORMULA_PAIR@@V?$allocator@UFORMULA_PAIR@@@std@@@std@@QBE?AV?$_Deque_iterator@V?$_Deque_val@U?$_Deque_simple_types@UFORMULA_PAIR@@@std@@@std@@@2@V?$_Deque_const_iterator@V?$_Deque_val@U?$_Deque_simple_types@UFORMULA_PAIR@@@std@@@std@@@2@@Z 0045d0f0 f i test.obj
 0002:0001d1c0       ?_Map@?$_Deque_alloc@U?$_Deque_base_types@UFORMULA2_PAIR@@V?$allocator@UFORMULA2_PAIR@@@std@@@std@@@std@@QAEAAPAPAUFORMULA2_PAIR@@XZ 0045d1c0 f i test.obj
 0002:0001d220       ?_Map@?$_Deque_alloc@U?$_Deque_base_types@UFORMULA_PAIR@@V?$allocator@UFORMULA_PAIR@@@std@@@std@@@std@@QAEAAPAPAUFORMULA_PAIR@@XZ 0045d220 f i test.obj
 0002:0001d280       ?_Mapsize@?$_Deque_alloc@U?$_Deque_base_types@UFORMULA2_PAIR@@V?$allocator@UFORMULA2_PAIR@@@std@@@std@@@std@@QAEAAIXZ 0045d280 f i test.obj
 0002:0001d2e0       ?_Mapsize@?$_Deque_alloc@U?$_Deque_base_types@UFORMULA_PAIR@@V?$allocator@UFORMULA_PAIR@@@std@@@std@@@std@@QAEAAIXZ 0045d2e0 f i test.obj
 0002:0001d340       ?_Myend@?$_Vector_alloc@U?$_Vec_base_types@V?$basic_string@DU?$char_traits@D@std@@V?$allocator@D@2@@std@@V?$allocator@V?$basic_string@DU?$char_traits@D@std@@V?$allocator@D@2@@std@@@2@@std@@@std@@QAEAAPAV?$basic_string@DU?$char_traits@D@std@@V?$allocator@D@2@@2@XZ 0045d340 f i test.obj
 0002:0001d3a0       ?_Myend@?$_Vector_alloc@U?$_Vec_base_types@V?$basic_string@DU?$char_traits@D@std@@V?$allocator@D@2@@std@@V?$allocator@V?$basic_string@DU?$char_traits@D@std@@V?$allocator@D@2@@std@@@2@@std@@@std@@QBEABQAV?$basic_string@DU?$char_traits@D@std@@V?$allocator@D@2@@2@XZ 0045d3a0 f i test.obj
 0002:0001d400       ?_Myfirst@?$_Vector_alloc@U?$_Vec_base_types@V?$basic_string@DU?$char_traits@D@std@@V?$allocator@D@2@@std@@V?$allocator@V?$basic_string@DU?$char_traits@D@std@@V?$allocator@D@2@@std@@@2@@std@@@std@@QAEAAPAV?$basic_string@DU?$char_traits@D@std@@V?$allocator@D@2@@2@XZ 0045d400 f i test.obj
 0002:0001d460       ?_Myfirst@?$_Vector_alloc@U?$_Vec_base_types@V?$basic_string@DU?$char_traits@D@std@@V?$allocator@D@2@@std@@V?$allocator@V?$basic_string@DU?$char_traits@D@std@@V?$allocator@D@2@@std@@@2@@std@@@std@@QBEABQAV?$basic_string@DU?$char_traits@D@std@@V?$allocator@D@2@@2@XZ 0045d460 f i test.obj
 0002:0001d4c0       ?_Mylast@?$_Vector_alloc@U?$_Vec_base_types@V?$basic_string@DU?$char_traits@D@std@@V?$allocator@D@2@@std@@V?$allocator@V?$basic_string@DU?$char_traits@D@std@@V?$allocator@D@2@@std@@@2@@std@@@std@@QAEAAPAV?$basic_string@DU?$char_traits@D@std@@V?$allocator@D@2@@2@XZ 0045d4c0 f i test.obj
 0002:0001d520       ?_Mylast@?$_Vector_alloc@U?$_Vec_base_types@V?$basic_string@DU?$char_traits@D@std@@V?$allocator@D@2@@std@@V?$allocator@V?$basic_string@DU?$char_traits@D@std@@V?$allocator@D@2@@std@@@2@@std@@@std@@QBEABQAV?$basic_string@DU?$char_traits@D@std@@V?$allocator@D@2@@2@XZ 0045d520 f i test.obj
 0002:0001d580       ?_Myoff@?$_Deque_alloc@U?$_Deque_base_types@UFORMULA2_PAIR@@V?$allocator@UFORMULA2_PAIR@@@std@@@std@@@std@@QAEAAIXZ 0045d580 f i test.obj
 0002:0001d5e0       ?_Myoff@?$_Deque_alloc@U?$_Deque_base_types@UFORMULA2_PAIR@@V?$allocator@UFORMULA2_PAIR@@@std@@@std@@@std@@QBEABIXZ 0045d5e0 f i test.obj
 0002:0001d640       ?_Myoff@?$_Deque_alloc@U?$_Deque_base_types@UFORMULA_PAIR@@V?$allocator@UFORMULA_PAIR@@@std@@@std@@@std@@QAEAAIXZ 0045d640 f i test.obj
 0002:0001d6a0       ?_Myoff@?$_Deque_alloc@U?$_Deque_base_types@UFORMULA_PAIR@@V?$allocator@UFORMULA_PAIR@@@std@@@std@@@std@@QBEABIXZ 0045d6a0 f i test.obj
 0002:0001d700       ?_Myproxy@?$_Deque_alloc@U?$_Deque_base_types@UFORMULA2_PAIR@@V?$allocator@UFORMULA2_PAIR@@@std@@@std@@@std@@QAEAAPAU_Container_proxy@2@XZ 0045d700 f i test.obj
 0002:0001d750       ?_Myproxy@?$_Deque_alloc@U?$_Deque_base_types@UFORMULA_PAIR@@V?$allocator@UFORMULA_PAIR@@@std@@@std@@@std@@QAEAAPAU_Container_proxy@2@XZ 0045d750 f i test.obj
 0002:0001d7a0       ?_Myproxy@?$_String_alloc@U?$_String_base_types@DV?$allocator@D@std@@@std@@@std@@QAEAAPAU_Container_proxy@2@XZ 0045d7a0 f i test.obj
 0002:0001d7f0       ?_Myproxy@?$_Vector_alloc@U?$_Vec_base_types@V?$basic_string@DU?$char_traits@D@std@@V?$allocator@D@2@@std@@V?$allocator@V?$basic_string@DU?$char_traits@D@std@@V?$allocator@D@2@@std@@@2@@std@@@std@@QAEAAPAU_Container_proxy@2@XZ 0045d7f0 f i test.obj
 0002:0001d840       ?_Myptr@?$_String_alloc@U?$_String_base_types@DV?$allocator@D@std@@@std@@@std@@QAEPADXZ 0045d840 f i test.obj
 0002:0001d8a0       ?_Myptr@?$_String_alloc@U?$_String_base_types@DV?$allocator@D@std@@@std@@@std@@QBEPBDXZ 0045d8a0 f i test.obj
 0002:0001d900       ?_Myptr@?$_String_val@U?$_Simple_types@D@std@@@std@@QAEPADXZ 0045d900 f i test.obj
 0002:0001d990       ?_Myptr@?$_String_val@U?$_Simple_types@D@std@@@std@@QBEPBDXZ 0045d990 f i test.obj
 0002:0001da20       ?_Myres@?$_String_alloc@U?$_String_base_types@DV?$allocator@D@std@@@std@@@std@@QAEAAIXZ 0045da20 f i test.obj
 0002:0001da80       ?_Mysize@?$_Deque_alloc@U?$_Deque_base_types@UFORMULA2_PAIR@@V?$allocator@UFORMULA2_PAIR@@@std@@@std@@@std@@QAEAAIXZ 0045da80 f i test.obj
 0002:0001dae0       ?_Mysize@?$_Deque_alloc@U?$_Deque_base_types@UFORMULA2_PAIR@@V?$allocator@UFORMULA2_PAIR@@@std@@@std@@@std@@QBEABIXZ 0045dae0 f i test.obj
 0002:0001db40       ?_Mysize@?$_Deque_alloc@U?$_Deque_base_types@UFORMULA_PAIR@@V?$allocator@UFORMULA_PAIR@@@std@@@std@@@std@@QAEAAIXZ 0045db40 f i test.obj
 0002:0001dba0       ?_Mysize@?$_Deque_alloc@U?$_Deque_base_types@UFORMULA_PAIR@@V?$allocator@UFORMULA_PAIR@@@std@@@std@@@std@@QBEABIXZ 0045dba0 f i test.obj
 0002:0001dc00       ?_Mysize@?$_String_alloc@U?$_String_base_types@DV?$allocator@D@std@@@std@@@std@@QAEAAIXZ 0045dc00 f i test.obj
 0002:0001dc60       ?_Mysize@?$_String_alloc@U?$_String_base_types@DV?$allocator@D@std@@@std@@@std@@QBEABIXZ 0045dc60 f i test.obj
 0002:0001dcc0       ?_Orphan_all@?$_Deque_alloc@U?$_Deque_base_types@UFORMULA2_PAIR@@V?$allocator@UFORMULA2_PAIR@@@std@@@std@@@std@@QAEXXZ 0045dcc0 f i test.obj
 0002:0001dd20       ?_Orphan_all@?$_Deque_alloc@U?$_Deque_base_types@UFORMULA_PAIR@@V?$allocator@UFORMULA_PAIR@@@std@@@std@@@std@@QAEXXZ 0045dd20 f i test.obj
 0002:0001dd80       ?_Orphan_all@?$_String_alloc@U?$_String_base_types@DV?$allocator@D@std@@@std@@@std@@QAEXXZ 0045dd80 f i test.obj
 0002:0001dde0       ?_Orphan_all@?$_Vector_alloc@U?$_Vec_base_types@V?$basic_string@DU?$char_traits@D@std@@V?$allocator@D@2@@std@@V?$allocator@V?$basic_string@DU?$char_traits@D@std@@V?$allocator@D@2@@std@@@2@@std@@@std@@QAEXXZ 0045dde0 f i test.obj
 0002:0001de40       ?_Orphan_all@_Container_base12@std@@QAEXXZ 0045de40 f i test.obj
 0002:0001df90       ?_Orphan_me@_Iterator_base12@std@@QAEXXZ 0045df90 f i test.obj
 0002:0001e060       ?_Orphan_off@?$deque@UFORMULA2_PAIR@@V?$allocator@UFORMULA2_PAIR@@@std@@@std@@IBEXI@Z 0045e060 f i test.obj
 0002:0001e240       ?_Orphan_off@?$deque@UFORMULA_PAIR@@V?$allocator@UFORMULA_PAIR@@@std@@@std@@IBEXI@Z 0045e240 f i test.obj
 0002:0001e420       ?_Orphan_range@?$vector@V?$basic_string@DU?$char_traits@D@std@@V?$allocator@D@2@@std@@V?$allocator@V?$basic_string@DU?$char_traits@D@std@@V?$allocator@D@2@@std@@@2@@std@@IBEXPAV?$basic_string@DU?$char_traits@D@std@@V?$allocator@D@2@@2@0@Z 0045e420 f i test.obj
 0002:0001e590       ?_Reallocate@?$vector@V?$basic_string@DU?$char_traits@D@std@@V?$allocator@D@2@@std@@V?$allocator@V?$basic_string@DU?$char_traits@D@std@@V?$allocator@D@2@@std@@@2@@std@@IAEXI@Z 0045e590 f i test.obj
 0002:0001e780       ?_Rechecked@?$_Deque_iterator@V?$_Deque_val@U?$_Deque_simple_types@UFORMULA2_PAIR@@@std@@@std@@@std@@QAEAAV12@V?$_Deque_unchecked_iterator@V?$_Deque_val@U?$_Deque_simple_types@UFORMULA2_PAIR@@@std@@@std@@@2@@Z 0045e780 f i test.obj
 0002:0001e7d0       ?_Rechecked@?$_Deque_iterator@V?$_Deque_val@U?$_Deque_simple_types@UFORMULA_PAIR@@@std@@@std@@@std@@QAEAAV12@V?$_Deque_unchecked_iterator@V?$_Deque_val@U?$_Deque_simple_types@UFORMULA_PAIR@@@std@@@std@@@2@@Z 0045e7d0 f i test.obj
 0002:0001e820       ?_Reserve@?$vector@V?$basic_string@DU?$char_traits@D@std@@V?$allocator@D@2@@std@@V?$allocator@V?$basic_string@DU?$char_traits@D@std@@V?$allocator@D@2@@std@@@2@@std@@IAEXI@Z 0045e820 f i test.obj
 0002:0001e8d0       ?_Setcont@?$_Deque_const_iterator@V?$_Deque_val@U?$_Deque_simple_types@UFORMULA2_PAIR@@@std@@@std@@@std@@QAEXPBV?$_Deque_val@U?$_Deque_simple_types@UFORMULA2_PAIR@@@std@@@2@@Z 0045e8d0 f i test.obj
 0002:0001e930       ?_Setcont@?$_Deque_const_iterator@V?$_Deque_val@U?$_Deque_simple_types@UFORMULA_PAIR@@@std@@@std@@@std@@QAEXPBV?$_Deque_val@U?$_Deque_simple_types@UFORMULA_PAIR@@@std@@@2@@Z 0045e930 f i test.obj
 0002:0001e990       ?_Tidy@?$basic_string@DU?$char_traits@D@std@@V?$allocator@D@2@@std@@QAEX_NI@Z 0045e990 f i test.obj
 0002:0001eaa0       ?_Tidy@?$deque@UFORMULA2_PAIR@@V?$allocator@UFORMULA2_PAIR@@@std@@@std@@IAEXXZ 0045eaa0 f i test.obj
 0002:0001ec40       ?_Tidy@?$deque@UFORMULA_PAIR@@V?$allocator@UFORMULA_PAIR@@@std@@@std@@IAEXXZ 0045ec40 f i test.obj
 0002:0001ede0       ?_Tidy@?$vector@V?$basic_string@DU?$char_traits@D@std@@V?$allocator@D@2@@std@@V?$allocator@V?$basic_string@DU?$char_traits@D@std@@V?$allocator@D@2@@std@@@2@@std@@IAEXXZ 0045ede0 f i test.obj
 0002:0001eef0       ?_Unchecked@?$_Deque_const_iterator@V?$_Deque_val@U?$_Deque_simple_types@UFORMULA2_PAIR@@@std@@@std@@@std@@QBE?AV?$_Deque_unchecked_const_iterator@V?$_Deque_val@U?$_Deque_simple_types@UFORMULA2_PAIR@@@std@@@std@@@2@XZ 0045eef0 f i test.obj
 0002:0001ef60       ?_Unchecked@?$_Deque_const_iterator@V?$_Deque_val@U?$_Deque_simple_types@UFORMULA_PAIR@@@std@@@std@@@std@@QBE?AV?$_Deque_unchecked_const_iterator@V?$_Deque_val@U?$_Deque_simple_types@UFORMULA_PAIR@@@std@@@std@@@2@XZ 0045ef60 f i test.obj
 0002:0001efd0       ?_Unchecked@?$_Deque_iterator@V?$_Deque_val@U?$_Deque_simple_types@UFORMULA2_PAIR@@@std@@@std@@@std@@QBE?AV?$_Deque_unchecked_iterator@V?$_Deque_val@U?$_Deque_simple_types@UFORMULA2_PAIR@@@std@@@std@@@2@XZ 0045efd0 f i test.obj
 0002:0001f040       ?_Unchecked@?$_Deque_iterator@V?$_Deque_val@U?$_Deque_simple_types@UFORMULA_PAIR@@@std@@@std@@@std@@QBE?AV?$_Deque_unchecked_iterator@V?$_Deque_val@U?$_Deque_simple_types@UFORMULA_PAIR@@@std@@@std@@@2@XZ 0045f040 f i test.obj
 0002:0001f0b0       ?_Unused_capacity@?$vector@V?$basic_string@DU?$char_traits@D@std@@V?$allocator@D@2@@std@@V?$allocator@V?$basic_string@DU?$char_traits@D@std@@V?$allocator@D@2@@std@@@2@@std@@QBEIXZ 0045f0b0 f i test.obj
 0002:0001f120       ?_Xlen@?$basic_string@DU?$char_traits@D@std@@V?$allocator@D@2@@std@@QBEXXZ 0045f120 f i test.obj
 0002:0001f180       ?_Xlen@?$deque@UFORMULA2_PAIR@@V?$allocator@UFORMULA2_PAIR@@@std@@@std@@IBEXXZ 0045f180 f i test.obj
 0002:0001f1e0       ?_Xlen@?$deque@UFORMULA_PAIR@@V?$allocator@UFORMULA_PAIR@@@std@@@std@@IBEXXZ 0045f1e0 f i test.obj
 0002:0001f240       ?_Xlen@?$vector@V?$basic_string@DU?$char_traits@D@std@@V?$allocator@D@2@@std@@V?$allocator@V?$basic_string@DU?$char_traits@D@std@@V?$allocator@D@2@@std@@@2@@std@@IBEXXZ 0045f240 f i test.obj
 0002:0001f2a0       ?_Xran@?$basic_string@DU?$char_traits@D@std@@V?$allocator@D@2@@std@@QBEXXZ 0045f2a0 f i test.obj
 0002:0001f300       ?__empty_global_delete@@YAXPAX@Z 0045f300 f i test.obj
 0002:0001f330       ?__empty_global_delete@@YAXPAXI@Z 0045f330 f i test.obj
 0002:0001f360       ?allocate@?$_Wrap_alloc@V?$allocator@D@std@@@std@@QAEPADI@Z 0045f360 f i test.obj
 0002:0001f3c0       ?allocate@?$_Wrap_alloc@V?$allocator@PAUFORMULA2_PAIR@@@std@@@std@@QAEPAPAUFORMULA2_PAIR@@I@Z 0045f3c0 f i test.obj
 0002:0001f420       ?allocate@?$_Wrap_alloc@V?$allocator@PAUFORMULA_PAIR@@@std@@@std@@QAEPAPAUFORMULA_PAIR@@I@Z 0045f420 f i test.obj
 0002:0001f480       ?allocate@?$_Wrap_alloc@V?$allocator@UFORMULA2_PAIR@@@std@@@std@@QAEPAUFORMULA2_PAIR@@I@Z 0045f480 f i test.obj
 0002:0001f4e0       ?allocate@?$_Wrap_alloc@V?$allocator@UFORMULA_PAIR@@@std@@@std@@QAEPAUFORMULA_PAIR@@I@Z 0045f4e0 f i test.obj
 0002:0001f540       ?allocate@?$_Wrap_alloc@V?$allocator@U_Container_proxy@std@@@std@@@std@@QAEPAU_Container_proxy@2@I@Z 0045f540 f i test.obj
 0002:0001f5a0       ?allocate@?$_Wrap_alloc@V?$allocator@V?$basic_string@DU?$char_traits@D@std@@V?$allocator@D@2@@std@@@std@@@std@@QAEPAV?$basic_string@DU?$char_traits@D@std@@V?$allocator@D@2@@2@I@Z 0045f5a0 f i test.obj
 0002:0001f600       ?allocate@?$allocator@D@std@@QAEPADI@Z 0045f600 f i test.obj
 0002:0001f660       ?allocate@?$allocator@PAUFORMULA2_PAIR@@@std@@QAEPAPAUFORMULA2_PAIR@@I@Z 0045f660 f i test.obj
 0002:0001f6c0       ?allocate@?$allocator@PAUFORMULA_PAIR@@@std@@QAEPAPAUFORMULA_PAIR@@I@Z 0045f6c0 f i test.obj
 0002:0001f720       ?allocate@?$allocator@UFORMULA2_PAIR@@@std@@QAEPAUFORMULA2_PAIR@@I@Z 0045f720 f i test.obj
 0002:0001f780       ?allocate@?$allocator@UFORMULA_PAIR@@@std@@QAEPAUFORMULA_PAIR@@I@Z 0045f780 f i test.obj
 0002:0001f7e0       ?allocate@?$allocator@U_Container_proxy@std@@@std@@QAEPAU_Container_proxy@2@I@Z 0045f7e0 f i test.obj
 0002:0001f840       ?allocate@?$allocator@V?$basic_string@DU?$char_traits@D@std@@V?$allocator@D@2@@std@@@std@@QAEPAV?$basic_string@DU?$char_traits@D@std@@V?$allocator@D@2@@2@I@Z 0045f840 f i test.obj
 0002:0001f8a0       ?assign@?$basic_string@DU?$char_traits@D@std@@V?$allocator@D@2@@std@@QAEAAV12@ABV12@II@Z 0045f8a0 f i test.obj
 0002:0001f9a0       ?assign@?$basic_string@DU?$char_traits@D@std@@V?$allocator@D@2@@std@@QAEAAV12@PBD@Z 0045f9a0 f i test.obj
 0002:0001fa30       ?assign@?$basic_string@DU?$char_traits@D@std@@V?$allocator@D@2@@std@@QAEAAV12@PBDI@Z 0045fa30 f i test.obj
 0002:0001fb50       ?assign@?$char_traits@D@std@@SAXAADABD@Z 0045fb50 f i test.obj
 0002:0001fb90       ?begin@?$deque@UFORMULA2_PAIR@@V?$allocator@UFORMULA2_PAIR@@@std@@@std@@QAE?AV?$_Deque_iterator@V?$_Deque_val@U?$_Deque_simple_types@UFORMULA2_PAIR@@@std@@@std@@@2@XZ 0045fb90 f i test.obj
 0002:0001fc60       ?begin@?$deque@UFORMULA2_PAIR@@V?$allocator@UFORMULA2_PAIR@@@std@@@std@@QBE?AV?$_Deque_const_iterator@V?$_Deque_val@U?$_Deque_simple_types@UFORMULA2_PAIR@@@std@@@std@@@2@XZ 0045fc60 f i test.obj
 0002:0001fd30       ?begin@?$deque@UFORMULA_PAIR@@V?$allocator@UFORMULA_PAIR@@@std@@@std@@QAE?AV?$_Deque_iterator@V?$_Deque_val@U?$_Deque_simple_types@UFORMULA_PAIR@@@std@@@std@@@2@XZ 0045fd30 f i test.obj
 0002:0001fe00       ?begin@?$deque@UFORMULA_PAIR@@V?$allocator@UFORMULA_PAIR@@@std@@@std@@QBE?AV?$_Deque_const_iterator@V?$_Deque_val@U?$_Deque_simple_types@UFORMULA_PAIR@@@std@@@std@@@2@XZ 0045fe00 f i test.obj
 0002:0001fed0       ?c_str@?$basic_string@DU?$char_traits@D@std@@V?$allocator@D@2@@std@@QBEPBDXZ 0045fed0 f i test.obj
 0002:0001ff60       ?capacity@?$vector@V?$basic_string@DU?$char_traits@D@std@@V?$allocator@D@2@@std@@V?$allocator@V?$basic_string@DU?$char_traits@D@std@@V?$allocator@D@2@@std@@@2@@std@@QBEIXZ 0045ff60 f i test.obj
 0002:0001ffd0       ?cleanup@@YAXXZ            0045ffd0 f   test.obj
 0002:00020110       ?clear@?$deque@UFORMULA2_PAIR@@V?$allocator@UFORMULA2_PAIR@@@std@@@std@@QAEXXZ 00460110 f i test.obj
 0002:000201a0       ?clear@?$deque@UFORMULA_PAIR@@V?$allocator@UFORMULA_PAIR@@@std@@@std@@QAEXXZ 004601a0 f i test.obj
 0002:00020230       ?copy@?$char_traits@D@std@@SAPADPADPBDI@Z 00460230 f i test.obj
 0002:000202b0       ?deallocate@?$_Wrap_alloc@V?$allocator@D@std@@@std@@QAEXPADI@Z 004602b0 f i test.obj
 0002:00020310       ?deallocate@?$_Wrap_alloc@V?$allocator@PAUFORMULA2_PAIR@@@std@@@std@@QAEXPAPAUFORMULA2_PAIR@@I@Z 00460310 f i test.obj
 0002:00020370       ?deallocate@?$_Wrap_alloc@V?$allocator@PAUFORMULA_PAIR@@@std@@@std@@QAEXPAPAUFORMULA_PAIR@@I@Z 00460370 f i test.obj
 0002:000203d0       ?deallocate@?$_Wrap_alloc@V?$allocator@UFORMULA2_PAIR@@@std@@@std@@QAEXPAUFORMULA2_PAIR@@I@Z 004603d0 f i test.obj
 0002:00020430       ?deallocate@?$_Wrap_alloc@V?$allocator@UFORMULA_PAIR@@@std@@@std@@QAEXPAUFORMULA_PAIR@@I@Z 00460430 f i test.obj
 0002:00020490       ?deallocate@?$_Wrap_alloc@V?$allocator@U_Container_proxy@std@@@std@@@std@@QAEXPAU_Container_proxy@2@I@Z 00460490 f i test.obj
 0002:000204f0       ?deallocate@?$_Wrap_alloc@V?$allocator@V?$basic_string@DU?$char_traits@D@std@@V?$allocator@D@2@@std@@@std@@@std@@QAEXPAV?$basic_string@DU?$char_traits@D@std@@V?$allocator@D@2@@2@I@Z 004604f0 f i test.obj
 0002:00020550       ?deallocate@?$allocator@D@std@@QAEXPADI@Z 00460550 f i test.obj
 0002:000205b0       ?deallocate@?$allocator@PAUFORMULA2_PAIR@@@std@@QAEXPAPAUFORMULA2_PAIR@@I@Z 004605b0 f i test.obj
 0002:00020610       ?deallocate@?$allocator@PAUFORMULA_PAIR@@@std@@QAEXPAPAUFORMULA_PAIR@@I@Z 00460610 f i test.obj
 0002:00020670       ?deallocate@?$allocator@UFORMULA2_PAIR@@@std@@QAEXPAUFORMULA2_PAIR@@I@Z 00460670 f i test.obj
 0002:000206d0       ?deallocate@?$allocator@UFORMULA_PAIR@@@std@@QAEXPAUFORMULA_PAIR@@I@Z 004606d0 f i test.obj
 0002:00020730       ?deallocate@?$allocator@U_Container_proxy@std@@@std@@QAEXPAU_Container_proxy@2@I@Z 00460730 f i test.obj
 0002:00020790       ?deallocate@?$allocator@V?$basic_string@DU?$char_traits@D@std@@V?$allocator@D@2@@std@@@std@@QAEXPAV?$basic_string@DU?$char_traits@D@std@@V?$allocator@D@2@@2@I@Z 00460790 f i test.obj
 0002:000207f0       ?dec_factor@Physics@@QAEXXZ 004607f0 f i test.obj
 0002:000208e0       ?empty@?$deque@UFORMULA2_PAIR@@V?$allocator@UFORMULA2_PAIR@@@std@@@std@@QBE_NXZ 004608e0 f i test.obj
 0002:00020960       ?empty@?$deque@UFORMULA_PAIR@@V?$allocator@UFORMULA_PAIR@@@std@@@std@@QBE_NXZ 00460960 f i test.obj
 0002:000209e0       ?emulate_rm2@@YAXXZ        004609e0 f   test.obj
 0002:000218c0       ?end@?$deque@UFORMULA2_PAIR@@V?$allocator@UFORMULA2_PAIR@@@std@@@std@@QAE?AV?$_Deque_iterator@V?$_Deque_val@U?$_Deque_simple_types@UFORMULA2_PAIR@@@std@@@std@@@2@XZ 004618c0 f i test.obj
 0002:000219a0       ?end@?$deque@UFORMULA2_PAIR@@V?$allocator@UFORMULA2_PAIR@@@std@@@std@@QBE?AV?$_Deque_const_iterator@V?$_Deque_val@U?$_Deque_simple_types@UFORMULA2_PAIR@@@std@@@std@@@2@XZ 004619a0 f i test.obj
 0002:00021a80       ?end@?$deque@UFORMULA_PAIR@@V?$allocator@UFORMULA_PAIR@@@std@@@std@@QAE?AV?$_Deque_iterator@V?$_Deque_val@U?$_Deque_simple_types@UFORMULA_PAIR@@@std@@@std@@@2@XZ 00461a80 f i test.obj
 0002:00021b60       ?end@?$deque@UFORMULA_PAIR@@V?$allocator@UFORMULA_PAIR@@@std@@@std@@QBE?AV?$_Deque_const_iterator@V?$_Deque_val@U?$_Deque_simple_types@UFORMULA_PAIR@@@std@@@std@@@2@XZ 00461b60 f i test.obj
 0002:00021c40       ?erase@?$basic_string@DU?$char_traits@D@std@@V?$allocator@D@2@@std@@QAEAAV12@I@Z 00461c40 f i test.obj
 0002:00021cb0       ?erase@?$basic_string@DU?$char_traits@D@std@@V?$allocator@D@2@@std@@QAEAAV12@II@Z 00461cb0 f i test.obj
 0002:00021d90       ?erase@?$deque@UFORMULA2_PAIR@@V?$allocator@UFORMULA2_PAIR@@@std@@@std@@QAE?AV?$_Deque_iterator@V?$_Deque_val@U?$_Deque_simple_types@UFORMULA2_PAIR@@@std@@@std@@@2@V?$_Deque_const_iterator@V?$_Deque_val@U?$_Deque_simple_types@UFORMULA2_PAIR@@@std@@@std@@@2@0@Z 00461d90 f i test.obj
 0002:00022520       ?erase@?$deque@UFORMULA_PAIR@@V?$allocator@UFORMULA_PAIR@@@std@@@std@@QAE?AV?$_Deque_iterator@V?$_Deque_val@U?$_Deque_simple_types@UFORMULA_PAIR@@@std@@@std@@@2@V?$_Deque_const_iterator@V?$_Deque_val@U?$_Deque_simple_types@UFORMULA_PAIR@@@std@@@std@@@2@0@Z 00462520 f i test.obj
 0002:00022cb0       ?getGrade@Physics@@QAENXZ  00462cb0 f i test.obj
 0002:00022cf0       ?getPortNumber@Ctsrv@RACERMATE@@QAEHXZ 00462cf0 f i test.obj
 0002:00022d30       ?getWindForceConstant@Physics@@QAENXZ 00462d30 f i test.obj
 0002:00022d70       ?getWindPowerConstant@Physics@@QAENXZ 00462d70 f i test.obj
 0002:00022db0       ?get_avg_watts@Formula@@QAEMXZ 00462db0 f i test.obj
 0002:00022df0       ?get_avg_watts@qtFormula@@QAEMXZ 00462df0 f i test.obj
 0002:00022e30       ?get_filename@fatalError@@QAEPBDXZ 00462e30 f i test.obj
 0002:00022e70       ?get_ftp@Formula@@QAEMXZ   00462e70 f i test.obj
 0002:00022eb0       ?get_ftp@qtFormula@@QAEMXZ 00462eb0 f i test.obj
 0002:00022ef0       ?get_line@fatalError@@QAEHXZ 00462ef0 f i test.obj
 0002:00022f30       ?get_maxdq@Formula@@QAEMXZ 00462f30 f i test.obj
 0002:00022f80       ?get_maxdq@qtFormula@@QAEMXZ 00462f80 f i test.obj
 0002:00022fd0       ?get_measured_ergo_watts@Physics@@QAENXZ 00462fd0 f i test.obj
 0002:00023010       ?get_scanning_for_devices@ANT@RACERMATE@@QAE_NXZ 00463010 f i test.obj
 0002:00023050       ?get_str@fatalError@@QAEPBDXZ 00463050 f i test.obj
 0002:00023090       ?get_watts_factor@Physics@@QAENXZ 00463090 f i test.obj
 0002:000230d0       ?get_x_if@Formula@@QAEMXZ  004630d0 f i test.obj
 0002:00023110       ?get_x_if@qtFormula@@QAEMXZ 00463110 f i test.obj
 0002:00023150       ?get_x_np@Formula@@QAEMXZ  00463150 f i test.obj
 0002:00023190       ?get_x_np@qtFormula@@QAEMXZ 00463190 f i test.obj
 0002:000231d0       ?get_x_tss@Formula@@QAEMXZ 004631d0 f i test.obj
 0002:00023210       ?get_x_tss@qtFormula@@QAEMXZ 00463210 f i test.obj
 0002:00023250       ?getfval@LPFilter@@QAENXZ  00463250 f i test.obj
 0002:00023290       ?handle_pc_keyboard@@YAHPAVTrainer@@@Z 00463290 f   test.obj
 0002:000246d0       ?handle_pc_keyboard@@YAHXZ 004646d0 f   test.obj
 0002:000247d0       ?handle_program_memory_depletion@@YAHI@Z 004647d0 f   test.obj
 0002:00024870       ?inc_factor@Physics@@QAEXXZ 00464870 f i test.obj
 0002:00024960       ?iph@@YAXPB_W00II@Z        00464960 f   test.obj
 0002:00024a90       ?is_listening@ANT@RACERMATE@@QAE_NXZ 00464a90 f i test.obj
 0002:00024ad0       ?is_paused@Physics@@QAE_NXZ 00464ad0 f i test.obj
 0002:00024b10       ?length@?$char_traits@D@std@@SAIPBD@Z 00464b10 f i test.obj
 0002:00024b90       ?max_size@?$_Wrap_alloc@V?$allocator@D@std@@@std@@QBEIU_Nil@2@@Z 00464b90 f i test.obj
 0002:00024bf0       ?max_size@?$_Wrap_alloc@V?$allocator@UFORMULA2_PAIR@@@std@@@std@@QBEIU_Nil@2@@Z 00464bf0 f i test.obj
 0002:00024c50       ?max_size@?$_Wrap_alloc@V?$allocator@UFORMULA_PAIR@@@std@@@std@@QBEIU_Nil@2@@Z 00464c50 f i test.obj
 0002:00024cb0       ?max_size@?$_Wrap_alloc@V?$allocator@V?$basic_string@DU?$char_traits@D@std@@V?$allocator@D@2@@std@@@std@@@std@@QBEIU_Nil@2@@Z 00464cb0 f i test.obj
 0002:00024d10       ?max_size@?$allocator@D@std@@QBEIXZ 00464d10 f i test.obj
 0002:00024d50       ?max_size@?$allocator@UFORMULA2_PAIR@@@std@@QBEIXZ 00464d50 f i test.obj
 0002:00024d90       ?max_size@?$allocator@UFORMULA_PAIR@@@std@@QBEIXZ 00464d90 f i test.obj
 0002:00024dd0       ?max_size@?$allocator@V?$basic_string@DU?$char_traits@D@std@@V?$allocator@D@2@@std@@@std@@QBEIXZ 00464dd0 f i test.obj
 0002:00024e10       ?max_size@?$allocator_traits@V?$allocator@D@std@@@std@@SAIABV?$allocator@D@2@@Z 00464e10 f i test.obj
 0002:00024e60       ?max_size@?$allocator_traits@V?$allocator@UFORMULA2_PAIR@@@std@@@std@@SAIABV?$allocator@UFORMULA2_PAIR@@@2@@Z 00464e60 f i test.obj
 0002:00024eb0       ?max_size@?$allocator_traits@V?$allocator@UFORMULA_PAIR@@@std@@@std@@SAIABV?$allocator@UFORMULA_PAIR@@@2@@Z 00464eb0 f i test.obj
 0002:00024f00       ?max_size@?$allocator_traits@V?$allocator@V?$basic_string@DU?$char_traits@D@std@@V?$allocator@D@2@@std@@@std@@@std@@SAIABV?$allocator@V?$basic_string@DU?$char_traits@D@std@@V?$allocator@D@2@@std@@@2@@Z 00464f00 f i test.obj
 0002:00024f50       ?max_size@?$basic_string@DU?$char_traits@D@std@@V?$allocator@D@2@@std@@QBEIXZ 00464f50 f i test.obj
 0002:00024ff0       ?max_size@?$deque@UFORMULA2_PAIR@@V?$allocator@UFORMULA2_PAIR@@@std@@@std@@QBEIXZ 00464ff0 f i test.obj
 0002:00025060       ?max_size@?$deque@UFORMULA_PAIR@@V?$allocator@UFORMULA_PAIR@@@std@@@std@@QBEIXZ 00465060 f i test.obj
 0002:000250d0       ?max_size@?$vector@V?$basic_string@DU?$char_traits@D@std@@V?$allocator@D@2@@std@@V?$allocator@V?$basic_string@DU?$char_traits@D@std@@V?$allocator@D@2@@std@@@2@@std@@QBEIXZ 004650d0 f i test.obj
 0002:00025140       ?move@?$char_traits@D@std@@SAPADPADPBDI@Z 00465140 f i test.obj
 0002:000251d0       ?pop_back@?$deque@UFORMULA2_PAIR@@V?$allocator@UFORMULA2_PAIR@@@std@@@std@@QAEXXZ 004651d0 f i test.obj
 0002:00025320       ?pop_back@?$deque@UFORMULA_PAIR@@V?$allocator@UFORMULA_PAIR@@@std@@@std@@QAEXXZ 00465320 f i test.obj
 0002:00025470       ?pop_front@?$deque@UFORMULA2_PAIR@@V?$allocator@UFORMULA2_PAIR@@@std@@@std@@QAEXXZ 00465470 f i test.obj
 0002:000255f0       ?pop_front@?$deque@UFORMULA_PAIR@@V?$allocator@UFORMULA_PAIR@@@std@@@std@@QAEXXZ 004655f0 f i test.obj
 0002:00025770       ?push_back@?$deque@UFORMULA2_PAIR@@V?$allocator@UFORMULA2_PAIR@@@std@@@std@@QAEXABUFORMULA2_PAIR@@@Z 00465770 f i test.obj
 0002:00025940       ?push_back@?$deque@UFORMULA_PAIR@@V?$allocator@UFORMULA_PAIR@@@std@@@std@@QAEXABUFORMULA_PAIR@@@Z 00465940 f i test.obj
 0002:00025b10       ?push_back@?$vector@V?$basic_string@DU?$char_traits@D@std@@V?$allocator@D@2@@std@@V?$allocator@V?$basic_string@DU?$char_traits@D@std@@V?$allocator@D@2@@std@@@2@@std@@QAEX$$QAV?$basic_string@DU?$char_traits@D@std@@V?$allocator@D@2@@2@@Z 00465b10 f i test.obj
 0002:00025d20       ?push_front@?$deque@UFORMULA2_PAIR@@V?$allocator@UFORMULA2_PAIR@@@std@@@std@@QAEXABUFORMULA2_PAIR@@@Z 00465d20 f i test.obj
 0002:00025f20       ?push_front@?$deque@UFORMULA_PAIR@@V?$allocator@UFORMULA_PAIR@@@std@@@std@@QAEXABUFORMULA_PAIR@@@Z 00465f20 f i test.obj
 0002:00026120       ?select_on_container_copy_construction@?$_Wrap_alloc@V?$allocator@UFORMULA2_PAIR@@@std@@@std@@QBE?AU12@U_Nil@2@@Z 00466120 f i test.obj
 0002:00026190       ?select_on_container_copy_construction@?$_Wrap_alloc@V?$allocator@UFORMULA_PAIR@@@std@@@std@@QBE?AU12@U_Nil@2@@Z 00466190 f i test.obj
 0002:00026200       ?select_on_container_copy_construction@?$allocator_traits@V?$allocator@UFORMULA2_PAIR@@@std@@@std@@SA?AV?$allocator@UFORMULA2_PAIR@@@2@ABV32@@Z 00466200 f i test.obj
 0002:00026260       ?select_on_container_copy_construction@?$allocator_traits@V?$allocator@UFORMULA_PAIR@@@std@@@std@@SA?AV?$allocator@UFORMULA_PAIR@@@2@ABV32@@Z 00466260 f i test.obj
 0002:000262c0       ?set_ftp@Formula@@QAEXM@Z  004662c0 f i test.obj
 0002:00026310       ?set_ftp@qtFormula@@QAEXM@Z 00466310 f i test.obj
 0002:00026360       ?set_paused@Physics@@QAEX_N@Z 00466360 f i test.obj
 0002:000263b0       ?set_watts_factor@Physics@@QAEXN@Z 004663b0 f i test.obj
 0002:000264c0       ?setflip@Physics@@QAEX_N@Z 004664c0 f i test.obj
 0002:00026510       ?setifgain@Physics@@QAEXN@Z 00466510 f i test.obj
 0002:00026560       ?setwgif@Physics@@QAEX_N@Z 00466560 f i test.obj
 0002:000265b0       ?size@?$vector@V?$basic_string@DU?$char_traits@D@std@@V?$allocator@D@2@@std@@V?$allocator@V?$basic_string@DU?$char_traits@D@std@@V?$allocator@D@2@@std@@@2@@std@@QBEIXZ 004665b0 f i test.obj
 0002:00026620       ?strstr@@YAPADQADQBD@Z     00466620 f i test.obj
 0002:00026680       ?swprintf@@YAHQA_WQB_WZZ   00466680 f i test.obj
 0002:00026700       ?test_ant@@YAXXZ           00466700 f   test.obj
 0002:00026ff0       ?test_n_trainers@@YAXXZ    00466ff0 f   test.obj
 0002:000294a0       ?test_wifi@@YAXXZ          004694a0 f   test.obj
 0002:0002a150       ?test_wifi_and_ant@@YAXXZ  0046a150 f   test.obj
 0002:0002b380       ?tr@ANT@RACERMATE@@SA?AVQString@@PBD0H@Z 0046b380 f i test.obj
 0002:0002b450       ?tr@Ctsrv@RACERMATE@@SA?AVQString@@PBD0H@Z 0046b450 f i test.obj
 0002:0002b520       ?trUtf8@ANT@RACERMATE@@SA?AVQString@@PBD0H@Z 0046b520 f i test.obj
 0002:0002b5f0       ?trUtf8@Ctsrv@RACERMATE@@SA?AVQString@@PBD0H@Z 0046b5f0 f i test.obj
 0002:0002b6c0       ?trans_func@@YAXIPAU_EXCEPTION_POINTERS@@@Z 0046b6c0 f   test.obj
 0002:0002b740       ___local_stdio_printf_options 0046b740 f i test.obj
 0002:0002b780       __vfprintf_l               0046b780 f i test.obj
 0002:0002b800       __vsnprintf_l              0046b800 f i test.obj
 0002:0002b8b0       __vsprintf_l               0046b8b0 f i test.obj
 0002:0002b910       __vswprintf_c_l            0046b910 f i test.obj
 0002:0002b9c0       _fprintf                   0046b9c0 f i test.obj
 0002:0002ba40       _main                      0046ba40 f   test.obj
 0002:0002c010       _printf                    0046c010 f i test.obj
 0002:0002c0a0       _sprintf                   0046c0a0 f i test.obj
 0002:0002c120       _vswprintf                 0046c120 f i test.obj
 0002:0002c180       ??0Trainer@@QAE@XZ         0046c180 f   trainer.obj
 0002:0002c560       ?init@Trainer@@QAEHPBD@Z   0046c560 f   trainer.obj
 0002:0002d3a0       _timeGetTime@0             0046d3a0 f   winmm:WINMM.dll
 0002:0002d3a6       ??1QString@@QAE@XZ         0046d3a6 f   qt5cored:Qt5Cored.dll
 0002:0002d3ac       ?tr@QMetaObject@@QBE?AVQString@@PBD0H@Z 0046d3ac f   qt5cored:Qt5Cored.dll
 0002:0002d3c0       ??0Ini@@QAE@PBD@Z          0046d3c0 f   glib:ini.obj
 0002:0002d5d0       ??1Ini@@UAE@XZ             0046d5d0 f   glib:ini.obj
 0002:0002d610       ??_EIni@@UAEPAXI@Z         0046d610 f i glib:ini.obj
 0002:0002d720       ??_GIni@@UAEPAXI@Z         0046d720 f i glib:ini.obj
 0002:0002d7a0       ?clear_section@Ini@@QAEXPBD@Z 0046d7a0 f   glib:ini.obj
 0002:0002d9a0       ?getBool@Ini@@QAE_NPBD00@Z 0046d9a0 f   glib:ini.obj
 0002:0002dac0       ?getBool@Ini@@QAE_NPBD00_N@Z 0046dac0 f   glib:ini.obj
 0002:0002dbf0       ?getBool@Ini@@QAE_NPBD0_N1@Z 0046dbf0 f   glib:ini.obj
 0002:0002dd40       ?getBool@Ini@@QAE_NPBD0_N@Z 0046dd40 f   glib:ini.obj
 0002:0002deb0       ?getBool@Ini@@QAE_NPBD_N@Z 0046deb0 f   glib:ini.obj
 0002:0002e050       ?getFloat@Ini@@QAEMPBD00@Z 0046e050 f   glib:ini.obj
 0002:0002e140       ?getFloat@Ini@@QAEMPBD00_N@Z 0046e140 f   glib:ini.obj
 0002:0002e240       ?getFloat@Ini@@QAEMPBD0M@Z 0046e240 f   glib:ini.obj
 0002:0002e360       ?getFloat@Ini@@QAEMPBDM@Z  0046e360 f   glib:ini.obj
 0002:0002e4c0       ?getInt@Ini@@QAEHPBD00@Z   0046e4c0 f   glib:ini.obj
 0002:0002e5b0       ?getInt@Ini@@QAEHPBD00_N@Z 0046e5b0 f   glib:ini.obj
 0002:0002e6b0       ?getInt@Ini@@QAEHPBD0@Z    0046e6b0 f   glib:ini.obj
 0002:0002e7d0       ?getInt@Ini@@QAEHPBD0H_N@Z 0046e7d0 f   glib:ini.obj
 0002:0002e8f0       ?getInt@Ini@@QAEHPBDH@Z    0046e8f0 f   glib:ini.obj
 0002:0002e9e0       ?getName@Ini@@QAEPBDXZ     0046e9e0 f   glib:ini.obj
 0002:0002ea20       ?getString@Ini@@QAEPBDPBD00@Z 0046ea20 f   glib:ini.obj
 0002:0002eaf0       ?getString@Ini@@QAEPBDPBD00_N@Z 0046eaf0 f   glib:ini.obj
 0002:0002ec30       ?getString@Ini@@QAEPBDPBD0@Z 0046ec30 f   glib:ini.obj
 0002:0002ed30       ?get_long_hex@Ini@@QAEKPBD0K_N@Z 0046ed30 f   glib:ini.obj
 0002:0002eeb0       ?getul@Ini@@QAEKPBD0K_N@Z  0046eeb0 f   glib:ini.obj
 0002:0002f010       ?set_section@Ini@@QAEXPBD@Z 0046f010 f   glib:ini.obj
 0002:0002f090       ?writeBool@Ini@@QAEXPBD0H@Z 0046f090 f   glib:ini.obj
 0002:0002f140       ?writeBool@Ini@@QAEXPBDH@Z 0046f140 f   glib:ini.obj
 0002:0002f220       ?writeFloat@Ini@@QAEXPBD0M@Z 0046f220 f   glib:ini.obj
 0002:0002f310       ?writeFloat@Ini@@QAEXPBDM@Z 0046f310 f   glib:ini.obj
 0002:0002f400       ?writeInt@Ini@@QAEXPBD0H@Z 0046f400 f   glib:ini.obj
 0002:0002f4e0       ?writeInt@Ini@@QAEXPBDH@Z  0046f4e0 f   glib:ini.obj
 0002:0002f5d0       ?writeString@Ini@@QAEXPBD00@Z 0046f5d0 f   glib:ini.obj
 0002:0002f650       ?write_long_hex@Ini@@QAEXPBD0K@Z 0046f650 f   glib:ini.obj
 0002:0002f730       ?writeul@Ini@@QAEXPBD0K@Z  0046f730 f   glib:ini.obj
 0002:0002f810       ___local_stdio_scanf_options 0046f810 f i glib:ini.obj
 0002:0002f850       __vsscanf_l                0046f850 f i glib:ini.obj
 0002:0002f8d0       _sscanf                    0046f8d0 f i glib:ini.obj
 0002:0002f950       ??$MAX@K@@YAKKK@Z          0046f950 f i glib:averagetimer.obj
 0002:0002f9a0       ??$MIN@K@@YAKKK@Z          0046f9a0 f i glib:averagetimer.obj
 0002:0002f9f0       ??0AverageTimer@@QAE@PBD@Z 0046f9f0 f   glib:averagetimer.obj
 0002:0002fa80       ??0AverageTimer@@QAE@XZ    0046fa80 f   glib:averagetimer.obj
 0002:0002fb00       ??1AverageTimer@@UAE@XZ    0046fb00 f   glib:averagetimer.obj
 0002:0002fcf0       ??_EAverageTimer@@UAEPAXI@Z 0046fcf0 f i glib:averagetimer.obj
 0002:0002fe00       ??_GAverageTimer@@UAEPAXI@Z 0046fe00 f i glib:averagetimer.obj
 0002:0002fe70       ?getAverage@AverageTimer@@QAENXZ 0046fe70 f   glib:averagetimer.obj
 0002:0002ff30       ?getms@AverageTimer@@QAENXZ 0046ff30 f   glib:averagetimer.obj
 0002:0002fff0       ?reset@AverageTimer@@QAEXXZ 0046fff0 f   glib:averagetimer.obj
 0002:00030080       ?update@AverageTimer@@QAEXXZ 00470080 f   glib:averagetimer.obj
 0002:00030190       ??0fastTimer@@QAE@PAD@Z    00470190 f   glib:fasttimer.obj
 0002:00030280       ??1fastTimer@@UAE@XZ       00470280 f   glib:fasttimer.obj
 0002:00030430       ??_EfastTimer@@UAEPAXI@Z   00470430 f i glib:fasttimer.obj
 0002:00030540       ??_GfastTimer@@UAEPAXI@Z   00470540 f i glib:fasttimer.obj
 0002:000305c0       ?average@fastTimer@@QAEXXZ 004705c0 f   glib:fasttimer.obj
 0002:00030860       ?delay@fastTimer@@QAEXK@Z  00470860 f   glib:fasttimer.obj
 0002:00030970       ?getAverageSeconds@fastTimer@@QAENXZ 00470970 f   glib:fasttimer.obj
 0002:00030a10       ?getCycles@fastTimer@@QAEKXZ 00470a10 f   glib:fasttimer.obj
 0002:00030a50       ?getFreq@fastTimer@@QAE_JXZ 00470a50 f   glib:fasttimer.obj
 0002:00030a90       ?getSeconds@fastTimer@@QAENXZ 00470a90 f   glib:fasttimer.obj
 0002:00030b70       ?getTotalSeconds@fastTimer@@QAENXZ 00470b70 f   glib:fasttimer.obj
 0002:00030bb0       ?getms@fastTimer@@QAEKXZ   00470bb0 f   glib:fasttimer.obj
 0002:00030cb0       ?getseconds@fastTimer@@QAENXZ 00470cb0 f   glib:fasttimer.obj
 0002:00030d90       ?getus@fastTimer@@QAEMXZ   00470d90 f   glib:fasttimer.obj
 0002:00030e70       ?print@fastTimer@@QAEXXZ   00470e70 f   glib:fasttimer.obj
 0002:00030ff0       ?read@fastTimer@@QAE_JXZ   00470ff0 f   glib:fasttimer.obj
 0002:00031080       ?reset@fastTimer@@QAEXXZ   00471080 f   glib:fasttimer.obj
 0002:00031170       ?start@fastTimer@@QAEXXZ   00471170 f   glib:fasttimer.obj
 0002:000311f0       ?stop@fastTimer@@QAENXZ    004711f0 f   glib:fasttimer.obj
 0002:00031300       ??$?0$$V@?$_Compressed_pair@U?$_Wrap_alloc@V?$allocator@H@std@@@std@@V?$_Vector_val@U?$_Simple_types@H@std@@@2@$00@std@@QAE@U_Zero_then_variadic_args_t@1@@Z 00471300 f i glib:utils.obj
 0002:00031360       ??$?0AAU?$_Wrap_alloc@V?$allocator@H@std@@@std@@@?$_Wrap_alloc@V?$allocator@U_Container_proxy@std@@@std@@@std@@QAE@AAU?$_Wrap_alloc@V?$allocator@H@std@@@1@@Z 00471360 f i glib:utils.obj
 0002:000313d0       ??$?0H@?$allocator@U_Container_proxy@std@@@std@@QAE@ABV?$allocator@H@1@@Z 004713d0 f i glib:utils.obj
 0002:00031410       ??$?0V?$allocator@D@std@@@?$_Wrap_alloc@V?$allocator@D@std@@@std@@QAE@$$QAV?$allocator@D@1@@Z 00471410 f i glib:utils.obj
 0002:00031480       ??$?8DD@std@@YA_NABV?$allocator@D@0@0@Z 00471480 f i glib:utils.obj
 0002:000314b0       ??$?8V?$allocator@D@std@@V01@@std@@YA_NABU?$_Wrap_alloc@V?$allocator@D@std@@@0@0@Z 004714b0 f i glib:utils.obj
 0002:00031510       ??$?9V?$allocator@D@std@@V01@@std@@YA_NABU?$_Wrap_alloc@V?$allocator@D@std@@@0@0@Z 00471510 f i glib:utils.obj
 0002:00031590       ??$_Addressof@$$CBH@std@@YAPBHABHU?$integral_constant@_N$0A@@0@@Z 00471590 f i glib:utils.obj
 0002:000315d0       ??$_Addressof@$$CBV?$basic_string@DU?$char_traits@D@std@@V?$allocator@D@2@@std@@@std@@YAPBV?$basic_string@DU?$char_traits@D@std@@V?$allocator@D@2@@0@ABV10@U?$integral_constant@_N$0A@@0@@Z 004715d0 f i glib:utils.obj
 0002:00031610       ??$_Addressof@H@std@@YAPAHAAHU?$integral_constant@_N$0A@@0@@Z 00471610 f i glib:utils.obj
 0002:00031650       ??$_Copy_memmove@PAHPAH@std@@YAPAHPAH00@Z 00471650 f i glib:utils.obj
 0002:000316e0       ??$_Debug_pointer@V?$_Vector_iterator@V?$_Vector_val@U?$_Simple_types@V?$basic_string@DU?$char_traits@D@std@@V?$allocator@D@2@@std@@@std@@@std@@@std@@@std@@YAXAAV?$_Vector_iterator@V?$_Vector_val@U?$_Simple_types@V?$basic_string@DU?$char_traits@D@std@@V?$allocator@D@2@@std@@@std@@@std@@@0@PB_WI@Z 004716e0 f i glib:utils.obj
 0002:00031710       ??$_Debug_range2@V?$_Vector_iterator@V?$_Vector_val@U?$_Simple_types@V?$basic_string@DU?$char_traits@D@std@@V?$allocator@D@2@@std@@@std@@@std@@@std@@@std@@YAXV?$_Vector_iterator@V?$_Vector_val@U?$_Simple_types@V?$basic_string@DU?$char_traits@D@std@@V?$allocator@D@2@@std@@@std@@@std@@@0@0PB_WIUrandom_access_iterator_tag@0@@Z 00471710 f i glib:utils.obj
 0002:00031840       ??$_Debug_range@V?$_Vector_iterator@V?$_Vector_val@U?$_Simple_types@V?$basic_string@DU?$char_traits@D@std@@V?$allocator@D@2@@std@@@std@@@std@@@std@@@std@@YAXV?$_Vector_iterator@V?$_Vector_val@U?$_Simple_types@V?$basic_string@DU?$char_traits@D@std@@V?$allocator@D@2@@std@@@std@@@std@@@0@0PB_WI@Z 00471840 f i glib:utils.obj
 0002:00031970       ??$_Destroy_range@U?$_Wrap_alloc@V?$allocator@H@std@@@std@@@std@@YAXPAH0AAU?$_Wrap_alloc@V?$allocator@H@std@@@0@@Z 00471970 f i glib:utils.obj
 0002:000319f0       ??$_Iter_cat@V?$_Vector_iterator@V?$_Vector_val@U?$_Simple_types@V?$basic_string@DU?$char_traits@D@std@@V?$allocator@D@2@@std@@@std@@@std@@@std@@@std@@YA?AUrandom_access_iterator_tag@0@ABV?$_Vector_iterator@V?$_Vector_val@U?$_Simple_types@V?$basic_string@DU?$char_traits@D@std@@V?$allocator@D@2@@std@@@std@@@std@@@0@@Z 004719f0 f i glib:utils.obj
 0002:00031a30       ??$_Pocca@U?$_Wrap_alloc@V?$allocator@D@std@@@std@@@std@@YAXAAU?$_Wrap_alloc@V?$allocator@D@std@@@0@ABU10@@Z 00471a30 f i glib:utils.obj
 0002:00031ac0       ??$_Pocca@U?$_Wrap_alloc@V?$allocator@D@std@@@std@@@std@@YAXAAU?$_Wrap_alloc@V?$allocator@D@std@@@0@ABU10@U?$integral_constant@_N$0A@@0@@Z 00471ac0 f i glib:utils.obj
 0002:00031af0       ??$_Pocs@U?$_Wrap_alloc@V?$allocator@D@std@@@std@@@std@@YAXAAU?$_Wrap_alloc@V?$allocator@D@std@@@0@0@Z 00471af0 f i glib:utils.obj
 0002:00031b80       ??$_Pocs@U?$_Wrap_alloc@V?$allocator@D@std@@@std@@@std@@YAXAAU?$_Wrap_alloc@V?$allocator@D@std@@@0@0U?$integral_constant@_N$0A@@0@@Z 00471b80 f i glib:utils.obj
 0002:00031bb0       ??$_Ptr_move_cat@HH@std@@YA?AU_Really_trivial_ptr_iterator_tag@0@ABQAH0@Z 00471bb0 f i glib:utils.obj
 0002:00031bf0       ??$_Rechecked@PAHPAH@std@@YAAAPAHAAPAHPAH@Z 00471bf0 f i glib:utils.obj
 0002:00031c30       ??$_Reverse@PAV?$basic_string@DU?$char_traits@D@std@@V?$allocator@D@2@@std@@@std@@YAXPAV?$basic_string@DU?$char_traits@D@std@@V?$allocator@D@2@@0@0Ubidirectional_iterator_tag@0@@Z 00471c30 f i glib:utils.obj
 0002:00031cc0       ??$_Swap_adl@PAD@std@@YAXAAPAD0@Z 00471cc0 f i glib:utils.obj
 0002:00031d20       ??$_Swap_adl@PAU_Container_proxy@std@@@std@@YAXAAPAU_Container_proxy@0@0@Z 00471d20 f i glib:utils.obj
 0002:00031d80       ??$_Umove@PAH@?$vector@HV?$allocator@H@std@@@std@@IAEPAHPAH00@Z 00471d80 f i glib:utils.obj
 0002:00031df0       ??$_Unchecked@PAH@std@@YAPAHPAH@Z 00471df0 f i glib:utils.obj
 0002:00031e30       ??$_Unchecked@V?$_Vector_val@U?$_Simple_types@V?$basic_string@DU?$char_traits@D@std@@V?$allocator@D@2@@std@@@std@@@std@@@std@@YAPAV?$basic_string@DU?$char_traits@D@std@@V?$allocator@D@2@@0@V?$_Vector_iterator@V?$_Vector_val@U?$_Simple_types@V?$basic_string@DU?$char_traits@D@std@@V?$allocator@D@2@@std@@@std@@@std@@@0@@Z 00471e30 f i glib:utils.obj
 0002:00031ee0       ??$_Uninitialized_move@PAHPAHU?$_Wrap_alloc@V?$allocator@H@std@@@std@@@std@@YAPAHPAH00AAU?$_Wrap_alloc@V?$allocator@H@std@@@0@@Z 00471ee0 f i glib:utils.obj
 0002:00031f80       ??$_Uninitialized_move_al_unchecked1@HH@std@@YAPAHPAH00AAU?$_Wrap_alloc@V?$allocator@H@std@@@0@U_Really_trivial_ptr_iterator_tag@0@@Z 00471f80 f i glib:utils.obj
 0002:00031fe0       ??$_Uninitialized_move_al_unchecked@PAHPAHU?$_Wrap_alloc@V?$allocator@H@std@@@std@@@std@@YAPAHPAH00AAU?$_Wrap_alloc@V?$allocator@H@std@@@0@@Z 00471fe0 f i glib:utils.obj
 0002:00032060       ??$__vcrt_va_start_verify_argument_type@PBD@@YAXXZ 00472060 f i glib:utils.obj
 0002:00032090       ??$addressof@$$CBH@std@@YAPBHABH@Z 00472090 f i glib:utils.obj
 0002:000320f0       ??$addressof@$$CBV?$basic_string@DU?$char_traits@D@std@@V?$allocator@D@2@@std@@@std@@YAPBV?$basic_string@DU?$char_traits@D@std@@V?$allocator@D@2@@0@ABV10@@Z 004720f0 f i glib:utils.obj
 0002:00032150       ??$addressof@H@std@@YAPAHAAH@Z 00472150 f i glib:utils.obj
 0002:000321b0       ??$construct@HAAH@?$_Wrap_alloc@V?$allocator@H@std@@@std@@QAEXPAHAAH@Z 004721b0 f i glib:utils.obj
 0002:00032220       ??$construct@HAAH@?$allocator@H@std@@QAEXPAHAAH@Z 00472220 f i glib:utils.obj
 0002:000322d0       ??$construct@HAAH@?$allocator_traits@V?$allocator@H@std@@@std@@SAXAAV?$allocator@H@1@PAHAAH@Z 004722d0 f i glib:utils.obj
 0002:00032330       ??$construct@HABH@?$_Wrap_alloc@V?$allocator@H@std@@@std@@QAEXPAHABH@Z 00472330 f i glib:utils.obj
 0002:000323a0       ??$construct@HABH@?$allocator@H@std@@QAEXPAHABH@Z 004723a0 f i glib:utils.obj
 0002:00032450       ??$construct@HABH@?$allocator_traits@V?$allocator@H@std@@@std@@SAXAAV?$allocator@H@1@PAHABH@Z 00472450 f i glib:utils.obj
 0002:000324b0       ??$construct@V?$basic_string@DU?$char_traits@D@std@@V?$allocator@D@2@@std@@AAV12@@?$_Wrap_alloc@V?$allocator@V?$basic_string@DU?$char_traits@D@std@@V?$allocator@D@2@@std@@@std@@@std@@QAEXPAV?$basic_string@DU?$char_traits@D@std@@V?$allocator@D@2@@1@AAV21@@Z 004724b0 f i glib:utils.obj
 0002:00032520       ??$construct@V?$basic_string@DU?$char_traits@D@std@@V?$allocator@D@2@@std@@AAV12@@?$allocator@V?$basic_string@DU?$char_traits@D@std@@V?$allocator@D@2@@std@@@std@@QAEXPAV?$basic_string@DU?$char_traits@D@std@@V?$allocator@D@2@@1@AAV21@@Z 00472520 f i glib:utils.obj
 0002:00032620       ??$construct@V?$basic_string@DU?$char_traits@D@std@@V?$allocator@D@2@@std@@AAV12@@?$allocator_traits@V?$allocator@V?$basic_string@DU?$char_traits@D@std@@V?$allocator@D@2@@std@@@std@@@std@@SAXAAV?$allocator@V?$basic_string@DU?$char_traits@D@std@@V?$allocator@D@2@@std@@@1@PAV?$basic_string@DU?$char_traits@D@std@@V?$allocator@D@2@@1@AAV31@@Z 00472620 f i glib:utils.obj
 0002:00032680       ??$construct@V?$basic_string@DU?$char_traits@D@std@@V?$allocator@D@2@@std@@ABV12@@?$_Wrap_alloc@V?$allocator@V?$basic_string@DU?$char_traits@D@std@@V?$allocator@D@2@@std@@@std@@@std@@QAEXPAV?$basic_string@DU?$char_traits@D@std@@V?$allocator@D@2@@1@ABV21@@Z 00472680 f i glib:utils.obj
 0002:000326f0       ??$construct@V?$basic_string@DU?$char_traits@D@std@@V?$allocator@D@2@@std@@ABV12@@?$allocator@V?$basic_string@DU?$char_traits@D@std@@V?$allocator@D@2@@std@@@std@@QAEXPAV?$basic_string@DU?$char_traits@D@std@@V?$allocator@D@2@@1@ABV21@@Z 004726f0 f i glib:utils.obj
 0002:000327f0       ??$construct@V?$basic_string@DU?$char_traits@D@std@@V?$allocator@D@2@@std@@ABV12@@?$allocator_traits@V?$allocator@V?$basic_string@DU?$char_traits@D@std@@V?$allocator@D@2@@std@@@std@@@std@@SAXAAV?$allocator@V?$basic_string@DU?$char_traits@D@std@@V?$allocator@D@2@@std@@@1@PAV?$basic_string@DU?$char_traits@D@std@@V?$allocator@D@2@@1@ABV31@@Z 004727f0 f i glib:utils.obj
 0002:00032850       ??$destroy@H@?$_Wrap_alloc@V?$allocator@H@std@@@std@@QAEXPAH@Z 00472850 f i glib:utils.obj
 0002:000328b0       ??$destroy@H@?$allocator@H@std@@QAEXPAH@Z 004728b0 f i glib:utils.obj
 0002:000328f0       ??$destroy@H@?$allocator_traits@V?$allocator@H@std@@@std@@SAXAAV?$allocator@H@1@PAH@Z 004728f0 f i glib:utils.obj
 0002:00032940       ??$forward@AAH@std@@YAAAHAAH@Z 00472940 f i glib:utils.obj
 0002:00032980       ??$forward@AAU?$_Wrap_alloc@V?$allocator@H@std@@@std@@@std@@YAAAU?$_Wrap_alloc@V?$allocator@H@std@@@0@AAU10@@Z 00472980 f i glib:utils.obj
 0002:000329c0       ??$forward@AAV?$basic_string@DU?$char_traits@D@std@@V?$allocator@D@2@@std@@@std@@YAAAV?$basic_string@DU?$char_traits@D@std@@V?$allocator@D@2@@0@AAV10@@Z 004729c0 f i glib:utils.obj
 0002:00032a00       ??$forward@ABH@std@@YAABHABH@Z 00472a00 f i glib:utils.obj
 0002:00032a40       ??$forward@ABV?$basic_string@DU?$char_traits@D@std@@V?$allocator@D@2@@std@@@std@@YAABV?$basic_string@DU?$char_traits@D@std@@V?$allocator@D@2@@0@ABV10@@Z 00472a40 f i glib:utils.obj
 0002:00032a80       ??$forward@V?$allocator@D@std@@@std@@YA$$QAV?$allocator@D@0@AAV10@@Z 00472a80 f i glib:utils.obj
 0002:00032ac0       ??$iter_swap@PADPAD@std@@YAXPAD0@Z 00472ac0 f i glib:utils.obj
 0002:00032b20       ??$iter_swap@PAV?$basic_string@DU?$char_traits@D@std@@V?$allocator@D@2@@std@@PAV12@@std@@YAXPAV?$basic_string@DU?$char_traits@D@std@@V?$allocator@D@2@@0@0@Z 00472b20 f i glib:utils.obj
 0002:00032b80       ??$move@AAD@std@@YA$$QADAAD@Z 00472b80 f i glib:utils.obj
 0002:00032bc0       ??$move@AAI@std@@YA$$QAIAAI@Z 00472bc0 f i glib:utils.obj
 0002:00032c00       ??$move@AAPAD@std@@YA$$QAPADAAPAD@Z 00472c00 f i glib:utils.obj
 0002:00032c40       ??$move@AAPAU_Container_proxy@std@@@std@@YA$$QAPAU_Container_proxy@0@AAPAU10@@Z 00472c40 f i glib:utils.obj
 0002:00032c80       ??$move@AAT_Bxty@?$_String_val@U?$_Simple_types@D@std@@@std@@@std@@YA$$QAT_Bxty@?$_String_val@U?$_Simple_types@D@std@@@0@AAT120@@Z 00472c80 f i glib:utils.obj
 0002:00032cc0       ??$reverse@V?$_Vector_iterator@V?$_Vector_val@U?$_Simple_types@V?$basic_string@DU?$char_traits@D@std@@V?$allocator@D@2@@std@@@std@@@std@@@std@@@std@@YAXV?$_Vector_iterator@V?$_Vector_val@U?$_Simple_types@V?$basic_string@DU?$char_traits@D@std@@V?$allocator@D@2@@std@@@std@@@std@@@0@0@Z 00472cc0 f i glib:utils.obj
 0002:00032e80       ??$swap@D$0BA@@std@@YAXAAY0BA@D0@Z 00472e80 f i glib:utils.obj
 0002:00032f50       ??$swap@D@std@@YAXAAD0@Z   00472f50 f i glib:utils.obj
 0002:00033010       ??$swap@DU?$char_traits@D@std@@V?$allocator@D@2@@std@@YAXAAV?$basic_string@DU?$char_traits@D@std@@V?$allocator@D@2@@0@0@Z 00473010 f i glib:utils.obj
 0002:00033060       ??$swap@I@std@@YAXAAI0@Z   00473060 f i glib:utils.obj
 0002:00033120       ??$swap@PAD@std@@YAXAAPAD0@Z 00473120 f i glib:utils.obj
 0002:000331e0       ??$swap@PAU_Container_proxy@std@@@std@@YAXAAPAU_Container_proxy@0@0@Z 004731e0 f i glib:utils.obj
 0002:000332a0       ??$swap@T_Bxty@?$_String_val@U?$_Simple_types@D@std@@@std@@@std@@YAXAAT_Bxty@?$_String_val@U?$_Simple_types@D@std@@@0@0@Z 004732a0 f i glib:utils.obj
 0002:000333c0       ??0?$_Iterator012@Urandom_access_iterator_tag@std@@V?$basic_string@DU?$char_traits@D@std@@V?$allocator@D@2@@2@HPBV32@ABV32@U_Iterator_base12@2@@std@@QAE@ABU01@@Z 004733c0 f i glib:utils.obj
 0002:00033420       ??0?$_Iterator012@Urandom_access_iterator_tag@std@@V?$basic_string@DU?$char_traits@D@std@@V?$allocator@D@2@@2@HPBV32@ABV32@U_Iterator_base12@2@@std@@QAE@XZ 00473420 f i glib:utils.obj
 0002:00033480       ??0?$_Vector_alloc@U?$_Vec_base_types@HV?$allocator@H@std@@@std@@@std@@QAE@XZ 00473480 f i glib:utils.obj
 0002:00033530       ??0?$_Vector_const_iterator@V?$_Vector_val@U?$_Simple_types@V?$basic_string@DU?$char_traits@D@std@@V?$allocator@D@2@@std@@@std@@@std@@@std@@QAE@ABV01@@Z 00473530 f i glib:utils.obj
 0002:000335a0       ??0?$_Vector_const_iterator@V?$_Vector_val@U?$_Simple_types@V?$basic_string@DU?$char_traits@D@std@@V?$allocator@D@2@@std@@@std@@@std@@@std@@QAE@PAV?$basic_string@DU?$char_traits@D@std@@V?$allocator@D@2@@1@PBU_Container_base12@1@@Z 004735a0 f i glib:utils.obj
 0002:00033660       ??0?$_Vector_iterator@V?$_Vector_val@U?$_Simple_types@V?$basic_string@DU?$char_traits@D@std@@V?$allocator@D@2@@std@@@std@@@std@@@std@@QAE@ABV01@@Z 00473660 f i glib:utils.obj
 0002:000336c0       ??0?$_Vector_iterator@V?$_Vector_val@U?$_Simple_types@V?$basic_string@DU?$char_traits@D@std@@V?$allocator@D@2@@std@@@std@@@std@@@std@@QAE@PAV?$basic_string@DU?$char_traits@D@std@@V?$allocator@D@2@@1@PBU_Container_base12@1@@Z 004736c0 f i glib:utils.obj
 0002:00033720       ??0?$_Vector_val@U?$_Simple_types@H@std@@@std@@QAE@XZ 00473720 f i glib:utils.obj
 0002:000337a0       ??0?$_Wrap_alloc@V?$allocator@H@std@@@std@@QAE@XZ 004737a0 f i glib:utils.obj
 0002:00033800       ??0?$allocator@H@std@@QAE@XZ 00473800 f i glib:utils.obj
 0002:00033840       ??0?$basic_string@DU?$char_traits@D@std@@V?$allocator@D@2@@std@@QAE@ABV01@@Z 00473840 f i glib:utils.obj
 0002:00033930       ??0?$basic_string@DU?$char_traits@D@std@@V?$allocator@D@2@@std@@QAE@XZ 00473930 f i glib:utils.obj
 0002:000339d0       ??0?$vector@HV?$allocator@H@std@@@std@@QAE@XZ 004739d0 f i glib:utils.obj
 0002:00033a60       ??1?$_Compressed_pair@U?$_Wrap_alloc@V?$allocator@H@std@@@std@@V?$_Vector_val@U?$_Simple_types@H@std@@@2@$00@std@@QAE@XZ 00473a60 f i glib:utils.obj
 0002:00033ab0       ??1?$_Iterator012@Urandom_access_iterator_tag@std@@V?$basic_string@DU?$char_traits@D@std@@V?$allocator@D@2@@2@HPBV32@ABV32@U_Iterator_base12@2@@std@@QAE@XZ 00473ab0 f i glib:utils.obj
 0002:00033b00       ??1?$_Vector_alloc@U?$_Vec_base_types@HV?$allocator@H@std@@@std@@@std@@QAE@XZ 00473b00 f i glib:utils.obj
 0002:00033b90       ??1?$_Vector_const_iterator@V?$_Vector_val@U?$_Simple_types@V?$basic_string@DU?$char_traits@D@std@@V?$allocator@D@2@@std@@@std@@@std@@@std@@QAE@XZ 00473b90 f i glib:utils.obj
 0002:00033be0       ??1?$_Vector_iterator@V?$_Vector_val@U?$_Simple_types@V?$basic_string@DU?$char_traits@D@std@@V?$allocator@D@2@@std@@@std@@@std@@@std@@QAE@XZ 00473be0 f i glib:utils.obj
 0002:00033c30       ??1?$_Vector_val@U?$_Simple_types@H@std@@@std@@QAE@XZ 00473c30 f i glib:utils.obj
 0002:00033c80       ??1?$vector@HV?$allocator@H@std@@@std@@QAE@XZ 00473c80 f i glib:utils.obj
 0002:00033d10       ??3@YAXPAX0@Z              00473d10 f i glib:utils.obj
 0002:00033d40       ??4?$basic_string@DU?$char_traits@D@std@@V?$allocator@D@2@@std@@QAEAAV01@ABV01@@Z 00473d40 f i glib:utils.obj
 0002:00033e00       ??8?$_Vector_const_iterator@V?$_Vector_val@U?$_Simple_types@V?$basic_string@DU?$char_traits@D@std@@V?$allocator@D@2@@std@@@std@@@std@@@std@@QBE_NABV01@@Z 00473e00 f i glib:utils.obj
 0002:00033e90       ??9?$_Vector_const_iterator@V?$_Vector_val@U?$_Simple_types@V?$basic_string@DU?$char_traits@D@std@@V?$allocator@D@2@@std@@@std@@@std@@@std@@QBE_NABV01@@Z 00473e90 f i glib:utils.obj
 0002:00033f20       ??A?$vector@HV?$allocator@H@std@@@std@@QAEAAHI@Z 00473f20 f i glib:utils.obj
 0002:00034040       ??A?$vector@MV?$allocator@M@std@@@std@@QAEAAMI@Z 00474040 f i glib:utils.obj
 0002:00034160       ??M?$_Vector_const_iterator@V?$_Vector_val@U?$_Simple_types@V?$basic_string@DU?$char_traits@D@std@@V?$allocator@D@2@@std@@@std@@@std@@@std@@QBE_NABV01@@Z 00474160 f i glib:utils.obj
 0002:000341f0       ?Checksum@@YAKPAD@Z        004741f0 f   glib:utils.obj
 0002:000342d0       ?CopyFRect@@YAXPAUFRECT@@0@Z 004742d0 f   glib:utils.obj
 0002:00034330       ?CopyRect@@YAXPAUFRECT@@0@Z 00474330 f   glib:utils.obj
 0002:000343a0       ?CopyRect@@YAXPAUFRECT@@PAUtagRECT@@@Z 004743a0 f   glib:utils.obj
 0002:00034420       ?CopyRect@@YAXPAUtagRECT@@0@Z 00474420 f   glib:utils.obj
 0002:00034480       ?_Alloc_proxy@?$_Vector_alloc@U?$_Vec_base_types@HV?$allocator@H@std@@@std@@@std@@QAEXXZ 00474480 f i glib:utils.obj
 0002:00034580       ?_Compat@?$_Vector_const_iterator@V?$_Vector_val@U?$_Simple_types@V?$basic_string@DU?$char_traits@D@std@@V?$allocator@D@2@@std@@@std@@@std@@@std@@QBEXABV12@@Z 00474580 f i glib:utils.obj
 0002:00034690       ?_Copy_alloc@?$_String_alloc@U?$_String_base_types@DV?$allocator@D@std@@@std@@@std@@QAEXABU?$_Wrap_alloc@V?$allocator@D@std@@@2@@Z 00474690 f i glib:utils.obj
 0002:00034710       ?_Destroy@?$vector@HV?$allocator@H@std@@@std@@IAEXPAH0@Z 00474710 f i glib:utils.obj
 0002:00034780       ?_Free_proxy@?$_Vector_alloc@U?$_Vec_base_types@HV?$allocator@H@std@@@std@@@std@@QAEXXZ 00474780 f i glib:utils.obj
 0002:00034870       ?_Get_data@?$_Vector_alloc@U?$_Vec_base_types@HV?$allocator@H@std@@@std@@@std@@QAEAAV?$_Vector_val@U?$_Simple_types@H@std@@@2@XZ 00474870 f i glib:utils.obj
 0002:000348c0       ?_Get_data@?$_Vector_alloc@U?$_Vec_base_types@HV?$allocator@H@std@@@std@@@std@@QBEABV?$_Vector_val@U?$_Simple_types@H@std@@@2@XZ 004748c0 f i glib:utils.obj
 0002:00034910       ?_Get_data@?$_Vector_alloc@U?$_Vec_base_types@MV?$allocator@M@std@@@std@@@std@@QAEAAV?$_Vector_val@U?$_Simple_types@M@std@@@2@XZ 00474910 f i glib:utils.obj
 0002:00034960       ?_Get_data@?$_Vector_alloc@U?$_Vec_base_types@MV?$allocator@M@std@@@std@@@std@@QBEABV?$_Vector_val@U?$_Simple_types@M@std@@@2@XZ 00474960 f i glib:utils.obj
 0002:000349b0       ?_Get_first@?$_Compressed_pair@U?$_Wrap_alloc@V?$allocator@H@std@@@std@@V?$_Vector_val@U?$_Simple_types@H@std@@@2@$00@std@@QAEAAU?$_Wrap_alloc@V?$allocator@H@std@@@2@XZ 004749b0 f i glib:utils.obj
 0002:000349f0       ?_Get_first@?$_Compressed_pair@U?$_Wrap_alloc@V?$allocator@H@std@@@std@@V?$_Vector_val@U?$_Simple_types@H@std@@@2@$00@std@@QBEABU?$_Wrap_alloc@V?$allocator@H@std@@@2@XZ 004749f0 f i glib:utils.obj
 0002:00034a30       ?_Get_second@?$_Compressed_pair@U?$_Wrap_alloc@V?$allocator@H@std@@@std@@V?$_Vector_val@U?$_Simple_types@H@std@@@2@$00@std@@QAEAAV?$_Vector_val@U?$_Simple_types@H@std@@@2@XZ 00474a30 f i glib:utils.obj
 0002:00034a70       ?_Get_second@?$_Compressed_pair@U?$_Wrap_alloc@V?$allocator@H@std@@@std@@V?$_Vector_val@U?$_Simple_types@H@std@@@2@$00@std@@QBEABV?$_Vector_val@U?$_Simple_types@H@std@@@2@XZ 00474a70 f i glib:utils.obj
 0002:00034ab0       ?_Get_second@?$_Compressed_pair@U?$_Wrap_alloc@V?$allocator@M@std@@@std@@V?$_Vector_val@U?$_Simple_types@M@std@@@2@$00@std@@QAEAAV?$_Vector_val@U?$_Simple_types@M@std@@@2@XZ 00474ab0 f i glib:utils.obj
 0002:00034af0       ?_Get_second@?$_Compressed_pair@U?$_Wrap_alloc@V?$allocator@M@std@@@std@@V?$_Vector_val@U?$_Simple_types@M@std@@@2@$00@std@@QBEABV?$_Vector_val@U?$_Simple_types@M@std@@@2@XZ 00474af0 f i glib:utils.obj
 0002:00034b30       ?_Getal@?$_Vector_alloc@U?$_Vec_base_types@HV?$allocator@H@std@@@std@@@std@@QAEAAU?$_Wrap_alloc@V?$allocator@H@std@@@2@XZ 00474b30 f i glib:utils.obj
 0002:00034b80       ?_Getal@?$_Vector_alloc@U?$_Vec_base_types@HV?$allocator@H@std@@@std@@@std@@QBEABU?$_Wrap_alloc@V?$allocator@H@std@@@2@XZ 00474b80 f i glib:utils.obj
 0002:00034bd0       ?_Getpfirst@?$_Vector_alloc@U?$_Vec_base_types@HV?$allocator@H@std@@@std@@@std@@QBEPAPAU_Iterator_base12@2@XZ 00474bd0 f i glib:utils.obj
 0002:00034c30       ?_Grow_to@?$vector@HV?$allocator@H@std@@@std@@IBEII@Z 00474c30 f i glib:utils.obj
 0002:00034ce0       ?_Inside@?$vector@HV?$allocator@H@std@@@std@@IBE_NPBH@Z 00474ce0 f i glib:utils.obj
 0002:00034d70       ?_Myend@?$_Vector_alloc@U?$_Vec_base_types@HV?$allocator@H@std@@@std@@@std@@QAEAAPAHXZ 00474d70 f i glib:utils.obj
 0002:00034dd0       ?_Myend@?$_Vector_alloc@U?$_Vec_base_types@HV?$allocator@H@std@@@std@@@std@@QBEABQAHXZ 00474dd0 f i glib:utils.obj
 0002:00034e30       ?_Myfirst@?$_Vector_alloc@U?$_Vec_base_types@HV?$allocator@H@std@@@std@@@std@@QAEAAPAHXZ 00474e30 f i glib:utils.obj
 0002:00034e90       ?_Myfirst@?$_Vector_alloc@U?$_Vec_base_types@HV?$allocator@H@std@@@std@@@std@@QBEABQAHXZ 00474e90 f i glib:utils.obj
 0002:00034ef0       ?_Myfirst@?$_Vector_alloc@U?$_Vec_base_types@MV?$allocator@M@std@@@std@@@std@@QAEAAPAMXZ 00474ef0 f i glib:utils.obj
 0002:00034f50       ?_Myfirst@?$_Vector_alloc@U?$_Vec_base_types@MV?$allocator@M@std@@@std@@@std@@QBEABQAMXZ 00474f50 f i glib:utils.obj
 0002:00034fb0       ?_Mylast@?$_Vector_alloc@U?$_Vec_base_types@HV?$allocator@H@std@@@std@@@std@@QAEAAPAHXZ 00474fb0 f i glib:utils.obj
 0002:00035010       ?_Mylast@?$_Vector_alloc@U?$_Vec_base_types@HV?$allocator@H@std@@@std@@@std@@QBEABQAHXZ 00475010 f i glib:utils.obj
 0002:00035070       ?_Mylast@?$_Vector_alloc@U?$_Vec_base_types@MV?$allocator@M@std@@@std@@@std@@QBEABQAMXZ 00475070 f i glib:utils.obj
 0002:000350d0       ?_Myproxy@?$_Vector_alloc@U?$_Vec_base_types@HV?$allocator@H@std@@@std@@@std@@QAEAAPAU_Container_proxy@2@XZ 004750d0 f i glib:utils.obj
 0002:00035120       ?_Orphan_all@?$_Vector_alloc@U?$_Vec_base_types@HV?$allocator@H@std@@@std@@@std@@QAEXXZ 00475120 f i glib:utils.obj
 0002:00035180       ?_Orphan_range@?$vector@HV?$allocator@H@std@@@std@@IBEXPAH0@Z 00475180 f i glib:utils.obj
 0002:000352f0       ?_Reallocate@?$vector@HV?$allocator@H@std@@@std@@IAEXI@Z 004752f0 f i glib:utils.obj
 0002:000354e0       ?_Reserve@?$vector@HV?$allocator@H@std@@@std@@IAEXI@Z 004754e0 f i glib:utils.obj
 0002:00035590       ?_Swap_all@?$_String_alloc@U?$_String_base_types@DV?$allocator@D@std@@@std@@@std@@QAEXAAV12@@Z 00475590 f i glib:utils.obj
 0002:00035600       ?_Swap_all@_Container_base12@std@@QAEXAAU12@@Z 00475600 f i glib:utils.obj
 0002:00035700       ?_Swap_alloc@?$_String_alloc@U?$_String_base_types@DV?$allocator@D@std@@@std@@@std@@QAEXAAV12@@Z 00475700 f i glib:utils.obj
 0002:00035790       ?_Swap_bx@?$basic_string@DU?$char_traits@D@std@@V?$allocator@D@2@@std@@QAEXAAV12@@Z 00475790 f i glib:utils.obj
 0002:000359b0       ?_Tidy@?$vector@HV?$allocator@H@std@@@std@@IAEXXZ 004759b0 f i glib:utils.obj
 0002:00035ab0       ?_Unchecked@?$_Vector_iterator@V?$_Vector_val@U?$_Simple_types@V?$basic_string@DU?$char_traits@D@std@@V?$allocator@D@2@@std@@@std@@@std@@@std@@QBEPAV?$basic_string@DU?$char_traits@D@std@@V?$allocator@D@2@@2@XZ 00475ab0 f i glib:utils.obj
 0002:00035af0       ?_Unused_capacity@?$vector@HV?$allocator@H@std@@@std@@QBEIXZ 00475af0 f i glib:utils.obj
 0002:00035b60       ?_Xlen@?$vector@HV?$allocator@H@std@@@std@@IBEXXZ 00475b60 f i glib:utils.obj
 0002:00035bc0       ?allocate@?$_Wrap_alloc@V?$allocator@H@std@@@std@@QAEPAHI@Z 00475bc0 f i glib:utils.obj
 0002:00035c20       ?allocate@?$allocator@H@std@@QAEPAHI@Z 00475c20 f i glib:utils.obj
 0002:00035c80       ?append@?$basic_string@DU?$char_traits@D@std@@V?$allocator@D@2@@std@@QAEAAV12@ABV12@II@Z 00475c80 f i glib:utils.obj
 0002:00035da0       ?append@?$basic_string@DU?$char_traits@D@std@@V?$allocator@D@2@@std@@QAEAAV12@PBD@Z 00475da0 f i glib:utils.obj
 0002:00035e30       ?append@?$basic_string@DU?$char_traits@D@std@@V?$allocator@D@2@@std@@QAEAAV12@PBDI@Z 00475e30 f i glib:utils.obj
 0002:00035fa0       ?assign@?$basic_string@DU?$char_traits@D@std@@V?$allocator@D@2@@std@@QAEAAV12@ABV12@@Z 00475fa0 f i glib:utils.obj
 0002:00036000       ?backup@@YAHPAU_iobuf@@J@Z 00476000 f   glib:utils.obj
 0002:00036100       ?begin@?$vector@V?$basic_string@DU?$char_traits@D@std@@V?$allocator@D@2@@std@@V?$allocator@V?$basic_string@DU?$char_traits@D@std@@V?$allocator@D@2@@std@@@2@@std@@QAE?AV?$_Vector_iterator@V?$_Vector_val@U?$_Simple_types@V?$basic_string@DU?$char_traits@D@std@@V?$allocator@D@2@@std@@@std@@@std@@@2@XZ 00476100 f i glib:utils.obj
 0002:000361b0       ?binbuf_to_hexbuf@@YAHPAEPADHH@Z 004761b0 f   glib:utils.obj
 0002:00036250       ?bit_reverse@@YAXPAE@Z     00476250 f   glib:utils.obj
 0002:00036300       ?bmr@@YAMMMMDH@Z           00476300 f   glib:utils.obj
 0002:00036520       ?capacity@?$vector@HV?$allocator@H@std@@@std@@QBEIXZ 00476520 f i glib:utils.obj
 0002:00036590       ?change_extension@@YA_NPAD00H0@Z 00476590 f   glib:utils.obj
 0002:00036660       ?checksum@@YAGPAEH@Z       00476660 f   glib:utils.obj
 0002:000366e0       ?clear@?$vector@V?$basic_string@DU?$char_traits@D@std@@V?$allocator@D@2@@std@@V?$allocator@V?$basic_string@DU?$char_traits@D@std@@V?$allocator@D@2@@std@@@2@@std@@QAEXXZ 004766e0 f i glib:utils.obj
 0002:000367b0       ?compute_payment@@YAMMMH@Z 004767b0 f   glib:utils.obj
 0002:00036870       ?compute_remaining_principal@@YANNNHH@Z 00476870 f   glib:utils.obj
 0002:00036990       ?compute_sine@@YAXPAMHH@Z  00476990 f   glib:utils.obj
 0002:00036b20       ?convtime@@YAXKAAH000@Z    00476b20 f   glib:utils.obj
 0002:00036c60       ?count_strings@@YAHPAPAD@Z 00476c60 f   glib:utils.obj
 0002:00036cd0       ?countbits@@YAHJ@Z         00476cd0 f   glib:utils.obj
 0002:00036da0       ?countlines@@YAJPBD_N@Z    00476da0 f   glib:utils.obj
 0002:00036f30       ?deallocate@?$_Wrap_alloc@V?$allocator@H@std@@@std@@QAEXPAHI@Z 00476f30 f i glib:utils.obj
 0002:00036f90       ?deallocate@?$allocator@H@std@@QAEXPAHI@Z 00476f90 f i glib:utils.obj
 0002:00036ff0       ?deq@@YA_NNNN@Z            00476ff0 f   glib:utils.obj
 0002:00037070       ?doof@@YAHPBD@Z            00477070 f   glib:utils.obj
 0002:000373d0       ?dprintf@@YAXPBDZZ         004773d0 f   glib:utils.obj
 0002:000374d0       ?dump2@@YAXPAU_iobuf@@PAEH@Z 004774d0 f   glib:utils.obj
 0002:000377e0       ?dump@@YAXPAD0K@Z          004777e0 f   glib:utils.obj
 0002:00037cc0       ?dump@@YAXPAEH@Z           00477cc0 f   glib:utils.obj
 0002:00037f60       ?dump@@YAXPAEHPAU_iobuf@@PAD@Z 00477f60 f   glib:utils.obj
 0002:00038270       ?empty@?$vector@V?$basic_string@DU?$char_traits@D@std@@V?$allocator@D@2@@std@@V?$allocator@V?$basic_string@DU?$char_traits@D@std@@V?$allocator@D@2@@std@@@2@@std@@QBE_NXZ 00478270 f i glib:utils.obj
 0002:00038300       ?end@?$vector@V?$basic_string@DU?$char_traits@D@std@@V?$allocator@D@2@@std@@V?$allocator@V?$basic_string@DU?$char_traits@D@std@@V?$allocator@D@2@@std@@@2@@std@@QAE?AV?$_Vector_iterator@V?$_Vector_val@U?$_Simple_types@V?$basic_string@DU?$char_traits@D@std@@V?$allocator@D@2@@std@@@std@@@std@@@2@XZ 00478300 f i glib:utils.obj
 0002:000383b0       ?ends_with@@YA_NPBD0@Z     004783b0 f   glib:utils.obj
 0002:00038480       ?equals@@YA_NPAD0@Z        00478480 f   glib:utils.obj
 0002:00038520       ?equalsIgnoreCase@@YA_NPAD0@Z 00478520 f   glib:utils.obj
 0002:000385f0       ?exists@@YA_NPBD@Z         004785f0 f   glib:utils.obj
 0002:00038730       ?explode2@@YAXPADPBDAAV?$vector@V?$basic_string@DU?$char_traits@D@std@@V?$allocator@D@2@@std@@V?$allocator@V?$basic_string@DU?$char_traits@D@std@@V?$allocator@D@2@@std@@@2@@std@@@Z 00478730 f   glib:utils.obj
 0002:00038950       ?fcmp@@YAHMMH@Z            00478950 f   glib:utils.obj
 0002:00038d80       ?file_get_contents@@YA?AV?$basic_string@DU?$char_traits@D@std@@V?$allocator@D@2@@std@@PBD@Z 00478d80 f   glib:utils.obj
 0002:00038f90       ?filesize_from_stream@@YAKPAU_iobuf@@@Z 00478f90 f   glib:utils.obj
 0002:00039060       ?finterp@@YANNNNNN@Z       00479060 f   glib:utils.obj
 0002:000390f0       ?fix_crlf@@YAXPAD@Z        004790f0 f   glib:utils.obj
 0002:000393c0       ?fix_date@@YAHPAD0@Z       004793c0 f   glib:utils.obj
 0002:00039b80       ?float_is_integer@@YA_NM@Z 00479b80 f   glib:utils.obj
 0002:00039c40       ?flush@@YAXPAVLogger@@PAVSerial@@KH@Z 00479c40 f   glib:utils.obj
 0002:00039f60       ?fourcc@@YAIPBD@Z          00479f60 f   glib:utils.obj
 0002:00039ff0       ?fourcc@@YAPBDI@Z          00479ff0 f   glib:utils.obj
 0002:0003a0a0       ?frand@@YAMMM@Z            0047a0a0 f   glib:utils.obj
 0002:0003a140       ?fulltrim@@YAPADPAD@Z      0047a140 f   glib:utils.obj
 0002:0003a1f0       ?gaussfit@@YAXPAMF@Z       0047a1f0 f   glib:utils.obj
 0002:0003a460       ?geometric_mean@@YANPAMF@Z 0047a460 f   glib:utils.obj
 0002:0003a540       ?getFileBuf@@YA_NPADJJ0H@Z 0047a540 f   glib:utils.obj
 0002:0003a6b0       ?getRandomNumber@@YAGXZ    0047a6b0 f   glib:utils.obj
 0002:0003a730       ?get_angle@@YANNNNNNN_N@Z  0047a730 f   glib:utils.obj
 0002:0003a910       ?get_extension@@YAXPAD@Z   0047a910 f   glib:utils.obj
 0002:0003a9a0       ?get_last_line@@YAXPAD0H@Z 0047a9a0 f   glib:utils.obj
 0002:0003ab00       ?getbit@@YAHEH@Z           0047ab00 f   glib:utils.obj
 0002:0003ab80       ?gethex@@YAHPAE@Z          0047ab80 f   glib:utils.obj
 0002:0003add0       ?getmonth@@YAHPAD@Z        0047add0 f   glib:utils.obj
 0002:0003b000       ?getmonth@@YAHPBD@Z        0047b000 f   glib:utils.obj
 0002:0003b0a0       ?getmonth@@YAPBDH_N@Z      0047b0a0 f   glib:utils.obj
 0002:0003b110       ?harmonic_mean@@YANPAMF@Z  0047b110 f   glib:utils.obj
 0002:0003b1d0       ?has_extension@@YA_NPAD@Z  0047b1d0 f   glib:utils.obj
 0002:0003b240       ?hexbuf_to_binbuf@@YAHPADPAEHH@Z 0047b240 f   glib:utils.obj
 0002:0003b3b0       ?high@@YAEG@Z              0047b3b0 f   glib:utils.obj
 0002:0003b3f0       ?hot@@YAXXZ                0047b3f0 f   glib:utils.obj
 0002:0003ba20       ?indexCharFromEnd@@YAHPADD@Z 0047ba20 f   glib:utils.obj
 0002:0003bac0       ?indexIgnoreCase@@YAHPBD0H_N@Z 0047bac0 f   glib:utils.obj
 0002:0003bc90       ?insert@@YAHPADPBDH@Z      0047bc90 f   glib:utils.obj
 0002:0003be10       ?isNumericString@@YA_NPBD@Z 0047be10 f   glib:utils.obj
 0002:0003bf10       ?isodd@@YA_NH@Z            0047bf10 f   glib:utils.obj
 0002:0003bf70       ?leastsquare@@YAXAAV?$vector@MV?$allocator@M@std@@@std@@PAM1@Z 0047bf70 f   glib:utils.obj
 0002:0003c190       ?leastsquare@@YAXPAM0F00@Z 0047c190 f   glib:utils.obj
 0002:0003c3c0       ?leastsquares@@YAXPAM0F00@Z 0047c3c0 f   glib:utils.obj
 0002:0003c540       ?low@@YAEG@Z               0047c540 f   glib:utils.obj
 0002:0003c580       ?lshift@@YAXPAEHH@Z        0047c580 f   glib:utils.obj
 0002:0003c620       ?ltrim@@YAXPADH0@Z         0047c620 f   glib:utils.obj
 0002:0003c820       ?ltrimcrlf@@YAXPAD@Z       0047c820 f   glib:utils.obj
 0002:0003c930       ?max_size@?$_Wrap_alloc@V?$allocator@H@std@@@std@@QBEIU_Nil@2@@Z 0047c930 f i glib:utils.obj
 0002:0003c990       ?max_size@?$allocator@H@std@@QBEIXZ 0047c990 f i glib:utils.obj
 0002:0003c9d0       ?max_size@?$allocator_traits@V?$allocator@H@std@@@std@@SAIABV?$allocator@H@2@@Z 0047c9d0 f i glib:utils.obj
 0002:0003ca20       ?max_size@?$vector@HV?$allocator@H@std@@@std@@QBEIXZ 0047ca20 f i glib:utils.obj
 0002:0003ca90       ?mean@@YANPAMF@Z           0047ca90 f   glib:utils.obj
 0002:0003cb40       ?move_to@@YAHPAU_iobuf@@H@Z 0047cb40 f   glib:utils.obj
 0002:0003cc70       ?mybasename@@YAPADPBD@Z    0047cc70 f   glib:utils.obj
 0002:0003ccf0       ?mycopy@@YAHPBD0@Z         0047ccf0 f   glib:utils.obj
 0002:0003cfc0       ?myexplode@@YAXPBD0AAV?$vector@V?$basic_string@DU?$char_traits@D@std@@V?$allocator@D@2@@std@@V?$allocator@V?$basic_string@DU?$char_traits@D@std@@V?$allocator@D@2@@std@@@2@@std@@@Z 0047cfc0 f   glib:utils.obj
 0002:0003d310       ?myindex@@YAHPADPBDAAV?$vector@HV?$allocator@H@std@@@std@@@Z 0047d310 f   glib:utils.obj
 0002:0003d440       ?myindex@@YAHPBD0H@Z       0047d440 f   glib:utils.obj
 0002:0003d520       ?myremove@@YAXPBDPAD@Z     0047d520 f   glib:utils.obj
 0002:0003d610       ?mystrcasecmp@@YAHPBD0@Z   0047d610 f   glib:utils.obj
 0002:0003d720       ?pad@@YAXPADHD@Z           0047d720 f   glib:utils.obj
 0002:0003d7d0       ?ph@@YAHUtagRECT@@M@Z      0047d7d0 f   glib:utils.obj
 0002:0003d8e0       ?pop_back@?$vector@V?$basic_string@DU?$char_traits@D@std@@V?$allocator@D@2@@std@@V?$allocator@V?$basic_string@DU?$char_traits@D@std@@V?$allocator@D@2@@std@@@2@@std@@QAEXXZ 0047d8e0 f i glib:utils.obj
 0002:0003d9e0       ?pow@@YAMMH@Z              0047d9e0 f i glib:utils.obj
 0002:0003da70       ?pow@@YANNH@Z              0047da70 f i glib:utils.obj
 0002:0003db10       ?print_amortization_table@@YAXMMHH@Z 0047db10 f   glib:utils.obj
 0002:0003dcf0       ?push_back@?$vector@HV?$allocator@H@std@@@std@@QAEXABH@Z 0047dcf0 f i glib:utils.obj
 0002:0003dee0       ?push_back@?$vector@V?$basic_string@DU?$char_traits@D@std@@V?$allocator@D@2@@std@@V?$allocator@V?$basic_string@DU?$char_traits@D@std@@V?$allocator@D@2@@std@@@2@@std@@QAEXABV?$basic_string@DU?$char_traits@D@std@@V?$allocator@D@2@@2@@Z 0047dee0 f i glib:utils.obj
 0002:0003e0d0       ?pv@@YAHUtagRECT@@M@Z      0047e0d0 f   glib:utils.obj
 0002:0003e1e0       ?read_chars@@YAHPAU_iobuf@@PADH@Z 0047e1e0 f   glib:utils.obj
 0002:0003e280       ?read_chars_bin@@YAHPAU_iobuf@@PADH@Z 0047e280 f   glib:utils.obj
 0002:0003e310       ?read_long@@YAHPAU_iobuf@@@Z 0047e310 f   glib:utils.obj
 0002:0003e3f0       ?read_until_char@@YAJPADJD0H@Z 0047e3f0 f   glib:utils.obj
 0002:0003e5b0       ?read_word@@YAHPAU_iobuf@@@Z 0047e5b0 f   glib:utils.obj
 0002:0003e640       ?remove_empty_lines@@YAXPAD@Z 0047e640 f   glib:utils.obj
 0002:0003e830       ?replace@@YAHPADPBD1H@Z    0047e830 f   glib:utils.obj
 0002:0003ea50       ?replace_extension@@YA_NPADPBD@Z 0047ea50 f   glib:utils.obj
 0002:0003eb30       ?reverse_file@@YAXPAD@Z    0047eb30 f   glib:utils.obj
 0002:0003eed0       ?reverse_long_bytes@@YAXPAK@Z 0047eed0 f   glib:utils.obj
 0002:0003ef80       ?rm@@YA_NPBD@Z             0047ef80 f   glib:utils.obj
 0002:0003f080       ?rms@@YANPAMF@Z            0047f080 f   glib:utils.obj
 0002:0003f130       ?round_a@@YAHHH@Z          0047f130 f   glib:utils.obj
 0002:0003f190       ?round_af@@YAHMH@Z         0047f190 f   glib:utils.obj
 0002:0003f200       ?roundmod@@YAHMH@Z         0047f200 f   glib:utils.obj
 0002:0003f290       ?searchFile@@YAJPADJ0H@Z   0047f290 f   glib:utils.obj
 0002:0003f530       ?select_on_container_copy_construction@?$_Wrap_alloc@V?$allocator@D@std@@@std@@QBE?AU12@U_Nil@2@@Z 0047f530 f i glib:utils.obj
 0002:0003f5a0       ?select_on_container_copy_construction@?$allocator_traits@V?$allocator@D@std@@@std@@SA?AV?$allocator@D@2@ABV32@@Z 0047f5a0 f i glib:utils.obj
 0002:0003f600       ?sign@@YAHM@Z              0047f600 f   glib:utils.obj
 0002:0003f670       ?size@?$vector@HV?$allocator@H@std@@@std@@QBEIXZ 0047f670 f i glib:utils.obj
 0002:0003f6e0       ?size@?$vector@MV?$allocator@M@std@@@std@@QBEIXZ 0047f6e0 f i glib:utils.obj
 0002:0003f750       ?startsWith@@YA_NPAD0@Z    0047f750 f   glib:utils.obj
 0002:0003f7f0       ?startsWithIgnoreCase@@YA_NPAD0@Z 0047f7f0 f   glib:utils.obj
 0002:0003f8c0       ?statmode@@YANPAMF@Z       0047f8c0 f   glib:utils.obj
 0002:0003fbe0       ?strEqual@@YA_NPAD0@Z      0047fbe0 f   glib:utils.obj
 0002:0003fca0       ?strip_extension@@YAXPAD@Z 0047fca0 f   glib:utils.obj
 0002:0003fd20       ?strip_filename@@YAXPAD@Z  0047fd20 f   glib:utils.obj
 0002:0003fdc0       ?strip_path@@YAXPAD@Z      0047fdc0 f   glib:utils.obj
 0002:0003ff70       ?strtolower@@YAXPAD@Z      0047ff70 f   glib:utils.obj
 0002:00040020       ?strtoupper@@YAXPAD@Z      00480020 f   glib:utils.obj
 0002:000400d0       ?substr@@YA_NPADDD_N0HPAH2@Z 004800d0 f   glib:utils.obj
 0002:000402a0       ?substring@@YAXPBDHHPAD@Z  004802a0 f   glib:utils.obj
 0002:00040330       ?swap@?$basic_string@DU?$char_traits@D@std@@V?$allocator@D@2@@std@@QAEXAAV12@@Z 00480330 f i glib:utils.obj
 0002:00040550       ?swap@@YAXPAH0@Z           00480550 f   glib:utils.obj
 0002:000405c0       ?swap_floats@@YAXPAM0@Z    004805c0 f   glib:utils.obj
 0002:00040620       ?timeBeginPeriod@@YAXK@Z   00480620 f   glib:utils.obj
 0002:00040650       ?timeEndPeriod@@YAXK@Z     00480650 f   glib:utils.obj
 0002:00040680       ?time_format2@@YAXKPAD@Z   00480680 f   glib:utils.obj
 0002:00040770       ?time_format@@YAXKPAD@Z    00480770 f   glib:utils.obj
 0002:00040870       ?timestamp@@YAXPAD@Z       00480870 f   glib:utils.obj
 0002:00040950       ?tobin2@@YAGPAD@Z          00480950 f   glib:utils.obj
 0002:00040b10       ?tobin@@YAGPAD@Z           00480b10 f   glib:utils.obj
 0002:00040c00       ?trim@@YAXPADPBD@Z         00480c00 f   glib:utils.obj
 0002:00040d70       ?trimcrlf@@YAXPAD@Z        00480d70 f   glib:utils.obj
 0002:00040e40       ?unpack@@YAKK@Z            00480e40 f   glib:utils.obj
 0002:00040ee0       ?valid_filename@@YA_NPBD@Z 00480ee0 f   glib:utils.obj
 0002:00040f80       ?vmag@@YANNNN@Z            00480f80 f   glib:utils.obj
 0002:00041010       ?write_chars@@YAHPAU_iobuf@@PAD@Z 00481010 f   glib:utils.obj
 0002:000410c0       ?write_chars_bin@@YAHPAU_iobuf@@PADH@Z 004810c0 f   glib:utils.obj
 0002:00041150       ?write_long@@YAHPAU_iobuf@@H@Z 00481150 f   glib:utils.obj
 0002:00041240       ?write_word@@YAHPAU_iobuf@@H@Z 00481240 f   glib:utils.obj
 0002:000412e0       _powf                      004812e0 f i glib:utils.obj
 0002:000413c0       _vsprintf                  004813c0 f i glib:utils.obj
 0002:00041420       ??0fatalError@@QAE@PBDH0@Z 00481420 f   glib:fatalerror.obj
 0002:00041600       ??1fatalError@@UAE@XZ      00481600 f   glib:fatalerror.obj
 0002:00041640       ??4OLDSDIRS@@QAEAAV0@ABV0@@Z 00481640 f i glib:fatalerror.obj
 0002:00041690       ??0Logger@@QAE@PBD0@Z      00481690 f   glib:logger.obj
 0002:00041ad0       ??1Logger@@UAE@XZ          00481ad0 f   glib:logger.obj
 0002:00041bb0       ??_GLogger@@UAEPAXI@Z      00481bb0 f i glib:logger.obj
 0002:00041bb0       ??_ELogger@@UAEPAXI@Z      00481bb0 f i glib:logger.obj
 0002:00041c30       ?cleanup_logfiles@Logger@@AAEXXZ 00481c30 f   glib:logger.obj
 0002:00042140       ?close@Logger@@QAEXXZ      00482140 f   glib:logger.obj
 0002:000422c0       ?dump@Logger@@QAEXPAEH@Z   004822c0 f   glib:logger.obj
 0002:000425f0       ?flush@Logger@@QAEXXZ      004825f0 f   glib:logger.obj
 0002:00042690       ?import_file@Logger@@QAEHPBD@Z 00482690 f   glib:logger.obj
 0002:000427c0       ?sort_function@@YAHPBX0@Z  004827c0 f   glib:logger.obj
 0002:00042820       ?write@Logger@@QAAXHHHPBDZZ 00482820 f   glib:logger.obj
 0002:00042ca0       ?write@Logger@@QAAXPBDZZ   00482ca0 f   glib:logger.obj
 0002:00042dd0       ??$MAX@G@@YAGGG@Z          00482dd0 f i glib:serial.obj
 0002:00042e20       ??0Serial@@QAE@PBD00HHHPAVLogger@@@Z 00482e20 f   glib:serial.obj
 0002:00043360       ??0Serial@@QAE@PBD0PAVLogger@@@Z 00483360 f   glib:serial.obj
 0002:00043820       ??0Serial@@QAE@XZ          00483820 f   glib:serial.obj
 0002:00043a00       ??0Serial@@QAE@_NPBD1HPAVLogger@@@Z 00483a00 f   glib:serial.obj
 0002:00043cb0       ??1Serial@@UAE@XZ          00483cb0 f   glib:serial.obj
 0002:00043d40       ??_ESerial@@UAEPAXI@Z      00483d40 f i glib:serial.obj
 0002:00043d40       ??_GSerial@@UAEPAXI@Z      00483d40 f i glib:serial.obj
 0002:00043dc0       ?Clear@Serial@@AAEXXZ      00483dc0 f   glib:serial.obj
 0002:00043e40       ?Close@Serial@@AAEXH@Z     00483e40 f   glib:serial.obj
 0002:00044640       ?DisplayOpenError@Serial@@AAEXH@Z 00484640 f   glib:serial.obj
 0002:00044780       ?FlushBuffers@Serial@@AAEXXZ 00484780 f   glib:serial.obj
 0002:00044890       ?GetCommError@Serial@@AAEIXZ 00484890 f   glib:serial.obj
 0002:00044980       ?GetCommErrorStr@Serial@@AAEXIPADH@Z 00484980 f   glib:serial.obj
 0002:00044c00       ?GetPort@Serial@@AAEXPADH@Z 00484c00 f   glib:serial.obj
 0002:00044c80       ?IsOpen@Serial@@QAEHXZ     00484c80 f   glib:serial.obj
 0002:00044cf0       ?IsWaitingForXon@Serial@@AAEHXZ 00484cf0 f   glib:serial.obj
 0002:00044de0       ?Open@Serial@@AAEHPBD0H@Z  00484de0 f   glib:serial.obj
 0002:00045800       ?OutQueueLength@Serial@@AAEIXZ 00485800 f   glib:serial.obj
 0002:000458f0       ?StackOverflow@Serial@@QAEXH@Z 004858f0 f   glib:serial.obj
 0002:00045930       ?destroy@Serial@@AAEXXZ    00485930 f   glib:serial.obj
 0002:00045cc0       ?expect@Serial@@QAEHPADK@Z 00485cc0 f   glib:serial.obj
 0002:00045e30       ?flush@Serial@@QAEXXZ      00485e30 f   glib:serial.obj
 0002:00045e80       ?flush_rawstream@Serial@@QAEXXZ 00485e80 f   glib:serial.obj
 0002:00045f40       ?flush_tx@Serial@@QAEXXZ   00485f40 f   glib:serial.obj
 0002:00045ff0       ?flushrx@Serial@@QAEXK@Z   00485ff0 f   glib:serial.obj
 0002:00046170       ?flushtx@Serial@@QAEXXZ    00486170 f   glib:serial.obj
 0002:00046200       ?forcetx@Serial@@QAEXXZ    00486200 f   glib:serial.obj
 0002:00046280       ?get_port_name@Serial@@QAEPBDXZ 00486280 f   glib:serial.obj
 0002:000462c0       ?hyperterm@Serial@@QAEXXZ  004862c0 f   glib:serial.obj
 0002:000464c0       ?process_events@Serial@@AAEXK@Z 004864c0 f   glib:serial.obj
 0002:00046870       ?rx@Serial@@QAEHPADH@Z     00486870 f   glib:serial.obj
 0002:00046940       ?rxThread@Serial@@CAXPAX@Z 00486940 f   glib:serial.obj
 0002:000472a0       ?send@Serial@@QAEXPADH@Z   004872a0 f   glib:serial.obj
 0002:00047380       ?tx@Serial@@QAEHE@Z        00487380 f   glib:serial.obj
 0002:00047410       ?txThread@Serial@@CAXPAX@Z 00487410 f   glib:serial.obj
 0002:00047d90       ?txi@Serial@@QAEHE@Z       00487d90 f   glib:serial.obj
 0002:00047ef0       ?txwake@Serial@@QAEXXZ     00487ef0 f   glib:serial.obj
 0002:00047f90       ?txx@Serial@@QAEXPAEH@Z    00487f90 f   glib:serial.obj
 0002:00048080       ??$MAX@H@@YAHHH@Z          00488080 f i glib:win_utils.obj
 0002:000480d0       ??$pow@HN@@YANHN@Z         004880d0 f i glib:win_utils.obj
 0002:00048140       ?BitmapToRegion@@YAPAUHRGN__@@PAUHBITMAP__@@KK@Z 00488140 f   glib:win_utils.obj
 0002:00048c80       ?DeleteFolder@@YAHPAD@Z    00488c80 f   glib:win_utils.obj
 0002:00048f90       ?GetMachineCaps@@YAXPAVLogger@@@Z 00488f90 f   glib:win_utils.obj
 0002:00049290       ?MessageName@@YAPBDI@Z     00489290 f   glib:win_utils.obj
 0002:0004a490       ?OutputHeading@@YAXPBD@Z   0048a490 f   glib:win_utils.obj
 0002:0004a510       ?SetBValue@@YAXPAKE@Z      0048a510 f   glib:win_utils.obj
 0002:0004a560       ?SetClientRect@@YAXPAUHWND__@@PAUtagRECT@@@Z 0048a560 f   glib:win_utils.obj
 0002:0004a820       ?SetClientSize@@YAXPAUHWND__@@HH@Z 0048a820 f   glib:win_utils.obj
 0002:0004a950       ?SetGValue@@YAXPAKE@Z      0048a950 f   glib:win_utils.obj
 0002:0004a9a0       ?SetRValue@@YAXPAKE@Z      0048a9a0 f   glib:win_utils.obj
 0002:0004a9f0       ?TransparentStretchBlt@@YAXPAUHDC__@@JJJJPAUHBITMAP__@@JJJJK@Z 0048a9f0 f   glib:win_utils.obj
 0002:0004ad30       ?alert@@YAXXZ              0048ad30 f   glib:win_utils.obj
 0002:0004ad60       ?avgfps@@YAMM@Z            0048ad60 f   glib:win_utils.obj
 0002:0004ae40       ?bang@@YAXXZ               0048ae40 f   glib:win_utils.obj
 0002:0004ae70       ?beep@@YAXXZ               0048ae70 f   glib:win_utils.obj
 0002:0004aea0       ?box@@YAXPAUHDC__@@UtagRECT@@K_NPAUHPEN__@@@Z 0048aea0 f   glib:win_utils.obj
 0002:0004b160       ?brand@@YA_NXZ             0048b160 f   glib:win_utils.obj
 0002:0004b1e0       ?buzz@@YAXXZ               0048b1e0 f   glib:win_utils.obj
 0002:0004b240       ?center_window@@YAXPAUHWND__@@@Z 0048b240 f   glib:win_utils.obj
 0002:0004b370       ?charToW@@YAXPBDHPA_W@Z    0048b370 f   glib:win_utils.obj
 0002:0004b3e0       ?checkMsg@@YAXIPAU_iobuf@@@Z 0048b3e0 f   glib:win_utils.obj
 0002:0004c050       ?circle@@YAXPAUHDC__@@HHH_N@Z 0048c050 f   glib:win_utils.obj
 0002:0004c160       ?convertAnsiStringToWide@@YAXPA_WPBDH@Z 0048c160 f   glib:win_utils.obj
 0002:0004c210       ?convertWideStringToAnsi@@YAXPADPB_WH@Z 0048c210 f   glib:win_utils.obj
 0002:0004c2d0       ?cos@@YAMM@Z               0048c2d0 f i glib:win_utils.obj
 0002:0004c330       ?crand@@YAXPADH@Z          0048c330 f   glib:win_utils.obj
 0002:0004c420       ?csv_add@@YAHPADHHPAXH_N@Z 0048c420 f   glib:win_utils.obj
 0002:0004c650       ?delay@@YAXK@Z             0048c650 f   glib:win_utils.obj
 0002:0004c6e0       ?direxists@@YA_NPBD@Z      0048c6e0 f   glib:win_utils.obj
 0002:0004c760       ?dlerp@@YANNNN@Z           0048c760 f   glib:win_utils.obj
 0002:0004c7c0       ?dround@@YANNH@Z           0048c7c0 f   glib:win_utils.obj
 0002:0004c870       ?ellipse@@YAXPAUHDC__@@HHHH_N@Z 0048c870 f   glib:win_utils.obj
 0002:0004c980       ?expect@@YAHPAVLogger@@PADPAVSerial@@K@Z 0048c980 f   glib:win_utils.obj
 0002:0004cc30       ?fcompare@@YAHPBX0@Z       0048cc30 f   glib:win_utils.obj
 0002:0004ccb0       ?filesize_from_name@@YAKPBD@Z 0048ccb0 f   glib:win_utils.obj
 0002:0004cd60       ?filetime@@YA?AU_SYSTEMTIME@@PAD@Z 0048cd60 f   glib:win_utils.obj
 0002:0004cf50       ?fround@@YAMMH@Z           0048cf50 f   glib:win_utils.obj
 0002:0004d030       ?generate_log_file_name@@YAXPAD@Z 0048d030 f   glib:win_utils.obj
 0002:0004d100       ?getClientRect@@YAXPAUHWND__@@PAUtagRECT@@@Z 0048d100 f   glib:win_utils.obj
 0002:0004d280       ?getUniqueFileName@@YAXPADH@Z 0048d280 f   glib:win_utils.obj
 0002:0004d4b0       ?get_os_serial_number@@YAXPAEK@Z 0048d4b0 f   glib:win_utils.obj
 0002:0004d7d0       ?get_system_drive@@YADXZ   0048d7d0 f   glib:win_utils.obj
 0002:0004d840       ?gettimeofday@@YAHPAUtimeval@@PAUtimezone@@@Z 0048d840 f   glib:win_utils.obj
 0002:0004da20       ?heapdump@@YAXXZ           0048da20 f   glib:win_utils.obj
 0002:0004dc60       ?hide@@YAXPAD@Z            0048dc60 f   glib:win_utils.obj
 0002:0004dcf0       ?irand@@YAHHH@Z            0048dcf0 f   glib:win_utils.obj
 0002:0004dd90       ?is_open@@YA_NPBD@Z        0048dd90 f   glib:win_utils.obj
 0002:0004de60       ?linaxspec@@YA?AUTICKSUMMARY@@NHHPAN@Z 0048de60 f   glib:win_utils.obj
 0002:0004e140       ?line@@YAXPAUHDC__@@HHHH@Z 0048e140 f   glib:win_utils.obj
 0002:0004e1d0       ?loose_label@@YAXNN@Z      0048e1d0 f   glib:win_utils.obj
 0002:0004e410       ?lpwAlign@@YAPAGPAG@Z      0048e410 f   glib:win_utils.obj
 0002:0004e470       ?nCopyAnsiToWideChar@@YAHPAGPAD@Z 0048e470 f   glib:win_utils.obj
 0002:0004e510       ?nicenum@@YANNH@Z          0048e510 f   glib:win_utils.obj
 0002:0004e730       ?printfile@@YAHPADH_N11H@Z 0048e730 f   glib:win_utils.obj
 0002:0004f160       ?repaintNow@@YAXPAUHWND__@@@Z 0048f160 f   glib:win_utils.obj
 0002:0004f1e0       ?rotate@@YAXAAM0M@Z        0048f1e0 f   glib:win_utils.obj
 0002:0004f330       ?select_color@@YAXPAUHWND__@@AAKPAVIni@@@Z 0048f330 f   glib:win_utils.obj
 0002:0004f600       ?send@@YAXPAVLogger@@PAVSerial@@PADH@Z 0048f600 f   glib:win_utils.obj
 0002:0004f720       ?sin@@YAMM@Z               0048f720 f i glib:win_utils.obj
 0002:0004f780       ?to_narrow@@YAXPA_WPADH@Z  0048f780 f   glib:win_utils.obj
 0002:0004f860       ?to_wide@@YAPA_WPBD@Z      0048f860 f   glib:win_utils.obj
 0002:0004f920       ?unhide@@YAXPAD@Z          0048f920 f   glib:win_utils.obj
 0002:0004f9c0       _cosf                      0048f9c0 f i glib:win_utils.obj
 0002:0004fa30       _sinf                      0048fa30 f i glib:win_utils.obj
 0002:0004fb00       ??$MAX@E@@YAEEE@Z          0048fb00 f i glib:bmp.obj
 0002:0004fb50       ??$MAX@M@@YAMMM@Z          0048fb50 f i glib:bmp.obj
 0002:0004fba0       ??$MIN@E@@YAEEE@Z          0048fba0 f i glib:bmp.obj
 0002:0004fbf0       ??$MIN@M@@YAMMM@Z          0048fbf0 f i glib:bmp.obj
 0002:0004fc40       ??0BMP@@QAE@HHHPAEPBD@Z    0048fc40 f   glib:bmp.obj
 0002:000500c0       ??0BMP@@QAE@PAD@Z          004900c0 f   glib:bmp.obj
 0002:000508d0       ??1BMP@@UAE@XZ             004908d0 f   glib:bmp.obj
 0002:00050960       ??_GBMP@@UAEPAXI@Z         00490960 f i glib:bmp.obj
 0002:00050960       ??_EBMP@@UAEPAXI@Z         00490960 f i glib:bmp.obj
 0002:000509e0       ?cleanup@BMP@@AAEXXZ       004909e0 f   glib:bmp.obj
 0002:00050b00       ?getpixel@BMP@@QAEXHHPAE00@Z 00490b00 f   glib:bmp.obj
 0002:00050c30       ?init@BMP@@AAEXXZ          00490c30 f   glib:bmp.obj
 0002:00050e00       ?paint2@BMP@@QAEXPAUHDC__@@PAUtagRECT@@@Z 00490e00 f   glib:bmp.obj
 0002:00051010       ?paint@BMP@@QAEXPAUHDC__@@PAUtagRECT@@@Z 00491010 f   glib:bmp.obj
 0002:000511a0       ?save@BMP@@QAEXPADPAE@Z    004911a0 f   glib:bmp.obj
 0002:00051330       ?save@BMP@@QAEXXZ          00491330 f   glib:bmp.obj
 0002:000514c0       ?setpixel@BMP@@QAEXHHEEE@Z 004914c0 f   glib:bmp.obj
 0002:000515b0       ?stats@BMP@@QAEXXZ         004915b0 f   glib:bmp.obj
 0002:000518a0       ??0Err@@QAE@XZ             004918a0 f   glib:err.obj
 0002:00051950       ??1Err@@UAE@XZ             00491950 f   glib:err.obj
 0002:000519c0       ??_EErr@@UAEPAXI@Z         004919c0 f i glib:err.obj
 0002:00051ac0       ??_GErr@@UAEPAXI@Z         00491ac0 f i glib:err.obj
 0002:00051b30       ?getString@Err@@QAEPADXZ   00491b30 f   glib:err.obj
 0002:00051b70       ??0Monarch@@QAE@N@Z        00491b70 f   tlib:monarch.obj
 0002:00051e70       ??1Monarch@@UAE@XZ         00491e70 f   tlib:monarch.obj
 0002:00051eb0       ?set_dropped_weight@Monarch@@QAEXN@Z 00491eb0 f   tlib:monarch.obj
 0002:00051f20       ??$MIN@G@@YAGGG@Z          00491f20 f i tlib:physics.obj
 0002:00051f70       ??0Physics@@QAE@PAVBike@@NN@Z 00491f70 f   tlib:physics.obj
 0002:00053380       ??1Physics@@UAE@XZ         00493380 f   tlib:physics.obj
 0002:00053420       ??A?$basic_string@DU?$char_traits@D@std@@V?$allocator@D@2@@std@@QAEAADI@Z 00493420 f i tlib:physics.obj
 0002:000534c0       ?adjustCurrent@Physics@@AAEXXZ 004934c0 f   tlib:physics.obj
 0002:00053640       ?cleanup@Physics@@AAEXXZ   00493640 f   tlib:physics.obj
 0002:00053cf0       ?computeAcceleration@Physics@@QAEHXZ 00493cf0 f   tlib:physics.obj
 0002:00054330       ?computeMass@Physics@@QAEXXZ 00494330 f   tlib:physics.obj
 0002:00054390       ?crowbarRPM@Physics@@QAEXXZ 00494390 f   tlib:physics.obj
 0002:00054420       ?ergoDegauss@Physics@@AAEXXZ 00494420 f   tlib:physics.obj
 0002:00054590       ?getAcceleration@Physics@@QAENXZ 00494590 f   tlib:physics.obj
 0002:000545d0       ?getConstantWatts@Physics@@QAEMXZ 004945d0 f   tlib:physics.obj
 0002:00054610       ?getDisplayedWatts@Physics@@QAENXZ 00494610 f   tlib:physics.obj
 0002:00054650       ?getMPH@Physics@@QAENXZ    00494650 f   tlib:physics.obj
 0002:00054690       ?getPicCurrent@Physics@@QAENXZ 00494690 f   tlib:physics.obj
 0002:000546f0       ?getRPM@Physics@@QAENXZ    004946f0 f   tlib:physics.obj
 0002:00054730       ?getTableCurrent3@Physics@@AAENNN@Z 00494730 f   tlib:physics.obj
 0002:000553a0       ?getTableWatts@Physics@@AAENNN@Z 004953a0 f   tlib:physics.obj
 0002:000556f0       ?getWatts@Physics@@QAENXZ  004956f0 f   tlib:physics.obj
 0002:00055730       ?get_kgs@Bike@@QAENXZ      00495730 f i tlib:physics.obj
 0002:00055770       ?get_nfront@Bike@@QAEHXZ   00495770 f i tlib:physics.obj
 0002:000557b0       ?get_nrear@Bike@@QAEHXZ    004957b0 f i tlib:physics.obj
 0002:000557f0       ?getid@Bike@@QAEHXZ        004957f0 f i tlib:physics.obj
 0002:00055830       ?gradeDown@Physics@@QAEXXZ 00495830 f   tlib:physics.obj
 0002:000558c0       ?gradeUp@Physics@@QAEXXZ   004958c0 f   tlib:physics.obj
 0002:00055950       ?logData@Physics@@AAEXXZ   00495950 f   tlib:physics.obj
 0002:00055990       ?lowCurrent@Physics@@AAENNN@Z 00495990 f   tlib:physics.obj
 0002:00055d10       ?manualLoadControl@Physics@@AAEXXZ 00495d10 f   tlib:physics.obj
 0002:000562d0       ?map@Physics@@AAEHNNNNPAN0@Z 004962d0 f   tlib:physics.obj
 0002:000563b0       ?pause@Physics@@QAEXXZ     004963b0 f   tlib:physics.obj
 0002:00056420       ?readState@Physics@@QAEXPAU_iobuf@@@Z 00496420 f   tlib:physics.obj
 0002:000567e0       ?reset@Physics@@QAEXXZ     004967e0 f   tlib:physics.obj
 0002:00056cb0       ?resetIntegrators@Physics@@QAEXXZ 00496cb0 f   tlib:physics.obj
 0002:00056eb0       ?resume@Physics@@QAEXXZ    00496eb0 f   tlib:physics.obj
 0002:00056f40       ?run@Physics@@QAEXXZ       00496f40 f   tlib:physics.obj
 0002:000571a0       ?runConstantCurrent@Physics@@AAEXXZ 004971a0 f   tlib:physics.obj
 0002:000572f0       ?runWindLoad@Physics@@AAEXXZ 004972f0 f   tlib:physics.obj
 0002:00057e30       ?run_constant_force@Physics@@AAEXXZ 00497e30 f   tlib:physics.obj
 0002:00058430       ?setConstantCurrent@Physics@@QAEXM@Z 00498430 f   tlib:physics.obj
 0002:00058490       ?setConstantWatts@Physics@@QAEXM@Z 00498490 f   tlib:physics.obj
 0002:000584f0       ?setDistance@Physics@@QAEXN@Z 004984f0 f   tlib:physics.obj
 0002:00058590       ?setMode@Physics@@QAEXW4MODE@1@@Z 00498590 f   tlib:physics.obj
 0002:000585e0       ?set_constant_force@Physics@@QAEXN@Z 004985e0 f   tlib:physics.obj
 0002:00058970       ?set_grade@Physics@@QAEXM@Z 00498970 f   tlib:physics.obj
 0002:000589e0       ?set_weight_lbs@Physics@@QAEXN@Z 004989e0 f   tlib:physics.obj
 0002:00058a90       ?setmiles@Physics@@QAEXN@Z 00498a90 f   tlib:physics.obj
 0002:00058b20       ?updatePicCurrent@Physics@@QAEXXZ 00498b20 f   tlib:physics.obj
 0002:00058ba0       ?windDegauss@Physics@@AAEXXZ 00498ba0 f   tlib:physics.obj
 0002:00058db0       ?writeState@Physics@@QAEXPAU_iobuf@@@Z 00498db0 f   tlib:physics.obj
 0002:00059110       ??$?0$$V@?$_Compressed_pair@U?$_Wrap_alloc@V?$allocator@UFORMULA_PAIR@@@std@@@std@@V?$_Deque_val@U?$_Deque_simple_types@UFORMULA_PAIR@@@std@@@2@$00@std@@QAE@U_Zero_then_variadic_args_t@1@@Z 00499110 f i tlib:formula.obj
 0002:00059170       ??0?$_Deque_alloc@U?$_Deque_base_types@UFORMULA_PAIR@@V?$allocator@UFORMULA_PAIR@@@std@@@std@@@std@@QAE@XZ 00499170 f i tlib:formula.obj
 0002:00059220       ??0?$_Wrap_alloc@V?$allocator@UFORMULA_PAIR@@@std@@@std@@QAE@XZ 00499220 f i tlib:formula.obj
 0002:00059280       ??0?$allocator@UFORMULA_PAIR@@@std@@QAE@XZ 00499280 f i tlib:formula.obj
 0002:000592c0       ??0?$deque@UFORMULA_PAIR@@V?$allocator@UFORMULA_PAIR@@@std@@@std@@QAE@XZ 004992c0 f i tlib:formula.obj
 0002:00059320       ??0Formula@@QAE@M@Z        00499320 f   tlib:formula.obj
 0002:00059560       ??1Formula@@UAE@XZ         00499560 f   tlib:formula.obj
 0002:00059660       ??A?$deque@UFORMULA_PAIR@@V?$allocator@UFORMULA_PAIR@@@std@@@std@@QAEAAUFORMULA_PAIR@@I@Z 00499660 f i tlib:formula.obj
 0002:000597d0       ??D?$_Deque_iterator@V?$_Deque_val@U?$_Deque_simple_types@UFORMULA_PAIR@@@std@@@std@@@std@@QBEAAUFORMULA_PAIR@@XZ 004997d0 f i tlib:formula.obj
 0002:000598b0       ?calc@Formula@@QAEXM@Z     004998b0 f   tlib:formula.obj
 0002:00059ce0       ?reset@Formula@@QAEXXZ     00499ce0 f   tlib:formula.obj
 0002:00059e20       ?size@?$deque@UFORMULA_PAIR@@V?$allocator@UFORMULA_PAIR@@@std@@@std@@QBEIXZ 00499e20 f i tlib:formula.obj
 0002:00059e80       ??0Bike@@QAE@HPAUPARAMS@0@@Z 00499e80 f   tlib:bike.obj
 0002:0005a370       ??1Bike@@UAE@XZ            0049a370 f   tlib:bike.obj
 0002:0005a450       ??_EBike@@UAEPAXI@Z        0049a450 f i tlib:bike.obj
 0002:0005a450       ??_GBike@@UAEPAXI@Z        0049a450 f i tlib:bike.obj
 0002:0005a4d0       ?computeGearRatio@Bike@@QAEXXZ 0049a4d0 f   tlib:bike.obj
 0002:0005a580       ?downkeydown@Bike@@QAEXXZ  0049a580 f   tlib:bike.obj
 0002:0005a630       ?downkeyup@Bike@@QAEHXZ    0049a630 f   tlib:bike.obj
 0002:0005a6d0       ?frontDown@Bike@@QAEXXZ    0049a6d0 f   tlib:bike.obj
 0002:0005a7c0       ?frontUp@Bike@@QAEXXZ      0049a7c0 f   tlib:bike.obj
 0002:0005a8c0       ?rearDown@Bike@@QAEXXZ     0049a8c0 f   tlib:bike.obj
 0002:0005a9b0       ?rearUp@Bike@@QAEXXZ       0049a9b0 f   tlib:bike.obj
 0002:0005aab0       ?run@Bike@@QAEHXZ          0049aab0 f   tlib:bike.obj
 0002:0005ad20       ?set_gear@Bike@@QAEXHH@Z   0049ad20 f   tlib:bike.obj
 0002:0005ae90       ?set_gear@Bike@@QAEXN@Z    0049ae90 f   tlib:bike.obj
 0002:0005aef0       ?setupVirtualGearInches@Bike@@AAEXXZ 0049aef0 f   tlib:bike.obj
 0002:0005b430       ?upkeydown@Bike@@QAEXXZ    0049b430 f   tlib:bike.obj
 0002:0005b4e0       ?upkeyup@Bike@@QAEHXZ      0049b4e0 f   tlib:bike.obj
 0002:0005b580       ??0qtFormula@@QAE@M@Z      0049b580 f   rmg:qtformula.obj
 0002:0005b740       ??1qtFormula@@UAE@XZ       0049b740 f   rmg:qtformula.obj
 0002:0005b7c0       ?reset@qtFormula@@QAEXXZ   0049b7c0 f   rmg:qtformula.obj
 0002:0005b8b0       ?calc@qtFormula@@QAEXM@Z   0049b8b0 f   rmg:qtformula.obj
 0002:0005bd70       ??$?0$$V@?$_Compressed_pair@U?$_Wrap_alloc@V?$allocator@UFORMULA2_PAIR@@@std@@@std@@V?$_Deque_val@U?$_Deque_simple_types@UFORMULA2_PAIR@@@std@@@2@$00@std@@QAE@U_Zero_then_variadic_args_t@1@@Z 0049bd70 f i rmg:qtformula.obj
 0002:0005bda0       ??$qMax@H@@YAABHABH0@Z     0049bda0 f i rmg:qtformula.obj
 0002:0005bde0       ??0?$_Deque_alloc@U?$_Deque_base_types@UFORMULA2_PAIR@@V?$allocator@UFORMULA2_PAIR@@@std@@@std@@@std@@QAE@XZ 0049bde0 f i rmg:qtformula.obj
 0002:0005be60       ??0?$_Wrap_alloc@V?$allocator@UFORMULA2_PAIR@@@std@@@std@@QAE@XZ 0049be60 f i rmg:qtformula.obj
 0002:0005be80       ??0?$allocator@UFORMULA2_PAIR@@@std@@QAE@XZ 0049be80 f i rmg:qtformula.obj
 0002:0005bea0       ??0?$deque@UFORMULA2_PAIR@@V?$allocator@UFORMULA2_PAIR@@@std@@@std@@QAE@XZ 0049bea0 f i rmg:qtformula.obj
 0002:0005bec0       ??A?$deque@UFORMULA2_PAIR@@V?$allocator@UFORMULA2_PAIR@@@std@@@std@@QAEAAUFORMULA2_PAIR@@I@Z 0049bec0 f i rmg:qtformula.obj
 0002:0005bfc0       ??D?$_Deque_iterator@V?$_Deque_val@U?$_Deque_simple_types@UFORMULA2_PAIR@@@std@@@std@@@std@@QBEAAUFORMULA2_PAIR@@XZ 0049bfc0 f i rmg:qtformula.obj
 0002:0005bfe0       ??_GTmr@RACERMATE@@QAEPAXI@Z 0049bfe0 f i rmg:qtformula.obj
 0002:0005c050       ?size@?$deque@UFORMULA2_PAIR@@V?$allocator@UFORMULA2_PAIR@@@std@@@std@@QBEIXZ 0049c050 f i rmg:qtformula.obj
 0002:0005c070       ?map@@YAFMMMMPAM0@Z        0049c070 f   rmg:comutils.obj
 0002:0005c100       ?dmap@@YAFNNNNPAN0@Z       0049c100 f   rmg:comutils.obj
 0002:0005c190       ?getms@@YAKXZ              0049c190 f   rmg:comutils.obj
 0002:0005c1f0       ??0CRF@@QAE@_N@Z           0049c1f0 f   rmg:crf.obj
 0002:0005c220       ??1CRF@@UAE@XZ             0049c220 f   rmg:crf.obj
 0002:0005c240       ?init@CRF@@QAEXPAE0@Z      0049c240 f   rmg:crf.obj
 0002:0005c470       ?init@CRF@@QAEXXZ          0049c470 f   rmg:crf.obj
 0002:0005c820       ?generate_seedstr@CRF@@QAEXXZ 0049c820 f   rmg:crf.obj
 0002:0005c830       ?doo@CRF@@QAEXPAEH@Z       0049c830 f   rmg:crf.obj
 0002:0005c970       ?unwind@CRF@@QAEXH@Z       0049c970 f   rmg:crf.obj
 0002:0005ca30       ?do_file@CRF@@QAE_NPAD0@Z  0049ca30 f   rmg:crf.obj
 0002:0005cb00       ?initialized@CRF@@QAE_NXZ  0049cb00 f   rmg:crf.obj
 0002:0005cb30       ?save_encrypt_state@CRF@@QAEXXZ 0049cb30 f   rmg:crf.obj
 0002:0005cb50       ?restore_encrypt_state@CRF@@QAEXXZ 0049cb50 f   rmg:crf.obj
 0002:0005cb90       ?geti@CRF@@QAEHXZ          0049cb90 f   rmg:crf.obj
 0002:0005cbb0       ?getj@CRF@@QAEHXZ          0049cbb0 f   rmg:crf.obj
 0002:0005cbd0       ?getstate@CRF@@QAEXPAUTCRF@@@Z 0049cbd0 f   rmg:crf.obj
 0002:0005cc00       ?setstate@CRF@@QAEXPAUTCRF@@@Z 0049cc00 f   rmg:crf.obj
 0002:0005cec0       ??$?0$$V@?$_Compressed_pair@U?$_Wrap_alloc@V?$allocator@UTCRF@@@std@@@std@@V?$_Deque_val@U?$_Deque_simple_types@UTCRF@@@std@@@2@$00@std@@QAE@U_Zero_then_variadic_args_t@1@@Z 0049cec0 f i rmg:crf.obj
 0002:0005cef0       ??$?0AAU?$_Wrap_alloc@V?$allocator@UTCRF@@@std@@@std@@@?$_Wrap_alloc@V?$allocator@PAUTCRF@@@std@@@std@@QAE@AAU?$_Wrap_alloc@V?$allocator@UTCRF@@@std@@@1@@Z 0049cef0 f i rmg:crf.obj
 0002:0005cf20       ??$?0AAU?$_Wrap_alloc@V?$allocator@UTCRF@@@std@@@std@@@?$_Wrap_alloc@V?$allocator@U_Container_proxy@std@@@std@@@std@@QAE@AAU?$_Wrap_alloc@V?$allocator@UTCRF@@@std@@@1@@Z 0049cf20 f i rmg:crf.obj
 0002:0005cf50       ??$?0UTCRF@@@?$allocator@PAUTCRF@@@std@@QAE@ABV?$allocator@UTCRF@@@1@@Z 0049cf50 f i rmg:crf.obj
 0002:0005cf70       ??$?0UTCRF@@@?$allocator@U_Container_proxy@std@@@std@@QAE@ABV?$allocator@UTCRF@@@1@@Z 0049cf70 f i rmg:crf.obj
 0002:0005cf90       ??$_Addressof@PAUTCRF@@@std@@YAPAPAUTCRF@@AAPAU1@U?$integral_constant@_N$0A@@0@@Z 0049cf90 f i rmg:crf.obj
 0002:0005cfa0       ??$_Copy_memmove@PAPAUTCRF@@PAPAU1@@std@@YAPAPAUTCRF@@PAPAU1@00@Z 0049cfa0 f i rmg:crf.obj
 0002:0005cff0       ??$_Destroy_range@U?$_Wrap_alloc@V?$allocator@PAUTCRF@@@std@@@std@@@std@@YAXPAPAUTCRF@@0AAU?$_Wrap_alloc@V?$allocator@PAUTCRF@@@std@@@0@@Z 0049cff0 f i rmg:crf.obj
 0002:0005d030       ??$_Ptr_copy_cat@PAUTCRF@@PAU1@@std@@YA?AU_Really_trivial_ptr_iterator_tag@0@ABQAPAUTCRF@@0@Z 0049d030 f i rmg:crf.obj
 0002:0005d040       ??$_Rechecked@PAPAUTCRF@@PAPAU1@@std@@YAAAPAPAUTCRF@@AAPAPAU1@PAPAU1@@Z 0049d040 f i rmg:crf.obj
 0002:0005d060       ??$_Unchecked@PAPAUTCRF@@@std@@YAPAPAUTCRF@@PAPAU1@@Z 0049d060 f i rmg:crf.obj
 0002:0005d070       ??$_Uninitialized_copy@PAPAUTCRF@@PAPAU1@U?$_Wrap_alloc@V?$allocator@PAUTCRF@@@std@@@std@@@std@@YAPAPAUTCRF@@PAPAU1@00AAU?$_Wrap_alloc@V?$allocator@PAUTCRF@@@std@@@0@@Z 0049d070 f i rmg:crf.obj
 0002:0005d0d0       ??$_Uninitialized_copy_al_unchecked1@PAUTCRF@@PAU1@@std@@YAPAPAUTCRF@@PAPAU1@00AAU?$_Wrap_alloc@V?$allocator@PAUTCRF@@@std@@@0@U_Really_trivial_ptr_iterator_tag@0@@Z 0049d0d0 f i rmg:crf.obj
 0002:0005d0f0       ??$_Uninitialized_copy_al_unchecked@PAPAUTCRF@@PAPAU1@U?$_Wrap_alloc@V?$allocator@PAUTCRF@@@std@@@std@@@std@@YAPAPAUTCRF@@PAPAU1@00AAU?$_Wrap_alloc@V?$allocator@PAUTCRF@@@std@@@0@@Z 0049d0f0 f i rmg:crf.obj
 0002:0005d140       ??$_Uninitialized_default_fill_n1@PAPAUTCRF@@I@std@@YAXPAPAUTCRF@@IAAU?$_Wrap_alloc@V?$allocator@PAUTCRF@@@std@@@0@U?$integral_constant@_N$00@0@@Z 0049d140 f i rmg:crf.obj
 0002:0005d160       ??$_Uninitialized_default_fill_n@PAPAUTCRF@@IU?$_Wrap_alloc@V?$allocator@PAUTCRF@@@std@@@std@@@std@@YAXPAPAUTCRF@@IAAU?$_Wrap_alloc@V?$allocator@PAUTCRF@@@std@@@0@@Z 0049d160 f i rmg:crf.obj
 0002:0005d190       ??$addressof@PAUTCRF@@@std@@YAPAPAUTCRF@@AAPAU1@@Z 0049d190 f i rmg:crf.obj
 0002:0005d1b0       ??$construct@UTCRF@@ABU1@@?$_Wrap_alloc@V?$allocator@UTCRF@@@std@@@std@@QAEXPAUTCRF@@ABU2@@Z 0049d1b0 f i rmg:crf.obj
 0002:0005d1f0       ??$construct@UTCRF@@ABU1@@?$allocator@UTCRF@@@std@@QAEXPAUTCRF@@ABU2@@Z 0049d1f0 f i rmg:crf.obj
 0002:0005d260       ??$construct@UTCRF@@ABU1@@?$allocator_traits@V?$allocator@UTCRF@@@std@@@std@@SAXAAV?$allocator@UTCRF@@@1@PAUTCRF@@ABU3@@Z 0049d260 f i rmg:crf.obj
 0002:0005d290       ??$destroy@PAUTCRF@@@?$_Wrap_alloc@V?$allocator@PAUTCRF@@@std@@@std@@QAEXPAPAUTCRF@@@Z 0049d290 f i rmg:crf.obj
 0002:0005d2c0       ??$destroy@PAUTCRF@@@?$_Wrap_alloc@V?$allocator@UTCRF@@@std@@@std@@QAEXPAPAUTCRF@@@Z 0049d2c0 f i rmg:crf.obj
 0002:0005d2f0       ??$destroy@PAUTCRF@@@?$allocator@PAUTCRF@@@std@@QAEXPAPAUTCRF@@@Z 0049d2f0 f i rmg:crf.obj
 0002:0005d300       ??$destroy@PAUTCRF@@@?$allocator@UTCRF@@@std@@QAEXPAPAUTCRF@@@Z 0049d300 f i rmg:crf.obj
 0002:0005d310       ??$destroy@PAUTCRF@@@?$allocator_traits@V?$allocator@PAUTCRF@@@std@@@std@@SAXAAV?$allocator@PAUTCRF@@@1@PAPAUTCRF@@@Z 0049d310 f i rmg:crf.obj
 0002:0005d330       ??$destroy@PAUTCRF@@@?$allocator_traits@V?$allocator@UTCRF@@@std@@@std@@SAXAAV?$allocator@UTCRF@@@1@PAPAUTCRF@@@Z 0049d330 f i rmg:crf.obj
 0002:0005d350       ??$destroy@UTCRF@@@?$_Wrap_alloc@V?$allocator@UTCRF@@@std@@@std@@QAEXPAUTCRF@@@Z 0049d350 f i rmg:crf.obj
 0002:0005d380       ??$destroy@UTCRF@@@?$allocator@UTCRF@@@std@@QAEXPAUTCRF@@@Z 0049d380 f i rmg:crf.obj
 0002:0005d390       ??$destroy@UTCRF@@@?$allocator_traits@V?$allocator@UTCRF@@@std@@@std@@SAXAAV?$allocator@UTCRF@@@1@PAUTCRF@@@Z 0049d390 f i rmg:crf.obj
 0002:0005d3b0       ??$forward@AAU?$_Wrap_alloc@V?$allocator@UTCRF@@@std@@@std@@@std@@YAAAU?$_Wrap_alloc@V?$allocator@UTCRF@@@std@@@0@AAU10@@Z 0049d3b0 f i rmg:crf.obj
 0002:0005d3c0       ??$forward@ABUTCRF@@@std@@YAABUTCRF@@ABU1@@Z 0049d3c0 f i rmg:crf.obj
 0002:0005d3d0       ??0?$_Deque_alloc@U?$_Deque_base_types@UTCRF@@V?$allocator@UTCRF@@@std@@@std@@@std@@QAE@XZ 0049d3d0 f i rmg:crf.obj
 0002:0005d450       ??0?$_Deque_const_iterator@V?$_Deque_val@U?$_Deque_simple_types@UTCRF@@@std@@@std@@@std@@QAE@ABV01@@Z 0049d450 f i rmg:crf.obj
 0002:0005d490       ??0?$_Deque_const_iterator@V?$_Deque_val@U?$_Deque_simple_types@UTCRF@@@std@@@std@@@std@@QAE@IPBU_Container_base12@1@@Z 0049d490 f i rmg:crf.obj
 0002:0005d510       ??0?$_Deque_iterator@V?$_Deque_val@U?$_Deque_simple_types@UTCRF@@@std@@@std@@@std@@QAE@ABV01@@Z 0049d510 f i rmg:crf.obj
 0002:0005d540       ??0?$_Deque_iterator@V?$_Deque_val@U?$_Deque_simple_types@UTCRF@@@std@@@std@@@std@@QAE@IPBU_Container_base12@1@@Z 0049d540 f i rmg:crf.obj
 0002:0005d570       ??0?$_Deque_val@U?$_Deque_simple_types@UTCRF@@@std@@@std@@QAE@XZ 0049d570 f i rmg:crf.obj
 0002:0005d5c0       ??0?$_Wrap_alloc@V?$allocator@UTCRF@@@std@@@std@@QAE@XZ 0049d5c0 f i rmg:crf.obj
 0002:0005d5e0       ??0?$allocator@UTCRF@@@std@@QAE@XZ 0049d5e0 f i rmg:crf.obj
 0002:0005d600       ??0?$deque@UTCRF@@V?$allocator@UTCRF@@@std@@@std@@QAE@XZ 0049d600 f i rmg:crf.obj
 0002:0005d620       ??0?$stack@UTCRF@@V?$deque@UTCRF@@V?$allocator@UTCRF@@@std@@@std@@@std@@QAE@XZ 0049d620 f i rmg:crf.obj
 0002:0005d640       ??1?$_Compressed_pair@U?$_Wrap_alloc@V?$allocator@UTCRF@@@std@@@std@@V?$_Deque_val@U?$_Deque_simple_types@UTCRF@@@std@@@2@$00@std@@QAE@XZ 0049d640 f i rmg:crf.obj
 0002:0005d660       ??1?$_Deque_alloc@U?$_Deque_base_types@UTCRF@@V?$allocator@UTCRF@@@std@@@std@@@std@@QAE@XZ 0049d660 f i rmg:crf.obj
 0002:0005d6c0       ??1?$_Deque_const_iterator@V?$_Deque_val@U?$_Deque_simple_types@UTCRF@@@std@@@std@@@std@@QAE@XZ 0049d6c0 f i rmg:crf.obj
 0002:0005d6e0       ??1?$_Deque_iterator@V?$_Deque_val@U?$_Deque_simple_types@UTCRF@@@std@@@std@@@std@@QAE@XZ 0049d6e0 f i rmg:crf.obj
 0002:0005d700       ??1?$_Deque_val@U?$_Deque_simple_types@UTCRF@@@std@@@std@@QAE@XZ 0049d700 f i rmg:crf.obj
 0002:0005d720       ??1?$deque@UTCRF@@V?$allocator@UTCRF@@@std@@@std@@QAE@XZ 0049d720 f i rmg:crf.obj
 0002:0005d780       ??1?$stack@UTCRF@@V?$deque@UTCRF@@V?$allocator@UTCRF@@@std@@@std@@@std@@QAE@XZ 0049d780 f i rmg:crf.obj
 0002:0005d7a0       ??D?$_Deque_const_iterator@V?$_Deque_val@U?$_Deque_simple_types@UTCRF@@@std@@@std@@@std@@QBEABUTCRF@@XZ 0049d7a0 f i rmg:crf.obj
 0002:0005d8c0       ??D?$_Deque_iterator@V?$_Deque_val@U?$_Deque_simple_types@UTCRF@@@std@@@std@@@std@@QBEAAUTCRF@@XZ 0049d8c0 f i rmg:crf.obj
 0002:0005d8e0       ??G?$_Deque_iterator@V?$_Deque_val@U?$_Deque_simple_types@UTCRF@@@std@@@std@@@std@@QBE?AV01@H@Z 0049d8e0 f i rmg:crf.obj
 0002:0005d990       ??Y?$_Deque_iterator@V?$_Deque_val@U?$_Deque_simple_types@UTCRF@@@std@@@std@@@std@@QAEAAV01@H@Z 0049d990 f i rmg:crf.obj
 0002:0005d9c0       ??Z?$_Deque_iterator@V?$_Deque_val@U?$_Deque_simple_types@UTCRF@@@std@@@std@@@std@@QAEAAV01@H@Z 0049d9c0 f i rmg:crf.obj
 0002:0005d9f0       ??_GCRF@@UAEPAXI@Z         0049d9f0 f i rmg:crf.obj
 0002:0005d9f0       ??_ECRF@@UAEPAXI@Z         0049d9f0 f i rmg:crf.obj
 0002:0005da30       ?_Alloc_proxy@?$_Deque_alloc@U?$_Deque_base_types@UTCRF@@V?$allocator@UTCRF@@@std@@@std@@@std@@QAEXXZ 0049da30 f i rmg:crf.obj
 0002:0005dac0       ?_Free_proxy@?$_Deque_alloc@U?$_Deque_base_types@UTCRF@@V?$allocator@UTCRF@@@std@@@std@@@std@@QAEXXZ 0049dac0 f i rmg:crf.obj
 0002:0005db40       ?_Get_data@?$_Deque_alloc@U?$_Deque_base_types@UTCRF@@V?$allocator@UTCRF@@@std@@@std@@@std@@QAEAAV?$_Deque_val@U?$_Deque_simple_types@UTCRF@@@std@@@2@XZ 0049db40 f i rmg:crf.obj
 0002:0005db60       ?_Get_data@?$_Deque_alloc@U?$_Deque_base_types@UTCRF@@V?$allocator@UTCRF@@@std@@@std@@@std@@QBEABV?$_Deque_val@U?$_Deque_simple_types@UTCRF@@@std@@@2@XZ 0049db60 f i rmg:crf.obj
 0002:0005db80       ?_Get_first@?$_Compressed_pair@U?$_Wrap_alloc@V?$allocator@UTCRF@@@std@@@std@@V?$_Deque_val@U?$_Deque_simple_types@UTCRF@@@std@@@2@$00@std@@QAEAAU?$_Wrap_alloc@V?$allocator@UTCRF@@@std@@@2@XZ 0049db80 f i rmg:crf.obj
 0002:0005dba0       ?_Get_first@?$_Compressed_pair@U?$_Wrap_alloc@V?$allocator@UTCRF@@@std@@@std@@V?$_Deque_val@U?$_Deque_simple_types@UTCRF@@@std@@@2@$00@std@@QBEABU?$_Wrap_alloc@V?$allocator@UTCRF@@@std@@@2@XZ 0049dba0 f i rmg:crf.obj
 0002:0005dbc0       ?_Get_second@?$_Compressed_pair@U?$_Wrap_alloc@V?$allocator@UTCRF@@@std@@@std@@V?$_Deque_val@U?$_Deque_simple_types@UTCRF@@@std@@@2@$00@std@@QAEAAV?$_Deque_val@U?$_Deque_simple_types@UTCRF@@@std@@@2@XZ 0049dbc0 f i rmg:crf.obj
 0002:0005dbe0       ?_Get_second@?$_Compressed_pair@U?$_Wrap_alloc@V?$allocator@UTCRF@@@std@@@std@@V?$_Deque_val@U?$_Deque_simple_types@UTCRF@@@std@@@2@$00@std@@QBEABV?$_Deque_val@U?$_Deque_simple_types@UTCRF@@@std@@@2@XZ 0049dbe0 f i rmg:crf.obj
 0002:0005dc00       ?_Getal@?$_Deque_alloc@U?$_Deque_base_types@UTCRF@@V?$allocator@UTCRF@@@std@@@std@@@std@@QAEAAU?$_Wrap_alloc@V?$allocator@UTCRF@@@std@@@2@XZ 0049dc00 f i rmg:crf.obj
 0002:0005dc20       ?_Getal@?$_Deque_alloc@U?$_Deque_base_types@UTCRF@@V?$allocator@UTCRF@@@std@@@std@@@std@@QBEABU?$_Wrap_alloc@V?$allocator@UTCRF@@@std@@@2@XZ 0049dc20 f i rmg:crf.obj
 0002:0005dc40       ?_Getblock@?$_Deque_alloc@U?$_Deque_base_types@UTCRF@@V?$allocator@UTCRF@@@std@@@std@@@std@@QBEII@Z 0049dc40 f i rmg:crf.obj
 0002:0005dc70       ?_Getblock@?$_Deque_val@U?$_Deque_simple_types@UTCRF@@@std@@@std@@QBEII@Z 0049dc70 f i rmg:crf.obj
 0002:0005dc90       ?_Getpfirst@?$_Deque_alloc@U?$_Deque_base_types@UTCRF@@V?$allocator@UTCRF@@@std@@@std@@@std@@QBEPAPAU_Iterator_base12@2@XZ 0049dc90 f i rmg:crf.obj
 0002:0005dcb0       ?_Growmap@?$deque@UTCRF@@V?$allocator@UTCRF@@@std@@@std@@IAEXI@Z 0049dcb0 f i rmg:crf.obj
 0002:0005dfb0       ?_Map@?$_Deque_alloc@U?$_Deque_base_types@UTCRF@@V?$allocator@UTCRF@@@std@@@std@@@std@@QAEAAPAPAUTCRF@@XZ 0049dfb0 f i rmg:crf.obj
 0002:0005dfd0       ?_Mapsize@?$_Deque_alloc@U?$_Deque_base_types@UTCRF@@V?$allocator@UTCRF@@@std@@@std@@@std@@QAEAAIXZ 0049dfd0 f i rmg:crf.obj
 0002:0005dff0       ?_Myoff@?$_Deque_alloc@U?$_Deque_base_types@UTCRF@@V?$allocator@UTCRF@@@std@@@std@@@std@@QAEAAIXZ 0049dff0 f i rmg:crf.obj
 0002:0005e010       ?_Myoff@?$_Deque_alloc@U?$_Deque_base_types@UTCRF@@V?$allocator@UTCRF@@@std@@@std@@@std@@QBEABIXZ 0049e010 f i rmg:crf.obj
 0002:0005e030       ?_Myproxy@?$_Deque_alloc@U?$_Deque_base_types@UTCRF@@V?$allocator@UTCRF@@@std@@@std@@@std@@QAEAAPAU_Container_proxy@2@XZ 0049e030 f i rmg:crf.obj
 0002:0005e050       ?_Mysize@?$_Deque_alloc@U?$_Deque_base_types@UTCRF@@V?$allocator@UTCRF@@@std@@@std@@@std@@QAEAAIXZ 0049e050 f i rmg:crf.obj
 0002:0005e070       ?_Mysize@?$_Deque_alloc@U?$_Deque_base_types@UTCRF@@V?$allocator@UTCRF@@@std@@@std@@@std@@QBEABIXZ 0049e070 f i rmg:crf.obj
 0002:0005e090       ?_Orphan_all@?$_Deque_alloc@U?$_Deque_base_types@UTCRF@@V?$allocator@UTCRF@@@std@@@std@@@std@@QAEXXZ 0049e090 f i rmg:crf.obj
 0002:0005e0b0       ?_Orphan_off@?$deque@UTCRF@@V?$allocator@UTCRF@@@std@@@std@@IBEXI@Z 0049e0b0 f i rmg:crf.obj
 0002:0005e200       ?_Setcont@?$_Deque_const_iterator@V?$_Deque_val@U?$_Deque_simple_types@UTCRF@@@std@@@std@@@std@@QAEXPBV?$_Deque_val@U?$_Deque_simple_types@UTCRF@@@std@@@2@@Z 0049e200 f i rmg:crf.obj
 0002:0005e220       ?_Tidy@?$deque@UTCRF@@V?$allocator@UTCRF@@@std@@@std@@IAEXXZ 0049e220 f i rmg:crf.obj
 0002:0005e350       ?_Xlen@?$deque@UTCRF@@V?$allocator@UTCRF@@@std@@@std@@IBEXXZ 0049e350 f i rmg:crf.obj
 0002:0005e370       ?allocate@?$_Wrap_alloc@V?$allocator@PAUTCRF@@@std@@@std@@QAEPAPAUTCRF@@I@Z 0049e370 f i rmg:crf.obj
 0002:0005e390       ?allocate@?$_Wrap_alloc@V?$allocator@UTCRF@@@std@@@std@@QAEPAUTCRF@@I@Z 0049e390 f i rmg:crf.obj
 0002:0005e3b0       ?allocate@?$allocator@PAUTCRF@@@std@@QAEPAPAUTCRF@@I@Z 0049e3b0 f i rmg:crf.obj
 0002:0005e3e0       ?allocate@?$allocator@UTCRF@@@std@@QAEPAUTCRF@@I@Z 0049e3e0 f i rmg:crf.obj
 0002:0005e410       ?back@?$deque@UTCRF@@V?$allocator@UTCRF@@@std@@@std@@QAEAAUTCRF@@XZ 0049e410 f i rmg:crf.obj
 0002:0005e4d0       ?deallocate@?$_Wrap_alloc@V?$allocator@PAUTCRF@@@std@@@std@@QAEXPAPAUTCRF@@I@Z 0049e4d0 f i rmg:crf.obj
 0002:0005e500       ?deallocate@?$_Wrap_alloc@V?$allocator@UTCRF@@@std@@@std@@QAEXPAUTCRF@@I@Z 0049e500 f i rmg:crf.obj
 0002:0005e530       ?deallocate@?$allocator@PAUTCRF@@@std@@QAEXPAPAUTCRF@@I@Z 0049e530 f i rmg:crf.obj
 0002:0005e560       ?deallocate@?$allocator@UTCRF@@@std@@QAEXPAUTCRF@@I@Z 0049e560 f i rmg:crf.obj
 0002:0005e590       ?empty@?$deque@UTCRF@@V?$allocator@UTCRF@@@std@@@std@@QBE_NXZ 0049e590 f i rmg:crf.obj
 0002:0005e5d0       ?end@?$deque@UTCRF@@V?$allocator@UTCRF@@@std@@@std@@QAE?AV?$_Deque_iterator@V?$_Deque_val@U?$_Deque_simple_types@UTCRF@@@std@@@std@@@2@XZ 0049e5d0 f i rmg:crf.obj
 0002:0005e650       ?max_size@?$_Wrap_alloc@V?$allocator@UTCRF@@@std@@@std@@QBEIU_Nil@2@@Z 0049e650 f i rmg:crf.obj
 0002:0005e670       ?max_size@?$allocator@UTCRF@@@std@@QBEIXZ 0049e670 f i rmg:crf.obj
 0002:0005e690       ?max_size@?$allocator_traits@V?$allocator@UTCRF@@@std@@@std@@SAIABV?$allocator@UTCRF@@@2@@Z 0049e690 f i rmg:crf.obj
 0002:0005e6a0       ?max_size@?$deque@UTCRF@@V?$allocator@UTCRF@@@std@@@std@@QBEIXZ 0049e6a0 f i rmg:crf.obj
 0002:0005e6d0       ?pop@?$stack@UTCRF@@V?$deque@UTCRF@@V?$allocator@UTCRF@@@std@@@std@@@std@@QAEXXZ 0049e6d0 f i rmg:crf.obj
 0002:0005e6f0       ?pop_back@?$deque@UTCRF@@V?$allocator@UTCRF@@@std@@@std@@QAEXXZ 0049e6f0 f i rmg:crf.obj
 0002:0005e800       ?push@?$stack@UTCRF@@V?$deque@UTCRF@@V?$allocator@UTCRF@@@std@@@std@@@std@@QAEXABUTCRF@@@Z 0049e800 f i rmg:crf.obj
 0002:0005e820       ?push_back@?$deque@UTCRF@@V?$allocator@UTCRF@@@std@@@std@@QAEXABUTCRF@@@Z 0049e820 f i rmg:crf.obj
 0002:0005e9a0       ?top@?$stack@UTCRF@@V?$deque@UTCRF@@V?$allocator@UTCRF@@@std@@@std@@@std@@QAEAAUTCRF@@XZ 0049e9a0 f i rmg:crf.obj
 0002:0005e9c0       ??0Tmr@RACERMATE@@QAE@PBD@Z 0049e9c0 f   rmg:tmr.obj
 0002:0005eb80       ??1Tmr@RACERMATE@@QAE@XZ   0049eb80 f   rmg:tmr.obj
 0002:0005ef00       ?start@Tmr@RACERMATE@@QAEXXZ 0049ef00 f   rmg:tmr.obj
 0002:0005ef20       ?stop@Tmr@RACERMATE@@QAEHXZ 0049ef20 f   rmg:tmr.obj
 0002:0005eff0       ?update@Tmr@RACERMATE@@QAEXXZ 0049eff0 f   rmg:tmr.obj
 0002:0005f330       ??$qMax@_J@@YAAB_JAB_J0@Z  0049f330 f i rmg:tmr.obj
 0002:0005f390       ??$qMin@_J@@YAAB_JAB_J0@Z  0049f390 f i rmg:tmr.obj
 0002:0005f3f0       ?metaObject@Ctsrv@RACERMATE@@UBEPBUQMetaObject@@XZ 0049f3f0 f   ctsrv:moc_ctsrv.obj
 0002:0005f430       ?qt_metacast@Ctsrv@RACERMATE@@UAEPAXPBD@Z 0049f430 f   ctsrv:moc_ctsrv.obj
 0002:0005f470       ?qt_metacall@Ctsrv@RACERMATE@@UAEHW4Call@QMetaObject@@HPAPAX@Z 0049f470 f   ctsrv:moc_ctsrv.obj
 0002:0005f500       ?qt_static_metacall@Ctsrv@RACERMATE@@CAXPAVQObject@@W4Call@QMetaObject@@HPAPAX@Z 0049f500 f   ctsrv:moc_ctsrv.obj
 0002:0005f7d0       ?ss_signal@Ctsrv@RACERMATE@@QAEXVQString@@PAVSSD@qt_SS@2@@Z 0049f7d0 f   ctsrv:moc_ctsrv.obj
 0002:0005f860       ?data_signal@Ctsrv@RACERMATE@@QAEXVQString@@PAVQT_DATA@2@@Z 0049f860 f   ctsrv:moc_ctsrv.obj
 0002:0005f8f0       ?rescale_signal@Ctsrv@RACERMATE@@QAEXVQString@@H@Z 0049f8f0 f   ctsrv:moc_ctsrv.obj
 0002:0005f980       ?connected_to_trainer_signal@Ctsrv@RACERMATE@@QAEXVQString@@_N@Z 0049f980 f   ctsrv:moc_ctsrv.obj
 0002:0005fb90       ??C?$QScopedPointer@VQObjectData@@U?$QScopedPointerDeleter@VQObjectData@@@@@@QBEPAVQObjectData@@XZ 0049fb90 f i ctsrv:moc_ctsrv.obj
 0002:0005fc20       ?qt_noop@@YAXXZ            0049fc20 f i ctsrv:moc_ctsrv.obj
 0002:0005fc30       ?logg@Ctsrv@RACERMATE@@AAAXPBDZZ 0049fc30 f   ctsrv:ctsrv.obj
 0002:0005fd40       ??0Ctsrv@RACERMATE@@QAE@HHPBDHPAVQObject@@@Z 0049fd40 f   ctsrv:ctsrv.obj
 0002:00060510       ??1Ctsrv@RACERMATE@@UAE@XZ 004a0510 f   ctsrv:ctsrv.obj
 0002:00060d30       ?instance@Ctsrv@RACERMATE@@SAPAV12@XZ 004a0d30 f   ctsrv:ctsrv.obj
 0002:00060d40       ?doSomeOtherStuff@Ctsrv@RACERMATE@@QAEXH@Z 004a0d40 f   ctsrv:ctsrv.obj
 0002:00060e00       ?get_devnums@Ctsrv@RACERMATE@@QAEPBDXZ 004a0e00 f   ctsrv:ctsrv.obj
 0002:00060e30       ?get_udpkey_from_devnum@Ctsrv@RACERMATE@@QAEPBDPBD@Z 004a0e30 f   ctsrv:ctsrv.obj
 0002:000610e0       ?get_udpkey_from_appkey@Ctsrv@RACERMATE@@QAEPBDVQString@@@Z 004a10e0 f   ctsrv:ctsrv.obj
 0002:00061110       ?get_udpclient_names@Ctsrv@RACERMATE@@QAEPBDXZ 004a1110 f   ctsrv:ctsrv.obj
 0002:00061440       ?get_comstats@Ctsrv@RACERMATE@@QAEPBUCOMSTATS@UDPClient@2@VQString@@@Z 004a1440 f   ctsrv:ctsrv.obj
 0002:000614f0       ?get_barinfo@Ctsrv@RACERMATE@@QAEPAVBARINFO@qt_SS@2@VQString@@H@Z 004a14f0 f   ctsrv:ctsrv.obj
 0002:000615e0       ?send@Ctsrv@RACERMATE@@QAEHHPBEH_N@Z 004a15e0 f   ctsrv:ctsrv.obj
 0002:000615f0       ?client_is_running@Ctsrv@RACERMATE@@QAE_NH@Z 004a15f0 f   ctsrv:ctsrv.obj
 0002:00061630       ?get_nclients@Ctsrv@RACERMATE@@QAEHXZ 004a1630 f   ctsrv:ctsrv.obj
 0002:00061660       ?get_keys@Ctsrv@RACERMATE@@QAE?AV?$QList@VQString@@@@XZ 004a1660 f   ctsrv:ctsrv.obj
 0002:00061790       ?get_devnum@Ctsrv@RACERMATE@@QAEHVQString@@@Z 004a1790 f   ctsrv:ctsrv.obj
 0002:00061850       ?have@Ctsrv@RACERMATE@@QAE_NPBD@Z 004a1850 f   ctsrv:ctsrv.obj
 0002:00061890       ?calc_tp@Ctsrv@RACERMATE@@QAEXVQString@@M@Z 004a1890 f   ctsrv:ctsrv.obj
 0002:00061950       ?get_ss_data@Ctsrv@RACERMATE@@QAE?AUSSDATA@@VQString@@H@Z 004a1950 f   ctsrv:ctsrv.obj
 0002:00061a80       ?check_udp_keys@Ctsrv@RACERMATE@@QAEHXZ 004a1a80 f   ctsrv:ctsrv.obj
 0002:00061a90       ?setPaused@Ctsrv@RACERMATE@@QAEHVQString@@_N@Z 004a1a90 f   ctsrv:ctsrv.obj
 0002:00061be0       ?GetTrainerData@Ctsrv@RACERMATE@@QAE?AUTrainerData@2@PBD@Z 004a1be0 f   ctsrv:ctsrv.obj
 0002:00061d40       ?reset_client@Ctsrv@RACERMATE@@QAEHPBD@Z 004a1d40 f   ctsrv:ctsrv.obj
 0002:00061e10       ?set_ergo_mode@Ctsrv@RACERMATE@@QAEHVQString@@HHM@Z 004a1e10 f   ctsrv:ctsrv.obj
 0002:00061ed0       ?set_export@Ctsrv@RACERMATE@@QAEXVQString@@PBD@Z 004a1ed0 f   ctsrv:ctsrv.obj
 0002:00061f80       ?set_file_mode@Ctsrv@RACERMATE@@QAEHVQString@@_N@Z 004a1f80 f   ctsrv:ctsrv.obj
 0002:000620c0       ?get_average_bars@Ctsrv@RACERMATE@@QAEPAMVQString@@@Z 004a20c0 f   ctsrv:ctsrv.obj
 0002:000621b0       ?get_bars@Ctsrv@RACERMATE@@QAEPAMVQString@@@Z 004a21b0 f   ctsrv:ctsrv.obj
 0002:000622b0       ?get_ftp@Ctsrv@RACERMATE@@QAEMVQString@@@Z 004a22b0 f   ctsrv:ctsrv.obj
 0002:000623b0       ?get_handlebar_buttons@Ctsrv@RACERMATE@@QAEHVQString@@@Z 004a23b0 f   ctsrv:ctsrv.obj
 0002:000624a0       ?is_client_connected@Ctsrv@RACERMATE@@QAE_NVQString@@@Z 004a24a0 f   ctsrv:ctsrv.obj
 0002:00062560       ?is_paused@Ctsrv@RACERMATE@@QAE_NVQString@@@Z 004a2560 f   ctsrv:ctsrv.obj
 0002:00062620       ?reset_averages@Ctsrv@RACERMATE@@QAEHVQString@@@Z 004a2620 f   ctsrv:ctsrv.obj
 0002:00062760       ?set_ftp@Ctsrv@RACERMATE@@QAEHVQString@@M@Z 004a2760 f   ctsrv:ctsrv.obj
 0002:000628a0       ?set_hr_bounds@Ctsrv@RACERMATE@@QAEHVQString@@HH_N@Z 004a28a0 f   ctsrv:ctsrv.obj
 0002:000629f0       ?set_paused@Ctsrv@RACERMATE@@QAEHVQString@@_N@Z 004a29f0 f   ctsrv:ctsrv.obj
 0002:00062a90       ?set_grade@Ctsrv@RACERMATE@@QAEHVQString@@MMMH@Z 004a2a90 f   ctsrv:ctsrv.obj
 0002:00062b50       ?set_slope@Ctsrv@RACERMATE@@QAEHVQString@@MMHM@Z 004a2b50 f   ctsrv:ctsrv.obj
 0002:00062cd0       ?start_cal@Ctsrv@RACERMATE@@QAEHVQString@@@Z 004a2cd0 f   ctsrv:ctsrv.obj
 0002:00062d80       ?end_cal@Ctsrv@RACERMATE@@QAEHVQString@@@Z 004a2d80 f   ctsrv:ctsrv.obj
 0002:00062e30       ?get_watts_factor@Ctsrv@RACERMATE@@QAEMVQString@@@Z 004a2e30 f   ctsrv:ctsrv.obj
 0002:00062fa0       ?setwind@Ctsrv@RACERMATE@@QAEXVQString@@M@Z 004a2fa0 f   ctsrv:ctsrv.obj
 0002:000630d0       ?set_draftwind@Ctsrv@RACERMATE@@QAEXVQString@@M@Z 004a30d0 f   ctsrv:ctsrv.obj
 0002:000631d0       ?setlbs@Ctsrv@RACERMATE@@QAEXVQString@@MM@Z 004a31d0 f   ctsrv:ctsrv.obj
 0002:00063290       ?setkgs@Ctsrv@RACERMATE@@QAEXVQString@@MM@Z 004a3290 f   ctsrv:ctsrv.obj
 0002:00063350       ?get_cal@Ctsrv@RACERMATE@@QAEHVQString@@@Z 004a3350 f   ctsrv:ctsrv.obj
 0002:00063400       ?get_fw@Ctsrv@RACERMATE@@QAEGPBD@Z 004a3400 f   ctsrv:ctsrv.obj
 0002:000634e0       ?setStarted@Ctsrv@RACERMATE@@QAEXPBD_N@Z 004a34e0 f   ctsrv:ctsrv.obj
 0002:000634f0       ?setFinished@Ctsrv@RACERMATE@@QAEXPBD_N@Z 004a34f0 f   ctsrv:ctsrv.obj
 0002:00063500       ?get_status_bits@Ctsrv@RACERMATE@@QAEHVQString@@@Z 004a3500 f   ctsrv:ctsrv.obj
 0002:000635b0       ?get_appkey@Ctsrv@RACERMATE@@QAE?AVQString@@V3@@Z 004a35b0 f   ctsrv:ctsrv.obj
 0002:00063690       ?handleResults@Ctsrv@RACERMATE@@AAEXABVQString@@@Z 004a3690 f   ctsrv:ctsrv.obj
 0002:00063750       ?connected_to_trainer_slot@Ctsrv@RACERMATE@@AAEXVQString@@_N@Z 004a3750 f   ctsrv:ctsrv.obj
 0002:00063890       ?data_slot@Ctsrv@RACERMATE@@AAEXVQString@@PAVQT_DATA@2@@Z 004a3890 f   ctsrv:ctsrv.obj
 0002:00063920       ?ss_slot@Ctsrv@RACERMATE@@AAEXVQString@@PAVSSD@qt_SS@2@@Z 004a3920 f   ctsrv:ctsrv.obj
 0002:000639b0       ?rescale_slot@Ctsrv@RACERMATE@@AAEXVQString@@H@Z 004a39b0 f   ctsrv:ctsrv.obj
 0002:00063a40       ?ArrayToInt@RACERMATE@@YAHVQByteArray@@@Z 004a3a40 f   ctsrv:ctsrv.obj
 0002:00064a80       ??$atomic@H@?$QAtomicOpsBySize@$03@@CAPAJPAH@Z 004a4a80 f i ctsrv:ctsrv.obj
 0002:00064a90       ??$deref@H@?$QAtomicOpsBySize@$03@@SA_NAAH@Z 004a4a90 f i ctsrv:ctsrv.obj
 0002:00064b10       ??$load@H@?$QGenericAtomicOps@U?$QAtomicOpsBySize@$03@@@@SAHABH@Z 004a4b10 f i ctsrv:ctsrv.obj
 0002:00064b20       ??$move@AAPAUData@QListData@@@std@@YA$$QAPAUData@QListData@@AAPAU12@@Z 004a4b20 f i ctsrv:ctsrv.obj
 0002:00064b30       ??$move@AAV?$QList@VQString@@@@@std@@YA$$QAV?$QList@VQString@@@@AAV1@@Z 004a4b30 f i ctsrv:ctsrv.obj
 0002:00064b40       ??$qSwap@PAUData@QListData@@@@YAXAAPAUData@QListData@@0@Z 004a4b40 f i ctsrv:ctsrv.obj
 0002:00064b60       ??$ref@H@?$QAtomicOpsBySize@$03@@SA_NAAH@Z 004a4b60 f i ctsrv:ctsrv.obj
 0002:00064be0       ??$swap@PAUData@QListData@@@std@@YAXAAPAUData@QListData@@0@Z 004a4be0 f i ctsrv:ctsrv.obj
 0002:00064c30       ??0?$QFlags@W4OpenModeFlag@QIODevice@@@@QAE@W4OpenModeFlag@QIODevice@@@Z 004a4c30 f i ctsrv:ctsrv.obj
 0002:00064c50       ??0?$QFlags@W4ProcessEventsFlag@QEventLoop@@@@QAE@W4ProcessEventsFlag@QEventLoop@@@Z 004a4c50 f i ctsrv:ctsrv.obj
 0002:00064c70       ??0?$QForeachContainer@V?$QList@VQString@@@@@@QAE@ABV?$QList@VQString@@@@@Z 004a4c70 f i ctsrv:ctsrv.obj
 0002:00064cd0       ??0?$QHashNode@VQString@@PAVUDPClient@RACERMATE@@@@QAE@ABVQString@@ABQAVUDPClient@RACERMATE@@IPAU0@@Z 004a4cd0 f i ctsrv:ctsrv.obj
 0002:00064d20       ??0?$QList@VQString@@@@QAE@$$QAV0@@Z 004a4d20 f i ctsrv:ctsrv.obj
 0002:00064d50       ??0?$QList@VQString@@@@QAE@ABV0@@Z 004a4d50 f i ctsrv:ctsrv.obj
 0002:00064e60       ??0?$QList@VQString@@@@QAE@XZ 004a4e60 f i ctsrv:ctsrv.obj
 0002:00064e80       ??0const_iterator@?$QHash@VQString@@PAVUDPClient@RACERMATE@@@@QAE@PAX@Z 004a4e80 f i ctsrv:ctsrv.obj
 0002:00064ea0       ??0const_iterator@?$QList@VQString@@@@QAE@PAUNode@1@@Z 004a4ea0 f i ctsrv:ctsrv.obj
 0002:00064ec0       ??1?$QForeachContainer@V?$QList@VQString@@@@@@QAE@XZ 004a4ec0 f i ctsrv:ctsrv.obj
 0002:00064ee0       ??1?$QHashNode@VQString@@PAVUDPClient@RACERMATE@@@@QAE@XZ 004a4ee0 f i ctsrv:ctsrv.obj
 0002:00064f00       ??1?$QList@VQString@@@@QAE@XZ 004a4f00 f i ctsrv:ctsrv.obj
 0002:00064f80       ??1?$QListSpecialMethods@VQString@@@@IAE@XZ 004a4f80 f i ctsrv:ctsrv.obj
 0002:00064f90       ??4?$QList@VQString@@@@QAEAAV0@$$QAV0@@Z 004a4f90 f i ctsrv:ctsrv.obj
 0002:00064ff0       ??8@YA_NPBDABVQString@@@Z  004a4ff0 f i ctsrv:ctsrv.obj
 0002:00065050       ??9const_iterator@?$QHash@VQString@@PAVUDPClient@RACERMATE@@@@QBE_NABV01@@Z 004a5050 f i ctsrv:ctsrv.obj
 0002:00065090       ??9const_iterator@?$QList@VQString@@@@QBE_NABV01@@Z 004a5090 f i ctsrv:ctsrv.obj
 0002:000650d0       ??A?$QHash@VQString@@PAVUDPClient@RACERMATE@@@@QAEAAPAVUDPClient@RACERMATE@@ABVQString@@@Z 004a50d0 f i ctsrv:ctsrv.obj
 0002:00065180       ??Dconst_iterator@?$QList@VQString@@@@QBEABVQString@@XZ 004a5180 f i ctsrv:ctsrv.obj
 0002:000651a0       ??Econst_iterator@?$QHash@VQString@@PAVUDPClient@RACERMATE@@@@QAEAAV01@XZ 004a51a0 f i ctsrv:ctsrv.obj
 0002:000651d0       ??Econst_iterator@?$QList@VQString@@@@QAEAAV01@XZ 004a51d0 f i ctsrv:ctsrv.obj
 0002:00065200       ??H@YA?BVQString@@ABV0@PBD@Z 004a5200 f i ctsrv:ctsrv.obj
 0002:000652e0       ??H@YA?BVQString@@PBDABV0@@Z 004a52e0 f i ctsrv:ctsrv.obj
 0002:00065390       ??_ECtsrv@RACERMATE@@UAEPAXI@Z 004a5390 f i ctsrv:ctsrv.obj
 0002:00065470       ??_G?$QHashNode@VQString@@PAVUDPClient@RACERMATE@@@@QAEPAXI@Z 004a5470 f i ctsrv:ctsrv.obj
 0002:000654b0       ??_GCtsrv@RACERMATE@@UAEPAXI@Z 004a54b0 f i ctsrv:ctsrv.obj
 0002:000654f0       ??_GQCoreApplication@@UAEPAXI@Z 004a54f0 f i ctsrv:ctsrv.obj
 0002:000654f0       ??_EQCoreApplication@@UAEPAXI@Z 004a54f0 f i ctsrv:ctsrv.obj
 0002:00065530       ??_GQString@@QAEPAXI@Z     004a5530 f i ctsrv:ctsrv.obj
 0002:00065570       ??_EQThread@@UAEPAXI@Z     004a5570 f i ctsrv:ctsrv.obj
 0002:00065570       ??_GQThread@@UAEPAXI@Z     004a5570 f i ctsrv:ctsrv.obj
 0002:000655b0       ??_GSDIRS@RACERMATE@@QAEPAXI@Z 004a55b0 f i ctsrv:ctsrv.obj
 0002:00065620       ?alignOfNode@?$QHash@VQString@@PAVUDPClient@RACERMATE@@@@CAHXZ 004a5620 f i ctsrv:ctsrv.obj
 0002:00065660       ?append@?$QList@VQString@@@@QAEXABVQString@@@Z 004a5660 f i ctsrv:ctsrv.obj
 0002:00065830       ?begin@?$QHash@VQString@@PAVUDPClient@RACERMATE@@@@QBE?AVconst_iterator@1@XZ 004a5830 f i ctsrv:ctsrv.obj
 0002:00065860       ?begin@?$QList@VQString@@@@QBE?AVconst_iterator@1@XZ 004a5860 f i ctsrv:ctsrv.obj
 0002:00065890       ?clear@?$QList@VQString@@@@QAEXXZ 004a5890 f i ctsrv:ctsrv.obj
 0002:000658d0       ?concrete@?$QHash@VQString@@PAVUDPClient@RACERMATE@@@@CAPAU?$QHashNode@VQString@@PAVUDPClient@RACERMATE@@@@PAUNode@QHashData@@@Z 004a58d0 f i ctsrv:ctsrv.obj
 0002:000658e0       ?contains@?$QHash@VQString@@PAVUDPClient@RACERMATE@@@@QBE_NABVQString@@@Z 004a58e0 f i ctsrv:ctsrv.obj
 0002:00065930       ?count@?$QHash@VQString@@PAVUDPClient@RACERMATE@@@@QBEHXZ 004a5930 f i ctsrv:ctsrv.obj
 0002:00065950       ?createNode@?$QHash@VQString@@PAVUDPClient@RACERMATE@@@@AAEPAU?$QHashNode@VQString@@PAVUDPClient@RACERMATE@@@@IABVQString@@ABQAVUDPClient@RACERMATE@@PAPAU2@@Z 004a5950 f i ctsrv:ctsrv.obj
 0002:00065a50       ?dealloc@?$QList@VQString@@@@AAEXPAUData@QListData@@@Z 004a5a50 f i ctsrv:ctsrv.obj
 0002:00065aa0       ?deleteNode2@?$QHash@VQString@@PAVUDPClient@RACERMATE@@@@CAXPAUNode@QHashData@@@Z 004a5aa0 f i ctsrv:ctsrv.obj
 0002:00065ac0       ?deref@?$QBasicAtomicInteger@H@@QAE_NXZ 004a5ac0 f i ctsrv:ctsrv.obj
 0002:00065ae0       ?deref@RefCount@QtPrivate@@QAE_NXZ 004a5ae0 f i ctsrv:ctsrv.obj
 0002:00065b30       ?detach@?$QHash@VQString@@PAVUDPClient@RACERMATE@@@@QAEXXZ 004a5b30 f i ctsrv:ctsrv.obj
 0002:00065b60       ?detach_helper@?$QHash@VQString@@PAVUDPClient@RACERMATE@@@@AAEXXZ 004a5b60 f i ctsrv:ctsrv.obj
 0002:00065bd0       ?detach_helper@?$QList@VQString@@@@AAEXH@Z 004a5bd0 f i ctsrv:ctsrv.obj
 0002:00065ce0       ?detach_helper_grow@?$QList@VQString@@@@AAEPAUNode@1@HH@Z 004a5ce0 f i ctsrv:ctsrv.obj
 0002:00065ec0       ?duplicateNode@?$QHash@VQString@@PAVUDPClient@RACERMATE@@@@CAXPAUNode@QHashData@@PAX@Z 004a5ec0 f i ctsrv:ctsrv.obj
 0002:00065f80       ?end@?$QHash@VQString@@PAVUDPClient@RACERMATE@@@@QBE?AVconst_iterator@1@XZ 004a5f80 f i ctsrv:ctsrv.obj
 0002:00065fb0       ?end@?$QList@VQString@@@@QBE?AVconst_iterator@1@XZ 004a5fb0 f i ctsrv:ctsrv.obj
 0002:00065fe0       ?findNode@?$QHash@VQString@@PAVUDPClient@RACERMATE@@@@ABEPAPAU?$QHashNode@VQString@@PAVUDPClient@RACERMATE@@@@ABVQString@@I@Z 004a5fe0 f i ctsrv:ctsrv.obj
 0002:000660d0       ?findNode@?$QHash@VQString@@PAVUDPClient@RACERMATE@@@@ABEPAPAU?$QHashNode@VQString@@PAVUDPClient@RACERMATE@@@@ABVQString@@PAI@Z 004a60d0 f i ctsrv:ctsrv.obj
 0002:00066150       ?freeData@?$QHash@VQString@@PAVUDPClient@RACERMATE@@@@AAEXPAUQHashData@@@Z 004a6150 f i ctsrv:ctsrv.obj
 0002:00066180       ?get_debug_dir@SDIRS@RACERMATE@@QBE?AVQString@@XZ 004a6180 f i ctsrv:ctsrv.obj
 0002:000661c0       ?isShared@RefCount@QtPrivate@@QBE_NXZ 004a61c0 f i ctsrv:ctsrv.obj
 0002:00066210       ?is_connected@UDPClient@RACERMATE@@QAE_NXZ 004a6210 f i ctsrv:ctsrv.obj
 0002:00066230       ?key@const_iterator@?$QHash@VQString@@PAVUDPClient@RACERMATE@@@@QBEABVQString@@XZ 004a6230 f i ctsrv:ctsrv.obj
 0002:00066260       ?keys@?$QHash@VQString@@PAVUDPClient@RACERMATE@@@@QBE?AV?$QList@VQString@@@@XZ 004a6260 f i ctsrv:ctsrv.obj
 0002:00066360       ?load@?$QBasicAtomicInteger@H@@QBEHXZ 004a6360 f i ctsrv:ctsrv.obj
 0002:00066380       ?node_construct@?$QList@VQString@@@@AAEXPAUNode@1@ABVQString@@@Z 004a6380 f i ctsrv:ctsrv.obj
 0002:00066440       ?node_copy@?$QList@VQString@@@@AAEXPAUNode@1@00@Z 004a6440 f i ctsrv:ctsrv.obj
 0002:000666c0       ?node_destruct@?$QList@VQString@@@@AAEXPAUNode@1@0@Z 004a66c0 f i ctsrv:ctsrv.obj
 0002:00066760       ?node_destruct@?$QList@VQString@@@@AAEXPAUNode@1@@Z 004a6760 f i ctsrv:ctsrv.obj
 0002:000667d0       ?qRound@@YAHM@Z            004a67d0 f i ctsrv:ctsrv.obj
 0002:00066860       ?ref@?$QBasicAtomicInteger@H@@QAE_NXZ 004a6860 f i ctsrv:ctsrv.obj
 0002:00066880       ?ref@RefCount@QtPrivate@@QAE_NXZ 004a6880 f i ctsrv:ctsrv.obj
 0002:000668c0       ?reserve@?$QList@VQString@@@@QAEXH@Z 004a68c0 f i ctsrv:ctsrv.obj
 0002:00066920       ?same_key@?$QHashNode@VQString@@PAVUDPClient@RACERMATE@@@@QBE_NIABVQString@@@Z 004a6920 f i ctsrv:ctsrv.obj
 0002:00066980       ?size@?$QHash@VQString@@PAVUDPClient@RACERMATE@@@@QBEHXZ 004a6980 f i ctsrv:ctsrv.obj
 0002:000669a0       ?swap@?$QList@VQString@@@@QAEXAAV1@@Z 004a69a0 f i ctsrv:ctsrv.obj
 0002:000669d0       ?t@Node@?$QList@VQString@@@@QAEAAVQString@@XZ 004a69d0 f i ctsrv:ctsrv.obj
 0002:00066a00       ??0SDIRS@RACERMATE@@QAE@HVQString@@@Z 004a6a00 f   ctsrv:sdirs.obj
 0002:00067050       ??1SDIRS@RACERMATE@@QAE@XZ 004a7050 f   ctsrv:sdirs.obj
 0002:00067230       ??0UDPClient@RACERMATE@@QAE@VQString@@HPAVQObject@@@Z 004a7230 f   ctsrv:udp_client.obj
 0002:000673e0       ??1UDPClient@RACERMATE@@UAE@XZ 004a73e0 f   ctsrv:udp_client.obj
 0002:00067710       ?close_log_file@UDPClient@RACERMATE@@QAEXXZ 004a7710 f   ctsrv:udp_client.obj
 0002:00067720       ?process@UDPClient@RACERMATE@@QAEXXZ 004a7720 f   ctsrv:udp_client.obj
 0002:00067ea0       ?get_watts_factor@UDPClient@RACERMATE@@QAEMXZ 004a7ea0 f   ctsrv:udp_client.obj
 0002:00067ed0       ?end_cal@UDPClient@RACERMATE@@QAEHXZ 004a7ed0 f   ctsrv:udp_client.obj
 0002:00067ef0       ?get_average_bars@UDPClient@RACERMATE@@QAEPAMXZ 004a7ef0 f   ctsrv:udp_client.obj
 0002:00067f30       ?get_bars@UDPClient@RACERMATE@@QAEPAMXZ 004a7f30 f   ctsrv:udp_client.obj
 0002:00067f70       ?calc_tp@UDPClient@RACERMATE@@QAEXM@Z 004a7f70 f   ctsrv:udp_client.obj
 0002:00067fb0       ?get_ftp@UDPClient@RACERMATE@@QAEMXZ 004a7fb0 f   ctsrv:udp_client.obj
 0002:00067fc0       ?get_handlebar_buttons@UDPClient@RACERMATE@@QAEHXZ 004a7fc0 f   ctsrv:udp_client.obj
 0002:000680b0       ?is_paused@UDPClient@RACERMATE@@QAE_NXZ 004a80b0 f   ctsrv:udp_client.obj
 0002:00068120       ?reset_stats@UDPClient@RACERMATE@@QAEHXZ 004a8120 f   ctsrv:udp_client.obj
 0002:00068130       ?reset@UDPClient@RACERMATE@@QAEHXZ 004a8130 f   ctsrv:udp_client.obj
 0002:00068150       ?rx@UDPClient@RACERMATE@@QAEHPAEH@Z 004a8150 f   ctsrv:udp_client.obj
 0002:00068160       ?set_ergo_mode@UDPClient@RACERMATE@@QAEHHGM@Z 004a8160 f   ctsrv:udp_client.obj
 0002:000681d0       ?set_export@UDPClient@RACERMATE@@QAEXPBD@Z 004a81d0 f   ctsrv:udp_client.obj
 0002:00068260       ?set_file_mode@UDPClient@RACERMATE@@QAEX_N@Z 004a8260 f   ctsrv:udp_client.obj
 0002:00068280       ?set_ftp@UDPClient@RACERMATE@@QAEXM@Z 004a8280 f   ctsrv:udp_client.obj
 0002:00068290       ?set_hr_bounds@UDPClient@RACERMATE@@QAEHHH_N@Z 004a8290 f   ctsrv:udp_client.obj
 0002:000682d0       ?set_paused@UDPClient@RACERMATE@@QAEX_N@Z 004a82d0 f   ctsrv:udp_client.obj
 0002:00068390       ?start_cal@UDPClient@RACERMATE@@QAEHXZ 004a8390 f   ctsrv:udp_client.obj
 0002:000683d0       ?set_lbs@UDPClient@RACERMATE@@QAEXMM@Z 004a83d0 f   ctsrv:udp_client.obj
 0002:00068410       ?set_kgs@UDPClient@RACERMATE@@QAEXMM@Z 004a8410 f   ctsrv:udp_client.obj
 0002:00068470       ?get_cal@UDPClient@RACERMATE@@QAEMXZ 004a8470 f   ctsrv:udp_client.obj
 0002:00068490       ?get_fw@UDPClient@RACERMATE@@QAEGXZ 004a8490 f   ctsrv:udp_client.obj
 0002:000684b0       ?get_status_bits@UDPClient@RACERMATE@@QAEHXZ 004a84b0 f   ctsrv:udp_client.obj
 0002:000684d0       ?set_grade@UDPClient@RACERMATE@@AAEHMMMH@Z 004a84d0 f   ctsrv:udp_client.obj
 0002:000685f0       ?set_wind@UDPClient@RACERMATE@@AAEXM@Z 004a85f0 f   ctsrv:udp_client.obj
 0002:00068630       ?set_draft_wind@UDPClient@RACERMATE@@AAEXM@Z 004a8630 f   ctsrv:udp_client.obj
 0002:00068660       ?GetTrainerData@UDPClient@RACERMATE@@AAE?AUTrainerData@2@H@Z 004a8660 f   ctsrv:udp_client.obj
 0002:00068700       ?SETVAL@UDPClient@RACERMATE@@AAEHHHH@Z 004a8700 f   ctsrv:udp_client.obj
 0002:00068750       ?send_ctlmsg@UDPClient@RACERMATE@@AAEHH@Z 004a8750 f   ctsrv:udp_client.obj
 0002:000689a0       ?gen_devnum@UDPClient@RACERMATE@@AAEHPAEH@Z 004a89a0 f   ctsrv:udp_client.obj
 0002:00068a70       ?gen_hbctl@UDPClient@RACERMATE@@AAEHPAEH@Z 004a8a70 f   ctsrv:udp_client.obj
 0002:00068ce0       ?get_devnum@UDPClient@RACERMATE@@AAEHH@Z 004a8ce0 f   ctsrv:udp_client.obj
 0002:00068da0       ?decode_ss@UDPClient@RACERMATE@@AAEHH@Z 004a8da0 f   ctsrv:udp_client.obj
 0002:00068f70       ?decode_slow@UDPClient@RACERMATE@@AAEXHPAUNHBDATA@12@@Z 004a8f70 f   ctsrv:udp_client.obj
 0002:00069140       ?decode_fast@UDPClient@RACERMATE@@AAEXHPAUNHBDATA@12@@Z 004a9140 f   ctsrv:udp_client.obj
 0002:000692a0       ?beep@UDPClient@RACERMATE@@AAEXXZ 004a92a0 f   ctsrv:udp_client.obj
 0002:000692b0       ?init@UDPClient@RACERMATE@@AAEHXZ 004a92b0 f   ctsrv:udp_client.obj
 0002:0006a050       ?updateHardware@UDPClient@RACERMATE@@AAEHXZ 004aa050 f   ctsrv:udp_client.obj
 0002:0006a260       ?hexdump@UDPClient@RACERMATE@@AAEXPAEHVQString@@1@Z 004aa260 f   ctsrv:udp_client.obj
 0002:0006a410       ?get_comstats@UDPClient@RACERMATE@@AAEPAUCOMSTATS@12@XZ 004aa410 f   ctsrv:udp_client.obj
 0002:0006a480       ?get_ss_data@UDPClient@RACERMATE@@AAE?AUSSDATA@@H@Z 004aa480 f   ctsrv:udp_client.obj
 0002:0006a550       ?get_ubermsg@UDPClient@RACERMATE@@AAEHXZ 004aa550 f   ctsrv:udp_client.obj
 0002:0006b550       ??$?0$$V@?$_Compressed_pair@U?$_Wrap_alloc@V?$allocator@M@std@@@std@@V?$_Vector_val@U?$_Simple_types@M@std@@@2@$00@std@@QAE@U_Zero_then_variadic_args_t@1@@Z 004ab550 f i ctsrv:udp_client.obj
 0002:0006b580       ??$?0AAU?$_Wrap_alloc@V?$allocator@M@std@@@std@@@?$_Wrap_alloc@V?$allocator@U_Container_proxy@std@@@std@@@std@@QAE@AAU?$_Wrap_alloc@V?$allocator@M@std@@@1@@Z 004ab580 f i ctsrv:udp_client.obj
 0002:0006b5b0       ??$?0M@?$allocator@U_Container_proxy@std@@@std@@QAE@ABV?$allocator@M@1@@Z 004ab5b0 f i ctsrv:udp_client.obj
 0002:0006b5d0       ??$_Addressof@M@std@@YAPAMAAMU?$integral_constant@_N$0A@@0@@Z 004ab5d0 f i ctsrv:udp_client.obj
 0002:0006b5e0       ??$_Destroy_range@U?$_Wrap_alloc@V?$allocator@M@std@@@std@@@std@@YAXPAM0AAU?$_Wrap_alloc@V?$allocator@M@std@@@0@@Z 004ab5e0 f i ctsrv:udp_client.obj
 0002:0006b620       ??$addressof@M@std@@YAPAMAAM@Z 004ab620 f i ctsrv:udp_client.obj
 0002:0006b640       ??$destroy@M@?$_Wrap_alloc@V?$allocator@M@std@@@std@@QAEXPAM@Z 004ab640 f i ctsrv:udp_client.obj
 0002:0006b670       ??$destroy@M@?$allocator@M@std@@QAEXPAM@Z 004ab670 f i ctsrv:udp_client.obj
 0002:0006b680       ??$destroy@M@?$allocator_traits@V?$allocator@M@std@@@std@@SAXAAV?$allocator@M@1@PAM@Z 004ab680 f i ctsrv:udp_client.obj
 0002:0006b6a0       ??$forward@AAU?$_Wrap_alloc@V?$allocator@M@std@@@std@@@std@@YAAAU?$_Wrap_alloc@V?$allocator@M@std@@@0@AAU10@@Z 004ab6a0 f i ctsrv:udp_client.obj
 0002:0006b6b0       ??0?$_Vector_alloc@U?$_Vec_base_types@MV?$allocator@M@std@@@std@@@std@@QAE@XZ 004ab6b0 f i ctsrv:udp_client.obj
 0002:0006b730       ??0?$_Vector_val@U?$_Simple_types@M@std@@@std@@QAE@XZ 004ab730 f i ctsrv:udp_client.obj
 0002:0006b780       ??0?$_Wrap_alloc@V?$allocator@M@std@@@std@@QAE@XZ 004ab780 f i ctsrv:udp_client.obj
 0002:0006b7a0       ??0?$allocator@M@std@@QAE@XZ 004ab7a0 f i ctsrv:udp_client.obj
 0002:0006b7c0       ??0?$vector@MV?$allocator@M@std@@@std@@QAE@XZ 004ab7c0 f i ctsrv:udp_client.obj
 0002:0006b810       ??0COMSTATS@UDPClient@RACERMATE@@QAE@XZ 004ab810 f i ctsrv:udp_client.obj
 0002:0006b860       ??0Rider2@@QAE@XZ          004ab860 f i ctsrv:udp_client.obj
 0002:0006b9e0       ??1?$_Compressed_pair@U?$_Wrap_alloc@V?$allocator@M@std@@@std@@V?$_Vector_val@U?$_Simple_types@M@std@@@2@$00@std@@QAE@XZ 004ab9e0 f i ctsrv:udp_client.obj
 0002:0006ba00       ??1?$_Vector_alloc@U?$_Vec_base_types@MV?$allocator@M@std@@@std@@@std@@QAE@XZ 004aba00 f i ctsrv:udp_client.obj
 0002:0006ba60       ??1?$_Vector_val@U?$_Simple_types@M@std@@@std@@QAE@XZ 004aba60 f i ctsrv:udp_client.obj
 0002:0006ba80       ??1?$vector@MV?$allocator@M@std@@@std@@QAE@XZ 004aba80 f i ctsrv:udp_client.obj
 0002:0006bae0       ??1QT_DATA@RACERMATE@@QAE@XZ 004abae0 f i ctsrv:udp_client.obj
 0002:0006bb00       ??1Rider2@@UAE@XZ          004abb00 f i ctsrv:udp_client.obj
 0002:0006bb40       ??H@YA?BVQString@@ABV0@0@Z 004abb40 f i ctsrv:udp_client.obj
 0002:0006bbf0       ??_GRider2@@UAEPAXI@Z      004abbf0 f i ctsrv:udp_client.obj
 0002:0006bbf0       ??_ERider2@@UAEPAXI@Z      004abbf0 f i ctsrv:udp_client.obj
 0002:0006bc30       ??_GUDPClient@RACERMATE@@UAEPAXI@Z 004abc30 f i ctsrv:udp_client.obj
 0002:0006bc30       ??_EUDPClient@RACERMATE@@UAEPAXI@Z 004abc30 f i ctsrv:udp_client.obj
 0002:0006bc70       ??_Gqt_SS@RACERMATE@@QAEPAXI@Z 004abc70 f i ctsrv:udp_client.obj
 0002:0006bcb0       ?_Alloc_proxy@?$_Vector_alloc@U?$_Vec_base_types@MV?$allocator@M@std@@@std@@@std@@QAEXXZ 004abcb0 f i ctsrv:udp_client.obj
 0002:0006bd70       ?_Destroy@?$vector@MV?$allocator@M@std@@@std@@IAEXPAM0@Z 004abd70 f i ctsrv:udp_client.obj
 0002:0006bda0       ?_Free_proxy@?$_Vector_alloc@U?$_Vec_base_types@MV?$allocator@M@std@@@std@@@std@@QAEXXZ 004abda0 f i ctsrv:udp_client.obj
 0002:0006be20       ?_Get_first@?$_Compressed_pair@U?$_Wrap_alloc@V?$allocator@M@std@@@std@@V?$_Vector_val@U?$_Simple_types@M@std@@@2@$00@std@@QAEAAU?$_Wrap_alloc@V?$allocator@M@std@@@2@XZ 004abe20 f i ctsrv:udp_client.obj
 0002:0006be40       ?_Getal@?$_Vector_alloc@U?$_Vec_base_types@MV?$allocator@M@std@@@std@@@std@@QAEAAU?$_Wrap_alloc@V?$allocator@M@std@@@2@XZ 004abe40 f i ctsrv:udp_client.obj
 0002:0006be60       ?_Myend@?$_Vector_alloc@U?$_Vec_base_types@MV?$allocator@M@std@@@std@@@std@@QAEAAPAMXZ 004abe60 f i ctsrv:udp_client.obj
 0002:0006be80       ?_Mylast@?$_Vector_alloc@U?$_Vec_base_types@MV?$allocator@M@std@@@std@@@std@@QAEAAPAMXZ 004abe80 f i ctsrv:udp_client.obj
 0002:0006bea0       ?_Myproxy@?$_Vector_alloc@U?$_Vec_base_types@MV?$allocator@M@std@@@std@@@std@@QAEAAPAU_Container_proxy@2@XZ 004abea0 f i ctsrv:udp_client.obj
 0002:0006bec0       ?_Orphan_all@?$_Vector_alloc@U?$_Vec_base_types@MV?$allocator@M@std@@@std@@@std@@QAEXXZ 004abec0 f i ctsrv:udp_client.obj
 0002:0006bee0       ?_Tidy@?$vector@MV?$allocator@M@std@@@std@@IAEXXZ 004abee0 f i ctsrv:udp_client.obj
 0002:0006bfb0       ?deallocate@?$_Wrap_alloc@V?$allocator@M@std@@@std@@QAEXPAMI@Z 004abfb0 f i ctsrv:udp_client.obj
 0002:0006bfe0       ?deallocate@?$allocator@M@std@@QAEXPAMI@Z 004abfe0 f i ctsrv:udp_client.obj
 0002:0006c010       ?get_max_force@qt_SS@RACERMATE@@QAEMXZ 004ac010 f i ctsrv:udp_client.obj
 0002:0006c030       ?getavglss@qt_SS@RACERMATE@@QAEMXZ 004ac030 f i ctsrv:udp_client.obj
 0002:0006c050       ?getavgrss@qt_SS@RACERMATE@@QAEMXZ 004ac050 f i ctsrv:udp_client.obj
 0002:0006c070       ?getavgss@qt_SS@RACERMATE@@QAEMXZ 004ac070 f i ctsrv:udp_client.obj
 0002:0006c090       ?getlata@qt_SS@RACERMATE@@QAEMXZ 004ac090 f i ctsrv:udp_client.obj
 0002:0006c0b0       ?getlss@qt_SS@RACERMATE@@QAEMXZ 004ac0b0 f i ctsrv:udp_client.obj
 0002:0006c0d0       ?getlwatts@qt_SS@RACERMATE@@QAEMXZ 004ac0d0 f i ctsrv:udp_client.obj
 0002:0006c0f0       ?getrata@qt_SS@RACERMATE@@QAEMXZ 004ac0f0 f i ctsrv:udp_client.obj
 0002:0006c110       ?getrss@qt_SS@RACERMATE@@QAEMXZ 004ac110 f i ctsrv:udp_client.obj
 0002:0006c130       ?getrwatts@qt_SS@RACERMATE@@QAEMXZ 004ac130 f i ctsrv:udp_client.obj
 0002:0006c150       ?getss@qt_SS@RACERMATE@@QAEMXZ 004ac150 f i ctsrv:udp_client.obj
 0002:0006c170       ??0ctsrvWorker@RACERMATE@@QAE@FFVQString@@HPAVQObject@@@Z 004ac170 f   ctsrv:ctsrvworker.obj
 0002:0006cbf0       ?scan_interfaces@ctsrvWorker@RACERMATE@@AAEHXZ 004acbf0 f   ctsrv:ctsrvworker.obj
 0002:0006dab0       ?set_devnums@ctsrvWorker@RACERMATE@@AAEXXZ 004adab0 f   ctsrv:ctsrvworker.obj
 0002:0006dc20       ?get_barinfo@ctsrvWorker@RACERMATE@@AAEPAVBARINFO@qt_SS@2@VQString@@H@Z 004adc20 f   ctsrv:ctsrvworker.obj
 0002:0006dca0       ?create_udp_server_socket@ctsrvWorker@RACERMATE@@AAEHXZ 004adca0 f   ctsrv:ctsrvworker.obj
 0002:0006e1a0       ?have@ctsrvWorker@RACERMATE@@AAE_NPBD@Z 004ae1a0 f   ctsrv:ctsrvworker.obj
 0002:0006e220       ?get_appkey@ctsrvWorker@RACERMATE@@AAE?AVQString@@V3@@Z 004ae220 f   ctsrv:ctsrvworker.obj
 0002:0006e2f0       ?start@ctsrvWorker@RACERMATE@@QAEXXZ 004ae2f0 f   ctsrv:ctsrvworker.obj
 0002:0006e430       ?stop@ctsrvWorker@RACERMATE@@QAEXXZ 004ae430 f   ctsrv:ctsrvworker.obj
 0002:0006eaa0       ?timeout@ctsrvWorker@RACERMATE@@AAEXXZ 004aeaa0 f   ctsrv:ctsrvworker.obj
 0002:0006ebd0       ?disconnected@ctsrvWorker@RACERMATE@@AAEXXZ 004aebd0 f   ctsrv:ctsrvworker.obj
 0002:0006ebe0       ?hostFound@ctsrvWorker@RACERMATE@@AAEXXZ 004aebe0 f   ctsrv:ctsrvworker.obj
 0002:0006ec00       ?processPendingDatagrams@ctsrvWorker@RACERMATE@@AAEXXZ 004aec00 f   ctsrv:ctsrvworker.obj
 0002:0006f970       ?bc_timeout@ctsrvWorker@RACERMATE@@AAEXXZ 004af970 f   ctsrv:ctsrvworker.obj
 0002:0006ff30       ?connected_to_trainer_slot@ctsrvWorker@RACERMATE@@AAEXVQString@@_N@Z 004aff30 f   ctsrv:ctsrvworker.obj
 0002:00070090       ?ctlmsg_slot@ctsrvWorker@RACERMATE@@AAEXVQString@@PAEH@Z 004b0090 f   ctsrv:ctsrvworker.obj
 0002:000711d0       ??$move@AAPAUQHashData@@@std@@YA$$QAPAUQHashData@@AAPAU1@@Z 004b11d0 f i ctsrv:ctsrvworker.obj
 0002:000711e0       ??$move@AAV?$QHash@VQString@@PAVUDPClient@RACERMATE@@@@@std@@YA$$QAV?$QHash@VQString@@PAVUDPClient@RACERMATE@@@@AAV1@@Z 004b11e0 f i ctsrv:ctsrvworker.obj
 0002:000711f0       ??$move@AAV?$QHash@VQString@@VBCINF@ctsrvWorker@RACERMATE@@@@@std@@YA$$QAV?$QHash@VQString@@VBCINF@ctsrvWorker@RACERMATE@@@@AAV1@@Z 004b11f0 f i ctsrv:ctsrvworker.obj
 0002:00071200       ??$move@AAV?$QList@VQNetworkAddressEntry@@@@@std@@YA$$QAV?$QList@VQNetworkAddressEntry@@@@AAV1@@Z 004b1200 f i ctsrv:ctsrvworker.obj
 0002:00071210       ??$qSwap@PAUQHashData@@@@YAXAAPAUQHashData@@0@Z 004b1210 f i ctsrv:ctsrvworker.obj
 0002:00071230       ??$swap@PAUQHashData@@@std@@YAXAAPAUQHashData@@0@Z 004b1230 f i ctsrv:ctsrvworker.obj
 0002:00071280       ??0?$QFlags@W4BindFlag@QAbstractSocket@@@@QAE@VQFlag@@@Z 004b1280 f i ctsrv:ctsrvworker.obj
 0002:000712b0       ??0?$QFlags@W4BindFlag@QAbstractSocket@@@@QAE@W4BindFlag@QAbstractSocket@@@Z 004b12b0 f i ctsrv:ctsrvworker.obj
 0002:000712d0       ??0?$QForeachContainer@V?$QList@VQNetworkAddressEntry@@@@@@QAE@ABV?$QList@VQNetworkAddressEntry@@@@@Z 004b12d0 f i ctsrv:ctsrvworker.obj
 0002:00071330       ??0?$QForeachContainer@V?$QList@VQNetworkInterface@@@@@@QAE@ABV?$QList@VQNetworkInterface@@@@@Z 004b1330 f i ctsrv:ctsrvworker.obj
 0002:00071390       ??0?$QHash@VQString@@PAVUDPClient@RACERMATE@@@@QAE@$$QAV0@@Z 004b1390 f i ctsrv:ctsrvworker.obj
 0002:000713c0       ??0?$QHash@VQString@@PAVUDPClient@RACERMATE@@@@QAE@XZ 004b13c0 f i ctsrv:ctsrvworker.obj
 0002:000713e0       ??0?$QHash@VQString@@VBCINF@ctsrvWorker@RACERMATE@@@@QAE@$$QAV0@@Z 004b13e0 f i ctsrv:ctsrvworker.obj
 0002:00071410       ??0?$QHash@VQString@@VBCINF@ctsrvWorker@RACERMATE@@@@QAE@XZ 004b1410 f i ctsrv:ctsrvworker.obj
 0002:00071430       ??0?$QHash@VQString@@VIPrintDialogServices@ctsrvWorker@RACERMATE@@@@QAE@XZ 004b1430 f i ctsrv:ctsrvworker.obj
 0002:00071450       ??0?$QHashNode@VQString@@VBCINF@ctsrvWorker@RACERMATE@@@@QAE@ABVQString@@ABVBCINF@ctsrvWorker@RACERMATE@@IPAU0@@Z 004b1450 f i ctsrv:ctsrvworker.obj
 0002:000714f0       ??0?$QHashNode@VQString@@VIPrintDialogServices@ctsrvWorker@RACERMATE@@@@QAE@ABVQString@@ABVIPrintDialogServices@ctsrvWorker@RACERMATE@@IPAU0@@Z 004b14f0 f i ctsrv:ctsrvworker.obj
 0002:00071590       ??0?$QList@VQNetworkAddressEntry@@@@QAE@$$QAV0@@Z 004b1590 f i ctsrv:ctsrvworker.obj
 0002:000715c0       ??0?$QList@VQNetworkAddressEntry@@@@QAE@ABV0@@Z 004b15c0 f i ctsrv:ctsrvworker.obj
 0002:000716d0       ??0?$QList@VQNetworkAddressEntry@@@@QAE@XZ 004b16d0 f i ctsrv:ctsrvworker.obj
 0002:000716f0       ??0?$QList@VQNetworkInterface@@@@QAE@ABV0@@Z 004b16f0 f i ctsrv:ctsrvworker.obj
 0002:00071800       ??0BCINF@ctsrvWorker@RACERMATE@@QAE@ABV012@@Z 004b1800 f i ctsrv:ctsrvworker.obj
 0002:000718a0       ??0BCINF@ctsrvWorker@RACERMATE@@QAE@XZ 004b18a0 f i ctsrv:ctsrvworker.obj
 0002:00071940       ??0IPrintDialogServices@ctsrvWorker@RACERMATE@@QAE@ABV012@@Z 004b1940 f i ctsrv:ctsrvworker.obj
 0002:00071a40       ??0IPrintDialogServices@ctsrvWorker@RACERMATE@@QAE@XZ 004b1a40 f i ctsrv:ctsrvworker.obj
 0002:00071b10       ??0QFlag@@QAE@H@Z          004b1b10 f i ctsrv:ctsrvworker.obj
 0002:00071b30       ??0const_iterator@?$QHash@VQString@@VBCINF@ctsrvWorker@RACERMATE@@@@QAE@PAX@Z 004b1b30 f i ctsrv:ctsrvworker.obj
 0002:00071b50       ??0const_iterator@?$QList@VQNetworkAddressEntry@@@@QAE@PAUNode@1@@Z 004b1b50 f i ctsrv:ctsrvworker.obj
 0002:00071b70       ??0const_iterator@?$QList@VQNetworkInterface@@@@QAE@PAUNode@1@@Z 004b1b70 f i ctsrv:ctsrvworker.obj
 0002:00071b90       ??1?$QForeachContainer@V?$QList@VQNetworkAddressEntry@@@@@@QAE@XZ 004b1b90 f i ctsrv:ctsrvworker.obj
 0002:00071bb0       ??1?$QForeachContainer@V?$QList@VQNetworkInterface@@@@@@QAE@XZ 004b1bb0 f i ctsrv:ctsrvworker.obj
 0002:00071bd0       ??1?$QHash@VQString@@PAVUDPClient@RACERMATE@@@@QAE@XZ 004b1bd0 f i ctsrv:ctsrvworker.obj
 0002:00071c40       ??1?$QHash@VQString@@VBCINF@ctsrvWorker@RACERMATE@@@@QAE@XZ 004b1c40 f i ctsrv:ctsrvworker.obj
 0002:00071cb0       ??1?$QHash@VQString@@VIPrintDialogServices@ctsrvWorker@RACERMATE@@@@QAE@XZ 004b1cb0 f i ctsrv:ctsrvworker.obj
 0002:00071d20       ??1?$QHashNode@VQString@@VBCINF@ctsrvWorker@RACERMATE@@@@QAE@XZ 004b1d20 f i ctsrv:ctsrvworker.obj
 0002:00071d50       ??1?$QHashNode@VQString@@VIPrintDialogServices@ctsrvWorker@RACERMATE@@@@QAE@XZ 004b1d50 f i ctsrv:ctsrvworker.obj
 0002:00071d80       ??1?$QList@VQNetworkAddressEntry@@@@QAE@XZ 004b1d80 f i ctsrv:ctsrvworker.obj
 0002:00071e00       ??1?$QList@VQNetworkInterface@@@@QAE@XZ 004b1e00 f i ctsrv:ctsrvworker.obj
 0002:00071e80       ??1?$QListSpecialMethods@VQNetworkAddressEntry@@@@IAE@XZ 004b1e80 f i ctsrv:ctsrvworker.obj
 0002:00071e90       ??1?$QListSpecialMethods@VQNetworkInterface@@@@IAE@XZ 004b1e90 f i ctsrv:ctsrvworker.obj
 0002:00071ea0       ??1BCINF@ctsrvWorker@RACERMATE@@QAE@XZ 004b1ea0 f i ctsrv:ctsrvworker.obj
 0002:00071ee0       ??1IPrintDialogServices@ctsrvWorker@RACERMATE@@QAE@XZ 004b1ee0 f i ctsrv:ctsrvworker.obj
 0002:00071f50       ??1ctsrvWorker@RACERMATE@@UAE@XZ 004b1f50 f i ctsrv:ctsrvworker.obj
 0002:00071fd0       ??4?$QHash@VQString@@PAVUDPClient@RACERMATE@@@@QAEAAV0@$$QAV0@@Z 004b1fd0 f i ctsrv:ctsrvworker.obj
 0002:00072030       ??4?$QHash@VQString@@VBCINF@ctsrvWorker@RACERMATE@@@@QAEAAV0@$$QAV0@@Z 004b2030 f i ctsrv:ctsrvworker.obj
 0002:00072090       ??4?$QList@VQNetworkAddressEntry@@@@QAEAAV0@$$QAV0@@Z 004b2090 f i ctsrv:ctsrvworker.obj
 0002:000720f0       ??4BCINF@ctsrvWorker@RACERMATE@@QAEAAV012@ABV012@@Z 004b20f0 f i ctsrv:ctsrvworker.obj
 0002:00072150       ??9const_iterator@?$QHash@VQString@@VBCINF@ctsrvWorker@RACERMATE@@@@QBE_NABV01@@Z 004b2150 f i ctsrv:ctsrvworker.obj
 0002:00072190       ??9const_iterator@?$QList@VQNetworkAddressEntry@@@@QBE_NABV01@@Z 004b2190 f i ctsrv:ctsrvworker.obj
 0002:000721d0       ??9const_iterator@?$QList@VQNetworkInterface@@@@QBE_NABV01@@Z 004b21d0 f i ctsrv:ctsrvworker.obj
 0002:00072210       ??A?$QHash@VQString@@VBCINF@ctsrvWorker@RACERMATE@@@@QAEAAVBCINF@ctsrvWorker@RACERMATE@@ABVQString@@@Z 004b2210 f i ctsrv:ctsrvworker.obj
 0002:00072320       ??A?$QHash@VQString@@VIPrintDialogServices@ctsrvWorker@RACERMATE@@@@QAEAAVIPrintDialogServices@ctsrvWorker@RACERMATE@@ABVQString@@@Z 004b2320 f i ctsrv:ctsrvworker.obj
 0002:00072430       ??BQFlag@@QBEHXZ           004b2430 f i ctsrv:ctsrvworker.obj
 0002:00072450       ??Dconst_iterator@?$QList@VQNetworkAddressEntry@@@@QBEABVQNetworkAddressEntry@@XZ 004b2450 f i ctsrv:ctsrvworker.obj
 0002:00072470       ??Dconst_iterator@?$QList@VQNetworkInterface@@@@QBEABVQNetworkInterface@@XZ 004b2470 f i ctsrv:ctsrvworker.obj
 0002:00072490       ??Econst_iterator@?$QHash@VQString@@VBCINF@ctsrvWorker@RACERMATE@@@@QAEAAV01@XZ 004b2490 f i ctsrv:ctsrvworker.obj
 0002:000724c0       ??Econst_iterator@?$QList@VQNetworkAddressEntry@@@@QAEAAV01@XZ 004b24c0 f i ctsrv:ctsrvworker.obj
 0002:000724f0       ??Econst_iterator@?$QList@VQNetworkInterface@@@@QAEAAV01@XZ 004b24f0 f i ctsrv:ctsrvworker.obj
 0002:00072520       ??U?$QFlags@W4BindFlag@QAbstractSocket@@@@QBE?AV0@W4BindFlag@QAbstractSocket@@@Z 004b2520 f i ctsrv:ctsrvworker.obj
 0002:00072560       ??U@YA?AV?$QFlags@W4BindFlag@QAbstractSocket@@@@W4BindFlag@QAbstractSocket@@0@Z 004b2560 f i ctsrv:ctsrvworker.obj
 0002:00072590       ??_G?$QHashNode@VQString@@VBCINF@ctsrvWorker@RACERMATE@@@@QAEPAXI@Z 004b2590 f i ctsrv:ctsrvworker.obj
 0002:000725d0       ??_G?$QHashNode@VQString@@VIPrintDialogServices@ctsrvWorker@RACERMATE@@@@QAEPAXI@Z 004b25d0 f i ctsrv:ctsrvworker.obj
 0002:00072610       ??_GQNetworkAddressEntry@@QAEPAXI@Z 004b2610 f i ctsrv:ctsrvworker.obj
 0002:00072650       ??_GQNetworkInterface@@QAEPAXI@Z 004b2650 f i ctsrv:ctsrvworker.obj
 0002:00072690       ??_EQTimer@@UAEPAXI@Z      004b2690 f i ctsrv:ctsrvworker.obj
 0002:00072690       ??_GQTimer@@UAEPAXI@Z      004b2690 f i ctsrv:ctsrvworker.obj
 0002:000726d0       ??_EQUdpSocket@@UAEPAXI@Z  004b26d0 f i ctsrv:ctsrvworker.obj
 0002:000726d0       ??_GQUdpSocket@@UAEPAXI@Z  004b26d0 f i ctsrv:ctsrvworker.obj
 0002:00072710       ??_EctsrvWorker@RACERMATE@@UAEPAXI@Z 004b2710 f i ctsrv:ctsrvworker.obj
 0002:00072710       ??_GctsrvWorker@RACERMATE@@UAEPAXI@Z 004b2710 f i ctsrv:ctsrvworker.obj
 0002:00072780       ?alignOfNode@?$QHash@VQString@@VBCINF@ctsrvWorker@RACERMATE@@@@CAHXZ 004b2780 f i ctsrv:ctsrvworker.obj
 0002:000727c0       ?alignOfNode@?$QHash@VQString@@VIPrintDialogServices@ctsrvWorker@RACERMATE@@@@CAHXZ 004b27c0 f i ctsrv:ctsrvworker.obj
 0002:00072800       ?append@?$QList@VQNetworkAddressEntry@@@@QAEXABVQNetworkAddressEntry@@@Z 004b2800 f i ctsrv:ctsrvworker.obj
 0002:000729d0       ?begin@?$QHash@VQString@@VBCINF@ctsrvWorker@RACERMATE@@@@QBE?AVconst_iterator@1@XZ 004b29d0 f i ctsrv:ctsrvworker.obj
 0002:00072a00       ?begin@?$QList@VQNetworkAddressEntry@@@@QBE?AVconst_iterator@1@XZ 004b2a00 f i ctsrv:ctsrvworker.obj
 0002:00072a30       ?begin@?$QList@VQNetworkInterface@@@@QBE?AVconst_iterator@1@XZ 004b2a30 f i ctsrv:ctsrvworker.obj
 0002:00072a60       ?clear@?$QHash@VQString@@PAVUDPClient@RACERMATE@@@@QAEXXZ 004b2a60 f i ctsrv:ctsrvworker.obj
 0002:00072aa0       ?clear@?$QHash@VQString@@VBCINF@ctsrvWorker@RACERMATE@@@@QAEXXZ 004b2aa0 f i ctsrv:ctsrvworker.obj
 0002:00072ae0       ?clear@?$QList@VQNetworkAddressEntry@@@@QAEXXZ 004b2ae0 f i ctsrv:ctsrvworker.obj
 0002:00072b20       ?clear@BCINF@ctsrvWorker@RACERMATE@@QAEXXZ 004b2b20 f i ctsrv:ctsrvworker.obj
 0002:00072b60       ?clear@IPrintDialogServices@ctsrvWorker@RACERMATE@@QAEXXZ 004b2b60 f i ctsrv:ctsrvworker.obj
 0002:00072bc0       ?clear_dg@BCINF@ctsrvWorker@RACERMATE@@QAEXXZ 004b2bc0 f i ctsrv:ctsrvworker.obj
 0002:00072be0       ?concrete@?$QHash@VQString@@VBCINF@ctsrvWorker@RACERMATE@@@@CAPAU?$QHashNode@VQString@@VBCINF@ctsrvWorker@RACERMATE@@@@PAUNode@QHashData@@@Z 004b2be0 f i ctsrv:ctsrvworker.obj
 0002:00072bf0       ?concrete@?$QHash@VQString@@VIPrintDialogServices@ctsrvWorker@RACERMATE@@@@CAPAU?$QHashNode@VQString@@VIPrintDialogServices@ctsrvWorker@RACERMATE@@@@PAUNode@QHashData@@@Z 004b2bf0 f i ctsrv:ctsrvworker.obj
 0002:00072c00       ?contains@?$QHash@VQString@@VBCINF@ctsrvWorker@RACERMATE@@@@QBE_NABVQString@@@Z 004b2c00 f i ctsrv:ctsrvworker.obj
 0002:00072c50       ?contains@?$QHash@VQString@@VIPrintDialogServices@ctsrvWorker@RACERMATE@@@@QBE_NABVQString@@@Z 004b2c50 f i ctsrv:ctsrvworker.obj
 0002:00072ca0       ?createNode@?$QHash@VQString@@VBCINF@ctsrvWorker@RACERMATE@@@@AAEPAU?$QHashNode@VQString@@VBCINF@ctsrvWorker@RACERMATE@@@@IABVQString@@ABVBCINF@ctsrvWorker@RACERMATE@@PAPAU2@@Z 004b2ca0 f i ctsrv:ctsrvworker.obj
 0002:00072da0       ?createNode@?$QHash@VQString@@VIPrintDialogServices@ctsrvWorker@RACERMATE@@@@AAEPAU?$QHashNode@VQString@@VIPrintDialogServices@ctsrvWorker@RACERMATE@@@@IABVQString@@ABVIPrintDialogServices@ctsrvWorker@RACERMATE@@PAPAU2@@Z 004b2da0 f i ctsrv:ctsrvworker.obj
 0002:00072ea0       ?dealloc@?$QList@VQNetworkAddressEntry@@@@AAEXPAUData@QListData@@@Z 004b2ea0 f i ctsrv:ctsrvworker.obj
 0002:00072ef0       ?dealloc@?$QList@VQNetworkInterface@@@@AAEXPAUData@QListData@@@Z 004b2ef0 f i ctsrv:ctsrvworker.obj
 0002:00072f40       ?deleteNode2@?$QHash@VQString@@VBCINF@ctsrvWorker@RACERMATE@@@@CAXPAUNode@QHashData@@@Z 004b2f40 f i ctsrv:ctsrvworker.obj
 0002:00072f60       ?deleteNode2@?$QHash@VQString@@VIPrintDialogServices@ctsrvWorker@RACERMATE@@@@CAXPAUNode@QHashData@@@Z 004b2f60 f i ctsrv:ctsrvworker.obj
 0002:00072f80       ?deleteNode@?$QHash@VQString@@PAVUDPClient@RACERMATE@@@@AAEXPAU?$QHashNode@VQString@@PAVUDPClient@RACERMATE@@@@@Z 004b2f80 f i ctsrv:ctsrvworker.obj
 0002:00072fc0       ?detach@?$QHash@VQString@@VBCINF@ctsrvWorker@RACERMATE@@@@QAEXXZ 004b2fc0 f i ctsrv:ctsrvworker.obj
 0002:00072ff0       ?detach@?$QHash@VQString@@VIPrintDialogServices@ctsrvWorker@RACERMATE@@@@QAEXXZ 004b2ff0 f i ctsrv:ctsrvworker.obj
 0002:00073020       ?detach_helper@?$QHash@VQString@@VBCINF@ctsrvWorker@RACERMATE@@@@AAEXXZ 004b3020 f i ctsrv:ctsrvworker.obj
 0002:00073090       ?detach_helper@?$QHash@VQString@@VIPrintDialogServices@ctsrvWorker@RACERMATE@@@@AAEXXZ 004b3090 f i ctsrv:ctsrvworker.obj
 0002:00073100       ?detach_helper_grow@?$QList@VQNetworkAddressEntry@@@@AAEPAUNode@1@HH@Z 004b3100 f i ctsrv:ctsrvworker.obj
 0002:000732e0       ?duplicateNode@?$QHash@VQString@@VBCINF@ctsrvWorker@RACERMATE@@@@CAXPAUNode@QHashData@@PAX@Z 004b32e0 f i ctsrv:ctsrvworker.obj
 0002:000733a0       ?duplicateNode@?$QHash@VQString@@VIPrintDialogServices@ctsrvWorker@RACERMATE@@@@CAXPAUNode@QHashData@@PAX@Z 004b33a0 f i ctsrv:ctsrvworker.obj
 0002:00073460       ?end@?$QHash@VQString@@VBCINF@ctsrvWorker@RACERMATE@@@@QBE?AVconst_iterator@1@XZ 004b3460 f i ctsrv:ctsrvworker.obj
 0002:00073490       ?end@?$QList@VQNetworkAddressEntry@@@@QBE?AVconst_iterator@1@XZ 004b3490 f i ctsrv:ctsrvworker.obj
 0002:000734c0       ?end@?$QList@VQNetworkInterface@@@@QBE?AVconst_iterator@1@XZ 004b34c0 f i ctsrv:ctsrvworker.obj
 0002:000734f0       ?findNode@?$QHash@VQString@@VBCINF@ctsrvWorker@RACERMATE@@@@ABEPAPAU?$QHashNode@VQString@@VBCINF@ctsrvWorker@RACERMATE@@@@ABVQString@@I@Z 004b34f0 f i ctsrv:ctsrvworker.obj
 0002:000735e0       ?findNode@?$QHash@VQString@@VBCINF@ctsrvWorker@RACERMATE@@@@ABEPAPAU?$QHashNode@VQString@@VBCINF@ctsrvWorker@RACERMATE@@@@ABVQString@@PAI@Z 004b35e0 f i ctsrv:ctsrvworker.obj
 0002:00073660       ?findNode@?$QHash@VQString@@VIPrintDialogServices@ctsrvWorker@RACERMATE@@@@ABEPAPAU?$QHashNode@VQString@@VIPrintDialogServices@ctsrvWorker@RACERMATE@@@@ABVQString@@I@Z 004b3660 f i ctsrv:ctsrvworker.obj
 0002:00073750       ?findNode@?$QHash@VQString@@VIPrintDialogServices@ctsrvWorker@RACERMATE@@@@ABEPAPAU?$QHashNode@VQString@@VIPrintDialogServices@ctsrvWorker@RACERMATE@@@@ABVQString@@PAI@Z 004b3750 f i ctsrv:ctsrvworker.obj
 0002:000737d0       ?freeData@?$QHash@VQString@@VBCINF@ctsrvWorker@RACERMATE@@@@AAEXPAUQHashData@@@Z 004b37d0 f i ctsrv:ctsrvworker.obj
 0002:00073800       ?freeData@?$QHash@VQString@@VIPrintDialogServices@ctsrvWorker@RACERMATE@@@@AAEXPAUQHashData@@@Z 004b3800 f i ctsrv:ctsrvworker.obj
 0002:00073830       ?get_rc@SDIRS@RACERMATE@@QBEHXZ 004b3830 f i ctsrv:ctsrvworker.obj
 0002:00073850       ?isEmpty@?$QHash@VQString@@PAVUDPClient@RACERMATE@@@@QBE_NXZ 004b3850 f i ctsrv:ctsrvworker.obj
 0002:00073890       ?key@const_iterator@?$QHash@VQString@@VBCINF@ctsrvWorker@RACERMATE@@@@QBEABVQString@@XZ 004b3890 f i ctsrv:ctsrvworker.obj
 0002:000738c0       ?keys@?$QHash@VQString@@VBCINF@ctsrvWorker@RACERMATE@@@@QBE?AV?$QList@VQString@@@@XZ 004b38c0 f i ctsrv:ctsrvworker.obj
 0002:000739c0       ?node_construct@?$QList@VQNetworkAddressEntry@@@@AAEXPAUNode@1@ABVQNetworkAddressEntry@@@Z 004b39c0 f i ctsrv:ctsrvworker.obj
 0002:00073ae0       ?node_copy@?$QList@VQNetworkAddressEntry@@@@AAEXPAUNode@1@00@Z 004b3ae0 f i ctsrv:ctsrvworker.obj
 0002:00073d90       ?node_copy@?$QList@VQNetworkInterface@@@@AAEXPAUNode@1@00@Z 004b3d90 f i ctsrv:ctsrvworker.obj
 0002:00074040       ?node_destruct@?$QList@VQNetworkAddressEntry@@@@AAEXPAUNode@1@0@Z 004b4040 f i ctsrv:ctsrvworker.obj
 0002:000740e0       ?node_destruct@?$QList@VQNetworkAddressEntry@@@@AAEXPAUNode@1@@Z 004b40e0 f i ctsrv:ctsrvworker.obj
 0002:00074150       ?node_destruct@?$QList@VQNetworkInterface@@@@AAEXPAUNode@1@0@Z 004b4150 f i ctsrv:ctsrvworker.obj
 0002:000741f0       ?remove@?$QHash@VQString@@PAVUDPClient@RACERMATE@@@@QAEHABVQString@@@Z 004b41f0 f i ctsrv:ctsrvworker.obj
 0002:00074320       ?same_key@?$QHashNode@VQString@@VBCINF@ctsrvWorker@RACERMATE@@@@QBE_NIABVQString@@@Z 004b4320 f i ctsrv:ctsrvworker.obj
 0002:00074380       ?same_key@?$QHashNode@VQString@@VIPrintDialogServices@ctsrvWorker@RACERMATE@@@@QBE_NIABVQString@@@Z 004b4380 f i ctsrv:ctsrvworker.obj
 0002:000743e0       ?setdbg@Tmr@RACERMATE@@QAEXXZ 004b43e0 f i ctsrv:ctsrvworker.obj
 0002:00074400       ?size@?$QHash@VQString@@VBCINF@ctsrvWorker@RACERMATE@@@@QBEHXZ 004b4400 f i ctsrv:ctsrvworker.obj
 0002:00074420       ?size@?$QHash@VQString@@VIPrintDialogServices@ctsrvWorker@RACERMATE@@@@QBEHXZ 004b4420 f i ctsrv:ctsrvworker.obj
 0002:00074440       ?swap@?$QHash@VQString@@PAVUDPClient@RACERMATE@@@@QAEXAAV1@@Z 004b4440 f i ctsrv:ctsrvworker.obj
 0002:00074470       ?swap@?$QHash@VQString@@VBCINF@ctsrvWorker@RACERMATE@@@@QAEXAAV1@@Z 004b4470 f i ctsrv:ctsrvworker.obj
 0002:000744a0       ?swap@?$QList@VQNetworkAddressEntry@@@@QAEXAAV1@@Z 004b44a0 f i ctsrv:ctsrvworker.obj
 0002:000744d0       ?t@Node@?$QList@VQNetworkAddressEntry@@@@QAEAAVQNetworkAddressEntry@@XZ 004b44d0 f i ctsrv:ctsrvworker.obj
 0002:00074500       ?t@Node@?$QList@VQNetworkInterface@@@@QAEAAVQNetworkInterface@@XZ 004b4500 f i ctsrv:ctsrvworker.obj
 0002:00074530       ?testFlag@?$QFlags@W4InterfaceFlag@QNetworkInterface@@@@QBE_NW4InterfaceFlag@QNetworkInterface@@@Z 004b4530 f i ctsrv:ctsrvworker.obj
 0002:00074580       ?value@?$QHash@VQString@@PAVUDPClient@RACERMATE@@@@QBEQAVUDPClient@RACERMATE@@ABVQString@@@Z 004b4580 f i ctsrv:ctsrvworker.obj
 0002:000745e0       ?metaObject@UDPClient@RACERMATE@@UBEPBUQMetaObject@@XZ 004b45e0 f   ctsrv:moc_udp_client.obj
 0002:00074620       ?qt_metacast@UDPClient@RACERMATE@@UAEPAXPBD@Z 004b4620 f   ctsrv:moc_udp_client.obj
 0002:00074660       ?qt_metacall@UDPClient@RACERMATE@@UAEHW4Call@QMetaObject@@HPAPAX@Z 004b4660 f   ctsrv:moc_udp_client.obj
 0002:000746f0       ?qt_static_metacall@UDPClient@RACERMATE@@CAXPAVQObject@@W4Call@QMetaObject@@HPAPAX@Z 004b46f0 f   ctsrv:moc_udp_client.obj
 0002:00074940       ?connected_to_trainer_signal@UDPClient@RACERMATE@@QAEXVQString@@_N@Z 004b4940 f   ctsrv:moc_udp_client.obj
 0002:000749d0       ?ctlmsg_signal@UDPClient@RACERMATE@@QAEXVQString@@PAEH@Z 004b49d0 f   ctsrv:moc_udp_client.obj
 0002:00074a60       ?data_signal@UDPClient@RACERMATE@@QAEXVQString@@PAVQT_DATA@2@@Z 004b4a60 f   ctsrv:moc_udp_client.obj
 0002:00074af0       ?ss_signal@UDPClient@RACERMATE@@QAEXVQString@@PAVSSD@qt_SS@2@@Z 004b4af0 f   ctsrv:moc_udp_client.obj
 0002:00074b80       ?rescale_signal@UDPClient@RACERMATE@@QAEHVQString@@H@Z 004b4b80 f   ctsrv:moc_udp_client.obj
 0002:00074de0       ?metaObject@ctsrvWorker@RACERMATE@@UBEPBUQMetaObject@@XZ 004b4de0 f   ctsrv:moc_ctsrvworker.obj
 0002:00074e20       ?qt_metacast@ctsrvWorker@RACERMATE@@UAEPAXPBD@Z 004b4e20 f   ctsrv:moc_ctsrvworker.obj
 0002:00074e60       ?qt_metacall@ctsrvWorker@RACERMATE@@UAEHW4Call@QMetaObject@@HPAPAX@Z 004b4e60 f   ctsrv:moc_ctsrvworker.obj
 0002:00074ef0       ?qt_static_metacall@ctsrvWorker@RACERMATE@@CAXPAVQObject@@W4Call@QMetaObject@@HPAPAX@Z 004b4ef0 f   ctsrv:moc_ctsrvworker.obj
 0002:00075210       ?finished@ctsrvWorker@RACERMATE@@QAEXXZ 004b5210 f   ctsrv:moc_ctsrvworker.obj
 0002:00075240       ?resultReady@ctsrvWorker@RACERMATE@@QAEXABVQString@@@Z 004b5240 f   ctsrv:moc_ctsrvworker.obj
 0002:00075280       ?connected_to_trainer_signal@ctsrvWorker@RACERMATE@@QAEXVQString@@_N@Z 004b5280 f   ctsrv:moc_ctsrvworker.obj
 0002:00075310       ?data_signal@ctsrvWorker@RACERMATE@@QAEXVQString@@PAVQT_DATA@2@@Z 004b5310 f   ctsrv:moc_ctsrvworker.obj
 0002:000753a0       ?ss_signal@ctsrvWorker@RACERMATE@@QAEXVQString@@PAVSSD@qt_SS@2@@Z 004b53a0 f   ctsrv:moc_ctsrvworker.obj
 0002:00075430       ?rescale_signal@ctsrvWorker@RACERMATE@@QAEXVQString@@H@Z 004b5430 f   ctsrv:moc_ctsrvworker.obj
 0002:00075696       _get_udpkey                004b5696 f   racermate:racermate.dll
 0002:0007569c       _get_errstr                004b569c f   racermate:racermate.dll
 0002:000756a2       _GetTrainerData            004b56a2 f   racermate:racermate.dll
 0002:000756a8       _get_ss_data               004b56a8 f   racermate:racermate.dll
 0002:000756ae       _GetRacerMateDeviceID      004b56ae f   racermate:racermate.dll
 0002:000756b4       _GetFirmWareVersion        004b56b4 f   racermate:racermate.dll
 0002:000756ba       _get_status_bits           004b56ba f   racermate:racermate.dll
 0002:000756c0       _SetSlope                  004b56c0 f   racermate:racermate.dll
 0002:000756c6       _GetCalibration            004b56c6 f   racermate:racermate.dll
 0002:000756cc       _get_average_bars          004b56cc f   racermate:racermate.dll
 0002:000756d2       _setPause                  004b56d2 f   racermate:racermate.dll
 0002:000756d8       _stopTrainer               004b56d8 f   racermate:racermate.dll
 0002:000756de       _ResettoIdle               004b56de f   racermate:racermate.dll
 0002:000756e4       _Setlogfilepath            004b56e4 f   racermate:racermate.dll
 0002:000756ea       _Enablelogs                004b56ea f   racermate:racermate.dll
 0002:000756f0       _get_dll_version           004b56f0 f   racermate:racermate.dll
 0002:000756f6       _GetAPIVersion             004b56f6 f   racermate:racermate.dll
 0002:000756fc       _get_build_date            004b56fc f   racermate:racermate.dll
 0002:00075702       _racermate_init            004b5702 f   racermate:racermate.dll
 0002:00075708       _start_server              004b5708 f   racermate:racermate.dll
 0002:0007570e       _start_ant                 004b570e f   racermate:racermate.dll
 0002:00075714       _stop_ant                  004b5714 f   racermate:racermate.dll
 0002:0007571a       _get_ant_sensors_string    004b571a f   racermate:racermate.dll
 0002:00075720       _get_ant_sensors           004b5720 f   racermate:racermate.dll
 0002:00075726       _get_ant_hr                004b5726 f   racermate:racermate.dll
 0002:0007572c       _associate                 004b572c f   racermate:racermate.dll
 0002:00075732       _unassociate               004b5732 f   racermate:racermate.dll
 0002:00075738       _stop_server               004b5738 f   racermate:racermate.dll
 0002:0007573e       _racermate_close           004b573e f   racermate:racermate.dll
 0002:00075744       _get_rs232_ports           004b5744 f   racermate:racermate.dll
 0002:0007574a       _get_udp_trainers          004b574a f   racermate:racermate.dll
 0002:00075750       _getPortNames              004b5750 f   racermate:racermate.dll
 0002:00075756       _get_n_udp_clients         004b5756 f   racermate:racermate.dll
 0002:0007575c       _get_n_devices             004b575c f   racermate:racermate.dll
 0002:00075762       _GetHandleBarButtons       004b5762 f   racermate:racermate.dll
 0002:00075768       _SetErgModeLoad            004b5768 f   racermate:racermate.dll
 0002:0007576e       _SetRecalibrationMode      004b576e f   racermate:racermate.dll
 0002:00075774       _EndRecalibrationMode      004b5774 f   racermate:racermate.dll
 0002:0007577a       _GetCurrentVTGear          004b577a f   racermate:racermate.dll
 0002:00075780       _setGear                   004b5780 f   racermate:racermate.dll
 0002:00075786       _get_bars                  004b5786 f   racermate:racermate.dll
 0002:0007578c       _get_comstats              004b578c f   racermate:racermate.dll
 0002:00075792       _ResetAlltoIdle            004b5792 f   racermate:racermate.dll
 0002:00075798       _set_wind                  004b5798 f   racermate:racermate.dll
 0002:0007579e       _set_draftwind             004b579e f   racermate:racermate.dll
 0002:000757a4       _set_ftp                   004b57a4 f   racermate:racermate.dll
 0002:000757aa       _get_np                    004b57aa f   racermate:racermate.dll
 0002:000757b0       _get_if                    004b57b0 f   racermate:racermate.dll
 0002:000757b6       _get_tss                   004b57b6 f   racermate:racermate.dll
 0002:000757bc       _calc_tp                   004b57bc f   racermate:racermate.dll
 0002:000757c2       ??0ANT@RACERMATE@@QAE@PAVQObject@@@Z 004b57c2 f   racermate:racermate.dll
 0002:000757c8       ?check_maps@@YAHPBD@Z      004b57c8 f   racermate:racermate.dll
 0002:000757ce       _startTrainer              004b57ce f   racermate:racermate.dll
 0002:000757d4       _GetIsCalibrated           004b57d4 f   racermate:racermate.dll
 0002:000757da       _resetTrainer              004b57da f   racermate:racermate.dll
 0002:000757e0       _ResetAverages             004b57e0 f   racermate:racermate.dll
 0002:000757e6       _SetHRBeepBounds           004b57e6 f   racermate:racermate.dll
 0002:000757ec       _SetVelotronParameters     004b57ec f   racermate:racermate.dll
 0002:000757f2       ??0LPFilter@@QAE@H@Z       004b57f2 f   racermate:racermate.dll
 0002:000757f8       ?calc@LPFilter@@QAENNH@Z   004b57f8 f   racermate:racermate.dll
 0002:000757fe       ?setfval@LPFilter@@QAEXN@Z 004b57fe f   racermate:racermate.dll
 0002:00075810       ?metaObject@ANT@RACERMATE@@UBEPBUQMetaObject@@XZ 004b5810 f   rmant:moc_ant.obj
 0002:00075850       ?qt_metacast@ANT@RACERMATE@@UAEPAXPBD@Z 004b5850 f   rmant:moc_ant.obj
 0002:00075890       ?qt_metacall@ANT@RACERMATE@@UAEHW4Call@QMetaObject@@HPAPAX@Z 004b5890 f   rmant:moc_ant.obj
 0002:000758d0       ?qt_static_metacall@ANT@RACERMATE@@CAXPAVQObject@@W4Call@QMetaObject@@HPAPAX@Z 004b58d0 f   rmant:moc_ant.obj
 0002:00075906       _GetCurrentDirectoryA@8    004b5906 f   kernel32:KERNEL32.dll
 0002:0007590c       _Sleep@4                   004b590c f   kernel32:KERNEL32.dll
 0002:00075912       _GetPrivateProfileStringA@24 004b5912 f   kernel32:KERNEL32.dll
 0002:00075918       _WritePrivateProfileStringA@16 004b5918 f   kernel32:KERNEL32.dll
 0002:0007591e       _CopyFileA@12              004b591e f   kernel32:KERNEL32.dll
 0002:00075924       _OutputDebugStringA@4      004b5924 f   kernel32:KERNEL32.dll
 0002:0007592a       _QueryPerformanceCounter@4 004b592a f   kernel32:KERNEL32.dll
 0002:00075930       _QueryPerformanceFrequency@4 004b5930 f   kernel32:KERNEL32.dll
 0002:00075936       _GetLocalTime@4            004b5936 f   kernel32:KERNEL32.dll
 0002:0007593c       _SetCurrentDirectoryA@4    004b593c f   kernel32:KERNEL32.dll
 0002:00075942       _CreateDirectoryA@8        004b5942 f   kernel32:KERNEL32.dll
 0002:00075948       _DeleteFileA@4             004b5948 f   kernel32:KERNEL32.dll
 0002:0007594e       _FindClose@4               004b594e f   kernel32:KERNEL32.dll
 0002:00075954       _FindFirstFileA@8          004b5954 f   kernel32:KERNEL32.dll
 0002:0007595a       _FindNextFileA@8           004b595a f   kernel32:KERNEL32.dll
 0002:00075960       _CreateFileA@28            004b5960 f   kernel32:KERNEL32.dll
 0002:00075966       _FlushFileBuffers@4        004b5966 f   kernel32:KERNEL32.dll
 0002:0007596c       _ReadFile@20               004b596c f   kernel32:KERNEL32.dll
 0002:00075972       _WriteFile@20              004b5972 f   kernel32:KERNEL32.dll
 0002:00075978       _CloseHandle@4             004b5978 f   kernel32:KERNEL32.dll
 0002:0007597e       _GetHandleInformation@8    004b597e f   kernel32:KERNEL32.dll
 0002:00075984       _GetLastError@0            004b5984 f   kernel32:KERNEL32.dll
 0002:0007598a       _HeapValidate@12           004b598a f   kernel32:KERNEL32.dll
 0002:00075990       _GetProcessHeap@0          004b5990 f   kernel32:KERNEL32.dll
 0002:00075996       _GetOverlappedResult@16    004b5996 f   kernel32:KERNEL32.dll
 0002:0007599c       _SetEvent@4                004b599c f   kernel32:KERNEL32.dll
 0002:000759a2       _ResetEvent@4              004b59a2 f   kernel32:KERNEL32.dll
 0002:000759a8       _WaitForSingleObject@8     004b59a8 f   kernel32:KERNEL32.dll
 0002:000759ae       _CreateEventA@16           004b59ae f   kernel32:KERNEL32.dll
 0002:000759b4       _WaitForMultipleObjects@16 004b59b4 f   kernel32:KERNEL32.dll
 0002:000759ba       _ClearCommError@12         004b59ba f   kernel32:KERNEL32.dll
 0002:000759c0       _SetupComm@12              004b59c0 f   kernel32:KERNEL32.dll
 0002:000759c6       _EscapeCommFunction@8      004b59c6 f   kernel32:KERNEL32.dll
 0002:000759cc       _GetCommTimeouts@8         004b59cc f   kernel32:KERNEL32.dll
 0002:000759d2       _PurgeComm@8               004b59d2 f   kernel32:KERNEL32.dll
 0002:000759d8       _SetCommMask@8             004b59d8 f   kernel32:KERNEL32.dll
 0002:000759de       _SetCommState@8            004b59de f   kernel32:KERNEL32.dll
 0002:000759e4       _SetCommTimeouts@8         004b59e4 f   kernel32:KERNEL32.dll
 0002:000759ea       _WaitCommEvent@12          004b59ea f   kernel32:KERNEL32.dll
 0002:000759f0       _FormatMessageA@28         004b59f0 f   kernel32:KERNEL32.dll
 0002:000759f6       _BuildCommDCBA@8           004b59f6 f   kernel32:KERNEL32.dll
 0002:000759fc       _FileTimeToLocalFileTime@8 004b59fc f   kernel32:KERNEL32.dll
 0002:00075a02       _GetFileAttributesA@4      004b5a02 f   kernel32:KERNEL32.dll
 0002:00075a08       _GetFileSize@8             004b5a08 f   kernel32:KERNEL32.dll
 0002:00075a0e       _GetFullPathNameA@16       004b5a0e f   kernel32:KERNEL32.dll
 0002:00075a14       _SetFileAttributesA@8      004b5a14 f   kernel32:KERNEL32.dll
 0002:00075a1a       _Beep@8                    004b5a1a f   kernel32:KERNEL32.dll
 0002:00075a20       _GetSystemTimeAsFileTime@4 004b5a20 f   kernel32:KERNEL32.dll
 0002:00075a26       _GetSystemInfo@4           004b5a26 f   kernel32:KERNEL32.dll
 0002:00075a2c       _GetWindowsDirectoryA@8    004b5a2c f   kernel32:KERNEL32.dll
 0002:00075a32       _GetVersionExA@4           004b5a32 f   kernel32:KERNEL32.dll
 0002:00075a38       _GlobalAlloc@8             004b5a38 f   kernel32:KERNEL32.dll
 0002:00075a3e       _GlobalReAlloc@12          004b5a3e f   kernel32:KERNEL32.dll
 0002:00075a44       _GlobalLock@4              004b5a44 f   kernel32:KERNEL32.dll
 0002:00075a4a       _GlobalUnlock@4            004b5a4a f   kernel32:KERNEL32.dll
 0002:00075a50       _GlobalFree@4              004b5a50 f   kernel32:KERNEL32.dll
 0002:00075a56       _GlobalMemoryStatus@4      004b5a56 f   kernel32:KERNEL32.dll
 0002:00075a5c       _MulDiv@12                 004b5a5c f   kernel32:KERNEL32.dll
 0002:00075a62       _lstrlenA@4                004b5a62 f   kernel32:KERNEL32.dll
 0002:00075a68       __lopen@8                  004b5a68 f   kernel32:KERNEL32.dll
 0002:00075a6e       __lclose@4                 004b5a6e f   kernel32:KERNEL32.dll
 0002:00075a74       _FileTimeToSystemTime@8    004b5a74 f   kernel32:KERNEL32.dll
 0002:00075a7a       _MultiByteToWideChar@24    004b5a7a f   kernel32:KERNEL32.dll
 0002:00075a80       _WideCharToMultiByte@32    004b5a80 f   kernel32:KERNEL32.dll
 0002:00075a86       _GetACP@0                  004b5a86 f   kernel32:KERNEL32.dll
 0002:00075a8c       _LocalFree@4               004b5a8c f   kernel32:KERNEL32.dll
 0002:00075a92       _GetActiveWindow@0         004b5a92 f   user32:USER32.dll
 0002:00075a98       _MessageBoxA@16            004b5a98 f   user32:USER32.dll
 0002:00075a9e       _MoveWindow@24             004b5a9e f   user32:USER32.dll
 0002:00075aa4       _SetWindowPos@28           004b5aa4 f   user32:USER32.dll
 0002:00075aaa       _GetSystemMetrics@4        004b5aaa f   user32:USER32.dll
 0002:00075ab0       _GetMenu@4                 004b5ab0 f   user32:USER32.dll
 0002:00075ab6       _UpdateWindow@4            004b5ab6 f   user32:USER32.dll
 0002:00075abc       _InvalidateRect@12         004b5abc f   user32:USER32.dll
 0002:00075ac2       _GetClientRect@8           004b5ac2 f   user32:USER32.dll
 0002:00075ac8       _GetWindowRect@8           004b5ac8 f   user32:USER32.dll
 0002:00075ace       _AdjustWindowRectEx@16     004b5ace f   user32:USER32.dll
 0002:00075ad4       _ShowCursor@4              004b5ad4 f   user32:USER32.dll
 0002:00075ada       _SetRect@20                004b5ada f   user32:USER32.dll
 0002:00075ae0       _CopyRect@8                004b5ae0 f   user32:USER32.dll
 0002:00075ae6       _GetWindowLongA@8          004b5ae6 f   user32:USER32.dll
 0002:00075aec       _FindWindowA@8             004b5aec f   user32:USER32.dll
 0002:00075af2       _LoadImageA@24             004b5af2 f   user32:USER32.dll
 0002:00075af8       _Arc@36                    004b5af8 f   gdi32:GDI32.dll
 0002:00075afe       _BitBlt@36                 004b5afe f   gdi32:GDI32.dll
 0002:00075b04       _CombineRgn@16             004b5b04 f   gdi32:GDI32.dll
 0002:00075b0a       _CreateBitmap@20           004b5b0a f   gdi32:GDI32.dll
 0002:00075b10       _CreateCompatibleBitmap@12 004b5b10 f   gdi32:GDI32.dll
 0002:00075b16       _CreateCompatibleDC@4      004b5b16 f   gdi32:GDI32.dll
 0002:00075b1c       _CreateFontA@56            004b5b1c f   gdi32:GDI32.dll
 0002:00075b22       _CreatePen@12              004b5b22 f   gdi32:GDI32.dll
 0002:00075b28       _CreateSolidBrush@4        004b5b28 f   gdi32:GDI32.dll
 0002:00075b2e       _DeleteDC@4                004b5b2e f   gdi32:GDI32.dll
 0002:00075b34       _DeleteObject@4            004b5b34 f   gdi32:GDI32.dll
 0002:00075b3a       _Ellipse@20                004b5b3a f   gdi32:GDI32.dll
 0002:00075b40       _ExtCreateRegion@12        004b5b40 f   gdi32:GDI32.dll
 0002:00075b46       _ExtFloodFill@20           004b5b46 f   gdi32:GDI32.dll
 0002:00075b4c       _GetDeviceCaps@8           004b5b4c f   gdi32:GDI32.dll
 0002:00075b52       _GetTextExtentPoint32A@16  004b5b52 f   gdi32:GDI32.dll
 0002:00075b58       _LineTo@12                 004b5b58 f   gdi32:GDI32.dll
 0002:00075b5e       _ResetDCA@8                004b5b5e f   gdi32:GDI32.dll
 0002:00075b64       _SelectObject@8            004b5b64 f   gdi32:GDI32.dll
 0002:00075b6a       _SetBkColor@8              004b5b6a f   gdi32:GDI32.dll
 0002:00075b70       _StretchBlt@44             004b5b70 f   gdi32:GDI32.dll
 0002:00075b76       _CreateDIBSection@24       004b5b76 f   gdi32:GDI32.dll
 0002:00075b7c       _StartDocA@8               004b5b7c f   gdi32:GDI32.dll
 0002:00075b82       _EndDoc@4                  004b5b82 f   gdi32:GDI32.dll
 0002:00075b88       _StartPage@4               004b5b88 f   gdi32:GDI32.dll
 0002:00075b8e       _EndPage@4                 004b5b8e f   gdi32:GDI32.dll
 0002:00075b94       _GetObjectA@12             004b5b94 f   gdi32:GDI32.dll
 0002:00075b9a       _MoveToEx@16               004b5b9a f   gdi32:GDI32.dll
 0002:00075ba0       _TextOutA@20               004b5ba0 f   gdi32:GDI32.dll
 0002:00075ba6       _Escape@20                 004b5ba6 f   gdi32:GDI32.dll
 0002:00075bac       _StretchDIBits@52          004b5bac f   gdi32:GDI32.dll
 0002:00075bb2       _ChooseColorA@4            004b5bb2 f   comdlg32:COMDLG32.dll
 0002:00075bb8       _PrintDlgA@4               004b5bb8 f   comdlg32:COMDLG32.dll
 0002:00075bbe       _CommDlgExtendedError@0    004b5bbe f   comdlg32:COMDLG32.dll
 0002:00075bc4       _RegCloseKey@4             004b5bc4 f   advapi32:ADVAPI32.dll
 0002:00075bca       _RegOpenKeyExA@20          004b5bca f   advapi32:ADVAPI32.dll
 0002:00075bd0       _RegQueryValueExA@24       004b5bd0 f   advapi32:ADVAPI32.dll
 0002:00075bd6       _SHFileOperationA@4        004b5bd6 f   shell32:SHELL32.dll
 0002:00075bdc       _SHGetFolderPathW@20       004b5bdc f   shell32:SHELL32.dll
 0002:00075be2       ??0_Lockit@std@@QAE@H@Z    004b5be2 f   msvcprtd:MSVCP140D.dll
 0002:00075be8       ??1_Lockit@std@@QAE@XZ     004b5be8 f   msvcprtd:MSVCP140D.dll
 0002:00075bee       ?_Debug_message@std@@YAXPB_W0I@Z 004b5bee f   msvcprtd:MSVCP140D.dll
 0002:00075bf4       ?_Xbad_alloc@std@@YAXXZ    004b5bf4 f   msvcprtd:MSVCP140D.dll
 0002:00075bfa       ?_Xlength_error@std@@YAXPBD@Z 004b5bfa f   msvcprtd:MSVCP140D.dll
 0002:00075c00       ?_Xout_of_range@std@@YAXPBD@Z 004b5c00 f   msvcprtd:MSVCP140D.dll
 0002:00075c10       ??_M@YGXPAXIHP6EX0@Z@Z     004b5c10 f   MSVCRTD:ehvecdtr.obj
 0002:00075c40       ??_M@YGXPAXIIP6EX0@Z@Z     004b5c40 f   MSVCRTD:ehvecdtr.obj
 0002:00075d70       ?__ArrayUnwind@@YGXPAXIIP6EX0@Z@Z 004b5d70 f   MSVCRTD:ehvecdtr.obj
 0002:00075e40       ??2@YAPAXI@Z               004b5e40 f   MSVCRTD:new_scalar.obj
 0002:00075ea0       ??3@YAXPAX@Z               004b5ea0 f   MSVCRTD:delete_scalar.obj
 0002:00075ec0       ??3@YAXPAXI@Z              004b5ec0 f   MSVCRTD:delete_scalar_size.obj
 0002:00075ee0       ??_U@YAPAXI@Z              004b5ee0 f   MSVCRTD:new_array.obj
 0002:00075f00       ??_V@YAXPAX@Z              004b5f00 f   MSVCRTD:delete_array.obj
 0002:00075f20       ??_V@YAXPAXI@Z             004b5f20 f   MSVCRTD:delete_array_size.obj
 0002:00075f40       ??$__crt_fast_decode_pointer@PAP6AXXZ@@YAPAP6AXXZQAP6AXXZ@Z 004b5f40 f i MSVCRTD:utility.obj
 0002:00075f70       ??$__crt_fast_encode_pointer@PAP6AXXZ@@YAPAP6AXXZQAP6AXXZ@Z 004b5f70 f i MSVCRTD:utility.obj
 0002:00075fb0       ?__crt_rotate_pointer_value@@YAIIH@Z 004b5fb0 f i MSVCRTD:utility.obj
 0002:00075fc0       ?configure_argv@__scrt_narrow_argv_policy@@SAHXZ 004b5fc0 f i MSVCRTD:utility.obj
 0002:00076120       _NtCurrentTeb              004b6120 f i MSVCRTD:utility.obj
 0002:00076130       ___scrt_acquire_startup_lock 004b6130 f   MSVCRTD:utility.obj
 0002:00076190       ___scrt_dllmain_after_initialize_c 004b6190 f   MSVCRTD:utility.obj
 0002:000761d0       ___scrt_dllmain_before_initialize_c 004b61d0 f   MSVCRTD:utility.obj
 0002:00076200       ___scrt_dllmain_crt_thread_attach 004b6200 f   MSVCRTD:utility.obj
 0002:00076240       ___scrt_dllmain_crt_thread_detach 004b6240 f   MSVCRTD:utility.obj
 0002:00076260       ___scrt_dllmain_exception_filter 004b6260 f   MSVCRTD:utility.obj
 0002:000762c0       ___scrt_dllmain_uninitialize_c 004b62c0 f   MSVCRTD:utility.obj
 0002:00076300       ___scrt_dllmain_uninitialize_critical 004b6300 f   MSVCRTD:utility.obj
 0002:00076320       ___scrt_initialize_crt     004b6320 f   MSVCRTD:utility.obj
 0002:00076380       ___scrt_initialize_onexit_tables 004b6380 f   MSVCRTD:utility.obj
 0002:00076480       ___scrt_is_nonwritable_in_current_image 004b6480 f   MSVCRTD:utility.obj
 0002:00076600       ___scrt_release_startup_lock 004b6600 f   MSVCRTD:utility.obj
 0002:00076630       ___scrt_uninitialize_crt   004b6630 f   MSVCRTD:utility.obj
 0002:00076680       __onexit                   004b6680 f   MSVCRTD:utility.obj
 0002:00076710       _at_quick_exit             004b6710 f   MSVCRTD:utility.obj
 0002:00076770       _atexit                    004b6770 f   MSVCRTD:utility.obj
 0002:000767b0       ___raise_securityfailure   004b67b0 f   MSVCRTD:gs_report.obj
 0002:000767f0       ___report_gsfailure        004b67f0 f   MSVCRTD:gs_report.obj
 0002:00076940       ___report_rangecheckfailure 004b6940 f   MSVCRTD:gs_report.obj
 0002:00076950       ___report_securityfailure  004b6950 f   MSVCRTD:gs_report.obj
 0002:00076a60       ___report_securityfailureEx 004b6a60 f   MSVCRTD:gs_report.obj
 0002:00076bd0       @_RTC_AllocaHelper@12      004b6bd0 f   MSVCRTD:_stack_.obj
 0002:00076c10       @_RTC_CheckStackVars2@12   004b6c10 f   MSVCRTD:_stack_.obj
 0002:00076d20       @_RTC_CheckStackVars@8     004b6d20 f   MSVCRTD:_stack_.obj
 0002:00076d90       __RTC_CheckEsp             004b6d90 f   MSVCRTD:_stack_.obj
 0002:00076dd0       @__security_check_cookie@4 004b6dd0 f   MSVCRTD:_secchk_.obj
 0002:00076df0       __CRT_RTC_INIT             004b6df0 f   MSVCRTD:_init_.obj
 0002:00076e00       __CRT_RTC_INITW            004b6e00 f   MSVCRTD:_init_.obj
 0002:00076e10       __RTC_InitBase             004b6e10 f   MSVCRTD:_init_.obj
 0002:00076e50       __RTC_Shutdown             004b6e50 f   MSVCRTD:_init_.obj
 0002:00077010       ?_RTC_AllocaFailure@@YAXPAXPAU_RTC_ALLOCA_NODE@@H@Z 004b7010 f   MSVCRTD:_error_.obj
 0002:00077180       ?_RTC_Failure@@YAXPAXH@Z   004b7180 f   MSVCRTD:_error_.obj
 0002:000771f0       ?_RTC_StackFailure@@YAXPAXPBD@Z 004b71f0 f   MSVCRTD:_error_.obj
 0002:00077660       __RTC_UninitUse            004b7660 f   MSVCRTD:_error_.obj
 0002:00077790       __vsprintf_s_l             004b7790 f i MSVCRTD:_error_.obj
 0002:000777d0       _sprintf_s                 004b77d0 f i MSVCRTD:_error_.obj
 0002:00077800       __chkstk                   004b7800 f   MSVCRTD:chkstk.obj
 0002:00077800       __alloca_probe             004b7800 f   MSVCRTD:chkstk.obj
 0002:00077840       ??1type_info@@UAE@XZ       004b7840 f   MSVCRTD:std_type_info_static.obj
 0002:00077860       ??_Etype_info@@UAEPAXI@Z   004b7860 f i MSVCRTD:std_type_info_static.obj
 0002:00077860       ??_Gtype_info@@UAEPAXI@Z   004b7860 f i MSVCRTD:std_type_info_static.obj
 0002:00077c90       ?get_app_type@__scrt_main_policy@@SA?AW4_crt_app_type@@XZ 004b7c90 f i MSVCRTD:exe_main.obj
 0002:00077ce0       _mainCRTStartup            004b7ce0 f   MSVCRTD:exe_main.obj
 0002:00077cf0       __ftoui3                   004b7cf0 f   MSVCRTD:_ftol3_.obj
 0002:00077cff       __ftoul3                   004b7cff f   MSVCRTD:_ftol3_.obj
 0002:00077d0e       __ftol3                    004b7d0e f   MSVCRTD:_ftol3_.obj
 0002:00077d1b       __ftol3_NaN                004b7d1b f   MSVCRTD:_ftol3_.obj
 0002:00077d33       __ftol3_work               004b7d33 f   MSVCRTD:_ftol3_.obj
 0002:00077db9       __ftol3_common             004b7db9 f   MSVCRTD:_ftol3_.obj
 0002:00077e7b       __ftol3_arg_error          004b7e7b f   MSVCRTD:_ftol3_.obj
 0002:00077e8d       __ftol3_except             004b7e8d f   MSVCRTD:_ftol3_.obj
 0002:00077ed1       __dtoui3                   004b7ed1 f   MSVCRTD:_ftol3_.obj
 0002:00077ee0       __dtoul3                   004b7ee0 f   MSVCRTD:_ftol3_.obj
 0002:00077eef       __dtol3                    004b7eef f   MSVCRTD:_ftol3_.obj
 0002:00077efc       __dtol3_NaN                004b7efc f   MSVCRTD:_ftol3_.obj
 0002:00077f19       __dtol3_work               004b7f19 f   MSVCRTD:_ftol3_.obj
 0002:00078000       __ultod3                   004b8000 f   MSVCRTD:_ftol3_.obj
 0002:00078040       __ltod3                    004b8040 f   MSVCRTD:_ftol3_.obj
 0002:00078150       __allshl                   004b8150 f   MSVCRTD:llshl.obj
 0002:00078180       __aulldiv                  004b8180 f   MSVCRTD:ulldiv.obj
 0002:00078210       __aullrem                  004b8210 f   MSVCRTD:ullrem.obj
 0002:000782b0       __ftol2_sse                004b82b0 f   MSVCRTD:_ftol2_.obj
 0002:000782b9       __ftol2_pentium4           004b82b9 f   MSVCRTD:_ftol2_.obj
 0002:000782cc       __ftol2_sse_excpt          004b82cc f   MSVCRTD:_ftol2_.obj
 0002:000782f0       __ftol2                    004b82f0 f   MSVCRTD:_ftol2_.obj
 0002:000784e0       ??$__crt_fast_decode_pointer@P6GHPAU_RTL_CONDITION_VARIABLE@@PAU_RTL_CRITICAL_SECTION@@K@Z@@YAP6GHPAU_RTL_CONDITION_VARIABLE@@PAU_RTL_CRITICAL_SECTION@@K@ZQ6GH01K@Z@Z 004b84e0 f i MSVCRTD:thread_safe_statics.obj
 0002:00078510       ??$__crt_fast_decode_pointer@P6GXPAU_RTL_CONDITION_VARIABLE@@@Z@@YAP6GXPAU_RTL_CONDITION_VARIABLE@@@ZQ6GX0@Z@Z 004b8510 f i MSVCRTD:thread_safe_statics.obj
 0002:00078540       ??$__crt_fast_encode_pointer@P6GHPAU_RTL_CONDITION_VARIABLE@@PAU_RTL_CRITICAL_SECTION@@K@Z@@YAP6GHPAU_RTL_CONDITION_VARIABLE@@PAU_RTL_CRITICAL_SECTION@@K@ZQ6GH01K@Z@Z 004b8540 f i MSVCRTD:thread_safe_statics.obj
 0002:00078580       ??$__crt_fast_encode_pointer@P6GXPAU_RTL_CONDITION_VARIABLE@@@Z@@YAP6GXPAU_RTL_CONDITION_VARIABLE@@@ZQ6GX0@Z@Z 004b8580 f i MSVCRTD:thread_safe_statics.obj
 0002:000785f0       __Init_thread_abort        004b85f0 f   MSVCRTD:thread_safe_statics.obj
 0002:00078620       __Init_thread_footer       004b8620 f   MSVCRTD:thread_safe_statics.obj
 0002:00078680       __Init_thread_header       004b8680 f   MSVCRTD:thread_safe_statics.obj
 0002:00078710       __Init_thread_lock         004b8710 f   MSVCRTD:thread_safe_statics.obj
 0002:00078730       __Init_thread_notify       004b8730 f   MSVCRTD:thread_safe_statics.obj
 0002:000787a0       __Init_thread_unlock       004b87a0 f   MSVCRTD:thread_safe_statics.obj
 0002:000787c0       __Init_thread_wait         004b87c0 f   MSVCRTD:thread_safe_statics.obj
 0002:000788b0       @_guard_check_icall@4      004b88b0 f i MSVCRTD:checkcfg.obj
 0002:000788d0       __except_handler4          004b88d0 f   MSVCRTD:_chandler4gs_.obj
 0002:00078900       ??0bad_alloc@std@@AAE@QBD@Z 004b8900 f i MSVCRTD:throw_bad_alloc.obj
 0002:00078930       ??0bad_alloc@std@@QAE@ABV01@@Z 004b8930 f i MSVCRTD:throw_bad_alloc.obj
 0002:00078960       ??0bad_alloc@std@@QAE@XZ   004b8960 f i MSVCRTD:throw_bad_alloc.obj
 0002:00078990       ??0bad_array_new_length@std@@QAE@ABV01@@Z 004b8990 f i MSVCRTD:throw_bad_alloc.obj
 0002:000789c0       ??0bad_array_new_length@std@@QAE@XZ 004b89c0 f i MSVCRTD:throw_bad_alloc.obj
 0002:000789f0       ??0exception@std@@QAE@ABV01@@Z 004b89f0 f i MSVCRTD:throw_bad_alloc.obj
 0002:00078a40       ??0exception@std@@QAE@QBDH@Z 004b8a40 f i MSVCRTD:throw_bad_alloc.obj
 0002:00078a80       ??1bad_alloc@std@@UAE@XZ   004b8a80 f i MSVCRTD:throw_bad_alloc.obj
 0002:00078aa0       ??1bad_array_new_length@std@@UAE@XZ 004b8aa0 f i MSVCRTD:throw_bad_alloc.obj
 0002:00078ac0       ??1exception@std@@UAE@XZ   004b8ac0 f i MSVCRTD:throw_bad_alloc.obj
 0002:00078af0       ??_Ebad_alloc@std@@UAEPAXI@Z 004b8af0 f i MSVCRTD:throw_bad_alloc.obj
 0002:00078af0       ??_Gbad_alloc@std@@UAEPAXI@Z 004b8af0 f i MSVCRTD:throw_bad_alloc.obj
 0002:00078b30       ??_Gbad_array_new_length@std@@UAEPAXI@Z 004b8b30 f i MSVCRTD:throw_bad_alloc.obj
 0002:00078b30       ??_Ebad_array_new_length@std@@UAEPAXI@Z 004b8b30 f i MSVCRTD:throw_bad_alloc.obj
 0002:00078b70       ??_Gexception@std@@UAEPAXI@Z 004b8b70 f i MSVCRTD:throw_bad_alloc.obj
 0002:00078b70       ??_Eexception@std@@UAEPAXI@Z 004b8b70 f i MSVCRTD:throw_bad_alloc.obj
 0002:00078bb0       ?__scrt_throw_std_bad_alloc@@YAXXZ 004b8bb0 f   MSVCRTD:throw_bad_alloc.obj
 0002:00078be0       ?__scrt_throw_std_bad_array_new_length@@YAXXZ 004b8be0 f   MSVCRTD:throw_bad_alloc.obj
 0002:00078c10       ?what@exception@std@@UBEPBDXZ 004b8c10 f i MSVCRTD:throw_bad_alloc.obj
 0002:00078c50       ___isa_available_init      004b8c50 f   MSVCRTD:_cpu_disp_.obj
 0002:00078fe0       __get_startup_argv_mode    004b8fe0 f   MSVCRTD:argv_mode.obj
 0002:00078ff0       ___scrt_is_ucrt_dll_in_use 004b8ff0 f   MSVCRTD:ucrt_detection.obj
 0002:00079020       ___scrt_fastfail           004b9020 f   MSVCRTD:utility_desktop.obj
 0002:000791b0       ___scrt_get_show_window_mode 004b91b0 f   MSVCRTD:utility_desktop.obj
 0002:00079200       ___scrt_initialize_winrt   004b9200 f   MSVCRTD:utility_desktop.obj
 0002:00079210       ___scrt_is_managed_app     004b9210 f   MSVCRTD:utility_desktop.obj
 0002:000792c0       ___scrt_set_unhandled_exception_filter 004b92c0 f   MSVCRTD:utility_desktop.obj
 0002:000792e0       ___scrt_unhandled_exception_filter@4 004b92e0 f   MSVCRTD:utility_desktop.obj
 0002:00079360       __crt_debugger_hook        004b9360 f   MSVCRTD:utility_desktop.obj
 0002:00079380       ?_RTC_GetErrorFunc@@YAP6AHHPBDH00ZZPBX@Z 004b9380 f   MSVCRTD:_userapi_.obj
 0002:00079390       ?_RTC_GetErrorFuncW@@YAP6AHHPB_WH00ZZPBX@Z 004b9390 f   MSVCRTD:_userapi_.obj
 0002:000793a0       __RTC_GetErrDesc           004b93a0 f   MSVCRTD:_userapi_.obj
 0002:000793c0       __RTC_NumErrors            004b93c0 f   MSVCRTD:_userapi_.obj
 0002:000793d0       __RTC_SetErrorFunc         004b93d0 f   MSVCRTD:_userapi_.obj
 0002:00079400       __RTC_SetErrorFuncW        004b9400 f   MSVCRTD:_userapi_.obj
 0002:00079430       __RTC_SetErrorType         004b9430 f   MSVCRTD:_userapi_.obj
 0002:00079a20       ?_RTC_GetSrcLine@@YAHPAEPA_WKPAH1K@Z 004b9a20 f   MSVCRTD:_pdblkup_.obj
 0002:00079e50       ___security_init_cookie    004b9e50 f   MSVCRTD:gs_support.obj
 0002:00079f70       __matherr                  004b9f70 f   MSVCRTD:matherr.obj
 0002:00079f80       __get_startup_commit_mode  004b9f80 f   MSVCRTD:commit_mode.obj
 0002:00079f90       __get_startup_file_mode    004b9f90 f   MSVCRTD:file_mode.obj
 0002:00079fa0       __get_startup_new_mode     004b9fa0 f   MSVCRTD:new_mode.obj
 0002:00079fb0       __get_startup_thread_locale_mode 004b9fb0 f   MSVCRTD:thread_locale.obj
 0002:00079fc0       ?__scrt_initialize_type_info@@YAXXZ 004b9fc0 f   MSVCRTD:tncleanup.obj
 0002:00079fe0       ?__scrt_uninitialize_type_info@@YAXXZ 004b9fe0 f   MSVCRTD:tncleanup.obj
 0002:0007a000       __should_initialize_environment 004ba000 f   MSVCRTD:env_mode.obj
 0002:0007a010       __initialize_default_precision 004ba010 f   MSVCRTD:default_precision.obj
 0002:0007a040       __initialize_invalid_parameter_handler 004ba040 f   MSVCRTD:invalid_parameter_handler.obj
 0002:0007a050       __initialize_denormal_control 004ba050 f   MSVCRTD:denormal_control.obj
 0002:0007a060       ___scrt_initialize_default_local_stdio_options 004ba060 f   MSVCRTD:default_local_stdio_options.obj
 0002:0007a0b0       ___scrt_is_user_matherr_present 004ba0b0 f   MSVCRTD:matherr_detection.obj
 0002:0007a0e0       ___scrt_get_dyn_tls_init_callback 004ba0e0 f   MSVCRTD:dyn_tls_init.obj
 0002:0007a0f0       ___scrt_get_dyn_tls_dtor_callback 004ba0f0 f   MSVCRTD:dyn_tls_dtor.obj
 0002:0007a100       __RTC_Initialize           004ba100 f   MSVCRTD:_initsect_.obj
 0002:0007a140       __RTC_Terminate            004ba140 f   MSVCRTD:_initsect_.obj
 0002:0007a180       @_guard_check_icall_nop@4  004ba180 f i MSVCRTD:guard_support.obj
 0002:0007a190       __guard_icall_checks_enforced 004ba190 f i MSVCRTD:guard_support.obj
 0002:0007a1c0       __set_se_translator        004ba1c0 f   vcruntimed:VCRUNTIME140D.dll
 0002:0007a1c6       _memcmp                    004ba1c6 f   vcruntimed:VCRUNTIME140D.dll
 0002:0007a1cc       _memcpy                    004ba1cc f   vcruntimed:VCRUNTIME140D.dll
 0002:0007a1d2       _memmove                   004ba1d2 f   vcruntimed:VCRUNTIME140D.dll
 0002:0007a1d8       _memset                    004ba1d8 f   vcruntimed:VCRUNTIME140D.dll
 0002:0007a1de       _strstr                    004ba1de f   vcruntimed:VCRUNTIME140D.dll
 0002:0007a1e4       __CxxThrowException@8      004ba1e4 f   vcruntimed:VCRUNTIME140D.dll
 0002:0007a1ea       ___CxxFrameHandler3        004ba1ea f   vcruntimed:VCRUNTIME140D.dll
 0002:0007a1f0       ___telemetry_main_invoke_trigger 004ba1f0 f   vcruntimed:VCRUNTIME140D.dll
 0002:0007a1f6       ___telemetry_main_return_trigger 004ba1f6 f   vcruntimed:VCRUNTIME140D.dll
 0002:0007a1fc       ___vcrt_InitializeCriticalSectionEx 004ba1fc f   vcruntimed:VCRUNTIME140D.dll
 0002:0007a202       __except_handler4_common   004ba202 f   vcruntimed:VCRUNTIME140D.dll
 0002:0007a208       ___std_exception_copy      004ba208 f   vcruntimed:VCRUNTIME140D.dll
 0002:0007a20e       ___std_exception_destroy   004ba20e f   vcruntimed:VCRUNTIME140D.dll
 0002:0007a214       ___vcrt_GetModuleFileNameW 004ba214 f   vcruntimed:VCRUNTIME140D.dll
 0002:0007a21a       ___vcrt_GetModuleHandleW   004ba21a f   vcruntimed:VCRUNTIME140D.dll
 0002:0007a220       ___vcrt_LoadLibraryExW     004ba220 f   vcruntimed:VCRUNTIME140D.dll
 0002:0007a226       ___std_type_info_destroy_list 004ba226 f   vcruntimed:VCRUNTIME140D.dll
 0002:0007a22c       __invalid_parameter        004ba22c f   ucrtd:ucrtbased.dll
 0002:0007a232       __set_invalid_parameter_handler 004ba232 f   ucrtd:ucrtbased.dll
 0002:0007a238       _wcstombs                  004ba238 f   ucrtd:ucrtbased.dll
 0002:0007a23e       ___acrt_iob_func           004ba23e f   ucrtd:ucrtbased.dll
 0002:0007a244       ___stdio_common_vswprintf  004ba244 f   ucrtd:ucrtbased.dll
 0002:0007a24a       _fclose                    004ba24a f   ucrtd:ucrtbased.dll
 0002:0007a250       _fflush                    004ba250 f   ucrtd:ucrtbased.dll
 0002:0007a256       _fopen                     004ba256 f   ucrtd:ucrtbased.dll
 0002:0007a25c       ___stdio_common_vfprintf   004ba25c f   ucrtd:ucrtbased.dll
 0002:0007a262       ___stdio_common_vsprintf   004ba262 f   ucrtd:ucrtbased.dll
 0002:0007a268       _strcat                    004ba268 f   ucrtd:ucrtbased.dll
 0002:0007a26e       _strcmp                    004ba26e f   ucrtd:ucrtbased.dll
 0002:0007a274       _strcpy                    004ba274 f   ucrtd:ucrtbased.dll
 0002:0007a27a       _strlen                    004ba27a f   ucrtd:ucrtbased.dll
 0002:0007a280       _strncpy                   004ba280 f   ucrtd:ucrtbased.dll
 0002:0007a286       _strtok                    004ba286 f   ucrtd:ucrtbased.dll
 0002:0007a28c       __CrtCheckMemory           004ba28c f   ucrtd:ucrtbased.dll
 0002:0007a292       __CrtDumpMemoryLeaks       004ba292 f   ucrtd:ucrtbased.dll
 0002:0007a298       __CrtMemCheckpoint         004ba298 f   ucrtd:ucrtbased.dll
 0002:0007a29e       __CrtMemDifference         004ba29e f   ucrtd:ucrtbased.dll
 0002:0007a2a4       __CrtMemDumpStatistics     004ba2a4 f   ucrtd:ucrtbased.dll
 0002:0007a2aa       __CrtSetDbgFlag            004ba2aa f   ucrtd:ucrtbased.dll
 0002:0007a2b0       __CrtDbgReportW            004ba2b0 f   ucrtd:ucrtbased.dll
 0002:0007a2b6       __CrtSetReportMode         004ba2b6 f   ucrtd:ucrtbased.dll
 0002:0007a2bc       __set_new_handler          004ba2bc f   ucrtd:ucrtbased.dll
 0002:0007a2c2       __set_new_mode             004ba2c2 f   ucrtd:ucrtbased.dll
 0002:0007a2c8       __wassert                  004ba2c8 f   ucrtd:ucrtbased.dll
 0002:0007a2ce       _atof                      004ba2ce f   ucrtd:ucrtbased.dll
 0002:0007a2d4       _atoi                      004ba2d4 f   ucrtd:ucrtbased.dll
 0002:0007a2da       _fgets                     004ba2da f   ucrtd:ucrtbased.dll
 0002:0007a2e0       ___stdio_common_vsscanf    004ba2e0 f   ucrtd:ucrtbased.dll
 0002:0007a2e6       _strncat                   004ba2e6 f   ucrtd:ucrtbased.dll
 0002:0007a2ec       _acos                      004ba2ec f   ucrtd:ucrtbased.dll
 0002:0007a2f2       _exp                       004ba2f2 f   ucrtd:ucrtbased.dll
 0002:0007a2f8       _fabs                      004ba2f8 f   ucrtd:ucrtbased.dll
 0002:0007a2fe       _pow                       004ba2fe f   ucrtd:ucrtbased.dll
 0002:0007a304       _sin                       004ba304 f   ucrtd:ucrtbased.dll
 0002:0007a30a       _sqrt                      004ba30a f   ucrtd:ucrtbased.dll
 0002:0007a310       __time64                   004ba310 f   ucrtd:ucrtbased.dll
 0002:0007a316       _free                      004ba316 f   ucrtd:ucrtbased.dll
 0002:0007a31c       _malloc                    004ba31c f   ucrtd:ucrtbased.dll
 0002:0007a322       _srand                     004ba322 f   ucrtd:ucrtbased.dll
 0002:0007a328       _rand                      004ba328 f   ucrtd:ucrtbased.dll
 0002:0007a32e       _fgetc                     004ba32e f   ucrtd:ucrtbased.dll
 0002:0007a334       _fputc                     004ba334 f   ucrtd:ucrtbased.dll
 0002:0007a33a       _fread                     004ba33a f   ucrtd:ucrtbased.dll
 0002:0007a340       _fseek                     004ba340 f   ucrtd:ucrtbased.dll
 0002:0007a346       _ftell                     004ba346 f   ucrtd:ucrtbased.dll
 0002:0007a34c       _fwrite                    004ba34c f   ucrtd:ucrtbased.dll
 0002:0007a352       _getc                      004ba352 f   ucrtd:ucrtbased.dll
 0002:0007a358       _putc                      004ba358 f   ucrtd:ucrtbased.dll
 0002:0007a35e       _rename                    004ba35e f   ucrtd:ucrtbased.dll
 0002:0007a364       _isdigit                   004ba364 f   ucrtd:ucrtbased.dll
 0002:0007a36a       _isxdigit                  004ba36a f   ucrtd:ucrtbased.dll
 0002:0007a370       _toupper                   004ba370 f   ucrtd:ucrtbased.dll
 0002:0007a376       _tolower                   004ba376 f   ucrtd:ucrtbased.dll
 0002:0007a37c       _qsort                     004ba37c f   ucrtd:ucrtbased.dll
 0002:0007a382       __beginthread              004ba382 f   ucrtd:ucrtbased.dll
 0002:0007a388       __endthread                004ba388 f   ucrtd:ucrtbased.dll
 0002:0007a38e       _cos                       004ba38e f   ucrtd:ucrtbased.dll
 0002:0007a394       _log10                     004ba394 f   ucrtd:ucrtbased.dll
 0002:0007a39a       _ceil                      004ba39a f   ucrtd:ucrtbased.dll
 0002:0007a3a0       _floor                     004ba3a0 f   ucrtd:ucrtbased.dll
 0002:0007a3a6       _wcslen                    004ba3a6 f   ucrtd:ucrtbased.dll
 0002:0007a3ac       __heapwalk                 004ba3ac f   ucrtd:ucrtbased.dll
 0002:0007a3b2       __CrtDbgReport             004ba3b2 f   ucrtd:ucrtbased.dll
 0002:0007a3b8       ___daylight                004ba3b8 f   ucrtd:ucrtbased.dll
 0002:0007a3be       ___timezone                004ba3be f   ucrtd:ucrtbased.dll
 0002:0007a3c4       __tzset                    004ba3c4 f   ucrtd:ucrtbased.dll
 0002:0007a3ca       _terminate                 004ba3ca f   ucrtd:ucrtbased.dll
 0002:0007a3d0       __callnewh                 004ba3d0 f   ucrtd:ucrtbased.dll
 0002:0007a3d6       __free_dbg                 004ba3d6 f   ucrtd:ucrtbased.dll
 0002:0007a3dc       __seh_filter_dll           004ba3dc f   ucrtd:ucrtbased.dll
 0002:0007a3e2       __configure_narrow_argv    004ba3e2 f   ucrtd:ucrtbased.dll
 0002:0007a3e8       __initialize_narrow_environment 004ba3e8 f   ucrtd:ucrtbased.dll
 0002:0007a3ee       __initialize_onexit_table  004ba3ee f   ucrtd:ucrtbased.dll
 0002:0007a3f4       __register_onexit_function 004ba3f4 f   ucrtd:ucrtbased.dll
 0002:0007a3fa       __execute_onexit_table     004ba3fa f   ucrtd:ucrtbased.dll
 0002:0007a400       __crt_atexit               004ba400 f   ucrtd:ucrtbased.dll
 0002:0007a406       __crt_at_quick_exit        004ba406 f   ucrtd:ucrtbased.dll
 0002:0007a40c       __cexit                    004ba40c f   ucrtd:ucrtbased.dll
 0002:0007a412       ___stdio_common_vsprintf_s 004ba412 f   ucrtd:ucrtbased.dll
 0002:0007a418       __seh_filter_exe           004ba418 f   ucrtd:ucrtbased.dll
 0002:0007a41e       __set_app_type             004ba41e f   ucrtd:ucrtbased.dll
 0002:0007a424       ___setusermatherr          004ba424 f   ucrtd:ucrtbased.dll
 0002:0007a42a       __get_initial_narrow_environment 004ba42a f   ucrtd:ucrtbased.dll
 0002:0007a430       __initterm                 004ba430 f   ucrtd:ucrtbased.dll
 0002:0007a436       __initterm_e               004ba436 f   ucrtd:ucrtbased.dll
 0002:0007a43c       _exit                      004ba43c f   ucrtd:ucrtbased.dll
 0002:0007a442       __exit                     004ba442 f   ucrtd:ucrtbased.dll
 0002:0007a448       __set_fmode                004ba448 f   ucrtd:ucrtbased.dll
 0002:0007a44e       ___p___argc                004ba44e f   ucrtd:ucrtbased.dll
 0002:0007a454       ___p___argv                004ba454 f   ucrtd:ucrtbased.dll
 0002:0007a45a       __c_exit                   004ba45a f   ucrtd:ucrtbased.dll
 0002:0007a460       __register_thread_local_exe_atexit_callback 004ba460 f   ucrtd:ucrtbased.dll
 0002:0007a466       __configthreadlocale       004ba466 f   ucrtd:ucrtbased.dll
 0002:0007a46c       ___p__commode              004ba46c f   ucrtd:ucrtbased.dll
 0002:0007a472       __except1                  004ba472 f   ucrtd:ucrtbased.dll
 0002:0007a478       __wmakepath_s              004ba478 f   ucrtd:ucrtbased.dll
 0002:0007a47e       __wsplitpath_s             004ba47e f   ucrtd:ucrtbased.dll
 0002:0007a484       _wcscpy_s                  004ba484 f   ucrtd:ucrtbased.dll
 0002:0007a48a       __controlfp_s              004ba48a f   ucrtd:ucrtbased.dll
 0002:0007a490       __getch                    004ba490 f   ucrtd:ucrtbased.dll
 0002:0007a496       __kbhit                    004ba496 f   ucrtd:ucrtbased.dll
 0002:0007a49c       __unlink                   004ba49c f   ucrtd:ucrtbased.dll
 0002:0007a4a2       __strupr                   004ba4a2 f   ucrtd:ucrtbased.dll
 0002:0007a4a8       _PathIsDirectoryA@4        004ba4a8 f   shlwapi:SHLWAPI.dll
 0002:0007a4ae       ?currentMSecsSinceEpoch@QDateTime@@SA_JXZ 004ba4ae f   qt5cored:Qt5Cored.dll
 0002:0007a4b4       ??0QMessageLogger@@QAE@PBDH0@Z 004ba4b4 f   qt5cored:Qt5Cored.dll
 0002:0007a4ba       ?debug@QMessageLogger@@QBE?AVQDebug@@XZ 004ba4ba f   qt5cored:Qt5Cored.dll
 0002:0007a4c0       ??1QDebug@@QAE@XZ          004ba4c0 f   qt5cored:Qt5Cored.dll
 0002:0007a4c6       ??6QDebug@@QAEAAV0@_J@Z    004ba4c6 f   qt5cored:Qt5Cored.dll
 0002:0007a4cc       ??6QDebug@@QAEAAV0@PBD@Z   004ba4cc f   qt5cored:Qt5Cored.dll
 0002:0007a4d2       ?qt_assert@@YAXPBD0H@Z     004ba4d2 f   qt5cored:Qt5Cored.dll
 0002:0007a4d8       ??0QString@@QAE@ABV0@@Z    004ba4d8 f   qt5cored:Qt5Cored.dll
 0002:0007a4de       ?activate@QMetaObject@@SAXPAVQObject@@PBU1@HPAPAX@Z 004ba4de f   qt5cored:Qt5Cored.dll
 0002:0007a4e4       ?dynamicMetaObject@QObjectData@@QBEPAUQMetaObject@@XZ 004ba4e4 f   qt5cored:Qt5Cored.dll
 0002:0007a4ea       ?qt_metacast@QObject@@UAEPAXPBD@Z 004ba4ea f   qt5cored:Qt5Cored.dll
 0002:0007a4f0       ?qt_metacall@QObject@@UAEHW4Call@QMetaObject@@HPAPAX@Z 004ba4f0 f   qt5cored:Qt5Cored.dll
 0002:0007a4f6       ?qFlagLocation@@YAPBDPBD@Z 004ba4f6 f   qt5cored:Qt5Cored.dll
 0002:0007a4fc       ??1Connection@QMetaObject@@QAE@XZ 004ba4fc f   qt5cored:Qt5Cored.dll
 0002:0007a502       ??1QByteArray@@QAE@XZ      004ba502 f   qt5cored:Qt5Cored.dll
 0002:0007a508       ??BQByteArray@@QBEPBDXZ    004ba508 f   qt5cored:Qt5Cored.dll
 0002:0007a50e       ?constData@QByteArray@@QBEPBDXZ 004ba50e f   qt5cored:Qt5Cored.dll
 0002:0007a514       ??0QString@@QAE@XZ         004ba514 f   qt5cored:Qt5Cored.dll
 0002:0007a51a       ??4QString@@QAEAAV0@ABV0@@Z 004ba51a f   qt5cored:Qt5Cored.dll
 0002:0007a520       ??0QString@@QAE@$$QAV0@@Z  004ba520 f   qt5cored:Qt5Cored.dll
 0002:0007a526       ??4QString@@QAEAAV0@$$QAV0@@Z 004ba526 f   qt5cored:Qt5Cored.dll
 0002:0007a52c       ?size@QString@@QBEHXZ      004ba52c f   qt5cored:Qt5Cored.dll
 0002:0007a532       ?isEmpty@QString@@QBE_NXZ  004ba532 f   qt5cored:Qt5Cored.dll
 0002:0007a538       ?constData@QString@@QBEPBVQChar@@XZ 004ba538 f   qt5cored:Qt5Cored.dll
 0002:0007a53e       ?trimmed@QString@@QGBE?AV1@XZ 004ba53e f   qt5cored:Qt5Cored.dll
 0002:0007a544       ??YQString@@QAEAAV0@ABV0@@Z 004ba544 f   qt5cored:Qt5Cored.dll
 0002:0007a54a       ?toUtf8@QString@@QGBE?AVQByteArray@@XZ 004ba54a f   qt5cored:Qt5Cored.dll
 0002:0007a550       ?fromUtf8@QString@@SA?AV1@PBDH@Z 004ba550 f   qt5cored:Qt5Cored.dll
 0002:0007a556       ?number@QString@@SA?AV1@HH@Z 004ba556 f   qt5cored:Qt5Cored.dll
 0002:0007a55c       ??8@YA_NABVQString@@0@Z    004ba55c f   qt5cored:Qt5Cored.dll
 0002:0007a562       ??0QString@@QAE@PBD@Z      004ba562 f   qt5cored:Qt5Cored.dll
 0002:0007a568       ??4QString@@QAEAAV0@PBD@Z  004ba568 f   qt5cored:Qt5Cored.dll
 0002:0007a56e       ?compare_helper@QString@@CAHPBVQChar@@HPBDHW4CaseSensitivity@Qt@@@Z 004ba56e f   qt5cored:Qt5Cored.dll
 0002:0007a574       ?qHash@@YAIABVQString@@I@Z 004ba574 f   qt5cored:Qt5Cored.dll
 0002:0007a57a       ?detach@QListData@@QAEPAUData@1@H@Z 004ba57a f   qt5cored:Qt5Cored.dll
 0002:0007a580       ?detach_grow@QListData@@QAEPAUData@1@PAHH@Z 004ba580 f   qt5cored:Qt5Cored.dll
 0002:0007a586       ?realloc@QListData@@QAEXH@Z 004ba586 f   qt5cored:Qt5Cored.dll
 0002:0007a58c       ?dispose@QListData@@QAEXXZ 004ba58c f   qt5cored:Qt5Cored.dll
 0002:0007a592       ?dispose@QListData@@SAXPAUData@1@@Z 004ba592 f   qt5cored:Qt5Cored.dll
 0002:0007a598       ?append@QListData@@QAEPAPAXXZ 004ba598 f   qt5cored:Qt5Cored.dll
 0002:0007a59e       ?begin@QListData@@QBEPAPAXXZ 004ba59e f   qt5cored:Qt5Cored.dll
 0002:0007a5a4       ?end@QListData@@QBEPAPAXXZ 004ba5a4 f   qt5cored:Qt5Cored.dll
 0002:0007a5aa       ??0QObject@@QAE@PAV0@@Z    004ba5aa f   qt5cored:Qt5Cored.dll
 0002:0007a5b0       ??1QObject@@UAE@XZ         004ba5b0 f   qt5cored:Qt5Cored.dll
 0002:0007a5b6       ?moveToThread@QObject@@QAEXPAVQThread@@@Z 004ba5b6 f   qt5cored:Qt5Cored.dll
 0002:0007a5bc       ?connect@QObject@@SA?AVConnection@QMetaObject@@PBV1@PBD01W4ConnectionType@Qt@@@Z 004ba5bc f   qt5cored:Qt5Cored.dll
 0002:0007a5c2       ?connect@QObject@@QBE?AVConnection@QMetaObject@@PBV1@PBD1W4ConnectionType@Qt@@@Z 004ba5c2 f   qt5cored:Qt5Cored.dll
 0002:0007a5c8       ?allocateNode@QHashData@@QAEPAXH@Z 004ba5c8 f   qt5cored:Qt5Cored.dll
 0002:0007a5ce       ?detach_helper@QHashData@@QAEPAU1@P6AXPAUNode@1@PAX@ZP6AX0@ZHH@Z 004ba5ce f   qt5cored:Qt5Cored.dll
 0002:0007a5d4       ?willGrow@QHashData@@QAE_NXZ 004ba5d4 f   qt5cored:Qt5Cored.dll
 0002:0007a5da       ?free_helper@QHashData@@QAEXP6AXPAUNode@1@@Z@Z 004ba5da f   qt5cored:Qt5Cored.dll
 0002:0007a5e0       ?firstNode@QHashData@@QAEPAUNode@1@XZ 004ba5e0 f   qt5cored:Qt5Cored.dll
 0002:0007a5e6       ?nextNode@QHashData@@SAPAUNode@1@PAU21@@Z 004ba5e6 f   qt5cored:Qt5Cored.dll
 0002:0007a5ec       ??1QDateTime@@QAE@XZ       004ba5ec f   qt5cored:Qt5Cored.dll
 0002:0007a5f2       ?toString@QDateTime@@QBE?AVQString@@ABV2@@Z 004ba5f2 f   qt5cored:Qt5Cored.dll
 0002:0007a5f8       ?currentDateTime@QDateTime@@SA?AV1@XZ 004ba5f8 f   qt5cored:Qt5Cored.dll
 0002:0007a5fe       ??0QDataStream@@QAE@PAVQByteArray@@V?$QFlags@W4OpenModeFlag@QIODevice@@@@@Z 004ba5fe f   qt5cored:Qt5Cored.dll
 0002:0007a604       ??1QDataStream@@QAE@XZ     004ba604 f   qt5cored:Qt5Cored.dll
 0002:0007a60a       ??5QDataStream@@QAEAAV0@AAH@Z 004ba60a f   qt5cored:Qt5Cored.dll
 0002:0007a610       ??6QDebug@@QAEAAV0@H@Z     004ba610 f   qt5cored:Qt5Cored.dll
 0002:0007a616       ??6QDebug@@QAEAAV0@ABVQString@@@Z 004ba616 f   qt5cored:Qt5Cored.dll
 0002:0007a61c       ??6QDebug@@QAEAAV0@PBX@Z   004ba61c f   qt5cored:Qt5Cored.dll
 0002:0007a622       ??0QEventLoop@@QAE@PAVQObject@@@Z 004ba622 f   qt5cored:Qt5Cored.dll
 0002:0007a628       ??1QEventLoop@@UAE@XZ      004ba628 f   qt5cored:Qt5Cored.dll
 0002:0007a62e       ?exec@QEventLoop@@QAEHV?$QFlags@W4ProcessEventsFlag@QEventLoop@@@@@Z 004ba62e f   qt5cored:Qt5Cored.dll
 0002:0007a634       ??0QCoreApplication@@QAE@AAHPAPADH@Z 004ba634 f   qt5cored:Qt5Cored.dll
 0002:0007a63a       ??1QCoreApplication@@UAE@XZ 004ba63a f   qt5cored:Qt5Cored.dll
 0002:0007a640       ?instance@QCoreApplication@@SAPAV1@XZ 004ba640 f   qt5cored:Qt5Cored.dll
 0002:0007a646       ??0QMutex@@QAE@W4RecursionMode@0@@Z 004ba646 f   qt5cored:Qt5Cored.dll
 0002:0007a64c       ??1QMutex@@QAE@XZ          004ba64c f   qt5cored:Qt5Cored.dll
 0002:0007a652       ??0QMutexLocker@@QAE@PAVQBasicMutex@@@Z 004ba652 f   qt5cored:Qt5Cored.dll
 0002:0007a658       ??1QMutexLocker@@QAE@XZ    004ba658 f   qt5cored:Qt5Cored.dll
 0002:0007a65e       ?currentThreadId@QThread@@SAPAXXZ 004ba65e f   qt5cored:Qt5Cored.dll
 0002:0007a664       ??0QThread@@QAE@PAVQObject@@@Z 004ba664 f   qt5cored:Qt5Cored.dll
 0002:0007a66a       ??1QThread@@UAE@XZ         004ba66a f   qt5cored:Qt5Cored.dll
 0002:0007a670       ?start@QThread@@QAEXW4Priority@1@@Z 004ba670 f   qt5cored:Qt5Cored.dll
 0002:0007a676       ?childEvent@QObject@@MAEXPAVQChildEvent@@@Z 004ba676 f   qt5cored:Qt5Cored.dll
 0002:0007a67c       ?compressEvent@QCoreApplication@@MAE_NPAVQEvent@@PAVQObject@@PAVQPostEventList@@@Z 004ba67c f   qt5cored:Qt5Cored.dll
 0002:0007a682       ?connectNotify@QObject@@MAEXABVQMetaMethod@@@Z 004ba682 f   qt5cored:Qt5Cored.dll
 0002:0007a688       ?customEvent@QObject@@MAEXPAVQEvent@@@Z 004ba688 f   qt5cored:Qt5Cored.dll
 0002:0007a68e       ?disconnectNotify@QObject@@MAEXABVQMetaMethod@@@Z 004ba68e f   qt5cored:Qt5Cored.dll
 0002:0007a694       ?event@QCoreApplication@@MAE_NPAVQEvent@@@Z 004ba694 f   qt5cored:Qt5Cored.dll
 0002:0007a69a       ?event@QObject@@UAE_NPAVQEvent@@@Z 004ba69a f   qt5cored:Qt5Cored.dll
 0002:0007a6a0       ?event@QThread@@UAE_NPAVQEvent@@@Z 004ba6a0 f   qt5cored:Qt5Cored.dll
 0002:0007a6a6       ?eventFilter@QObject@@UAE_NPAV1@PAVQEvent@@@Z 004ba6a6 f   qt5cored:Qt5Cored.dll
 0002:0007a6ac       ?metaObject@QCoreApplication@@UBEPBUQMetaObject@@XZ 004ba6ac f   qt5cored:Qt5Cored.dll
 0002:0007a6b2       ?metaObject@QThread@@UBEPBUQMetaObject@@XZ 004ba6b2 f   qt5cored:Qt5Cored.dll
 0002:0007a6b8       ?notify@QCoreApplication@@UAE_NPAVQObject@@PAVQEvent@@@Z 004ba6b8 f   qt5cored:Qt5Cored.dll
 0002:0007a6be       ?qt_metacall@QCoreApplication@@UAEHW4Call@QMetaObject@@HPAPAX@Z 004ba6be f   qt5cored:Qt5Cored.dll
 0002:0007a6c4       ?qt_metacall@QThread@@UAEHW4Call@QMetaObject@@HPAPAX@Z 004ba6c4 f   qt5cored:Qt5Cored.dll
 0002:0007a6ca       ?qt_metacast@QCoreApplication@@UAEPAXPBD@Z 004ba6ca f   qt5cored:Qt5Cored.dll
 0002:0007a6d0       ?qt_metacast@QThread@@UAEPAXPBD@Z 004ba6d0 f   qt5cored:Qt5Cored.dll
 0002:0007a6d6       ?run@QThread@@MAEXXZ       004ba6d6 f   qt5cored:Qt5Cored.dll
 0002:0007a6dc       ?timerEvent@QObject@@MAEXPAVQTimerEvent@@@Z 004ba6dc f   qt5cored:Qt5Cored.dll
 0002:0007a6e2       ?fromWCharArray@QString@@SA?AV1@PB_WH@Z 004ba6e2 f   qt5cored:Qt5Cored.dll
 0002:0007a6e8       ??0QDir@@QAE@ABVQString@@@Z 004ba6e8 f   qt5cored:Qt5Cored.dll
 0002:0007a6ee       ??1QDir@@QAE@XZ            004ba6ee f   qt5cored:Qt5Cored.dll
 0002:0007a6f4       ?mkdir@QDir@@QBE_NABVQString@@@Z 004ba6f4 f   qt5cored:Qt5Cored.dll
 0002:0007a6fa       ?mkpath@QDir@@QBE_NABVQString@@@Z 004ba6fa f   qt5cored:Qt5Cored.dll
 0002:0007a700       ?exists@QDir@@QBE_NXZ      004ba700 f   qt5cored:Qt5Cored.dll
 0002:0007a706       ?asprintf@QString@@SA?AV1@PBDZZ 004ba706 f   qt5cored:Qt5Cored.dll
 0002:0007a70c       ??YQString@@QAEAAV0@PBD@Z  004ba70c f   qt5cored:Qt5Cored.dll
 0002:0007a712       ?toStdString@QString@@QBE?AV?$basic_string@DU?$char_traits@D@std@@V?$allocator@D@2@@std@@XZ 004ba712 f   qt5cored:Qt5Cored.dll
 0002:0007a718       ??6QDebug@@QAEAAV0@G@Z     004ba718 f   qt5cored:Qt5Cored.dll
 0002:0007a71e       ?copy@QFile@@SA_NABVQString@@0@Z 004ba71e f   qt5cored:Qt5Cored.dll
 0002:0007a724       ??0QByteArray@@QAE@XZ      004ba724 f   qt5cored:Qt5Cored.dll
 0002:0007a72a       ??0QByteArray@@QAE@ABV0@@Z 004ba72a f   qt5cored:Qt5Cored.dll
 0002:0007a730       ??4QByteArray@@QAEAAV0@ABV0@@Z 004ba730 f   qt5cored:Qt5Cored.dll
 0002:0007a736       ?size@QByteArray@@QBEHXZ   004ba736 f   qt5cored:Qt5Cored.dll
 0002:0007a73c       ?resize@QByteArray@@QAEXH@Z 004ba73c f   qt5cored:Qt5Cored.dll
 0002:0007a742       ?data@QByteArray@@QAEPADXZ 004ba742 f   qt5cored:Qt5Cored.dll
 0002:0007a748       ?clear@QByteArray@@QAEXXZ  004ba748 f   qt5cored:Qt5Cored.dll
 0002:0007a74e       ?at@QByteArray@@QBEDH@Z    004ba74e f   qt5cored:Qt5Cored.dll
 0002:0007a754       ??AQByteArray@@QAE?AVQByteRef@@H@Z 004ba754 f   qt5cored:Qt5Cored.dll
 0002:0007a75a       ??BQByteRef@@QBEDXZ        004ba75a f   qt5cored:Qt5Cored.dll
 0002:0007a760       ??4QByteRef@@QAEAAV0@D@Z   004ba760 f   qt5cored:Qt5Cored.dll
 0002:0007a766       ??8QByteRef@@QBE_ND@Z      004ba766 f   qt5cored:Qt5Cored.dll
 0002:0007a76c       ?clear@QString@@QAEXXZ     004ba76c f   qt5cored:Qt5Cored.dll
 0002:0007a772       ?freeNode@QHashData@@QAEXPAX@Z 004ba772 f   qt5cored:Qt5Cored.dll
 0002:0007a778       ?hasShrunk@QHashData@@QAEXXZ 004ba778 f   qt5cored:Qt5Cored.dll
 0002:0007a77e       ??0QGenericArgument@@QAE@PBDPBX@Z 004ba77e f   qt5cored:Qt5Cored.dll
 0002:0007a784       ?invokeMethod@QMetaObject@@SA_NPAVQObject@@PBDVQGenericArgument@@222222222@Z 004ba784 f   qt5cored:Qt5Cored.dll
 0002:0007a78a       ?thread@QObject@@QBEPAVQThread@@XZ 004ba78a f   qt5cored:Qt5Cored.dll
 0002:0007a790       ?currentPath@QDir@@SA?AVQString@@XZ 004ba790 f   qt5cored:Qt5Cored.dll
 0002:0007a796       ??0QTimer@@QAE@PAVQObject@@@Z 004ba796 f   qt5cored:Qt5Cored.dll
 0002:0007a79c       ??1QTimer@@UAE@XZ          004ba79c f   qt5cored:Qt5Cored.dll
 0002:0007a7a2       ?setInterval@QTimer@@QAEXH@Z 004ba7a2 f   qt5cored:Qt5Cored.dll
 0002:0007a7a8       ?start@QTimer@@QAEXXZ      004ba7a8 f   qt5cored:Qt5Cored.dll
 0002:0007a7ae       ?stop@QTimer@@QAEXXZ       004ba7ae f   qt5cored:Qt5Cored.dll
 0002:0007a7b4       ?tryLock@QMutex@@QAE_NH@Z  004ba7b4 f   qt5cored:Qt5Cored.dll
 0002:0007a7ba       ?unlock@QMutex@@QAEXXZ     004ba7ba f   qt5cored:Qt5Cored.dll
 0002:0007a7c0       ?currentThread@QThread@@SAPAV1@XZ 004ba7c0 f   qt5cored:Qt5Cored.dll
 0002:0007a7c6       ??0QElapsedTimer@@QAE@XZ   004ba7c6 f   qt5cored:Qt5Cored.dll
 0002:0007a7cc       ?start@QElapsedTimer@@QAEXXZ 004ba7cc f   qt5cored:Qt5Cored.dll
 0002:0007a7d2       ?nsecsElapsed@QElapsedTimer@@QBE_JXZ 004ba7d2 f   qt5cored:Qt5Cored.dll
 0002:0007a7d8       ?metaObject@QTimer@@UBEPBUQMetaObject@@XZ 004ba7d8 f   qt5cored:Qt5Cored.dll
 0002:0007a7de       ?open@QIODevice@@UAE_NV?$QFlags@W4OpenModeFlag@QIODevice@@@@@Z 004ba7de f   qt5cored:Qt5Cored.dll
 0002:0007a7e4       ?pos@QIODevice@@UBE_JXZ    004ba7e4 f   qt5cored:Qt5Cored.dll
 0002:0007a7ea       ?qt_metacall@QTimer@@UAEHW4Call@QMetaObject@@HPAPAX@Z 004ba7ea f   qt5cored:Qt5Cored.dll
 0002:0007a7f0       ?qt_metacast@QTimer@@UAEPAXPBD@Z 004ba7f0 f   qt5cored:Qt5Cored.dll
 0002:0007a7f6       ?reset@QIODevice@@UAE_NXZ  004ba7f6 f   qt5cored:Qt5Cored.dll
 0002:0007a7fc       ?seek@QIODevice@@UAE_N_J@Z 004ba7fc f   qt5cored:Qt5Cored.dll
 0002:0007a802       ?size@QIODevice@@UBE_JXZ   004ba802 f   qt5cored:Qt5Cored.dll
 0002:0007a808       ?timerEvent@QTimer@@MAEXPAVQTimerEvent@@@Z 004ba808 f   qt5cored:Qt5Cored.dll
 0002:0007a80e       ??0QHostAddress@@QAE@XZ    004ba80e f   qt5networkd:Qt5Networkd.dll
 0002:0007a814       ??1QHostAddress@@QAE@XZ    004ba814 f   qt5networkd:Qt5Networkd.dll
 0002:0007a81a       ??4QHostAddress@@QAEAAV0@ABVQString@@@Z 004ba81a f   qt5networkd:Qt5Networkd.dll
 0002:0007a820       ?clear@QHostAddress@@QAEXXZ 004ba820 f   qt5networkd:Qt5Networkd.dll
 0002:0007a826       ?bind@QAbstractSocket@@QAE_NABVQHostAddress@@GV?$QFlags@W4BindFlag@QAbstractSocket@@@@@Z 004ba826 f   qt5networkd:Qt5Networkd.dll
 0002:0007a82c       ?state@QAbstractSocket@@QBE?AW4SocketState@1@XZ 004ba82c f   qt5networkd:Qt5Networkd.dll
 0002:0007a832       ?error@QAbstractSocket@@QBE?AW4SocketError@1@XZ 004ba832 f   qt5networkd:Qt5Networkd.dll
 0002:0007a838       ??0QHostAddress@@QAE@ABV0@@Z 004ba838 f   qt5networkd:Qt5Networkd.dll
 0002:0007a83e       ??0QHostAddress@@QAE@W4SpecialAddress@0@@Z 004ba83e f   qt5networkd:Qt5Networkd.dll
 0002:0007a844       ??4QHostAddress@@QAEAAV0@$$QAV0@@Z 004ba844 f   qt5networkd:Qt5Networkd.dll
 0002:0007a84a       ??4QHostAddress@@QAEAAV0@ABV0@@Z 004ba84a f   qt5networkd:Qt5Networkd.dll
 0002:0007a850       ?protocol@QHostAddress@@QBE?AW4NetworkLayerProtocol@QAbstractSocket@@XZ 004ba850 f   qt5networkd:Qt5Networkd.dll
 0002:0007a856       ?toIPv4Address@QHostAddress@@QBEIXZ 004ba856 f   qt5networkd:Qt5Networkd.dll
 0002:0007a85c       ?toString@QHostAddress@@QBE?AVQString@@XZ 004ba85c f   qt5networkd:Qt5Networkd.dll
 0002:0007a862       ?isNull@QHostAddress@@QBE_NXZ 004ba862 f   qt5networkd:Qt5Networkd.dll
 0002:0007a868       ??0QNetworkAddressEntry@@QAE@XZ 004ba868 f   qt5networkd:Qt5Networkd.dll
 0002:0007a86e       ??0QNetworkAddressEntry@@QAE@ABV0@@Z 004ba86e f   qt5networkd:Qt5Networkd.dll
 0002:0007a874       ??1QNetworkAddressEntry@@QAE@XZ 004ba874 f   qt5networkd:Qt5Networkd.dll
 0002:0007a87a       ?ip@QNetworkAddressEntry@@QBE?AVQHostAddress@@XZ 004ba87a f   qt5networkd:Qt5Networkd.dll
 0002:0007a880       ?setIp@QNetworkAddressEntry@@QAEXABVQHostAddress@@@Z 004ba880 f   qt5networkd:Qt5Networkd.dll
 0002:0007a886       ?netmask@QNetworkAddressEntry@@QBE?AVQHostAddress@@XZ 004ba886 f   qt5networkd:Qt5Networkd.dll
 0002:0007a88c       ?broadcast@QNetworkAddressEntry@@QBE?AVQHostAddress@@XZ 004ba88c f   qt5networkd:Qt5Networkd.dll
 0002:0007a892       ??0QNetworkInterface@@QAE@ABV0@@Z 004ba892 f   qt5networkd:Qt5Networkd.dll
 0002:0007a898       ??1QNetworkInterface@@QAE@XZ 004ba898 f   qt5networkd:Qt5Networkd.dll
 0002:0007a89e       ?name@QNetworkInterface@@QBE?AVQString@@XZ 004ba89e f   qt5networkd:Qt5Networkd.dll
 0002:0007a8a4       ?flags@QNetworkInterface@@QBE?AV?$QFlags@W4InterfaceFlag@QNetworkInterface@@@@XZ 004ba8a4 f   qt5networkd:Qt5Networkd.dll
 0002:0007a8aa       ?hardwareAddress@QNetworkInterface@@QBE?AVQString@@XZ 004ba8aa f   qt5networkd:Qt5Networkd.dll
 0002:0007a8b0       ?addressEntries@QNetworkInterface@@QBE?AV?$QList@VQNetworkAddressEntry@@@@XZ 004ba8b0 f   qt5networkd:Qt5Networkd.dll
 0002:0007a8b6       ?allInterfaces@QNetworkInterface@@SA?AV?$QList@VQNetworkInterface@@@@XZ 004ba8b6 f   qt5networkd:Qt5Networkd.dll
 0002:0007a8bc       ??0QUdpSocket@@QAE@PAVQObject@@@Z 004ba8bc f   qt5networkd:Qt5Networkd.dll
 0002:0007a8c2       ??1QUdpSocket@@UAE@XZ      004ba8c2 f   qt5networkd:Qt5Networkd.dll
 0002:0007a8c8       ?hasPendingDatagrams@QUdpSocket@@QBE_NXZ 004ba8c8 f   qt5networkd:Qt5Networkd.dll
 0002:0007a8ce       ?pendingDatagramSize@QUdpSocket@@QBE_JXZ 004ba8ce f   qt5networkd:Qt5Networkd.dll
 0002:0007a8d4       ?readDatagram@QUdpSocket@@QAE_JPAD_JPAVQHostAddress@@PAG@Z 004ba8d4 f   qt5networkd:Qt5Networkd.dll
 0002:0007a8da       ?writeDatagram@QUdpSocket@@QAE_JPBD_JABVQHostAddress@@G@Z 004ba8da f   qt5networkd:Qt5Networkd.dll
 0002:0007a8e0       ?writeDatagram@QUdpSocket@@QAE_JABVQByteArray@@ABVQHostAddress@@G@Z 004ba8e0 f   qt5networkd:Qt5Networkd.dll
 0002:0007a8e6       ?atEnd@QAbstractSocket@@UBE_NXZ 004ba8e6 f   qt5networkd:Qt5Networkd.dll
 0002:0007a8ec       ?bytesAvailable@QAbstractSocket@@UBE_JXZ 004ba8ec f   qt5networkd:Qt5Networkd.dll
 0002:0007a8f2       ?bytesToWrite@QAbstractSocket@@UBE_JXZ 004ba8f2 f   qt5networkd:Qt5Networkd.dll
 0002:0007a8f8       ?canReadLine@QAbstractSocket@@UBE_NXZ 004ba8f8 f   qt5networkd:Qt5Networkd.dll
 0002:0007a8fe       ?close@QAbstractSocket@@UAEXXZ 004ba8fe f   qt5networkd:Qt5Networkd.dll
 0002:0007a904       ?connectToHost@QAbstractSocket@@UAEXABVQHostAddress@@GV?$QFlags@W4OpenModeFlag@QIODevice@@@@@Z 004ba904 f   qt5networkd:Qt5Networkd.dll
 0002:0007a90a       ?connectToHost@QAbstractSocket@@UAEXABVQString@@GV?$QFlags@W4OpenModeFlag@QIODevice@@@@W4NetworkLayerProtocol@1@@Z 004ba90a f   qt5networkd:Qt5Networkd.dll
 0002:0007a910       ?disconnectFromHost@QAbstractSocket@@UAEXXZ 004ba910 f   qt5networkd:Qt5Networkd.dll
 0002:0007a916       ?isSequential@QAbstractSocket@@UBE_NXZ 004ba916 f   qt5networkd:Qt5Networkd.dll
 0002:0007a91c       ?metaObject@QUdpSocket@@UBEPBUQMetaObject@@XZ 004ba91c f   qt5networkd:Qt5Networkd.dll
 0002:0007a922       ?qt_metacall@QUdpSocket@@UAEHW4Call@QMetaObject@@HPAPAX@Z 004ba922 f   qt5networkd:Qt5Networkd.dll
 0002:0007a928       ?qt_metacast@QUdpSocket@@UAEPAXPBD@Z 004ba928 f   qt5networkd:Qt5Networkd.dll
 0002:0007a92e       ?readData@QAbstractSocket@@MAE_JPAD_J@Z 004ba92e f   qt5networkd:Qt5Networkd.dll
 0002:0007a934       ?readLineData@QAbstractSocket@@MAE_JPAD_J@Z 004ba934 f   qt5networkd:Qt5Networkd.dll
 0002:0007a93a       ?resume@QAbstractSocket@@UAEXXZ 004ba93a f   qt5networkd:Qt5Networkd.dll
 0002:0007a940       ?setReadBufferSize@QAbstractSocket@@UAEX_J@Z 004ba940 f   qt5networkd:Qt5Networkd.dll
 0002:0007a946       ?setSocketDescriptor@QAbstractSocket@@UAE_NHW4SocketState@1@V?$QFlags@W4OpenModeFlag@QIODevice@@@@@Z 004ba946 f   qt5networkd:Qt5Networkd.dll
 0002:0007a94c       ?setSocketOption@QAbstractSocket@@UAEXW4SocketOption@1@ABVQVariant@@@Z 004ba94c f   qt5networkd:Qt5Networkd.dll
 0002:0007a952       ?socketDescriptor@QAbstractSocket@@UBEHXZ 004ba952 f   qt5networkd:Qt5Networkd.dll
 0002:0007a958       ?socketOption@QAbstractSocket@@UAE?AVQVariant@@W4SocketOption@1@@Z 004ba958 f   qt5networkd:Qt5Networkd.dll
 0002:0007a95e       ?waitForBytesWritten@QAbstractSocket@@UAE_NH@Z 004ba95e f   qt5networkd:Qt5Networkd.dll
 0002:0007a964       ?waitForConnected@QAbstractSocket@@UAE_NH@Z 004ba964 f   qt5networkd:Qt5Networkd.dll
 0002:0007a96a       ?waitForDisconnected@QAbstractSocket@@UAE_NH@Z 004ba96a f   qt5networkd:Qt5Networkd.dll
 0002:0007a970       ?waitForReadyRead@QAbstractSocket@@UAE_NH@Z 004ba970 f   qt5networkd:Qt5Networkd.dll
 0002:0007a976       ?writeData@QAbstractSocket@@MAE_JPBD_J@Z 004ba976 f   qt5networkd:Qt5Networkd.dll
 0002:0007a980       ??0SSD@qt_SS@RACERMATE@@QAE@H@Z 004ba980 f   rmg:qt_ss.obj
 0002:0007aa00       ??1SSD@qt_SS@RACERMATE@@QAE@XZ 004baa00 f   rmg:qt_ss.obj
 0002:0007aa60       ?reset@SSD@qt_SS@RACERMATE@@QAEXXZ 004baa60 f   rmg:qt_ss.obj
 0002:0007ab40       ?getNbars@SSD@qt_SS@RACERMATE@@QBEHXZ 004bab40 f   rmg:qt_ss.obj
 0002:0007ab50       ?setNbars@SSD@qt_SS@RACERMATE@@QAEXH@Z 004bab50 f   rmg:qt_ss.obj
 0002:0007ad00       ??0BARINFO@qt_SS@RACERMATE@@QAE@H@Z 004bad00 f   rmg:qt_ss.obj
 0002:0007ad30       ?init@BARINFO@qt_SS@RACERMATE@@QAEXXZ 004bad30 f   rmg:qt_ss.obj
 0002:0007aed0       ?reset@BARINFO@qt_SS@RACERMATE@@QAEXXZ 004baed0 f   rmg:qt_ss.obj
 0002:0007aef0       ?setNbars@BARINFO@qt_SS@RACERMATE@@SAXH@Z 004baef0 f   rmg:qt_ss.obj
 0002:0007af20       ??0qt_SS@RACERMATE@@QAE@XZ 004baf20 f   rmg:qt_ss.obj
 0002:0007b1f0       ??1qt_SS@RACERMATE@@QAE@XZ 004bb1f0 f   rmg:qt_ss.obj
 0002:0007b460       ?get_barinfo@qt_SS@RACERMATE@@QAEPAVBARINFO@12@H@Z 004bb460 f   rmg:qt_ss.obj
 0002:0007b480       ?start@qt_SS@RACERMATE@@QAEXXZ 004bb480 f   rmg:qt_ss.obj
 0002:0007b490       ?reset@qt_SS@RACERMATE@@QAEXXZ 004bb490 f   rmg:qt_ss.obj
 0002:0007b5d0       ?reset_averages@qt_SS@RACERMATE@@QAEXXZ 004bb5d0 f   rmg:qt_ss.obj
 0002:0007b620       ?do_ten_hz_filter@qt_SS@RACERMATE@@QAEXXZ 004bb620 f   rmg:qt_ss.obj
 0002:0007be90       ?getStarted@qt_SS@RACERMATE@@QBE_NXZ 004bbe90 f   rmg:qt_ss.obj
 0002:0007beb0       ?setStarted@qt_SS@RACERMATE@@QAEX_N@Z 004bbeb0 f   rmg:qt_ss.obj
 0002:0007bed0       ?getFinished@qt_SS@RACERMATE@@QBE_NXZ 004bbed0 f   rmg:qt_ss.obj
 0002:0007bef0       ?setFinished@qt_SS@RACERMATE@@QAEX_N@Z 004bbef0 f   rmg:qt_ss.obj
 0002:0007bf10       ?getPaused@qt_SS@RACERMATE@@QBE_NXZ 004bbf10 f   rmg:qt_ss.obj
 0002:0007bf30       ?setPaused@qt_SS@RACERMATE@@QAEX_N@Z 004bbf30 f   rmg:qt_ss.obj
 0002:0007bf50       ?setraw@qt_SS@RACERMATE@@QAEXHM@Z 004bbf50 f   rmg:qt_ss.obj
 0002:0007bf90       ?getdata@qt_SS@RACERMATE@@QAEPAVSSD@12@XZ 004bbf90 f   rmg:qt_ss.obj
 0002:0007bfa0       ?getRescale@qt_SS@RACERMATE@@QBE_NXZ 004bbfa0 f   rmg:qt_ss.obj
 0002:0007c540       ??$qMax@M@@YAABMABM0@Z     004bc540 f i rmg:qt_ss.obj
 0002:0007c580       ??_GSSD@qt_SS@RACERMATE@@QAEPAXI@Z 004bc580 f i rmg:qt_ss.obj
 0002:0007c5c0       ??_GsMav@@QAEPAXI@Z        004bc5c0 f i rmg:qt_ss.obj
 0002:0007c600       ?convertDOB@Person@@IAEXXZ 004bc600 f   rmg:person.obj
 0002:0007c790       ?destroy@Person@@IAEXXZ    004bc790 f   rmg:person.obj
 0002:0007c7a0       ?init@Person@@IAEXXZ       004bc7a0 f   rmg:person.obj
 0002:0007c970       ?setInitials@Person@@IAEXXZ 004bc970 f   rmg:person.obj
 0002:0007ca10       ?setName2@Person@@IAEXXZ   004bca10 f   rmg:person.obj
 0002:0007ca90       ??0Person@@QAE@XZ          004bca90 f   rmg:person.obj
 0002:0007cb00       ??1Person@@UAE@XZ          004bcb00 f   rmg:person.obj
 0002:0007cb60       ?dump@Person@@QAEXPAD@Z    004bcb60 f   rmg:person.obj
 0002:0007cd10       ?my_export@Person@@UAEXPAU_iobuf@@_N@Z 004bcd10 f   rmg:person.obj
 0002:0007d080       ??0PERSON_DATA@@QAE@XZ     004bd080 f i rmg:person.obj
 0002:0007d120       ??1PERSON_DATA@@QAE@XZ     004bd120 f i rmg:person.obj
 0002:0007d1c0       ??_GPerson@@UAEPAXI@Z      004bd1c0 f i rmg:person.obj
 0002:0007d1c0       ??_EPerson@@UAEPAXI@Z      004bd1c0 f i rmg:person.obj
 0002:0007d200       ?getInches@Person@@QAEMXZ  004bd200 f i rmg:person.obj
 0002:0007d240       ?getName@Person@@QAEPADXZ  004bd240 f i rmg:person.obj
 0002:0007d320       ?getpounds@Person@@QAEMXZ  004bd320 f i rmg:person.obj
 0002:0007d360       ?getsexString@Person@@QAEPBDXZ 004bd360 f i rmg:person.obj
 0002:0007d3b0       ??0QT_DATA@RACERMATE@@QAE@XZ 004bd3b0 f   rmg:qt_data.obj
 0002:0007d410       ?reset@QT_DATA@RACERMATE@@QAEXXZ 004bd410 f   rmg:qt_data.obj
 0002:0007d500       ?init@QT_DATA@RACERMATE@@AAEXXZ 004bd500 f   rmg:qt_data.obj
 0002:0007d570       ??0sMav@@QAE@H_N@Z         004bd570 f   rmg:smav.obj
 0002:0007d6a0       ??1sMav@@QAE@XZ            004bd6a0 f   rmg:smav.obj
 0002:0007d710       ?compute@sMav@@QAEMM@Z     004bd710 f   rmg:smav.obj
 0002:0007d890       ?first@sMav@@QAEMXZ        004bd890 f   rmg:smav.obj
 0002:0007d8b0       ?last@sMav@@QAEMXZ         004bd8b0 f   rmg:smav.obj
 0002:0007d8f0       ?reset@sMav@@QAEXM@Z       004bd8f0 f   rmg:smav.obj
 0002:0007d9d0       ?setShift@sMav@@QAEXH@Z    004bd9d0 f   rmg:smav.obj
 0002:0007db50       ??0twoPoleFilter@@QAE@H@Z  004bdb50 f   rmg:twopolefilter.obj
 0002:0007db90       ??1twoPoleFilter@@UAE@XZ   004bdb90 f   rmg:twopolefilter.obj
 0002:0007dbb0       ?calc@twoPoleFilter@@QAENN@Z 004bdbb0 f   rmg:twopolefilter.obj
 0002:0007dc40       ?setState@twoPoleFilter@@QAEXNN@Z 004bdc40 f   rmg:twopolefilter.obj
 0002:0007dc70       ?getState@twoPoleFilter@@QAEXPAN0@Z 004bdc70 f   rmg:twopolefilter.obj
 0002:0007dca0       ?reset@twoPoleFilter@@QAEXXZ 004bdca0 f   rmg:twopolefilter.obj
 0002:0007dd30       ??_GtwoPoleFilter@@UAEPAXI@Z 004bdd30 f i rmg:twopolefilter.obj
 0002:0007dd30       ??_EtwoPoleFilter@@UAEPAXI@Z 004bdd30 f i rmg:twopolefilter.obj
 0002:0007dd6a       _UnhandledExceptionFilter@4 004bdd6a f   kernel32:KERNEL32.dll
 0002:0007dd70       _SetUnhandledExceptionFilter@4 004bdd70 f   kernel32:KERNEL32.dll
 0002:0007dd76       _GetCurrentProcess@0       004bdd76 f   kernel32:KERNEL32.dll
 0002:0007dd7c       _TerminateProcess@8        004bdd7c f   kernel32:KERNEL32.dll
 0002:0007dd82       _IsProcessorFeaturePresent@4 004bdd82 f   kernel32:KERNEL32.dll
 0002:0007dd88       _IsDebuggerPresent@0       004bdd88 f   kernel32:KERNEL32.dll
 0002:0007dd8e       _RaiseException@16         004bdd8e f   kernel32:KERNEL32.dll
 0002:0007dd94       _EnterCriticalSection@4    004bdd94 f   kernel32:KERNEL32.dll
 0002:0007dd9a       _LeaveCriticalSection@4    004bdd9a f   kernel32:KERNEL32.dll
 0002:0007dda0       _DeleteCriticalSection@4   004bdda0 f   kernel32:KERNEL32.dll
 0002:0007dda6       _WaitForSingleObjectEx@12  004bdda6 f   kernel32:KERNEL32.dll
 0002:0007ddac       _CreateEventW@16           004bddac f   kernel32:KERNEL32.dll
 0002:0007ddb2       _GetModuleHandleW@4        004bddb2 f   kernel32:KERNEL32.dll
 0002:0007ddb8       _GetProcAddress@8          004bddb8 f   kernel32:KERNEL32.dll
 0002:0007ddbe       _GetStartupInfoW@4         004bddbe f   kernel32:KERNEL32.dll
 0002:0007ddc4       _HeapAlloc@12              004bddc4 f   kernel32:KERNEL32.dll
 0002:0007ddca       _HeapFree@12               004bddca f   kernel32:KERNEL32.dll
 0002:0007ddd0       _VirtualQuery@12           004bddd0 f   kernel32:KERNEL32.dll
 0002:0007ddd6       _FreeLibrary@4             004bddd6 f   kernel32:KERNEL32.dll
 0002:0007dddc       _GetCurrentProcessId@0     004bdddc f   kernel32:KERNEL32.dll
 0002:0007dde2       _GetCurrentThreadId@0      004bdde2 f   kernel32:KERNEL32.dll
 0002:0007dde8       _InitializeSListHead@4     004bdde8 f   kernel32:KERNEL32.dll
 0002:0007ddf0       ___acrt_initialize         004bddf0 f   MSVCRTD:ucrt_stubs.obj
 0002:0007ddf0       ___vcrt_initialize         004bddf0 f   MSVCRTD:ucrt_stubs.obj
 0002:0007ddf0       ___scrt_stub_for_acrt_initialize 004bddf0 f   MSVCRTD:ucrt_stubs.obj
 0002:0007de00       ___acrt_thread_attach      004bde00 f   MSVCRTD:ucrt_stubs.obj
 0002:0007de00       ___vcrt_thread_attach      004bde00 f   MSVCRTD:ucrt_stubs.obj
 0002:0007de00       ___scrt_stub_for_acrt_thread_attach 004bde00 f   MSVCRTD:ucrt_stubs.obj
 0002:0007de10       ___acrt_thread_detach      004bde10 f   MSVCRTD:ucrt_stubs.obj
 0002:0007de10       ___vcrt_thread_detach      004bde10 f   MSVCRTD:ucrt_stubs.obj
 0002:0007de10       ___scrt_stub_for_acrt_thread_detach 004bde10 f   MSVCRTD:ucrt_stubs.obj
 0002:0007de20       ___acrt_uninitialize       004bde20 f   MSVCRTD:ucrt_stubs.obj
 0002:0007de20       ___vcrt_uninitialize       004bde20 f   MSVCRTD:ucrt_stubs.obj
 0002:0007de20       ___scrt_stub_for_acrt_uninitialize 004bde20 f   MSVCRTD:ucrt_stubs.obj
 0002:0007de30       ___scrt_stub_for_acrt_uninitialize_critical 004bde30 f   MSVCRTD:ucrt_stubs.obj
 0002:0007de30       ___acrt_uninitialize_critical 004bde30 f   MSVCRTD:ucrt_stubs.obj
 0002:0007de30       ___vcrt_uninitialize_critical 004bde30 f   MSVCRTD:ucrt_stubs.obj
 0002:0007de40       __is_c_termination_complete 004bde40 f   MSVCRTD:ucrt_stubs.obj
 0002:0007de40       ___scrt_stub_for_is_c_termination_complete 004bde40 f   MSVCRTD:ucrt_stubs.obj
 0003:00000000       ___xc_a                    004c9000     MSVCRTD:initializers.obj
 0003:00000330       ___xc_z                    004c9330     MSVCRTD:initializers.obj
 0003:00000434       ___xi_a                    004c9434     MSVCRTD:initializers.obj
 0003:00000844       ___xi_z                    004c9844     MSVCRTD:initializers.obj
 0003:00000948       ___xl_a                    004c9948     MSVCRTD:tlssup.obj
 0003:0000094c       ___xl_z                    004c994c     MSVCRTD:tlssup.obj
 0003:00000950       ___xp_a                    004c9950     MSVCRTD:initializers.obj
 0003:00000a54       ___xp_z                    004c9a54     MSVCRTD:initializers.obj
 0003:00000b58       ___xt_a                    004c9b58     MSVCRTD:initializers.obj
 0003:00000c5c       ___xt_z                    004c9c5c     MSVCRTD:initializers.obj
 0003:00000d60       ??_C@_0BM@PJOGAIHG@SERIAL_ERROR_DOES_NOT_EXIST?$AA@ 004c9d60     test.obj
 0003:00000d84       ??_C@_0BL@OJMBEFCG@SERIAL_ERROR_ACCESS_DENIED?$AA@ 004c9d84     test.obj
 0003:00000da4       ??_C@_0BK@HKNEKKDC@SERIAL_ERROR_BUILDCOMMDCB?$AA@ 004c9da4     test.obj
 0003:00000dc4       ??_C@_0BK@LOKODCAO@SERIAL_ERROR_SETCOMMSTATE?$AA@ 004c9dc4     test.obj
 0003:00000de4       ??_C@_0BK@MJEGFBMK@SERIAL_ERROR_CREATEEVENT1?$AA@ 004c9de4     test.obj
 0003:00000e04       ??_C@_0BK@OCGLACAJ@SERIAL_ERROR_CREATEEVENT2?$AA@ 004c9e04     test.obj
 0003:00000e24       ??_C@_0BD@LIKDEECF@SERIAL_ERROR_OTHER?$AA@ 004c9e24     test.obj
 0003:00000e3c       ??_C@_0BD@GEFEHAPC@DEVICE_NOT_SCANNED?$AA@ 004c9e3c     test.obj
 0003:00000e54       ??_C@_0BG@BGDIBJPI@DEVICE_DOES_NOT_EXIST?$AA@ 004c9e54     test.obj
 0003:00000e70       ??_C@_0O@EFKINNKG@DEVICE_EXISTS?$AA@ 004c9e70     test.obj
 0003:00000e80       ??_C@_0BE@HOCBHNDD@DEVICE_COMPUTRAINER?$AA@ 004c9e80     test.obj
 0003:00000e98       ??_C@_0BA@PJGAIILE@DEVICE_VELOTRON?$AA@ 004c9e98     test.obj
 0003:00000eac       ??_C@_0BB@FHOAEII@DEVICE_SIMULATOR?$AA@ 004c9eac     test.obj
 0003:00000ec0       ??_C@_0BB@GJAEPAOD@DEVICE_PERF_FILE?$AA@ 004c9ec0     test.obj
 0003:00000ed4       ??_C@_0BF@OCMAOBGF@DEVICE_ACCESS_DENIED?$AA@ 004c9ed4     test.obj
 0003:00000ef0       ??_C@_0BC@HKNPLHAP@DEVICE_OPEN_ERROR?$AA@ 004c9ef0     test.obj
 0003:00000f08       ??_C@_0BD@CPMPMAAM@DEVICE_OTHER_ERROR?$AA@ 004c9f08     test.obj
 0003:00000f20       ??_C@_1JA@MHADJNIL@?$AAc?$AA?3?$AA?2?$AAp?$AAr?$AAo?$AAg?$AAr?$AAa?$AAm?$AA?5?$AAf?$AAi?$AAl?$AAe?$AAs?$AA?5?$AA?$CI?$AAx?$AA8?$AA6?$AA?$CJ?$AA?2?$AAm?$AAi?$AAc?$AAr?$AAo?$AAs?$AAo?$AAf?$AAt@ 004c9f20     test.obj
 0003:00000fcc       ??_C@_1DC@POOIKBAO@?$AAI?$AAT?$AAE?$AAR?$AAA?$AAT?$AAO?$AAR?$AA?5?$AAL?$AAI?$AAS?$AAT?$AA?5?$AAC?$AAO?$AAR?$AAR?$AAU?$AAP?$AAT?$AAE?$AAD?$AA?$CB?$AA?$AA@ 004c9fcc     test.obj
 0003:00001008       ??_C@_0BE@LMNLACIC@_Ptr_container?5?$CB?$DN?50?$AA@ 004ca008     test.obj
 0003:00001020       ??_C@_1DG@HGDKEBPG@?$AA?$CC?$AA_?$AAP?$AAt?$AAr?$AA_?$AAc?$AAo?$AAn?$AAt?$AAa?$AAi?$AAn?$AAe?$AAr?$AA?5?$AA?$CB?$AA?$DN?$AA?5?$AA0?$AA?$CC?$AA?5?$AA?$CG?$AA?$CG?$AA?5?$AA0?$AA?$AA@ 004ca020     test.obj
 0003:00001060       ??_C@_17CNPHIMPH@?$AA?$CF?$AAl?$AAs?$AA?$AA@ 004ca060     test.obj
 0003:00001070       ??_C@_1JA@DKOIEICI@?$AAc?$AA?3?$AA?2?$AAp?$AAr?$AAo?$AAg?$AAr?$AAa?$AAm?$AA?5?$AAf?$AAi?$AAl?$AAe?$AAs?$AA?5?$AA?$CI?$AAx?$AA8?$AA6?$AA?$CJ?$AA?2?$AAm?$AAi?$AAc?$AAr?$AAo?$AAs?$AAo?$AAf?$AAt@ 004ca070     test.obj
 0003:0000111c       ??_C@_1BO@NKFMJPA@?$AAs?$AAt?$AAd?$AA?3?$AA?3?$AA_?$AAA?$AAl?$AAl?$AAo?$AAc?$AAa?$AAt?$AAe?$AA?$AA@ 004ca11c     test.obj
 0003:00001140       ??_C@_1CG@JNLFBNGN@?$AA?$CC?$AAi?$AAn?$AAv?$AAa?$AAl?$AAi?$AAd?$AA?5?$AAa?$AAr?$AAg?$AAu?$AAm?$AAe?$AAn?$AAt?$AA?$CC?$AA?$AA@ 004ca140     test.obj
 0003:00001170       ??_C@_09GLJCAGLP@_Ptr?5?$CB?$DN?50?$AA@ 004ca170     test.obj
 0003:0000117c       ??_C@_1CC@GKJLLHIM@?$AA?$CC?$AA_?$AAP?$AAt?$AAr?$AA?5?$AA?$CB?$AA?$DN?$AA?5?$AA0?$AA?$CC?$AA?5?$AA?$CG?$AA?$CG?$AA?5?$AA0?$AA?$AA@ 004ca17c     test.obj
 0003:000011a4       ??_C@_0BN@HMCJOMKN@_Count?5?$DM?$DN?5?$CIsize_t?$CJ?$CI?91?$CJ?5?1?5_Sz?$AA@ 004ca1a4     test.obj
 0003:000011c8       ??_C@_1EI@MLOBABC@?$AA?$CC?$AA_?$AAC?$AAo?$AAu?$AAn?$AAt?$AA?5?$AA?$DM?$AA?$DN?$AA?5?$AA?$CI?$AAs?$AAi?$AAz?$AAe?$AA_?$AAt?$AA?$CJ?$AA?$CI?$AA?9?$AA1?$AA?$CJ?$AA?5?$AA?1?$AA?5?$AA_?$AAS?$AAz?$AA?$CC?$AA?5?$AA?$CG@ 004ca1c8     test.obj
 0003:00001220       ??_C@_1CC@LOFJFFDB@?$AAs?$AAt?$AAd?$AA?3?$AA?3?$AA_?$AAD?$AAe?$AAa?$AAl?$AAl?$AAo?$AAc?$AAa?$AAt?$AAe?$AA?$AA@ 004ca220     test.obj
 0003:00001248       ??_C@_0DD@GBGGGKGG@?$CI_Ptr_user?5?$CG?5?$CI_BIG_ALLOCATION_AL@ 004ca248     test.obj
 0003:00001288       ??_C@_1HE@CDMBFOKC@?$AA?$CC?$AA?$CI?$AA_?$AAP?$AAt?$AAr?$AA_?$AAu?$AAs?$AAe?$AAr?$AA?5?$AA?$CG?$AA?5?$AA?$CI?$AA_?$AAB?$AAI?$AAG?$AA_?$AAA?$AAL?$AAL?$AAO?$AAC?$AAA?$AAT?$AAI?$AAO?$AAN?$AA_?$AAA@ 004ca288     test.obj
 0003:00001318       ??_C@_0EI@NOJHEJCJ@reinterpret_cast?$DMuintptr_t?5?$CK?$DO?$CI_P@ 004ca318     test.obj
 0003:00001370       ??_C@_1JO@EKLKIEHP@?$AA?$CC?$AAr?$AAe?$AAi?$AAn?$AAt?$AAe?$AAr?$AAp?$AAr?$AAe?$AAt?$AA_?$AAc?$AAa?$AAs?$AAt?$AA?$DM?$AAu?$AAi?$AAn?$AAt?$AAp?$AAt?$AAr?$AA_?$AAt?$AA?5?$AA?$CK?$AA?$DO?$AA?$CI?$AA_@ 004ca370     test.obj
 0003:00001430       ??_C@_0BL@OCKMEJON@_Ptr_container?5?$DM?5_Ptr_user?$AA@ 004ca430     test.obj
 0003:00001450       ??_C@_1EE@PDHAHDDC@?$AA?$CC?$AA_?$AAP?$AAt?$AAr?$AA_?$AAc?$AAo?$AAn?$AAt?$AAa?$AAi?$AAn?$AAe?$AAr?$AA?5?$AA?$DM?$AA?5?$AA_?$AAP?$AAt?$AAr?$AA_?$AAu?$AAs?$AAe?$AAr?$AA?$CC?$AA?5?$AA?$CG?$AA?$CG?$AA?5@ 004ca450     test.obj
 0003:000014a4       ??_C@_0DB@GLFJLNCE@2?5?$CK?5sizeof?$CIvoid?5?$CK?$CJ?5?$DM?$DN?5_Ptr_user?5@ 004ca4a4     test.obj
 0003:000014e0       ??_C@_1HA@NAPGMHAO@?$AA?$CC?$AA2?$AA?5?$AA?$CK?$AA?5?$AAs?$AAi?$AAz?$AAe?$AAo?$AAf?$AA?$CI?$AAv?$AAo?$AAi?$AAd?$AA?5?$AA?$CK?$AA?$CJ?$AA?5?$AA?$DM?$AA?$DN?$AA?5?$AA_?$AAP?$AAt?$AAr?$AA_?$AAu?$AAs?$AAe?$AAr@ 004ca4e0     test.obj
 0003:00001568       ??_C@_0CN@BLHJCAL@_Ptr_user?5?9?5_Ptr_container?5?$DM?$DN?5_N@ 004ca568     test.obj
 0003:000015a0       ??_C@_1GI@DHJGPFNI@?$AA?$CC?$AA_?$AAP?$AAt?$AAr?$AA_?$AAu?$AAs?$AAe?$AAr?$AA?5?$AA?9?$AA?5?$AA_?$AAP?$AAt?$AAr?$AA_?$AAc?$AAo?$AAn?$AAt?$AAa?$AAi?$AAn?$AAe?$AAr?$AA?5?$AA?$DM?$AA?$DN?$AA?5?$AA_@ 004ca5a0     test.obj
 0003:00001620       ??_7SE_Exception@@6B@      004ca620     test.obj
 0003:00001628       ??_C@_05LAPONLG@false?$AA@ 004ca628     test.obj
 0003:00001630       ??_C@_04LOAJBDKD@true?$AA@ 004ca630     test.obj
 0003:00001636       ??_C@_00CNPNBAHC@?$AA@     004ca636     test.obj
 0003:0000163c       ??_7qtFormula@@6B@         004ca63c     test.obj
 0003:00001648       ??_7Monarch@@6B@           004ca648     test.obj
 0003:00001654       ??_7Physics@@6B@           004ca654     test.obj
 0003:00001660       ??_7Formula@@6B@           004ca660     test.obj
 0003:0000166c       ??_7fatalError@@6B@        004ca66c     test.obj
 0003:00001674       ??_C@_0BL@ICKPOCI@?$AN?6BEGINNING?5PROGRAM?4?4?4?$AN?6?$AN?6?$AA@ 004ca674     test.obj
 0003:00001694       ??_C@_0CA@NEKNEHHF@?$AN?6const?5char?5?$CKexception?3?5?$CFs?$AN?6?$AN?6?$AA@ 004ca694     test.obj
 0003:000016bc       ??_C@_0BG@EPDBEBFD@?$AN?6fatal?5error?3?5?$CFs?$AN?6?$AN?6?$AA@ 004ca6bc     test.obj
 0003:000016d8       ??_C@_0BN@GONHODPI@?$AN?6Integer?5Exception?5?$CI?$CFd?$CJ?$AN?6?$AN?6?$AA@ 004ca6d8     test.obj
 0003:000016fc       ??_C@_0BK@GALJAFIL@?$AN?6Unhandled?5Exception?$AN?6?$AN?6?$AA@ 004ca6fc     test.obj
 0003:0000171c       ??_C@_0BL@JFIMDOEJ@?$AN?6?$AN?6calling?5cleanup?$CI?$CJ?3?$AN?6?$AN?6?$AA@ 004ca71c     test.obj
 0003:0000173c       ??_C@_0BK@NCECFEOG@total?5time?5?$DN?5?$CF?42f?5seconds?$AA@ 004ca73c     test.obj
 0003:0000175c       ??_C@_0BN@OCNJBFCF@?$AN?6calling?5_CrtCheckMemory?3?$AN?6?$AA@ 004ca75c     test.obj
 0003:00001780       ??_C@_0CB@OGEDMKAO@?$AN?6calling?5_CrtDumpMemoryLeaks?3?$AN?6@ 004ca780     test.obj
 0003:000017a8       ??_C@_0BO@DNFGJOKM@?$AN?6calling?5_CrtMemDifference?3?6?$AA@ 004ca7a8     test.obj
 0003:000017cc       ??_C@_08NOAEJOFE@kk?5?$DN?5?$CFd?6?$AA@ 004ca7cc     test.obj
 0003:000017d8       ??_C@_0CG@IKELPIPG@?$AN?6done?5checking?5memory?5corruptio@ 004ca7d8     test.obj
 0003:00001808       ??_C@_0P@IKFGALG@?$AN?6hit?5a?5key?4?4?4?$AA@ 004ca808     test.obj
 0003:0000181c       ??_C@_0CK@PDLIJGII@x?3?2data?2_fs?2racermate?2cpp_tester@ 004ca81c     test.obj
 0003:00001850       ??_C@_0O@FAFGFJNJ@Out?5Of?5Memory?$AA@ 004ca850     test.obj
 0003:00001860       ??_C@_1FK@HHAMKGAL@?$AAI?$AAP?$AA?3?$AA?5?$AAf?$AAu?$AAn?$AAc?$AA?5?$AA?$DN?$AA?5?$AA?$CF?$AAs?$AA?0?$AA?5?$AAf?$AAi?$AAl?$AAe?$AA?5?$AA?$DN?$AA?5?$AA?$CF?$AAs?$AA?0?$AA?5?$AAl?$AAi?$AAn?$AAe?$AA?5?$AA?$DN@ 004ca860     test.obj
 0003:000018cc       ??_C@_0P@PDBFCFEK@udmode?5?$DN?5wind?6?$AA@ 004ca8cc     test.obj
 0003:000018e0       ??_C@_0BG@IFGLNJJN@?5?5?5?5?5?5wind?5load?5mode?6?$AA@ 004ca8e0     test.obj
 0003:000018fc       ??_C@_0BB@GDJGOELK@?5?5?5?5?5?5ergo?5mode?6?$AA@ 004ca8fc     test.obj
 0003:00001910       ??_C@_0BI@JCPEACAI@?5?5?5?5?5?5cal?5mode?5entered?6?$AA@ 004ca910     test.obj
 0003:0000192c       ??_C@_0BF@CMEPFHNN@?5?5?5?5?5?5cal?5mode?5exit?6?$AA@ 004ca92c     test.obj
 0003:00001948       ??_C@_0BF@PDNNJC@?5?5?5?5?5?5udmode?5?$DN?5none?6?$AA@ 004ca948     test.obj
 0003:00001964       ??_C@_0BN@MGFOJKIC@?5?5?5?5?5?5weight?5?$DN?5?$CF?41lf?5pounds?6?$AA@ 004ca964     test.obj
 0003:00001988       ??_C@_0BE@DFBGCOGO@?5?5?5?5?5?5slope?5?$DN?5?$CF?41f?6?$AA@ 004ca988     test.obj
 0003:000019a0       ??_C@_0BF@PJJJBAA@?5?5?5?5?5?5manwatts?5?$DN?5?$CFd?6?$AA@ 004ca9a0     test.obj
 0003:000019bc       ??_C@_0BF@PHBDIIDO@?5?5?5?5?5?5wind?5?$DN?5?$CFd?5mph?6?$AA@ 004ca9bc     test.obj
 0003:000019d8       ??_C@_0BK@LAICGHMJ@?5?5?5?5?5?5draftwind?5?$DN?5?$CFd?5mph?6?$AA@ 004ca9d8     test.obj
 0003:000019f8       ??_C@_0M@EODMPGCC@bad?5udpmode?$AA@ 004ca9f8     test.obj
 0003:00001a08       ??_C@_0BF@NOIBNFCN@udmode?5?$DN?5draft_wind?6?$AA@ 004caa08     test.obj
 0003:00001a24       ??_C@_0L@CCJKKGCN@bad?5udmode?$AA@ 004caa24     test.obj
 0003:00001a34       ??_C@_0BD@CCCIPMFE@udmode?5?$DN?5manwatts?6?$AA@ 004caa34     test.obj
 0003:00001a4c       ??_C@_0BA@KDABCAHL@udmode?5?$DN?5grade?6?$AA@ 004caa4c     test.obj
 0003:00001a60       ??_C@_0BP@KDOCCFMJ@udmode?5?$DN?5weight?0?5?$CF?41lf?5pounds?6?$AA@ 004caa60     test.obj
 0003:00001a88       ??_C@_02HLHCNIN@ft?$AA@    004caa88     test.obj
 0003:00001a8c       ??_C@_0N@ODMMHPMC@?$AN?6test_ant?$AN?6?$AA@ 004caa8c     test.obj
 0003:00001a9c       ??_C@_0BG@IGGNNIFN@?6looking?5for?5sensors?6?$AA@ 004caa9c     test.obj
 0003:00001ab8       ??_C@_0BP@JHLOJGED@?6no?5sensors?5after?510?5seconds?6?6?$AA@ 004caab8     test.obj
 0003:00001ae0       ??_C@_08JODJADEF@UDP?95678?$AA@ 004caae0     test.obj
 0003:00001aec       ??_C@_03FGIPBMOB@zzz?$AA@  004caaec     test.obj
 0003:00001af0       ??_C@_02BKFDOEMK@wt?$AA@   004caaf0     test.obj
 0003:00001af4       ??_C@_08HLHPKJF@test?4log?$AA@ 004caaf4     test.obj
 0003:00001b00       ??_C@_0BF@PBABNBEK@?$CF?96?41f?5?$CF3d?5?5?$CF3d?5?5?$CFd?6?$AA@ 004cab00     test.obj
 0003:00001b1c       ??_C@_0BD@LEFGKPMH@?$CF?96?41f?5no?5sensors?6?$AA@ 004cab1c     test.obj
 0003:00001b34       ??_C@_02DKCKIIND@?$CFs?$AA@ 004cab34     test.obj
 0003:00001b38       ??_C@_05CCGMLFNG@Reset?$AA@ 004cab38     test.obj
 0003:00001b40       ??_C@_02LCPENACN@F1?$AA@   004cab40     test.obj
 0003:00001b44       ??_C@_02JJNJIDOO@F2?$AA@   004cab44     test.obj
 0003:00001b48       ??_C@_02IAMCLCKP@F3?$AA@   004cab48     test.obj
 0003:00001b4c       ??_C@_01MIFGBAGJ@?$CL?$AA@ 004cab4c     test.obj
 0003:00001b50       ??_C@_01JOAMLHOP@?9?$AA@   004cab50     test.obj
 0003:00001b54       ??_C@_02IPNHJBLG@Fn?$AA@   004cab54     test.obj
 0003:00001b58       ??_C@_02EFPGLDEA@Up?$AA@   004cab58     test.obj
 0003:00001b5c       ??_C@_04FNCLCJMC@Down?$AA@ 004cab5c     test.obj
 0003:00001b64       ??_C@_02CPIDLAI@at?$AA@    004cab64     test.obj
 0003:00001b68       ??_C@_0BE@HMOKGBEN@?$AN?6test_n_trainers?$AN?6?$AA@ 004cab68     test.obj
 0003:00001b80       ??_C@_0L@NDFCBDDI@client?4log?$AA@ 004cab80     test.obj
 0003:00001b90       ??_C@_08KPCIENBO@test?4ini?$AA@ 004cab90     test.obj
 0003:00001b9c       ??_C@_0P@HJMBPPIL@broadcast?5port?$AA@ 004cab9c     test.obj
 0003:00001bb0       ??_C@_07FOPBDDAL@options?$AA@ 004cabb0     test.obj
 0003:00001bbc       ??_C@_0M@PAEFIHOB@listen?5port?$AA@ 004cabbc     test.obj
 0003:00001bd0       ??_C@_1FE@OKKDMGHJ@?$AAx?$AA?3?$AA?2?$AAd?$AAa?$AAt?$AAa?$AA?2?$AA_?$AAf?$AAs?$AA?2?$AAr?$AAa?$AAc?$AAe?$AAr?$AAm?$AAa?$AAt?$AAe?$AA?2?$AAc?$AAp?$AAp?$AA_?$AAt?$AAe?$AAs?$AAt?$AAe?$AAr@ 004cabd0     test.obj
 0003:00001c34       ??_C@_0L@HFMMFFDE@NO?5NETWORK?$AA@ 004cac34     test.obj
 0003:00001c44       ??_C@_09LAPILGNB@NO?5BCADDR?$AA@ 004cac44     test.obj
 0003:00001c50       ??_C@_0L@KJDBMPKF@?6error?5?$CFd?6?$AA@ 004cac50     test.obj
 0003:00001c60       ??_C@_01LFCBOECM@?4?$AA@   004cac60     test.obj
 0003:00001c64       ??_C@_0M@PCGHBPKH@status?5?$DN?5?$CFd?$AA@ 004cac64     test.obj
 0003:00001c74       ??_C@_0BO@KMEMGGA@?$AN?6dll?5build?5date?5?$DN?5?$CFs?$AN?6?$AN?6?6?6?6?6?$AA@ 004cac74     test.obj
 0003:00001c98       ??_C@_01CLKCMJKC@?5?$AA@   004cac98     test.obj
 0003:00001c9c       ??_C@_04LLEBNMDN@?$CFs?$AN?6?$AA@ 004cac9c     test.obj
 0003:00001ca4       ??_C@_04JBMOPDGM@UDP?9?$AA@ 004caca4     test.obj
 0003:00001cac       ??_C@_0BD@LEBCCDJE@no?5trainers?5found?6?$AA@ 004cacac     test.obj
 0003:00001cc4       ??_C@_03DPCBOEMF@ok1?$AA@  004cacc4     test.obj
 0003:00001cc8       ??_C@_02PHMGELLB@?6?6?$AA@ 004cacc8     test.obj
 0003:00001ccc       ??_C@_0BD@HGHJGCHC@?5?5?5?5?5?5paused?5?$DN?5?$CFs?6?$AA@ 004caccc     test.obj
 0003:00001ce4       ??_C@_04GLAGOKOO@6666?$AA@ 004cace4     test.obj
 0003:00001cec       ??_C@_08EGNIDOCM@UDP?96666?$AA@ 004cacec     test.obj
 0003:00001cf8       ??_C@_03FLDDCJJH@NC?$CB?$AA@ 004cacf8     test.obj
 0003:00001cfc       ??_C@_03NDEAONJP@?5?5?5?$AA@ 004cacfc     test.obj
 0003:00001d00       ??_C@_01EEMJAFIK@?6?$AA@   004cad00     test.obj
 0003:00001d08       ??_C@_0EN@GFGGKAJI@?$CF5ld?5?5MPH?5?$DN?5?$CF6?41f?5?5CAD?5?$DN?5?$CF6?41f?5?5@ 004cad08     test.obj
 0003:00001d64       ??_C@_0L@HDDIFOCJ@no?5sensors?$AA@ 004cad64     test.obj
 0003:00001d74       ??_C@_09NABEKBOP@?$CF?94?40f?5?$CFs?$AA@ 004cad74     test.obj
 0003:00001d80       ??_C@_0BH@KCOLJPJD@computrainer?5stopped?$AN?6?$AA@ 004cad80     test.obj
 0003:00001d9c       ??_C@_0BD@DCMODHGC@velotron?5stopped?$AN?6?$AA@ 004cad9c     test.obj
 0003:00001db4       ??_C@_0O@DNEGKMBG@?$AN?6test_wifi?$AN?6?$AA@ 004cadb4     test.obj
 0003:00001dc4       ??_C@_0O@GMCCDHKC@?$CF?41f?5?5?$CF?94?40f?6?$AA@ 004cadc4     test.obj
 0003:00001dd4       ??_C@_0BE@KLAJPKDL@?6test_wifi_and_ant?6?$AA@ 004cadd4     test.obj
 0003:00001dec       ??_C@_0BK@JILHBHBB@?6looking?5for?5ANT?5sensors?6?$AA@ 004cadec     test.obj
 0003:00001e0c       ??_C@_0CB@IPPDPHHP@?$CF?96?41f?5ant?5sensor?3?5?$CF3d?5?5?$CF3d?5?5?$CFd?6@ 004cae0c     test.obj
 0003:00001e34       ??_C@_0DM@MFNGGLJH@?$CF?96?41f?5ant?5sensor?3?5no?5sensors?0?5w@ 004cae34     test.obj
 0003:00001e7c       ??_C@_04CEJDCDCH@test?$AA@ 004cae7c     test.obj
 0003:00001e84       ??_C@_0CA@INLLLAKA@racermate_init?$CI?$CJ?5took?5?$CF?40lf?5ms?6?$AA@ 004cae84     test.obj
 0003:00001eac       ??_C@_0BO@NMMBEMNB@start_server?$CI?$CJ?5took?5?$CF?40lf?5ms?6?$AA@ 004caeac     test.obj
 0003:00001ed0       ??_C@_0BL@NNAKALE@start_ant?$CI?$CJ?5took?5?$CF?40lf?5ms?6?$AA@ 004caed0     test.obj
 0003:00001ef0       ??_C@_0DN@DCNNKHJL@?$CFd?5?5?$CF4?40f?5?5?5u?5?$DN?5?$CFld?5?5?5seq?5?$DN?5?$CFld?5@ 004caef0     test.obj
 0003:00001f40       ??_C@_1IM@NCODKBJH@?$AAc?$AA?3?$AA?2?$AAp?$AAr?$AAo?$AAg?$AAr?$AAa?$AAm?$AA?5?$AAf?$AAi?$AAl?$AAe?$AAs?$AA?5?$AA?$CI?$AAx?$AA8?$AA6?$AA?$CJ?$AA?2?$AAm?$AAi?$AAc?$AAr?$AAo?$AAs?$AAo?$AAf?$AAt@ 004caf40     test.obj
 0003:00001fe8       ??_C@_1DM@LHGCHCBA@?$AAv?$AAe?$AAc?$AAt?$AAo?$AAr?$AA?5?$AAs?$AAu?$AAb?$AAs?$AAc?$AAr?$AAi?$AAp?$AAt?$AA?5?$AAo?$AAu?$AAt?$AA?5?$AAo?$AAf?$AA?5?$AAr?$AAa?$AAn?$AAg?$AAe?$AA?$AA@ 004cafe8     test.obj
 0003:00002030       ??_C@_0CE@OFMIGAMM@Standard?5C?$CL?$CL?5Libraries?5Out?5of?5Ra@ 004cb030     test.obj
 0003:00002060       ??_C@_1FG@IBPIFFN@?$AA?$CC?$AAS?$AAt?$AAa?$AAn?$AAd?$AAa?$AAr?$AAd?$AA?5?$AAC?$AA?$CL?$AA?$CL?$AA?5?$AAL?$AAi?$AAb?$AAr?$AAa?$AAr?$AAi?$AAe?$AAs?$AA?5?$AAO?$AAu?$AAt?$AA?5?$AAo?$AAf?$AA?5?$AAR@ 004cb060     test.obj
 0003:000020c8       ??_C@_1BO@MEPPHOO@?$AA?$CC?$AAo?$AAu?$AAt?$AA?5?$AAo?$AAf?$AA?5?$AAr?$AAa?$AAn?$AAg?$AAe?$AA?$CC?$AA?$AA@ 004cb0c8     test.obj
 0003:000020f0       ??_C@_1BME@NCIPHHDN@?$AAs?$AAt?$AAd?$AA?3?$AA?3?$AAv?$AAe?$AAc?$AAt?$AAo?$AAr?$AA?$DM?$AAc?$AAl?$AAa?$AAs?$AAs?$AA?5?$AAs?$AAt?$AAd?$AA?3?$AA?3?$AAb?$AAa?$AAs?$AAi?$AAc?$AA_?$AAs?$AAt?$AAr@ 004cb0f0     test.obj
 0003:00002310       ??_C@_1IO@EADHKMNI@?$AAc?$AA?3?$AA?2?$AAp?$AAr?$AAo?$AAg?$AAr?$AAa?$AAm?$AA?5?$AAf?$AAi?$AAl?$AAe?$AAs?$AA?5?$AA?$CI?$AAx?$AA8?$AA6?$AA?$CJ?$AA?2?$AAm?$AAi?$AAc?$AAr?$AAo?$AAs?$AAo?$AAf?$AAt@ 004cb310     test.obj
 0003:000023c0       ??_C@_1IK@ENFOGHIC@?$AAc?$AA?3?$AA?2?$AAp?$AAr?$AAo?$AAg?$AAr?$AAa?$AAm?$AA?5?$AAf?$AAi?$AAl?$AAe?$AAs?$AA?5?$AA?$CI?$AAx?$AA8?$AA6?$AA?$CJ?$AA?2?$AAm?$AAi?$AAc?$AAr?$AAo?$AAs?$AAo?$AAf?$AAt@ 004cb3c0     test.obj
 0003:00002468       ??_C@_1EG@IIKPBBHP@?$AAd?$AAe?$AAq?$AAu?$AAe?$AA?5?$AAe?$AAr?$AAa?$AAs?$AAe?$AA?5?$AAi?$AAt?$AAe?$AAr?$AAa?$AAt?$AAo?$AAr?$AA?5?$AAo?$AAu?$AAt?$AAs?$AAi?$AAd?$AAe?$AA?5?$AAr?$AAa?$AAn@ 004cb468     test.obj
 0003:000024bc       ??_C@_0BD@OLBABOEK@vector?$DMT?$DO?5too?5long?$AA@ 004cb4bc     test.obj
 0003:000024d8       ??_C@_1EK@DEGNOCIK@?$AAd?$AAe?$AAq?$AAu?$AAe?$AA?5?$AAi?$AAt?$AAe?$AAr?$AAa?$AAt?$AAo?$AAr?$AA?5?$AA?$CL?$AA?5?$AAo?$AAf?$AAf?$AAs?$AAe?$AAt?$AA?5?$AAo?$AAu?$AAt?$AA?5?$AAo?$AAf?$AA?5?$AAr@ 004cb4d8     test.obj
 0003:00002530       ??_C@_1OO@ODPNBDMI@?$AAs?$AAt?$AAd?$AA?3?$AA?3?$AA_?$AAD?$AAe?$AAq?$AAu?$AAe?$AA_?$AAc?$AAo?$AAn?$AAs?$AAt?$AA_?$AAi?$AAt?$AAe?$AAr?$AAa?$AAt?$AAo?$AAr?$AA?$DM?$AAc?$AAl?$AAa?$AAs?$AAs@ 004cb530     test.obj
 0003:00002650       ??_C@_1CO@FNIDKHMC@?$AAd?$AAe?$AAq?$AAu?$AAe?$AA?5?$AAe?$AAm?$AAp?$AAt?$AAy?$AA?5?$AAb?$AAe?$AAf?$AAo?$AAr?$AAe?$AA?5?$AAp?$AAo?$AAp?$AA?$AA@ 004cb650     test.obj
 0003:00002688       ??_C@_1PA@NDIPKEML@?$AAs?$AAt?$AAd?$AA?3?$AA?3?$AA_?$AAD?$AAe?$AAq?$AAu?$AAe?$AA_?$AAc?$AAo?$AAn?$AAs?$AAt?$AA_?$AAi?$AAt?$AAe?$AAr?$AAa?$AAt?$AAo?$AAr?$AA?$DM?$AAc?$AAl?$AAa?$AAs?$AAs@ 004cb688     test.obj
 0003:000027a8       ??_C@_0BA@JFNIOLAK@string?5too?5long?$AA@ 004cb7a8     test.obj
 0003:000027bc       ??_C@_1DK@CNDLFKCJ@?$AAd?$AAe?$AAq?$AAu?$AAe?$AA?5?$AAi?$AAt?$AAe?$AAr?$AAa?$AAt?$AAo?$AAr?$AAs?$AA?5?$AAi?$AAn?$AAc?$AAo?$AAm?$AAp?$AAa?$AAt?$AAi?$AAb?$AAl?$AAe?$AA?$AA@ 004cb7bc     test.obj
 0003:00002804       ??_C@_0CI@FNPHFCCM@Standard?5C?$CL?$CL?5Libraries?5Invalid?5A@ 004cb804     test.obj
 0003:00002838       ??_C@_1FO@GJIHNDLM@?$AA?$CC?$AAS?$AAt?$AAa?$AAn?$AAd?$AAa?$AAr?$AAd?$AA?5?$AAC?$AA?$CL?$AA?$CL?$AA?5?$AAL?$AAi?$AAb?$AAr?$AAa?$AAr?$AAi?$AAe?$AAs?$AA?5?$AAI?$AAn?$AAv?$AAa?$AAl?$AAi?$AAd?$AA?5@ 004cb838     test.obj
 0003:000028a8       ??_C@_1OG@FCECMPBA@?$AAs?$AAt?$AAd?$AA?3?$AA?3?$AA_?$AAD?$AAe?$AAq?$AAu?$AAe?$AA_?$AAc?$AAo?$AAn?$AAs?$AAt?$AA_?$AAi?$AAt?$AAe?$AAr?$AAa?$AAt?$AAo?$AAr?$AA?$DM?$AAc?$AAl?$AAa?$AAs?$AAs@ 004cb8a8     test.obj
 0003:000029c0       ??_C@_1OI@HOHHLBL@?$AAs?$AAt?$AAd?$AA?3?$AA?3?$AA_?$AAD?$AAe?$AAq?$AAu?$AAe?$AA_?$AAc?$AAo?$AAn?$AAs?$AAt?$AA_?$AAi?$AAt?$AAe?$AAr?$AAa?$AAt?$AAo?$AAr?$AA?$DM?$AAc?$AAl?$AAa?$AAs?$AAs@ 004cb9c0     test.obj
 0003:00002ad8       ??_C@_0BI@CFPLBAOH@invalid?5string?5position?$AA@ 004cbad8     test.obj
 0003:00002af8       ??_C@_1EI@ODOAHAHP@?$AAd?$AAe?$AAq?$AAu?$AAe?$AA?5?$AAi?$AAn?$AAs?$AAe?$AAr?$AAt?$AA?5?$AAi?$AAt?$AAe?$AAr?$AAa?$AAt?$AAo?$AAr?$AA?5?$AAo?$AAu?$AAt?$AAs?$AAi?$AAd?$AAe?$AA?5?$AAr?$AAa@ 004cbaf8     test.obj
 0003:00002b50       ??_C@_1CK@EOPGIILJ@?$AAi?$AAn?$AAv?$AAa?$AAl?$AAi?$AAd?$AA?5?$AAn?$AAu?$AAl?$AAl?$AA?5?$AAp?$AAo?$AAi?$AAn?$AAt?$AAe?$AAr?$AA?$AA@ 004cbb50     test.obj
 0003:00002b88       ??_C@_1EC@CEAHEOFL@?$AAd?$AAe?$AAq?$AAu?$AAe?$AA?5?$AAi?$AAt?$AAe?$AAr?$AAa?$AAt?$AAo?$AAr?$AA?5?$AAn?$AAo?$AAt?$AA?5?$AAi?$AAn?$AAc?$AAr?$AAe?$AAm?$AAe?$AAn?$AAt?$AAa?$AAb?$AAl?$AAe@ 004cbb88     test.obj
 0003:00002bd8       ??_C@_1OO@JGIPBLIL@?$AAs?$AAt?$AAd?$AA?3?$AA?3?$AA_?$AAD?$AAe?$AAq?$AAu?$AAe?$AA_?$AAc?$AAo?$AAn?$AAs?$AAt?$AA_?$AAi?$AAt?$AAe?$AAr?$AAa?$AAt?$AAo?$AAr?$AA?$DM?$AAc?$AAl?$AAa?$AAs?$AAs@ 004cbbd8     test.obj
 0003:00002cf8       ??_C@_1EE@INPCGGNP@?$AAd?$AAe?$AAq?$AAu?$AAe?$AA?5?$AAi?$AAt?$AAe?$AAr?$AAa?$AAt?$AAo?$AAr?$AA?5?$AAn?$AAo?$AAt?$AA?5?$AAd?$AAe?$AAr?$AAe?$AAf?$AAe?$AAr?$AAe?$AAn?$AAc?$AAa?$AAb?$AAl@ 004cbcf8     test.obj
 0003:00002d50       ??_C@_1OM@KOBLAENM@?$AAs?$AAt?$AAd?$AA?3?$AA?3?$AA_?$AAD?$AAe?$AAq?$AAu?$AAe?$AA_?$AAc?$AAo?$AAn?$AAs?$AAt?$AA_?$AAi?$AAt?$AAe?$AAr?$AAa?$AAt?$AAo?$AAr?$AA?$DM?$AAc?$AAl?$AAa?$AAs?$AAs@ 004cbd50     test.obj
 0003:00002e70       ??_C@_1PA@KGPNKMII@?$AAs?$AAt?$AAd?$AA?3?$AA?3?$AA_?$AAD?$AAe?$AAq?$AAu?$AAe?$AA_?$AAc?$AAo?$AAn?$AAs?$AAt?$AA_?$AAi?$AAt?$AAe?$AAr?$AAa?$AAt?$AAo?$AAr?$AA?$DM?$AAc?$AAl?$AAa?$AAs?$AAs@ 004cbe70     test.obj
 0003:00002f90       ??_C@_1OO@DBFJFPKH@?$AAs?$AAt?$AAd?$AA?3?$AA?3?$AA_?$AAD?$AAe?$AAq?$AAu?$AAe?$AA_?$AAc?$AAo?$AAn?$AAs?$AAt?$AA_?$AAi?$AAt?$AAe?$AAr?$AAa?$AAt?$AAo?$AAr?$AA?$DM?$AAc?$AAl?$AAa?$AAs?$AAs@ 004cbf90     test.obj
 0003:000030b0       ??_C@_0BC@KBDMBKEH@deque?$DMT?$DO?5too?5long?$AA@ 004cc0b0     test.obj
 0003:000030c8       ??_C@_1CO@DGLIKNHI@?$AAi?$AAn?$AAv?$AAa?$AAl?$AAi?$AAd?$AA?5?$AAi?$AAt?$AAe?$AAr?$AAa?$AAt?$AAo?$AAr?$AA?5?$AAr?$AAa?$AAn?$AAg?$AAe?$AA?$AA@ 004cc0c8     test.obj
 0003:00003100       __real@00000000            004cc100     test.obj
 0003:00003108       __real@0000000000000000    004cc108     test.obj
 0003:00003118       __real@3ef8d9eb9940ae46    004cc118     test.obj
 0003:00003124       __real@3f000000            004cc124     test.obj
 0003:00003128       __real@3f800000            004cc128     test.obj
 0003:00003130       __real@3f847ae147ae147b    004cc130     test.obj
 0003:00003140       __real@3fe3e245d6aabf84    004cc140     test.obj
 0003:00003150       __real@3ff9bfdf7e8038a0    004cc150     test.obj
 0003:00003160       __real@4000000000000000    004cc160     test.obj
 0003:00003170       __real@4001a305532617c2    004cc170     test.obj
 0003:00003180       __real@408f400000000000    004cc180     test.obj
 0003:00003190       __real@40b4a00000000000    004cc190     test.obj
 0003:000031a0       __real@413e366000000000    004cc1a0     test.obj
 0003:000031ac       __real@42c80000            004cc1ac     test.obj
 0003:000031b0       __real@447a0000            004cc1b0     test.obj
 0003:000031c0       __xmm@41f00000000000000000000000000000 004cc1c0     test.obj
 0003:000031d4       ??_C@_03GJALCMIF@COM?$AA@  004cc1d4     trainer.obj
 0003:000031d8       ??_C@_03JOBKFJNM@yee?$AA@  004cc1d8     trainer.obj
 0003:000031dc       ??_C@_0DC@IKIPJHNO@trainer?4cpp?0?5init?$CI?$CJ?5before?5GetRa@ 004cc1dc     trainer.obj
 0003:00003218       ??_C@_0CA@HPNHGBEF@found?5computrainer?5on?5port?5?$CFs?$AN?6?$AA@ 004cc218     trainer.obj
 0003:00003240       ??_C@_0BL@KLJMMFNG@found?5velotron?5on?5port?5?$CFs?6?$AA@ 004cc240     trainer.obj
 0003:00003260       ??_C@_0BG@EMPPEELO@no?5trainer?5on?5port?5?$CFs?$AA@ 004cc260     trainer.obj
 0003:0000327c       ??_C@_0CN@CGGFBHGP@x?3?2data?2_fs?2racermate?2cpp_tester@ 004cc27c     trainer.obj
 0003:000032b8       ??_C@_1FK@CJNOAHJJ@?$AAx?$AA?3?$AA?2?$AAd?$AAa?$AAt?$AAa?$AA?2?$AA_?$AAf?$AAs?$AA?2?$AAr?$AAa?$AAc?$AAe?$AAr?$AAm?$AAa?$AAt?$AAe?$AA?2?$AAc?$AAp?$AAp?$AA_?$AAt?$AAe?$AAs?$AAt?$AAe?$AAr@ 004cc2b8     trainer.obj
 0003:00003324       ??_C@_1BC@BECGGBKB@?$AAf?$AAw?$AA?$DN?$AA?$DN?$AA4?$AA5?$AA4?$AA3?$AA?$AA@ 004cc324     trainer.obj
 0003:0000333c       ??_C@_0CA@OLEDJOJB@unknown?5firmware?5version?5?$CI?5?$CFd?5?$CJ?$AA@ 004cc33c     trainer.obj
 0003:00003364       ??_C@_0BA@FCPKGHEL@firmware?5?$DN?5?$CFd?$AN?6?$AA@ 004cc364     trainer.obj
 0003:00003378       ??_C@_0BC@CGBFOOC@calibrated?5?$DN?5?$CFs?$AN?6?$AA@ 004cc378     trainer.obj
 0003:00003390       ??_C@_0L@KBAALLNP@cal?5?$DN?5?$CFd?$AN?6?$AA@ 004cc390     trainer.obj
 0003:000033a0       ??_C@_09MECABCCL@ftp?5set?$AN?6?$AA@ 004cc3a0     trainer.obj
 0003:000033ac       ??_C@_0BK@HGJOMHJF@velotron?5parameters?5set?$AN?6?$AA@ 004cc3ac     trainer.obj
 0003:000033cc       ??_C@_0BH@LLGPNOJO@computrainer?5started?$AN?6?$AA@ 004cc3cc     trainer.obj
 0003:000033e8       ??_C@_0BD@CLEKHGGP@velotron?5started?$AN?6?$AA@ 004cc3e8     trainer.obj
 0003:00003400       ??_C@_0BA@EDCFPCGF@trainer?5reset?$AN?6?$AA@ 004cc400     trainer.obj
 0003:00003414       ??_C@_0BB@PIEKPKID@averages?5reset?$AN?6?$AA@ 004cc414     trainer.obj
 0003:00003428       ??_C@_0BF@HNLPKPDB@wind?5load?5mode?5set?$AN?6?$AA@ 004cc428     trainer.obj
 0003:00003444       ??_C@_08NBFDOLPC@paused?$AN?6?$AA@ 004cc444     trainer.obj
 0003:00003450       ??_C@_0L@BMIGIEMC@unpaused?$AN?6?$AA@ 004cc450     trainer.obj
 0003:00003460       __real@411126ab            004cc460     trainer.obj
 0003:00003464       __real@41200000            004cc464     trainer.obj
 0003:00003468       __real@42881440            004cc468     trainer.obj
 0003:0000346c       __real@442f0000            004cc46c     trainer.obj
 0003:00003470       ??_C@_02NJPGOMH@?$CFf?$AA@ 004cc470     glib:ini.obj
 0003:00003478       ??_7Ini@@6B@               004cc478     glib:ini.obj
 0003:00003480       ??_C@_01KICIPPFI@?2?$AA@   004cc480     glib:ini.obj
 0003:00003484       ??_C@_04HCDDPBNL@TRUE?$AA@ 004cc484     glib:ini.obj
 0003:0000348c       ??_C@_05MAJJAKPI@FALSE?$AA@ 004cc48c     glib:ini.obj
 0003:00003494       ??_C@_02DPKJAMEF@?$CFd?$AA@ 004cc494     glib:ini.obj
 0003:00003498       ??_C@_03FKNCMABI@?$CFlu?$AA@ 004cc498     glib:ini.obj
 0003:0000349c       ??_C@_05CLMJGDKL@?$CF08lx?$AA@ 004cc49c     glib:ini.obj
 0003:000034a4       ??_C@_03CCGKKFHG@a?$CLt?$AA@ 004cc4a4     glib:ini.obj
 0003:000034a8       ??_C@_07OJNGNPHD@lkj?4lkj?$AA@ 004cc4a8     glib:ini.obj
 0003:000034b4       ??_C@_03OFAPEBGM@?$CFs?6?$AA@ 004cc4b4     glib:ini.obj
 0003:000034b8       ??_C@_03OPHMLOFF@?$CFlx?$AA@ 004cc4b8     glib:ini.obj
 0003:000034c0       ??_7AverageTimer@@6B@      004cc4c0     glib:averagetimer.obj
 0003:000034c8       ??_C@_07MCAEODGB@Default?$AA@ 004cc4c8     glib:averagetimer.obj
 0003:000034d8       ??_C@_0ED@KKPDOLLH@?$CFs?3?5update?5not?5called?5?$CI?$CI?$CI?$CI?$CI?$CI?$CI?$CI?$CI?$CI@ 004cc4d8     glib:averagetimer.obj
 0003:00003528       ??_C@_0FP@FEKGDPAB@?$CFs?3?5Average?5time?5between?5calls?5i@ 004cc528     glib:averagetimer.obj
 0003:000035a0       ??_C@_0EL@NCMHMMOJ@?$CFs?3?5mindt?5?$CFld?5ms?0?5maxdt?5?$DN?5?$CFld?5ms@ 004cc5a0     glib:averagetimer.obj
 0003:00003600       ??_7fastTimer@@6B@         004cc600     glib:fasttimer.obj
 0003:00003608       ??_C@_0EN@DHGAFLCO@?$CFs?3?5Average?5dt?5?$DN?5?$CF?46lf?5milliseco@ 004cc608     glib:fasttimer.obj
 0003:00003664       ??_C@_0CB@PBCBINCA@Average?5dt?5?$DN?5?$CF?46lf?5milliseconds?6@ 004cc664     glib:fasttimer.obj
 0003:0000368c       ??_C@_0BH@LDPAGLLI@?$CFs?3?5stop?$CI?$CJ?5not?5called?6?$AA@ 004cc68c     glib:fasttimer.obj
 0003:000036a8       ??_C@_0EM@OJMECABL@?$CFs?3?5Average?5dt?5?$DN?5?$CF?46f?5millisecon@ 004cc6a8     glib:fasttimer.obj
 0003:00003704       ??_C@_0CA@GDBJHEJI@Average?5dt?5?$DN?5?$CF?46f?5milliseconds?6?$AA@ 004cc704     glib:fasttimer.obj
 0003:00003730       __real@3fe0000000000000    004cc730     glib:fasttimer.obj
 0003:0000373c       ??_C@_03JIHJHPIE@Jan?$AA@  004cc73c     glib:utils.obj
 0003:00003740       ??_C@_03HJBDCHOM@Feb?$AA@  004cc740     glib:utils.obj
 0003:00003744       ??_C@_03ODNJBKGA@Mar?$AA@  004cc744     glib:utils.obj
 0003:00003748       ??_C@_03LEOLGMJP@Apr?$AA@  004cc748     glib:utils.obj
 0003:0000374c       ??_C@_03CNMDKL@May?$AA@    004cc74c     glib:utils.obj
 0003:00003750       ??_C@_03IDFGHECI@Jun?$AA@  004cc750     glib:utils.obj
 0003:00003754       ??_C@_03LBGABGKK@Jul?$AA@  004cc754     glib:utils.obj
 0003:00003758       ??_C@_03IFJFEIGA@Aug?$AA@  004cc758     glib:utils.obj
 0003:0000375c       ??_C@_03GGCAPAJC@Sep?$AA@  004cc75c     glib:utils.obj
 0003:00003760       ??_C@_03BMAOKBAD@Oct?$AA@  004cc760     glib:utils.obj
 0003:00003764       ??_C@_03JPJOFNIA@Nov?$AA@  004cc764     glib:utils.obj
 0003:00003768       ??_C@_03MKABNOCG@Dec?$AA@  004cc768     glib:utils.obj
 0003:0000376c       ??_C@_07CGJPFGJA@January?$AA@ 004cc76c     glib:utils.obj
 0003:00003778       ??_C@_07PCLNKHLH@Febuary?$AA@ 004cc778     glib:utils.obj
 0003:00003784       ??_C@_05HPCKOFNC@March?$AA@ 004cc784     glib:utils.obj
 0003:0000378c       ??_C@_05DMJDNLEJ@April?$AA@ 004cc78c     glib:utils.obj
 0003:00003794       ??_C@_04CNLMGBGM@June?$AA@ 004cc794     glib:utils.obj
 0003:0000379c       ??_C@_04MIEPOIFP@July?$AA@ 004cc79c     glib:utils.obj
 0003:000037a4       ??_C@_06LBBHFDDG@August?$AA@ 004cc7a4     glib:utils.obj
 0003:000037ac       ??_C@_09BHHEALKD@September?$AA@ 004cc7ac     glib:utils.obj
 0003:000037b8       ??_C@_07JJNFCEND@October?$AA@ 004cc7b8     glib:utils.obj
 0003:000037c4       ??_C@_08HCHEGEOA@November?$AA@ 004cc7c4     glib:utils.obj
 0003:000037d0       ??_C@_08EDHMEBNP@December?$AA@ 004cc7d0     glib:utils.obj
 0003:000037dc       ?npos@?$basic_string@DU?$char_traits@D@std@@V?$allocator@D@2@@std@@2IB 004cc7dc     glib:utils.obj
 0003:000037e0       ??_C@_08BOFGLPCP@?6flush?3?6?$AA@ 004cc7e0     glib:utils.obj
 0003:000037ec       ??_C@_02HAOIJKIC@?$CFc?$AA@ 004cc7ec     glib:utils.obj
 0003:000037f0       ??_C@_0BL@IAFEAHFD@i?5?$DN?5255?5end?5?$DN?5?5?5?$CFlu?5?$CI?$CFlu?$CJ?6?$AA@ 004cc7f0     glib:utils.obj
 0003:00003810       ??_C@_0BL@MGBJAFOA@i?5?$DN?5255?5start?5?$DN?5?$CFlu?5?$CI?$CFlu?$CJ?6?$AA@ 004cc810     glib:utils.obj
 0003:00003830       ??_C@_0CB@OCKCFBPD@flush?5timeout?5end?5?$DN?5?5?5?$CFlu?5?$CI?$CFlu?$CJ?6@ 004cc830     glib:utils.obj
 0003:00003858       ??_C@_0CB@KEOPFDEA@flush?5timeout?5start?5?$DN?5?$CFlu?5?$CI?$CFlu?$CJ?6@ 004cc858     glib:utils.obj
 0003:00003880       ??_C@_02JDPG@rb?$AA@       004cc880     glib:utils.obj
 0003:00003884       ??_C@_05CNDJFPDP@?$CF02x?5?$AA@ 004cc884     glib:utils.obj
 0003:0000388c       ??_C@_04PFOHOKJK@?5?5?5?5?$AA@ 004cc88c     glib:utils.obj
 0003:00003894       ??_C@_09BLGEFFEK@dump2?4txt?$AA@ 004cc894     glib:utils.obj
 0003:000038a0       ??_C@_0DL@FFIKMFIC@?6month?5?5principal?5?5interest?5?5?5re@ 004cc8a0     glib:utils.obj
 0003:000038e8       ??_C@_0CI@LHPABBA@?$CF3d?5?5?5?5?$CF7?42f?5?5?5?5?$CF7?42f?5?5?5?5?$CF7?42f?5?5@ 004cc8e8     glib:utils.obj
 0003:00003918       ??_C@_07DEIBBMEL@?$CF08lx?5?5?$AA@ 004cc918     glib:utils.obj
 0003:00003924       ??_C@_02BMJICGCB@rt?$AA@   004cc924     glib:utils.obj
 0003:00003928       ??_C@_02GMLFBBN@wb?$AA@    004cc928     glib:utils.obj
 0003:0000392c       ??_C@_0M@CCNDLLMN@tmpcrlf?4tmp?$AA@ 004cc92c     glib:utils.obj
 0003:0000393c       ??_C@_08KOEBKBFD@rvrs?4tmp?$AA@ 004cc93c     glib:utils.obj
 0003:00003948       ??_C@_0L@EPFFADDG@relzxx?4tmp?$AA@ 004cc948     glib:utils.obj
 0003:00003958       ??_C@_1DG@GKKNNBNC@?$AAx?$AA?3?$AA?2?$AAd?$AAa?$AAt?$AAa?$AA?2?$AA_?$AAf?$AAs?$AA?2?$AAg?$AAl?$AAi?$AAb?$AA?2?$AAu?$AAt?$AAi?$AAl?$AAs?$AA?4?$AAc?$AAp?$AAp?$AA?$AA@ 004cc958     glib:utils.obj
 0003:00003998       ??_C@_19BNPFGDMK@?$AAT?$AA?$DM?$AA?$DN?$AAn?$AA?$AA@ 004cc998     glib:utils.obj
 0003:000039a4       ??_C@_0O@HHLHEBHK@backup?5error?6?$AA@ 004cc9a4     glib:utils.obj
 0003:000039b4       ??_C@_04JDGCELGD@ABT?5?$AA@ 004cc9b4     glib:utils.obj
 0003:000039bc       ??_C@_05NPNNLANM@ABOUT?$AA@ 004cc9bc     glib:utils.obj
 0003:000039c4       ??_C@_03FANKNOEF@ABT?$AA@  004cc9c4     glib:utils.obj
 0003:000039c8       ??_C@_04BMAANMDE@AFT?5?$AA@ 004cc9c8     glib:utils.obj
 0003:000039d0       ??_C@_05OHDJMCHE@AFTER?$AA@ 004cc9d0     glib:utils.obj
 0003:000039d8       ??_C@_03FHNDHGJJ@AFT?$AA@  004cc9d8     glib:utils.obj
 0003:000039dc       ??_C@_04OCCELDNI@?$CF04d?$AA@ 004cc9dc     glib:utils.obj
 0003:000039e4       ??_C@_01IHBHIGKO@?0?$AA@   004cc9e4     glib:utils.obj
 0003:000039e8       ??_C@_09IBAIHLNO@?$CF04d?9?$CF02d?$AA@ 004cc9e8     glib:utils.obj
 0003:000039f4       ??_C@_0P@MCDGMPHH@?$CF04d?9?$CF02d?9?$CF02d?$AA@ 004cc9f4     glib:utils.obj
 0003:00003a08       ??_C@_03DFLABNMG@JAN?$AA@  004cca08     glib:utils.obj
 0003:00003a0c       ??_C@_03NENKEFKO@FEB?$AA@  004cca0c     glib:utils.obj
 0003:00003a10       ??_C@_03EOBAHICC@MAR?$AA@  004cca10     glib:utils.obj
 0003:00003a14       ??_C@_03BJCCAONN@APR?$AA@  004cca14     glib:utils.obj
 0003:00003a18       ??_C@_03KNOEKBOJ@MAY?$AA@  004cca18     glib:utils.obj
 0003:00003a1c       ??_C@_03COJPBGGK@JUN?$AA@  004cca1c     glib:utils.obj
 0003:00003a20       ??_C@_03BMKJHEOI@JUL?$AA@  004cca20     glib:utils.obj
 0003:00003a24       ??_C@_03CIFMCKCC@AUG?$AA@  004cca24     glib:utils.obj
 0003:00003a28       ??_C@_03MLOJJCNA@SEP?$AA@  004cca28     glib:utils.obj
 0003:00003a2c       ??_C@_03LBMHMDEB@OCT?$AA@  004cca2c     glib:utils.obj
 0003:00003a30       ??_C@_03DCFHDPMC@NOV?$AA@  004cca30     glib:utils.obj
 0003:00003a34       ??_C@_03GHMILMGE@DEC?$AA@  004cca34     glib:utils.obj
 0003:00003a38       ??_C@_04NOJCDH@?$CF02x?$AA@ 004cca38     glib:utils.obj
 0003:00003a40       ??_C@_0BE@MMELOGIJ@?$CF02d?3?$CF02d?3?$CF02d?4?$CF02d?$AA@ 004cca40     glib:utils.obj
 0003:00003a58       ??_C@_0N@GCMNJCAK@?$CFd?3?$CF02d?4?$CF02d?$AA@ 004cca58     glib:utils.obj
 0003:00003a68       ??_C@_0BP@OIEOABAD@c?3?2users?2larry?2desktop?2hot?4bmp?$AA@ 004cca68     glib:utils.obj
 0003:00003a90       ??_C@_08KOKNGHLB@?2ygrzdsl?$AA@ 004cca90     glib:utils.obj
 0003:00003a9c       ??_C@_08MMPFKENM@?$CFc?$CFc?$CFc?$CFc?$AA@ 004cca9c     glib:utils.obj
 0003:00003aa8       ??_C@_0BO@NGNOHJIK@?$CF04d?9?$CF02d?9?$CF02d?5?$CF02d?3?$CF02d?3?$CF02d?$AA@ 004ccaa8     glib:utils.obj
 0003:00003ad0       ??_C@_1HC@HBCEAHKD@?$AAs?$AAt?$AAd?$AA?3?$AA?3?$AAv?$AAe?$AAc?$AAt?$AAo?$AAr?$AA?$DM?$AAi?$AAn?$AAt?$AA?0?$AAc?$AAl?$AAa?$AAs?$AAs?$AA?5?$AAs?$AAt?$AAd?$AA?3?$AA?3?$AAa?$AAl?$AAl?$AAo?$AAc@ 004ccad0     glib:utils.obj
 0003:00003b58       ??_C@_1HK@EJDBECKJ@?$AAs?$AAt?$AAd?$AA?3?$AA?3?$AAv?$AAe?$AAc?$AAt?$AAo?$AAr?$AA?$DM?$AAf?$AAl?$AAo?$AAa?$AAt?$AA?0?$AAc?$AAl?$AAa?$AAs?$AAs?$AA?5?$AAs?$AAt?$AAd?$AA?3?$AA?3?$AAa?$AAl?$AAl@ 004ccb58     glib:utils.obj
 0003:00003bec       ??_C@_1DA@JIKEAPDO@?$AAv?$AAe?$AAc?$AAt?$AAo?$AAr?$AA?5?$AAe?$AAm?$AAp?$AAt?$AAy?$AA?5?$AAb?$AAe?$AAf?$AAo?$AAr?$AAe?$AA?5?$AAp?$AAo?$AAp?$AA?$AA@ 004ccbec     glib:utils.obj
 0003:00003c28       ??_C@_1DM@HINDPMBP@?$AAv?$AAe?$AAc?$AAt?$AAo?$AAr?$AA?5?$AAi?$AAt?$AAe?$AAr?$AAa?$AAt?$AAo?$AAr?$AAs?$AA?5?$AAi?$AAn?$AAc?$AAo?$AAm?$AAp?$AAa?$AAt?$AAi?$AAb?$AAl?$AAe?$AA?$AA@ 004ccc28     glib:utils.obj
 0003:00003c70       ??_C@_1BGI@CFILNOOP@?$AAs?$AAt?$AAd?$AA?3?$AA?3?$AA_?$AAV?$AAe?$AAc?$AAt?$AAo?$AAr?$AA_?$AAc?$AAo?$AAn?$AAs?$AAt?$AA_?$AAi?$AAt?$AAe?$AAr?$AAa?$AAt?$AAo?$AAr?$AA?$DM?$AAc?$AAl?$AAa?$AAs@ 004ccc70     glib:utils.obj
 0003:00003e20       __real@3f400000            004cce20     glib:utils.obj
 0003:00003e24       __real@3f99999a            004cce24     glib:utils.obj
 0003:00003e28       __real@3fb00000            004cce28     glib:utils.obj
 0003:00003e2c       __real@3fc66666            004cce2c     glib:utils.obj
 0003:00003e30       __real@3fdccccd            004cce30     glib:utils.obj
 0003:00003e38       __real@3fdd07bbd05810e8    004cce38     glib:utils.obj
 0003:00003e44       __real@3fe66666            004cce44     glib:utils.obj
 0003:00003e48       __real@3ff0000000000000    004cce48     glib:utils.obj
 0003:00003e54       __real@3ff33333            004cce54     glib:utils.obj
 0003:00003e58       __real@40000000            004cce58     glib:utils.obj
 0003:00003e60       __real@400451eb851eb852    004cce60     glib:utils.obj
 0003:00003e70       __real@401921fb54442d18    004cce70     glib:utils.obj
 0003:00003e80       __real@4028000000000000    004cce80     glib:utils.obj
 0003:00003e90       __real@404ca5dc1a63c1f8    004cce90     glib:utils.obj
 0003:00003e9c       __real@40966666            004cce9c     glib:utils.obj
 0003:00003ea0       __real@40a00000            004ccea0     glib:utils.obj
 0003:00003ea4       __real@40c90fdb            004ccea4     glib:utils.obj
 0003:00003ea8       __real@40d9999a            004ccea8     glib:utils.obj
 0003:00003eac       __real@4119999a            004cceac     glib:utils.obj
 0003:00003eb0       __real@41400000            004cceb0     glib:utils.obj
 0003:00003eb4       __real@415b3333            004cceb4     glib:utils.obj
 0003:00003eb8       __real@42700000            004cceb8     glib:utils.obj
 0003:00003ebc       __real@42840000            004ccebc     glib:utils.obj
 0003:00003ec0       __real@43400000            004ccec0     glib:utils.obj
 0003:00003ec4       __real@4423c000            004ccec4     glib:utils.obj
 0003:00003ec8       __real@45610000            004ccec8     glib:utils.obj
 0003:00003ecc       __real@46fffe00            004ccecc     glib:utils.obj
 0003:00003ed0       __real@49742400            004cced0     glib:utils.obj
 0003:00003ed8       __real@bfe0000000000000    004cced8     glib:utils.obj
 0003:00003ee8       __real@bff0000000000000    004ccee8     glib:utils.obj
 0003:00003ef4       ??_C@_0CC@HDHMILD@?$AN?6Error?5in?5?$CFs?5at?5line?5?$CFd?3?$AN?6?$CFs?$AN?6?$AN@ 004ccef4     glib:fatalerror.obj
 0003:00003f1c       ??_C@_0BN@EKBKNHF@?$AN?6Error?5in?5?$CFs?5at?5line?5?$CFd?$AN?6?$AN?6?$AA@ 004ccf1c     glib:fatalerror.obj
 0003:00003f40       ??_C@_0O@MNFEGLE@?$CFs?$CFsfatal?4log?$AA@ 004ccf40     glib:fatalerror.obj
 0003:00003f54       ??_7Logger@@6B@            004ccf54     glib:logger.obj
 0003:00003f5c       ??_C@_0BF@LMAIOBMJ@?$CF02d?$CF02d?$CF02d?$CF02d?4log?$AA@ 004ccf5c     glib:logger.obj
 0003:00003f78       ??_C@_07GFKBACBG@decoder?$AA@ 004ccf78     glib:logger.obj
 0003:00003f84       ??_C@_09NADIIIHK@?$CFs?$CFs?$CK?4log?$AA@ 004ccf84     glib:logger.obj
 0003:00003f90       ??_C@_0BK@CJECPMNJ@Error?3?5format?5?$DN?5NULL?$CB?$CB?$CB?$CB?6?$AA@ 004ccf90     glib:logger.obj
 0003:00003fb0       ??_C@_0BG@PHKDMECF@log?3?5printdepth?5?$DN?5?$CFd?6?$AA@ 004ccfb0     glib:logger.obj
 0003:00003fcc       ??_C@_1DI@IBEKFEIJ@?$AAx?$AA?3?$AA?2?$AAd?$AAa?$AAt?$AAa?$AA?2?$AA_?$AAf?$AAs?$AA?2?$AAg?$AAl?$AAi?$AAb?$AA?2?$AAl?$AAo?$AAg?$AAg?$AAe?$AAr?$AA?4?$AAc?$AAp?$AAp?$AA?$AA@ 004ccfcc     glib:logger.obj
 0003:00004010       ??_C@_1BE@MBPLHDIH@?$AAs?$AAt?$AAa?$AAt?$AAu?$AAs?$AA?$DN?$AA?$DN?$AA0?$AA?$AA@ 004cd010     glib:logger.obj
 0003:00004028       ??_C@_0CG@OJOMDELO@?6?$CIstring?5to?5long?5in?5Logger?3?3writ@ 004cd028     glib:logger.obj
 0003:0000405c       ??_7Serial@@6B@            004cd05c     glib:serial.obj
 0003:00004064       ??_C@_01NANMIPIL@N?$AA@    004cd064     glib:serial.obj
 0003:00004068       ??_C@_0BD@MHEGEJPK@Com?5constructor?51?6?$AA@ 004cd068     glib:serial.obj
 0003:00004080       ??_C@_1CE@LJFEPPMP@?$AA_?$AAC?$AAr?$AAt?$AAC?$AAh?$AAe?$AAc?$AAk?$AAM?$AAe?$AAm?$AAo?$AAr?$AAy?$AA?$CI?$AA?$CJ?$AA?$AA@ 004cd080     glib:serial.obj
 0003:000040ac       ??_C@_1DI@LFGMNMBL@?$AAx?$AA?3?$AA?2?$AAd?$AAa?$AAt?$AAa?$AA?2?$AA_?$AAf?$AAs?$AA?2?$AAg?$AAl?$AAi?$AAb?$AA?2?$AAs?$AAe?$AAr?$AAi?$AAa?$AAl?$AA?4?$AAc?$AAp?$AAp?$AA?$AA@ 004cd0ac     glib:serial.obj
 0003:000040f0       ??_C@_04EINJHBMM@?6?$CFs?6?$AA@ 004cd0f0     glib:serial.obj
 0003:000040f8       ??_C@_0BF@PJCPOFNJ@Com?$CFd?5constructor?52?6?$AA@ 004cd0f8     glib:serial.obj
 0003:00004114       ??_C@_05JHNIOBPD@COM11?$AA@ 004cd114     glib:serial.obj
 0003:0000411c       ??_C@_07IDLJIJNJ@?5?5?5ok1?6?$AA@ 004cd11c     glib:serial.obj
 0003:00004128       ??_C@_0BF@PGFIJJBO@?5?5?5ok2?0?5status?5?$DN?5?$CFd?6?$AA@ 004cd128     glib:serial.obj
 0003:00004144       ??_C@_0BF@PIONIPOO@Com?$CFd?5constructor?53?6?$AA@ 004cd144     glib:serial.obj
 0003:00004160       ??_C@_03DCJEOIKP@st1?$AA@  004cd160     glib:serial.obj
 0003:00004164       ??_C@_0BF@PNKCJJGL@Com?$CFd?5constructor?54?6?$AA@ 004cd164     glib:serial.obj
 0003:00004180       ??_C@_04GBDIODIA@?2?2?4?2?$AA@ 004cd180     glib:serial.obj
 0003:00004188       ??_C@_0M@DKJNDPIF@?$CFs?0?$CFs?0?$CFd?0?$CFd?$AA@ 004cd188     glib:serial.obj
 0003:00004198       ??_C@_0BI@BMBCJGPM@?5?5?5CreateFile?5error?5?$CFd?6?$AA@ 004cd198     glib:serial.obj
 0003:000041b4       ??_C@_0BB@CEDEENOC@setupcomm?5error?6?$AA@ 004cd1b4     glib:serial.obj
 0003:000041c8       ??_C@_0BH@MMAOEKNN@setcommtimeouts?5error?6?$AA@ 004cd1c8     glib:serial.obj
 0003:000041e4       ??_C@_0BM@EELPGNHM@?5?5?5buildcommdcb?5error?5?$DN?5?$CFd?6?$AA@ 004cd1e4     glib:serial.obj
 0003:00004208       ??_C@_0BM@DCAIEBPN@?5?5?5setcommstate?5error?5?$DN?5?$CFd?6?$AA@ 004cd208     glib:serial.obj
 0003:0000422c       ??_C@_0BI@KIOCFMHA@Open?$CI?$CJ?3?5returning?5TRUE?6?$AA@ 004cd22c     glib:serial.obj
 0003:00004248       ??_C@_0CH@PFBALDNI@error?3?5couldn?8t?5create?5txControl@ 004cd248     glib:serial.obj
 0003:00004278       ??_C@_0BI@JDLEBPLD@created?5txControlEvent?6?$AA@ 004cd278     glib:serial.obj
 0003:00004294       ??_C@_0CF@GACCPLDN@error?3?5couldn?8t?5create?5rxExitlEv@ 004cd294     glib:serial.obj
 0003:000042c0       ??_C@_0BL@FJJHCKCC@created?5rxThreadExitEvent?6?$AA@ 004cd2c0     glib:serial.obj
 0003:000042e0       ??_C@_0BF@HOFLJMGE@?5?5?5starting?5close?$CI?$CJ?6?$AA@ 004cd2e0     glib:serial.obj
 0003:000042fc       ??_C@_08CFLCJAIJ@close?51?6?$AA@ 004cd2fc     glib:serial.obj
 0003:00004308       ??_C@_0CN@PIENBFMI@?6serial?5port?5destructor?5closing?5@ 004cd308     glib:serial.obj
 0003:00004340       ??_C@_0CF@EJLENDCH@?$CFld?3?5closing?5serial?5port?0?5code?5?$DN@ 004cd340     glib:serial.obj
 0003:0000436c       ??_C@_0BJ@FECJHBHL@serial?5port?5max?5in?5?$DN?5?$CFd?6?$AA@ 004cd36c     glib:serial.obj
 0003:0000438c       ??_C@_08CHPECONA@close?52?6?$AA@ 004cd38c     glib:serial.obj
 0003:00004398       ??_C@_0BI@HCFHMFHB@close?53?5?$CIvalid?5handle?$CJ?6?$AA@ 004cd398     glib:serial.obj
 0003:000043b4       ??_C@_0CD@EBKBAKB@GetHandleInformation?$CI?$CJ?5failed?3?5?$CF@ 004cd3b4     glib:serial.obj
 0003:000043e0       ??_C@_0CK@PAEJMEIC@GetHandleInformation?$CI?$CJ?5OK?0?5flags@ 004cd3e0     glib:serial.obj
 0003:00004414       ??_C@_0CN@GKJABIAA@setting?5txControlEvent?0?5shutdown@ 004cd414     glib:serial.obj
 0003:0000444c       ??_C@_0BG@HHCFNEGN@back?5from?5setevent?$CI?$CJ?6?$AA@ 004cd44c     glib:serial.obj
 0003:00004468       ??_C@_0BL@HOGHBFIC@setting?5rxThreadExitEvent?6?$AA@ 004cd468     glib:serial.obj
 0003:00004488       ??_C@_0DM@HGGECAJJ@back?5from?5SetEvent?$CIrxThreadExitE@ 004cd488     glib:serial.obj
 0003:000044d0       ??_C@_0M@JEJKPOCD@count?5?$DN?510?6?$AA@ 004cd4d0     glib:serial.obj
 0003:000044e0       ??_C@_0M@CAFELIIH@count?5?$DN?5?$CFd?6?$AA@ 004cd4e0     glib:serial.obj
 0003:000044f0       ??_C@_08CDHJFCGC@close?54?6?$AA@ 004cd4f0     glib:serial.obj
 0003:000044fc       ??_C@_0BD@JLAKIKG@?5?5?5closing?5handle?6?$AA@ 004cd4fc     glib:serial.obj
 0003:00004514       ??_C@_0BP@IMALELDJ@close?55?5?$CI?$CK?$CK?$CK?$CK?$CK?$CK?5ERROR?5?$CK?$CK?$CK?$CK?$CK?$CK?$CJ?6?$AA@ 004cd514     glib:serial.obj
 0003:0000453c       ??_C@_08CAPNIGAM@close?56?6?$AA@ 004cd53c     glib:serial.obj
 0003:00004548       ??_C@_0BF@PFLKHEDF@?5?5?5finished?5close?$CI?$CJ?6?$AA@ 004cd548     glib:serial.obj
 0003:00004564       ??_C@_0P@GDACEMPM@Unknown?5error?4?$AA@ 004cd564     glib:serial.obj
 0003:00004578       ??_C@_0BC@LCLEHAKM@Serial?5Port?5Error?$AA@ 004cd578     glib:serial.obj
 0003:00004590       ??_C@_05EMFLFCNO@Break?$AA@ 004cd590     glib:serial.obj
 0003:00004598       ??_C@_0BE@JJIMDIJ@Device?5Not?5Selected?$AA@ 004cd598     glib:serial.obj
 0003:000045b0       ??_C@_0M@HKLGIJEC@Frame?5Error?$AA@ 004cd5b0     glib:serial.obj
 0003:000045c0       ??_C@_09FPKBMIEC@I?1O?5Error?$AA@ 004cd5c0     glib:serial.obj
 0003:000045cc       ??_C@_0L@LMECNFOD@Mode?5Error?$AA@ 004cd5cc     glib:serial.obj
 0003:000045dc       ??_C@_09KLEHBKCG@OOP?5Error?$AA@ 004cd5dc     glib:serial.obj
 0003:000045e8       ??_C@_0N@DLDCCI@Data?5Overrun?$AA@ 004cd5e8     glib:serial.obj
 0003:000045f8       ??_C@_0BB@NFEIBEBL@Parallel?5Timeout?$AA@ 004cd5f8     glib:serial.obj
 0003:0000460c       ??_C@_0L@FAMEPCHK@RX?5Overrun?$AA@ 004cd60c     glib:serial.obj
 0003:0000461c       ??_C@_0BA@HDNGCMKO@RX?5Parity?5Error?$AA@ 004cd61c     glib:serial.obj
 0003:00004630       ??_C@_07FPPAJEOE@TX?5Full?$AA@ 004cd630     glib:serial.obj
 0003:0000463c       ??_C@_0BB@NCFAIAN@txi?5error?5?$DN?5?$CFld?6?$AA@ 004cd63c     glib:serial.obj
 0003:00004650       ??_C@_0CD@IKLICDPJ@error?3?5couldn?8t?5create?5writeEven@ 004cd650     glib:serial.obj
 0003:0000467c       ??_C@_0CI@JOPKNFOI@?6txthread?5awakened?5by?5Close?$CI?$CJ?0?5e@ 004cd67c     glib:serial.obj
 0003:000046ac       ??_C@_0BJ@BKAMHFKN@ResetEvent?5error?$CI2?$CJ?5?$CFld?6?$AA@ 004cd6ac     glib:serial.obj
 0003:000046cc       ??_C@_0BA@IHBOJNIF@WAIT_TIMEOUT?52?6?$AA@ 004cd6cc     glib:serial.obj
 0003:000046e0       ??_C@_0BC@IOGIJBHA@wait_abandoned?52?6?$AA@ 004cd6e0     glib:serial.obj
 0003:000046f8       ??_C@_0BM@IGHINJMF@x?3?2data?2_fs?2glib?2serial?4cpp?$AA@ 004cd6f8     glib:serial.obj
 0003:0000471c       ??_C@_0BL@HOCBCDLB@unknown?5error?5at?5?$CFd?5in?5?$CFs?6?$AA@ 004cd71c     glib:serial.obj
 0003:0000473c       ??_C@_0CK@DKFMMOPE@GetOverlappedResult?3?5ERROR_IO_IN@ 004cd73c     glib:serial.obj
 0003:00004770       ??_C@_0BK@PABAPGOP@GetOverlappedResult?3?5?$CFld?6?$AA@ 004cd770     glib:serial.obj
 0003:00004790       ??_C@_0O@PFCEEJHN@WAIT_TIMEOUT?6?$AA@ 004cd790     glib:serial.obj
 0003:000047a0       ??_C@_0BA@PJGOIAC@wait_abandoned?6?$AA@ 004cd7a0     glib:serial.obj
 0003:000047b4       ??_C@_0BG@MHBOGNJH@ResetEvent?5error?5?$CFld?6?$AA@ 004cd7b4     glib:serial.obj
 0003:000047d0       ??_C@_0BI@GOPEGJJK@tx?5WriteFile?5error?5?$CFld?6?$AA@ 004cd7d0     glib:serial.obj
 0003:000047ec       ??_C@_0CJ@DBGBGHAJ@turned?5off?5further?5WriteFile?5err@ 004cd7ec     glib:serial.obj
 0003:00004820       ??_C@_08FFOHNFNP@txfin?51?6?$AA@ 004cd820     glib:serial.obj
 0003:0000482c       ??_C@_08FHKBGLIG@txfin?52?6?$AA@ 004cd82c     glib:serial.obj
 0003:00004838       ??_C@_08FGGDABLB@txfin?53?6?$AA@ 004cd838     glib:serial.obj
 0003:00004844       ??_C@_08CKKMGDJA@txfin?5x?6?$AA@ 004cd844     glib:serial.obj
 0003:00004850       ??_C@_0BL@NNHECGJA@?6starting?5receiver?5thread?6?$AA@ 004cd850     glib:serial.obj
 0003:00004870       ??_C@_0BH@MCAGEKOM@GetCommTimeouts?5error?6?$AA@ 004cd870     glib:serial.obj
 0003:0000488c       ??_C@_0BN@IILJPPFH@ReadIntervalTimeout?5?$DN?7?7?7?$CFld?6?$AA@ 004cd88c     glib:serial.obj
 0003:000048b0       ??_C@_0CC@MAGLOAGD@ReadTotalTimeoutMultiplier?5?$DN?7?$CFld@ 004cd8b0     glib:serial.obj
 0003:000048d8       ??_C@_0CB@PHDOPJGE@ReadTotalTimeoutConstant?5?$DN?7?7?$CFld?6@ 004cd8d8     glib:serial.obj
 0003:00004900       ??_C@_0CD@GPMHNJPG@WriteTotalTimeoutMultiplier?5?$DN?5?$CFl@ 004cd900     glib:serial.obj
 0003:0000492c       ??_C@_0CB@OIIPDMLI@WriteTotalTimeoutConstant?5?$DN?7?$CFld?6@ 004cd92c     glib:serial.obj
 0003:00004954       ??_C@_0CC@NFPKICCA@error?3?5couldn?8t?5create?5ReadEvent@ 004cd954     glib:serial.obj
 0003:0000497c       ??_C@_0BE@DBLMNCFO@Read?5event?5created?6?$AA@ 004cd97c     glib:serial.obj
 0003:00004994       ??_C@_0BD@HIJPNFKA@SetCommMask?5error?6?$AA@ 004cd994     glib:serial.obj
 0003:000049ac       ??_C@_0CE@NPDDAPJH@error?3?5RX?5GetOverlappedResult?3?5?$CF@ 004cd9ac     glib:serial.obj
 0003:000049d8       ??_C@_0CI@KIABAAED@rxthread?5awakened?5by?5rxThreadExi@ 004cd9d8     glib:serial.obj
 0003:00004a08       ??_C@_0BB@EANEMEPM@RX?5WAIT_TIMEOUT?6?$AA@ 004cda08     glib:serial.obj
 0003:00004a1c       ??_C@_0BD@MFMFMFEB@rx?5wait_abandoned?6?$AA@ 004cda1c     glib:serial.obj
 0003:00004a34       ??_C@_0CB@EFGJLOPN@error?3?5WAIT_FAILED?5?$CIerror?3?5?$CFld?$CJ?6@ 004cda34     glib:serial.obj
 0003:00004a5c       ??_C@_0BN@DBJEEOLP@ending?5serial?5port?5rxThread?6?$AA@ 004cda5c     glib:serial.obj
 0003:00004a80       ??_C@_0BF@KLFCCGMC@error?3?5port?5is?5null?6?$AA@ 004cda80     glib:serial.obj
 0003:00004a9c       ??_C@_0BG@KNKPGKDF@calling?5_endthread?$CI?$CJ?6?$AA@ 004cda9c     glib:serial.obj
 0003:00004ab8       ??_C@_0BI@MBKGPGNC@back?5from?5_endthread?$CI?$CJ?6?$AA@ 004cdab8     glib:serial.obj
 0003:00004ad8       ??_C@_0EB@GCIGPNPO@serial?5Receive?$CI?$CJ?5error?5?$DN?5?$CFlu?0?5tu@ 004cdad8     glib:serial.obj
 0003:00004b28       ??_C@_06MBGEEOGA@ht?4txt?$AA@ 004cdb28     glib:serial.obj
 0003:00004b30       ??_C@_0BH@BJPKPKCD@?5?5?5Com?$CFd?5destructor?51?6?$AA@ 004cdb30     glib:serial.obj
 0003:00004b4c       ??_C@_0BE@HJDNPOGJ@Com?$CFd?5destructor?51?6?$AA@ 004cdb4c     glib:serial.obj
 0003:00004b64       ??_C@_0BC@DBCAEFEC@max?5rxdiff?5?$DN?5?$CFhd?6?$AA@ 004cdb64     glib:serial.obj
 0003:00004b7c       ??_C@_0BA@MGNLELLP@bytes_in?5?$DN?5?$CFld?6?$AA@ 004cdb7c     glib:serial.obj
 0003:00004b90       ??_C@_0BC@FHFLKGMM@bytes_sent?5?$DN?5?$CFld?6?$AA@ 004cdb90     glib:serial.obj
 0003:00004ba8       ??_C@_0BH@BLLMEEHK@?5?5?5Com?$CFd?5destructor?52?6?$AA@ 004cdba8     glib:serial.obj
 0003:00004bc4       ??_C@_0BH@BKHOCOEN@?5?5?5Com?$CFd?5destructor?53?6?$AA@ 004cdbc4     glib:serial.obj
 0003:00004be0       ??_C@_0BE@HLHLEADA@Com?$CFd?5destructor?52?6?$AA@ 004cdbe0     glib:serial.obj
 0003:00004bf8       ??_C@_03DOPCBAKB@a?$CLb?$AA@ 004cdbf8     glib:serial.obj
 0003:00004bfc       ??_C@_1DO@IFBCGCJH@?$AAx?$AA?3?$AA?2?$AAd?$AAa?$AAt?$AAa?$AA?2?$AA_?$AAf?$AAs?$AA?2?$AAg?$AAl?$AAi?$AAb?$AA?2?$AAw?$AAi?$AAn?$AA_?$AAu?$AAt?$AAi?$AAl?$AAs?$AA?4?$AAc?$AAp?$AAp?$AA?$AA@ 004cdbfc     glib:win_utils.obj
 0003:00004c48       ??_C@_1EO@PPFGDEFM@?$AA?$CI?$AAt?$AAr?$AA?4?$AAb?$AAo?$AAt?$AAt?$AAo?$AAm?$AA?9?$AAt?$AAr?$AA?4?$AAt?$AAo?$AAp?$AA?$CJ?$AA?$DN?$AA?$DN?$AA?$CI?$AAc?$AAr?$AA?4?$AAb?$AAo?$AAt?$AAt?$AAo?$AAm?$AA?9?$AAc@ 004cdc48     glib:win_utils.obj
 0003:00004ca8       ??_C@_1EO@DAOMANDK@?$AA?$CI?$AAt?$AAr?$AA?4?$AAr?$AAi?$AAg?$AAh?$AAt?$AA?9?$AAt?$AAr?$AA?4?$AAl?$AAe?$AAf?$AAt?$AA?$CJ?$AA?$DN?$AA?$DN?$AA?$CI?$AAc?$AAr?$AA?4?$AAr?$AAi?$AAg?$AAh?$AAt?$AA?9?$AAc?$AAr@ 004cdca8     glib:win_utils.obj
 0003:00004d08       ??_C@_08GDAMKODC@?$CFd?0?$CFd?0?$CFd?$AA@ 004cdd08     glib:win_utils.obj
 0003:00004d14       ??_C@_08JJGMMBPL@fg?5color?$AA@ 004cdd14     glib:win_utils.obj
 0003:00004d20       ??_C@_0BF@DFGCLEFE@processor?5?$DN?5pentium?6?$AA@ 004cdd20     glib:win_utils.obj
 0003:00004d3c       ??_C@_0BB@LJEANMIA@processor?5?$DN?5486?6?$AA@ 004cdd3c     glib:win_utils.obj
 0003:00004d50       ??_C@_0BB@LGAAAJA@processor?5?$DN?5386?6?$AA@ 004cdd50     glib:win_utils.obj
 0003:00004d64       ??_C@_0BF@PFOFGAGF@processor?5?$DN?5unknown?6?$AA@ 004cdd64     glib:win_utils.obj
 0003:00004d80       ??_C@_0BM@BMIFEENM@NUMBER?5OF?5PROCESSORS?5?$DN?5?$CFld?6?$AA@ 004cdd80     glib:win_utils.obj
 0003:00004da4       ??_C@_08CHCBBGCF@Enum?2PCI?$AA@ 004cdda4     glib:win_utils.obj
 0003:00004db0       ??_C@_0L@BPEINDND@bus?5?$DN?5pci?6?$AA@ 004cddb0     glib:win_utils.obj
 0003:00004dc0       ??_C@_0L@CMLCCAAH@bus?5?$DN?5isa?6?$AA@ 004cddc0     glib:win_utils.obj
 0003:00004dd0       ??_C@_0BM@NKHPPKK@total?5system?5memory?5?$DN?5?$CFlu?6?6?$AA@ 004cddd0     glib:win_utils.obj
 0003:00004df4       ??_C@_0BP@MAONPFOI@?6?$CK?$CK?$CK?$CK?$CK?$CK?$CK?$CK?$CK?$CK?$CK?$CK?$CK?$CK?$CK?$CK?$CK?$CK?$CK?$CK?$CK?$CK?$CK?$CK?$CK?$CK?$CK?$CK?6?$AA@ 004cddf4     glib:win_utils.obj
 0003:00004e1c       ??_C@_0BJ@LCHAPDNN@send?3?5?5?5?$CFs?5?5?5?$CIlen?5?$DN?5?$CFd?$CJ?6?$AA@ 004cde1c     glib:win_utils.obj
 0003:00004e3c       ??_C@_0CG@GEMINOLN@?6?6expect?3?5?$CFs?5?$CIlen?$DN?$CFd?0?5timeout?5?$DN?5@ 004cde3c     glib:win_utils.obj
 0003:00004e6c       ??_C@_0CC@LDCMJDII@?6expect?5timeout?5end?5?$DN?5?5?5?$CFlu?5?$CI?$CFlu@ 004cde6c     glib:win_utils.obj
 0003:00004e94       ??_C@_0CD@FPHCMNLI@?6expect?5timeout?5start?5?$DN?5?$CFlu?5?$CI?$CFlu@ 004cde94     glib:win_utils.obj
 0003:00004ec0       ??_C@_0BD@JBBLKBOF@at?5timeout?5i?5?$DN?5?$CFd?6?$AA@ 004cdec0     glib:win_utils.obj
 0003:00004ed8       ??_C@_0BN@OJJCIDAP@at?5timeout?5char?5count?5?$DN?5?$CFlu?6?$AA@ 004cded8     glib:win_utils.obj
 0003:00004efc       ??_C@_0BF@FDPMFMJM@?6found?5it?5in?5?$CFlu?5ms?4?$AA@ 004cdefc     glib:win_utils.obj
 0003:00004f18       ??_C@_0O@CFCCAJBO@Shell_TrayWnd?$AA@ 004cdf18     glib:win_utils.obj
 0003:00004f28       ??_C@_04PCNCCNDP@USED?$AA@ 004cdf28     glib:win_utils.obj
 0003:00004f30       ??_C@_04HEDFJGEJ@FREE?$AA@ 004cdf30     glib:win_utils.obj
 0003:00004f38       ??_C@_0BP@MDJABKHD@?$CF6s?5block?5at?5?$CFp?5of?5size?5?$CF4?44X?6?$AA@ 004cdf38     glib:win_utils.obj
 0003:00004f60       ??_C@_0BB@MLAPJDL@OK?5?9?5empty?5heap?6?$AA@ 004cdf60     glib:win_utils.obj
 0003:00004f74       ??_C@_0BC@CNLHFBDB@OK?5?9?5end?5of?5heap?6?$AA@ 004cdf74     glib:win_utils.obj
 0003:00004f8c       ??_C@_0BN@FFPPJOKG@ERROR?5?9?5bad?5pointer?5to?5heap?6?$AA@ 004cdf8c     glib:win_utils.obj
 0003:00004fb0       ??_C@_0BL@PNNJKPDA@ERROR?5?9?5bad?5start?5of?5heap?6?$AA@ 004cdfb0     glib:win_utils.obj
 0003:00004fd0       ??_C@_0BK@LDBJAAHN@ERROR?5?9?5bad?5node?5in?5heap?6?$AA@ 004cdfd0     glib:win_utils.obj
 0003:00004ff0       ??_C@_0FC@PINECKK@?6?6?$CFs?3?6?$CK?$CK?$CK?$CK?$CK?$CK?$CK?$CK?$CK?$CK?$CK?$CK?$CK?$CK?$CK?$CK?$CK?$CK?$CK?$CK?$CK?$CK?$CK?$CK?$CK?$CK@ 004cdff0     glib:win_utils.obj
 0003:00005054       ??_C@_0BA@MLBEHIJL@Printing?5Report?$AA@ 004ce054     glib:win_utils.obj
 0003:00005068       ??_C@_05PBAPIKLI@Chart?$AA@ 004ce068     glib:win_utils.obj
 0003:00005070       ??_C@_0BJ@NCHNIAEG@Cannot?5obtain?5Printer?5DC?$AA@ 004ce070     glib:win_utils.obj
 0003:00005090       ??_C@_07INPHFMHP@Courier?$AA@ 004ce090     glib:win_utils.obj
 0003:0000509c       ??_C@_03PIJADIJB@Abc?$AA@  004ce09c     glib:win_utils.obj
 0003:000050a0       ??_C@_06DNBDMDIL@?$CF?$CF?4?$CFdf?$AA@ 004ce0a0     glib:win_utils.obj
 0003:000050a8       ??_C@_0N@CPAMDENG@WM_SYNCPAINT?$AA@ 004ce0a8     glib:win_utils.obj
 0003:000050b8       ??_C@_07CDGGBJMH@WM_NULL?$AA@ 004ce0b8     glib:win_utils.obj
 0003:000050c4       ??_C@_09IFMDBMNH@WM_CREATE?$AA@ 004ce0c4     glib:win_utils.obj
 0003:000050d0       ??_C@_0L@IOIEOKFB@WM_DESTROY?$AA@ 004ce0d0     glib:win_utils.obj
 0003:000050e0       ??_C@_07JLBBEJAD@WM_MOVE?$AA@ 004ce0e0     glib:win_utils.obj
 0003:000050ec       ??_C@_07GILAMGFI@WM_SIZE?$AA@ 004ce0ec     glib:win_utils.obj
 0003:000050f8       ??_C@_0M@HKHMHPGL@WM_ACTIVATE?$AA@ 004ce0f8     glib:win_utils.obj
 0003:00005108       ??_C@_0M@BFNAEMFG@WM_SETFOCUS?$AA@ 004ce108     glib:win_utils.obj
 0003:00005118       ??_C@_0N@FJOIKFPK@WM_KILLFOCUS?$AA@ 004ce118     glib:win_utils.obj
 0003:00005128       ??_C@_09GHAHBAOL@WM_ENABLE?$AA@ 004ce128     glib:win_utils.obj
 0003:00005134       ??_C@_0N@HFLIOHBC@WM_SETREDRAW?$AA@ 004ce134     glib:win_utils.obj
 0003:00005144       ??_C@_0L@IEPGEGEF@WM_SETTEXT?$AA@ 004ce144     glib:win_utils.obj
 0003:00005154       ??_C@_0L@HMAHHJJE@WM_GETTEXT?$AA@ 004ce154     glib:win_utils.obj
 0003:00005164       ??_C@_0BB@NMCCDOHJ@WM_GETTEXTLENGTH?$AA@ 004ce164     glib:win_utils.obj
 0003:00005178       ??_C@_08EDBCNPKP@WM_PAINT?$AA@ 004ce178     glib:win_utils.obj
 0003:00005184       ??_C@_08FMIMCHME@WM_CLOSE?$AA@ 004ce184     glib:win_utils.obj
 0003:00005190       ??_C@_0BD@ENAAGMJE@WM_QUERYENDSESSION?$AA@ 004ce190     glib:win_utils.obj
 0003:000051a8       ??_C@_07EFAGEDCG@WM_QUIT?$AA@ 004ce1a8     glib:win_utils.obj
 0003:000051b4       ??_C@_0N@FIFIHOFF@WM_QUERYOPEN?$AA@ 004ce1b4     glib:win_utils.obj
 0003:000051c4       ??_C@_0O@EDCAABNK@WM_ERASEBKGND?$AA@ 004ce1c4     glib:win_utils.obj
 0003:000051d4       ??_C@_0BC@KGNOFAEC@WM_SYSCOLORCHANGE?$AA@ 004ce1d4     glib:win_utils.obj
 0003:000051ec       ??_C@_0O@LHMNNNAA@WM_ENDSESSION?$AA@ 004ce1ec     glib:win_utils.obj
 0003:000051fc       ??_C@_0O@FJJJLNAE@WM_SHOWWINDOW?$AA@ 004ce1fc     glib:win_utils.obj
 0003:0000520c       ??_C@_0BB@IKKOLILL@WM_SETTINGCHANGE?$AA@ 004ce20c     glib:win_utils.obj
 0003:00005220       ??_C@_0BB@GKEELHGC@WM_DEVMODECHANGE?$AA@ 004ce220     glib:win_utils.obj
 0003:00005234       ??_C@_0P@EADJDACJ@WM_ACTIVATEAPP?$AA@ 004ce234     glib:win_utils.obj
 0003:00005248       ??_C@_0O@DONHOAPC@WM_FONTCHANGE?$AA@ 004ce248     glib:win_utils.obj
 0003:00005258       ??_C@_0O@EMMPOAMP@WM_TIMECHANGE?$AA@ 004ce258     glib:win_utils.obj
 0003:00005268       ??_C@_0O@KAHMAHCA@WM_CANCELMODE?$AA@ 004ce268     glib:win_utils.obj
 0003:00005278       ??_C@_0N@JHDCKOPL@WM_SETCURSOR?$AA@ 004ce278     glib:win_utils.obj
 0003:00005288       ??_C@_0BB@BDGPPIDA@WM_MOUSEACTIVATE?$AA@ 004ce288     glib:win_utils.obj
 0003:0000529c       ??_C@_0BB@HOFJFAKG@WM_CHILDACTIVATE?$AA@ 004ce29c     glib:win_utils.obj
 0003:000052b0       ??_C@_0N@IIAICGJO@WM_QUEUESYNC?$AA@ 004ce2b0     glib:win_utils.obj
 0003:000052c0       ??_C@_0BB@OONPDHIE@WM_GETMINMAXINFO?$AA@ 004ce2c0     glib:win_utils.obj
 0003:000052d4       ??_C@_0N@MNICHODK@WM_PAINTICON?$AA@ 004ce2d4     glib:win_utils.obj
 0003:000052e4       ??_C@_0BC@LNLNDDEJ@WM_ICONERASEBKGND?$AA@ 004ce2e4     glib:win_utils.obj
 0003:000052fc       ??_C@_0O@KAFCFNAA@WM_NEXTDLGCTL?$AA@ 004ce2fc     glib:win_utils.obj
 0003:0000530c       ??_C@_0BB@KMKIOGMF@WM_SPOOLERSTATUS?$AA@ 004ce30c     glib:win_utils.obj
 0003:00005320       ??_C@_0M@NMIKDPKC@WM_DRAWITEM?$AA@ 004ce320     glib:win_utils.obj
 0003:00005330       ??_C@_0P@CGKCCAN@WM_MEASUREITEM?$AA@ 004ce330     glib:win_utils.obj
 0003:00005344       ??_C@_0O@DFBAMDAL@WM_DELETEITEM?$AA@ 004ce344     glib:win_utils.obj
 0003:00005354       ??_C@_0O@PLGPDPOL@WM_VKEYTOITEM?$AA@ 004ce354     glib:win_utils.obj
 0003:00005364       ??_C@_0O@MPHPKBDL@WM_CHARTOITEM?$AA@ 004ce364     glib:win_utils.obj
 0003:00005374       ??_C@_0L@OJMALNAB@WM_SETFONT?$AA@ 004ce374     glib:win_utils.obj
 0003:00005384       ??_C@_0L@BBDBICNA@WM_GETFONT?$AA@ 004ce384     glib:win_utils.obj
 0003:00005394       ??_C@_0N@MDPGANDB@WM_SETHOTKEY?$AA@ 004ce394     glib:win_utils.obj
 0003:000053a4       ??_C@_0N@ONLDCMKD@WM_GETHOTKEY?$AA@ 004ce3a4     glib:win_utils.obj
 0003:000053b4       ??_C@_0BB@GPCADNLG@WM_QUERYDRAGICON?$AA@ 004ce3b4     glib:win_utils.obj
 0003:000053c8       ??_C@_0P@NCLEEKAN@WM_COMPAREITEM?$AA@ 004ce3c8     glib:win_utils.obj
 0003:000053dc       ??_C@_0O@HCPOGCD@WM_COMPACTING?$AA@ 004ce3dc     glib:win_utils.obj
 0003:000053ec       ??_C@_0O@LLEJBMCM@WM_COMMNOTIFY?$AA@ 004ce3ec     glib:win_utils.obj
 0003:000053fc       ??_C@_0BF@LKGIDMPB@WM_WINDOWPOSCHANGING?$AA@ 004ce3fc     glib:win_utils.obj
 0003:00005418       ??_C@_0BE@KDEHDBCJ@WM_WINDOWPOSCHANGED?$AA@ 004ce418     glib:win_utils.obj
 0003:00005430       ??_C@_08BGOLAJAF@WM_POWER?$AA@ 004ce430     glib:win_utils.obj
 0003:0000543c       ??_C@_0M@IKPAGFMM@WM_COPYDATA?$AA@ 004ce43c     glib:win_utils.obj
 0003:0000544c       ??_C@_0BB@GIGPLGNF@WM_CANCELJOURNAL?$AA@ 004ce44c     glib:win_utils.obj
 0003:00005460       ??_C@_09DKLNNAMM@WM_NOTIFY?$AA@ 004ce460     glib:win_utils.obj
 0003:0000546c       ??_C@_0BK@OICMKOOE@WM_INPUTLANGCHANGEREQUEST?$AA@ 004ce46c     glib:win_utils.obj
 0003:0000548c       ??_C@_0BD@MECHMCEO@WM_INPUTLANGCHANGE?$AA@ 004ce48c     glib:win_utils.obj
 0003:000054a4       ??_C@_08DIAJKOHD@WM_TCARD?$AA@ 004ce4a4     glib:win_utils.obj
 0003:000054b0       ??_C@_07BKEIOGKF@WM_HELP?$AA@ 004ce4b0     glib:win_utils.obj
 0003:000054bc       ??_C@_0P@JDAICFKM@WM_USERCHANGED?$AA@ 004ce4bc     glib:win_utils.obj
 0003:000054d0       ??_C@_0BA@HEMMMMIB@WM_NOTIFYFORMAT?$AA@ 004ce4d0     glib:win_utils.obj
 0003:000054e4       ??_C@_0P@BPLEMBAK@WM_CONTEXTMENU?$AA@ 004ce4e4     glib:win_utils.obj
 0003:000054f8       ??_C@_0BB@DFEAJANB@WM_STYLECHANGING?$AA@ 004ce4f8     glib:win_utils.obj
 0003:0000550c       ??_C@_0BA@OOHFOOPF@WM_STYLECHANGED?$AA@ 004ce50c     glib:win_utils.obj
 0003:00005520       ??_C@_0BB@IHILCKGN@WM_DISPLAYCHANGE?$AA@ 004ce520     glib:win_utils.obj
 0003:00005534       ??_C@_0L@GIFIDKFF@WM_GETICON?$AA@ 004ce534     glib:win_utils.obj
 0003:00005544       ??_C@_0L@JAKJAFIE@WM_SETICON?$AA@ 004ce544     glib:win_utils.obj
 0003:00005554       ??_C@_0M@EJONANPA@WM_NCCREATE?$AA@ 004ce554     glib:win_utils.obj
 0003:00005564       ??_C@_0N@CLECHBCL@WM_NCDESTROY?$AA@ 004ce564     glib:win_utils.obj
 0003:00005574       ??_C@_0O@FELKHFHD@WM_NCCALCSIZE?$AA@ 004ce574     glib:win_utils.obj
 0003:00005584       ??_C@_0N@MLBEHFNH@WM_NCHITTEST?$AA@ 004ce584     glib:win_utils.obj
 0003:00005594       ??_C@_0L@GBHEGNBL@WM_NCPAINT?$AA@ 004ce594     glib:win_utils.obj
 0003:000055a4       ??_C@_0O@MKAJCBNC@WM_NCACTIVATE?$AA@ 004ce5a4     glib:win_utils.obj
 0003:000055b4       ??_C@_0O@GKAKBOFP@WM_GETDLGCODE?$AA@ 004ce5b4     glib:win_utils.obj
 0003:000055c4       ??_C@_0P@MPNPIBJO@WM_NCMOUSEMOVE?$AA@ 004ce5c4     glib:win_utils.obj
 0003:000055d8       ??_C@_0BB@NPGLDKFN@WM_NCLBUTTONDOWN?$AA@ 004ce5d8     glib:win_utils.obj
 0003:000055ec       ??_C@_0P@CLPAIOAP@WM_NCLBUTTONUP?$AA@ 004ce5ec     glib:win_utils.obj
 0003:00005600       ??_C@_0BD@PKNAKKDK@WM_NCLBUTTONDBLCLK?$AA@ 004ce600     glib:win_utils.obj
 0003:00005618       ??_C@_0BB@DKECAELP@WM_NCRBUTTONDOWN?$AA@ 004ce618     glib:win_utils.obj
 0003:0000562c       ??_C@_0P@BCJHDPFE@WM_NCRBUTTONUP?$AA@ 004ce62c     glib:win_utils.obj
 0003:00005640       ??_C@_0BD@FHPJMDNG@WM_NCRBUTTONDBLCLK?$AA@ 004ce640     glib:win_utils.obj
 0003:00005658       ??_C@_0BB@EEMOHGDC@WM_NCMBUTTONDOWN?$AA@ 004ce658     glib:win_utils.obj
 0003:0000566c       ??_C@_0P@MEDCOFDB@WM_NCMBUTTONUP?$AA@ 004ce66c     glib:win_utils.obj
 0003:00005680       ??_C@_0BD@GHNPELEM@WM_NCMBUTTONDBLCLK?$AA@ 004ce680     glib:win_utils.obj
 0003:00005698       ??_C@_0L@CDBKLFAF@WM_KEYDOWN?$AA@ 004ce698     glib:win_utils.obj
 0003:000056a8       ??_C@_08PLIFFFDN@WM_KEYUP?$AA@ 004ce6a8     glib:win_utils.obj
 0003:000056b4       ??_C@_07KFBMPOLI@WM_CHAR?$AA@ 004ce6b4     glib:win_utils.obj
 0003:000056c0       ??_C@_0M@LFJKCBGB@WM_DEADCHAR?$AA@ 004ce6c0     glib:win_utils.obj
 0003:000056d0       ??_C@_0O@BHAGIJNP@WM_SYSKEYDOWN?$AA@ 004ce6d0     glib:win_utils.obj
 0003:000056e0       ??_C@_0M@BJMELJPL@WM_SYSKEYUP?$AA@ 004ce6e0     glib:win_utils.obj
 0003:000056f0       ??_C@_0L@FMIKCMHB@WM_SYSCHAR?$AA@ 004ce6f0     glib:win_utils.obj
 0003:00005700       ??_C@_0P@NDKIAGJH@WM_SYSDEADCHAR?$AA@ 004ce700     glib:win_utils.obj
 0003:00005714       ??_C@_0BI@FPNBFFHB@WM_IME_STARTCOMPOSITION?$AA@ 004ce714     glib:win_utils.obj
 0003:00005730       ??_C@_0BG@HAEEDOMB@WM_IME_ENDCOMPOSITION?$AA@ 004ce730     glib:win_utils.obj
 0003:0000574c       ??_C@_0BD@DFBPHLOJ@WM_IME_COMPOSITION?$AA@ 004ce74c     glib:win_utils.obj
 0003:00005764       ??_C@_0O@LOFLAEFJ@WM_INITDIALOG?$AA@ 004ce764     glib:win_utils.obj
 0003:00005774       ??_C@_0L@MIBPNEEE@WM_COMMAND?$AA@ 004ce774     glib:win_utils.obj
 0003:00005784       ??_C@_0O@PMADOIJO@WM_SYSCOMMAND?$AA@ 004ce784     glib:win_utils.obj
 0003:00005794       ??_C@_08DNJOAJEI@WM_TIMER?$AA@ 004ce794     glib:win_utils.obj
 0003:000057a0       ??_C@_0L@MGDDHGNO@WM_HSCROLL?$AA@ 004ce7a0     glib:win_utils.obj
 0003:000057b0       ??_C@_0L@KPACFFMH@WM_VSCROLL?$AA@ 004ce7b0     glib:win_utils.obj
 0003:000057c0       ??_C@_0M@CAMBCBNK@WM_INITMENU?$AA@ 004ce7c0     glib:win_utils.obj
 0003:000057d0       ??_C@_0BB@BDMOAOLE@WM_INITMENUPOPUP?$AA@ 004ce7d0     glib:win_utils.obj
 0003:000057e4       ??_C@_0O@GGHPLAIN@WM_MENUSELECT?$AA@ 004ce7e4     glib:win_utils.obj
 0003:000057f4       ??_C@_0M@CHPLDGON@WM_MENUCHAR?$AA@ 004ce7f4     glib:win_utils.obj
 0003:00005804       ??_C@_0N@JMDJDHHB@WM_ENTERIDLE?$AA@ 004ce804     glib:win_utils.obj
 0003:00005814       ??_C@_0BC@MLPGDCAA@WM_CTLCOLORMSGBOX?$AA@ 004ce814     glib:win_utils.obj
 0003:0000582c       ??_C@_0BA@FOIONIGI@WM_CTLCOLOREDIT?$AA@ 004ce82c     glib:win_utils.obj
 0003:00005840       ??_C@_0BD@OBEJKNPH@WM_CTLCOLORLISTBOX?$AA@ 004ce840     glib:win_utils.obj
 0003:00005858       ??_C@_0P@PCJHPOJL@WM_CTLCOLORBTN?$AA@ 004ce858     glib:win_utils.obj
 0003:0000586c       ??_C@_0P@BEALOIMG@WM_CTLCOLORDLG?$AA@ 004ce86c     glib:win_utils.obj
 0003:00005880       ??_C@_0BF@KCLJKFEN@WM_CTLCOLORSCROLLBAR?$AA@ 004ce880     glib:win_utils.obj
 0003:0000589c       ??_C@_0BC@LGJLKPOA@WM_CTLCOLORSTATIC?$AA@ 004ce89c     glib:win_utils.obj
 0003:000058b4       ??_C@_0N@HNNCPPOI@WM_MOUSEMOVE?$AA@ 004ce8b4     glib:win_utils.obj
 0003:000058c4       ??_C@_0P@BBLDAKBL@WM_LBUTTONDOWN?$AA@ 004ce8c4     glib:win_utils.obj
 0003:000058d8       ??_C@_0N@JJPNPAHJ@WM_LBUTTONUP?$AA@ 004ce8d8     glib:win_utils.obj
 0003:000058e8       ??_C@_0BB@HKCKLMMN@WM_LBUTTONDBLCLK?$AA@ 004ce8e8     glib:win_utils.obj
 0003:000058fc       ??_C@_0P@PEJKDEPJ@WM_RBUTTONDOWN?$AA@ 004ce8fc     glib:win_utils.obj
 0003:00005910       ??_C@_0N@KAJKEBCC@WM_RBUTTONUP?$AA@ 004ce910     glib:win_utils.obj
 0003:00005920       ??_C@_0BB@NHADNFCB@WM_RBUTTONDBLCLK?$AA@ 004ce920     glib:win_utils.obj
 0003:00005934       ??_C@_0P@IKBGEGHE@WM_MBUTTONDOWN?$AA@ 004ce934     glib:win_utils.obj
 0003:00005948       ??_C@_0N@HGDPJLEH@WM_MBUTTONUP?$AA@ 004ce948     glib:win_utils.obj
 0003:00005958       ??_C@_0BB@OHCFFNLL@WM_MBUTTONDBLCLK?$AA@ 004ce958     glib:win_utils.obj
 0003:0000596c       ??_C@_0BA@ICGEGMKJ@WM_PARENTNOTIFY?$AA@ 004ce96c     glib:win_utils.obj
 0003:00005980       ??_C@_0BB@JPJMEOJD@WM_ENTERMENULOOP?$AA@ 004ce980     glib:win_utils.obj
 0003:00005994       ??_C@_0BA@HPHPCIIA@WM_EXITMENULOOP?$AA@ 004ce994     glib:win_utils.obj
 0003:000059a8       ??_C@_0M@NIGDMHDP@WM_NEXTMENU?$AA@ 004ce9a8     glib:win_utils.obj
 0003:000059b8       ??_C@_09IPIPBONJ@WM_SIZING?$AA@ 004ce9b8     glib:win_utils.obj
 0003:000059c4       ??_C@_0BC@OCNDCLJD@WM_CAPTURECHANGED?$AA@ 004ce9c4     glib:win_utils.obj
 0003:000059dc       ??_C@_09KLMHPHFG@WM_MOVING?$AA@ 004ce9dc     glib:win_utils.obj
 0003:000059e8       ??_C@_0BC@ENMFAAOM@WM_POWERBROADCAST?$AA@ 004ce9e8     glib:win_utils.obj
 0003:00005a00       ??_C@_0BA@LANHJICN@WM_DEVICECHANGE?$AA@ 004cea00     glib:win_utils.obj
 0003:00005a14       ??_C@_0BC@LHLJJAO@WM_IME_SETCONTEXT?$AA@ 004cea14     glib:win_utils.obj
 0003:00005a2c       ??_C@_0O@NIFFAANL@WM_IME_NOTIFY?$AA@ 004cea2c     glib:win_utils.obj
 0003:00005a3c       ??_C@_0P@CLPNCGEA@WM_IME_CONTROL?$AA@ 004cea3c     glib:win_utils.obj
 0003:00005a50       ??_C@_0BH@GGBGGFGK@WM_IME_COMPOSITIONFULL?$AA@ 004cea50     glib:win_utils.obj
 0003:00005a6c       ??_C@_0O@NGOEABOO@WM_IME_SELECT?$AA@ 004cea6c     glib:win_utils.obj
 0003:00005a7c       ??_C@_0M@KGOALMI@WM_IME_CHAR?$AA@ 004cea7c     glib:win_utils.obj
 0003:00005a8c       ??_C@_0P@KACLNIBC@WM_IME_KEYDOWN?$AA@ 004cea8c     glib:win_utils.obj
 0003:00005aa0       ??_C@_0N@KLCPFGPE@WM_IME_KEYUP?$AA@ 004ceaa0     glib:win_utils.obj
 0003:00005ab0       ??_C@_0N@HOLFADCA@WM_MDICREATE?$AA@ 004ceab0     glib:win_utils.obj
 0003:00005ac0       ??_C@_0O@KNKGPLPB@WM_MDIDESTROY?$AA@ 004ceac0     glib:win_utils.obj
 0003:00005ad0       ??_C@_0P@KMIJPOJC@WM_MDIACTIVATE?$AA@ 004cead0     glib:win_utils.obj
 0003:00005ae4       ??_C@_0O@EHIICBGB@WM_MDIRESTORE?$AA@ 004ceae4     glib:win_utils.obj
 0003:00005af4       ??_C@_0L@NOKIPAIO@WM_MDINEXT?$AA@ 004ceaf4     glib:win_utils.obj
 0003:00005b04       ??_C@_0P@BHCCMDPJ@WM_MDIMAXIMIZE?$AA@ 004ceb04     glib:win_utils.obj
 0003:00005b18       ??_C@_0L@PGNIOIKJ@WM_MDITILE?$AA@ 004ceb18     glib:win_utils.obj
 0003:00005b28       ??_C@_0O@CJGCNHKE@WM_MDICASCADE?$AA@ 004ceb28     glib:win_utils.obj
 0003:00005b38       ??_C@_0BC@NNGOAOBK@WM_MDIICONARRANGE?$AA@ 004ceb38     glib:win_utils.obj
 0003:00005b50       ??_C@_0BA@JJEAJOMN@WM_MDIGETACTIVE?$AA@ 004ceb50     glib:win_utils.obj
 0003:00005b64       ??_C@_0O@MLJEEMJF@WM_MDISETMENU?$AA@ 004ceb64     glib:win_utils.obj
 0003:00005b74       ??_C@_0BB@CFFECPCC@WM_ENTERSIZEMOVE?$AA@ 004ceb74     glib:win_utils.obj
 0003:00005b88       ??_C@_0BA@MFLHEJDB@WM_EXITSIZEMOVE?$AA@ 004ceb88     glib:win_utils.obj
 0003:00005b9c       ??_C@_0N@GDICJFAE@WM_DROPFILES?$AA@ 004ceb9c     glib:win_utils.obj
 0003:00005bac       ??_C@_0BC@CJCCHAGJ@WM_MDIREFRESHMENU?$AA@ 004cebac     glib:win_utils.obj
 0003:00005bc4       ??_C@_06LAGFDFMI@WM_CUT?$AA@ 004cebc4     glib:win_utils.obj
 0003:00005bcc       ??_C@_07MGNLNGIN@WM_COPY?$AA@ 004cebcc     glib:win_utils.obj
 0003:00005bd8       ??_C@_08DONOGNOC@WM_PASTE?$AA@ 004cebd8     glib:win_utils.obj
 0003:00005be4       ??_C@_08CJBADECI@WM_CLEAR?$AA@ 004cebe4     glib:win_utils.obj
 0003:00005bf0       ??_C@_07JGHAGNLB@WM_UNDO?$AA@ 004cebf0     glib:win_utils.obj
 0003:00005bfc       ??_C@_0BA@GNAGAMKN@WM_RENDERFORMAT?$AA@ 004cebfc     glib:win_utils.obj
 0003:00005c10       ??_C@_0BE@NHKIBKPB@WM_RENDERALLFORMATS?$AA@ 004cec10     glib:win_utils.obj
 0003:00005c28       ??_C@_0BE@DHEAIAGM@WM_DESTROYCLIPBOARD?$AA@ 004cec28     glib:win_utils.obj
 0003:00005c40       ??_C@_0BB@HCKKIDNN@WM_DRAWCLIPBOARD?$AA@ 004cec40     glib:win_utils.obj
 0003:00005c54       ??_C@_0BC@IFDHILBB@WM_PAINTCLIPBOARD?$AA@ 004cec54     glib:win_utils.obj
 0003:00005c6c       ??_C@_0BE@KGCPHGII@WM_VSCROLLCLIPBOARD?$AA@ 004cec6c     glib:win_utils.obj
 0003:00005c84       ??_C@_0BB@KJALDIPA@WM_SIZECLIPBOARD?$AA@ 004cec84     glib:win_utils.obj
 0003:00005c98       ??_C@_0BD@MCGIJCNK@WM_ASKCBFORMATNAME?$AA@ 004cec98     glib:win_utils.obj
 0003:00005cb0       ??_C@_0BB@BLKNDPAP@WM_CHANGECBCHAIN?$AA@ 004cecb0     glib:win_utils.obj
 0003:00005cc4       ??_C@_0BE@PAFKBHGD@WM_HSCROLLCLIPBOARD?$AA@ 004cecc4     glib:win_utils.obj
 0003:00005cdc       ??_C@_0BD@DFJIIFBH@WM_QUERYNEWPALETTE?$AA@ 004cecdc     glib:win_utils.obj
 0003:00005cf4       ??_C@_0BF@GLEDLMGA@WM_PALETTEISCHANGING?$AA@ 004cecf4     glib:win_utils.obj
 0003:00005d10       ??_C@_0BC@MCFMMPJA@WM_PALETTECHANGED?$AA@ 004ced10     glib:win_utils.obj
 0003:00005d28       ??_C@_09PBCCJDCE@WM_HOTKEY?$AA@ 004ced28     glib:win_utils.obj
 0003:00005d34       ??_C@_08GEFCDCPN@WM_PRINT?$AA@ 004ced34     glib:win_utils.obj
 0003:00005d40       ??_C@_0P@MLEEKKK@WM_PRINTCLIENT?$AA@ 004ced40     glib:win_utils.obj
 0003:00005d54       ??_C@_0BB@IGFNCJOL@WM_HANDHELDFIRST?$AA@ 004ced54     glib:win_utils.obj
 0003:00005d68       ??_C@_0BA@CDHKGGID@WM_HANDHELDLAST?$AA@ 004ced68     glib:win_utils.obj
 0003:00005d7c       ??_C@_0M@PCOAGEBJ@WM_AFXFIRST?$AA@ 004ced7c     glib:win_utils.obj
 0003:00005d8c       ??_C@_0L@CPOFAOAA@WM_AFXLAST?$AA@ 004ced8c     glib:win_utils.obj
 0003:00005d9c       ??_C@_0P@JHAEENOI@WM_PENWINFIRST?$AA@ 004ced9c     glib:win_utils.obj
 0003:00005db0       ??_C@_0O@HLBFDJFI@WM_PENWINLAST?$AA@ 004cedb0     glib:win_utils.obj
 0003:00005dc0       ??_C@_0BA@MIDEGDIJ@WM_NCMOUSELEAVE?$AA@ 004cedc0     glib:win_utils.obj
 0003:00005dd4       ??_C@_07MKKNOENI@WM_USER?$AA@ 004cedd4     glib:win_utils.obj
 0003:00005de0       ??_C@_09BMMDANGI@WM_USER?$CL1?$AA@ 004cede0     glib:win_utils.obj
 0003:00005dec       ??_C@_09DHOOFOKL@WM_USER?$CL2?$AA@ 004cedec     glib:win_utils.obj
 0003:00005df8       ??_C@_09COPFGPOK@WM_USER?$CL3?$AA@ 004cedf8     glib:win_utils.obj
 0003:00005e04       ??_C@_09GBLEPJCN@WM_USER?$CL4?$AA@ 004cee04     glib:win_utils.obj
 0003:00005e10       ??_C@_0BB@PCLCMCKJ@WM_CHANGEUISTATE?$AA@ 004cee10     glib:win_utils.obj
 0003:00005e24       ??_C@_0BJ@FKIKPAMO@WM_DWMNCRENDERINGCHANGED?$AA@ 004cee24     glib:win_utils.obj
 0003:00005e44       ??_C@_0CI@PJJNAHON@UNKNOWN?5WINDOWS?5MESSAGE?5?$CK?$CK?$CK?$CK?5?$CFlu@ 004cee44     glib:win_utils.obj
 0003:00005e74       ??_C@_04OEDFLLKD@?$CC?$CFs?$CC?$AA@ 004cee74     glib:win_utils.obj
 0003:00005e7c       ??_C@_05HGAKKMEH@?$CC?$CFs?$CC?0?$AA@ 004cee7c     glib:win_utils.obj
 0003:00005e84       ??_C@_08PCMJGOKJ@?$CC?$CF?$CF?4?$CFdf?$CC?$AA@ 004cee84     glib:win_utils.obj
 0003:00005e90       ??_C@_09JGMJLJIM@?$CC?$CF?$CF?4?$CFdf?$CC?0?$AA@ 004cee90     glib:win_utils.obj
 0003:00005e9c       ??_C@_04PNFMAOFG@?$CC?$CFd?$CC?$AA@ 004cee9c     glib:win_utils.obj
 0003:00005ea4       ??_C@_05LLMEMDGB@?$CC?$CFd?$CC?0?$AA@ 004ceea4     glib:win_utils.obj
 0003:00005eac       ??_C@_0L@OCNNGMOB@WM_CREATE?6?$AA@ 004ceeac     glib:win_utils.obj
 0003:00005ebc       ??_C@_0M@OGANANAC@WM_DESTROY?6?$AA@ 004ceebc     glib:win_utils.obj
 0003:00005ecc       ??_C@_08GDHNKIHJ@WM_MOVE?6?$AA@ 004ceecc     glib:win_utils.obj
 0003:00005ed8       ??_C@_08JPDHIBIK@WM_SIZE?6?$AA@ 004ceed8     glib:win_utils.obj
 0003:00005ee4       ??_C@_0N@CAPFCMCF@WM_ACTIVATE?6?$AA@ 004ceee4     glib:win_utils.obj
 0003:00005ef4       ??_C@_0N@HIPCMMAH@WM_SETFOCUS?6?$AA@ 004ceef4     glib:win_utils.obj
 0003:00005f04       ??_C@_0O@KHNOBLCN@WM_KILLFOCUS?6?$AA@ 004cef04     glib:win_utils.obj
 0003:00005f14       ??_C@_0M@NPBLIKO@WM_GETTEXT?6?$AA@ 004cef14     glib:win_utils.obj
 0003:00005f24       ??_C@_09LMMFEECM@WM_PAINT?6?$AA@ 004cef24     glib:win_utils.obj
 0003:00005f30       ??_C@_09GGLKGCAE@WM_CLOSE?6?$AA@ 004cef30     glib:win_utils.obj
 0003:00005f3c       ??_C@_0O@OBLGBFIP@WM_QUERYOPEN?6?$AA@ 004cef3c     glib:win_utils.obj
 0003:00005f4c       ??_C@_0P@JMKKPDEB@WM_ERASEBKGND?6?$AA@ 004cef4c     glib:win_utils.obj
 0003:00005f60       ??_C@_0P@PNNLLFCO@WM_SHOWWINDOW?6?$AA@ 004cef60     glib:win_utils.obj
 0003:00005f74       ??_C@_0BA@LIBNEJNG@WM_ACTIVATEAPP?6?$AA@ 004cef74     glib:win_utils.obj
 0003:00005f88       ??_C@_0O@NABHPBLA@WM_SETCURSOR?6?$AA@ 004cef88     glib:win_utils.obj
 0003:00005f98       ??_C@_04EHJPBKNO@WM_?6?$AA@ 004cef98     glib:win_utils.obj
 0003:00005fa0       ??_C@_0BC@BANEHAIE@WM_GETMINMAXINFO?6?$AA@ 004cefa0     glib:win_utils.obj
 0003:00005fb8       ??_C@_0N@MCOLKAHB@WM_DRAWITEM?6?$AA@ 004cefb8     glib:win_utils.obj
 0003:00005fc8       ??_C@_0BG@DAOPECDM@WM_WINDOWPOSCHANGING?6?$AA@ 004cefc8     glib:win_utils.obj
 0003:00005fe4       ??_C@_0BF@LIPODHNH@WM_WINDOWPOSCHANGED?6?$AA@ 004cefe4     glib:win_utils.obj
 0003:00006000       ??_C@_0L@GIAHNLMB@WM_NOTIFY?6?$AA@ 004cf000     glib:win_utils.obj
 0003:00006010       ??_C@_0BC@DMDGCNDE@WM_NOTIFIYFORMAT?6?$AA@ 004cf010     glib:win_utils.obj
 0003:00006028       ??_C@_0BA@BKCFLFFF@WM_CONTEXTMENU?6?$AA@ 004cf028     glib:win_utils.obj
 0003:0000603c       ??_C@_0M@OBIGBFML@WM_GETICON?6?$AA@ 004cf03c     glib:win_utils.obj
 0003:0000604c       ??_C@_0N@EHBLPHJL@WM_NCCREATE?6?$AA@ 004cf04c     glib:win_utils.obj
 0003:0000605c       ??_C@_0O@FGHIFDLL@WM_NCDESTROY?6?$AA@ 004cf05c     glib:win_utils.obj
 0003:0000606c       ??_C@_0P@DDLHHCHJ@WM_NCCALCSIZE?6?$AA@ 004cf06c     glib:win_utils.obj
 0003:00006080       ??_C@_0O@OCJDLLII@WM_NCHITTEST?6?$AA@ 004cf080     glib:win_utils.obj
 0003:00006090       ??_C@_0O@JFHAJDFP@WM_SYNCPAINT?6?$AA@ 004cf090     glib:win_utils.obj
 0003:000060a0       ??_C@_0M@HAOLFFAL@WM_NCPAINT?6?$AA@ 004cf0a0     glib:win_utils.obj
 0003:000060b0       ??_C@_0P@JCPIFCFD@WM_NCACTIVATE?6?$AA@ 004cf0b0     glib:win_utils.obj
 0003:000060c4       ??_C@_0BA@ONJHIJEI@WM_NCMOUSEMOVE?6?$AA@ 004cf0c4     glib:win_utils.obj
 0003:000060d8       ??_C@_0BC@OPOKKOPJ@WM_NCLBUTTONDOWN?6?$AA@ 004cf0d8     glib:win_utils.obj
 0003:000060f0       ??_C@_0N@HMHDAMLM@WM_KEYFIRST?6?$AA@ 004cf0f0     glib:win_utils.obj
 0003:00006100       ??_C@_09KCHMCBMO@WM_KEYUP?6?$AA@ 004cf100     glib:win_utils.obj
 0003:0000610c       ??_C@_0M@ILJGHCNH@WM_COMMAND?6?$AA@ 004cf10c     glib:win_utils.obj
 0003:0000611c       ??_C@_0P@ONKEFFCB@WM_SYSCOMMAND?6?$AA@ 004cf11c     glib:win_utils.obj
 0003:00006130       ??_C@_0M@JLECCECP@WM_HSCROLL?6?$AA@ 004cf130     glib:win_utils.obj
 0003:00006140       ??_C@_0N@JMMJBCGB@WM_INITMENU?6?$AA@ 004cf140     glib:win_utils.obj
 0003:00006150       ??_C@_0BC@DGPAFBBB@WM_INITMENUPOPUP?6?$AA@ 004cf150     glib:win_utils.obj
 0003:00006168       ??_C@_0P@GJIAGIKH@WM_MENUSELECT?6?$AA@ 004cf168     glib:win_utils.obj
 0003:0000617c       ??_C@_0O@NNHBJABH@WM_ENTERIDLE?6?$AA@ 004cf17c     glib:win_utils.obj
 0003:0000618c       ??_C@_0BE@LODIADIG@WM_UNINITMENUPOPUP?6?$AA@ 004cf18c     glib:win_utils.obj
 0003:000061a4       ??_C@_09LBHAJKMJ@WM_0X127?6?$AA@ 004cf1a4     glib:win_utils.obj
 0003:000061b0       ??_C@_09LLOOLHMD@WM_0X129?6?$AA@ 004cf1b0     glib:win_utils.obj
 0003:000061bc       ??_C@_0BB@LJNIIPDI@WM_CTLCOLOREDIT?6?$AA@ 004cf1bc     glib:win_utils.obj
 0003:000061d0       ??_C@_0BE@NJNHMGJI@WM_CTLCOLORLISTBOX?6?$AA@ 004cf1d0     glib:win_utils.obj
 0003:000061e8       ??_C@_0BA@JNMADFLI@WM_CTLCOLORBTN?6?$AA@ 004cf1e8     glib:win_utils.obj
 0003:000061fc       ??_C@_0BD@FKFDJBFN@WM_CTLCOLORSTATIC?6?$AA@ 004cf1fc     glib:win_utils.obj
 0003:00006214       ??_C@_0P@HOFDJMDJ@WM_MOUSEFIRST?6?$AA@ 004cf214     glib:win_utils.obj
 0003:00006228       ??_C@_0BA@HAJLJCGM@WM_LBUTTONDOWN?6?$AA@ 004cf228     glib:win_utils.obj
 0003:0000623c       ??_C@_0O@NDKPNMOC@WM_LBUTTONUP?6?$AA@ 004cf23c     glib:win_utils.obj
 0003:0000624c       ??_C@_0BA@DOHKDIAG@WM_RBUTTONDOWN?6?$AA@ 004cf24c     glib:win_utils.obj
 0003:00006260       ??_C@_0O@CPCPDDCP@WM_RBUTTONUP?6?$AA@ 004cf260     glib:win_utils.obj
 0003:00006270       ??_C@_0BC@LGFBPLAB@WM_RBUTTONDBLCLK?6?$AA@ 004cf270     glib:win_utils.obj
 0003:00006288       ??_C@_0BB@FFGHJHKK@WM_PARENTNOTIFY?6?$AA@ 004cf288     glib:win_utils.obj
 0003:0000629c       ??_C@_0BC@JDHGLGDK@WM_ENTERMENULOOP?6?$AA@ 004cf29c     glib:win_utils.obj
 0003:000062b4       ??_C@_0BB@BHCIBEIC@WM_EXITMENULOOP?6?$AA@ 004cf2b4     glib:win_utils.obj
 0003:000062c8       ??_C@_0BD@JDALPJFP@WM_CAPTURECHANGED?6?$AA@ 004cf2c8     glib:win_utils.obj
 0003:000062e0       ??_C@_0L@HIEMNLLM@WM_MOVING?6?$AA@ 004cf2e0     glib:win_utils.obj
 0003:000062f0       ??_C@_0BC@CPKKPNEB@WM_ENTERSIZEMOVE?6?$AA@ 004cf2f0     glib:win_utils.obj
 0003:00006308       ??_C@_0BB@KLPEFPPJ@WM_EXITSIZEMOVE?6?$AA@ 004cf308     glib:win_utils.obj
 0003:0000631c       ??_C@_0BB@EOOFNBMH@default?3?50x?$CF04x?6?$AA@ 004cf31c     glib:win_utils.obj
 0003:00006330       ??_C@_1BE@PHGDAGDE@?$AAs?$AAi?$AAz?$AAe?$AA?5?$AA?$DO?$AA1?$AA2?$AA8?$AA?$AA@ 004cf330     glib:win_utils.obj
 0003:00006348       ??_C@_0CD@OMFCBPCB@?$CF04d?9?$CF02d?9?$CF02d?9?$CF02d?9?$CF02d?9?$CF02d?9?$CF0@ 004cf348     glib:win_utils.obj
 0003:00006374       ??_C@_02IJDFDKEE@95?$AA@   004cf374     glib:win_utils.obj
 0003:00006378       ??_C@_02KEGNBOHH@NT?$AA@   004cf378     glib:win_utils.obj
 0003:0000637c       ??_C@_0CN@OJOMIAJ@Software?2Microsoft?2Windows?5NT?2Cu@ 004cf37c     glib:win_utils.obj
 0003:000063b4       ??_C@_0CK@GJMFPFCF@Software?2Microsoft?2Windows?2Curre@ 004cf3b4     glib:win_utils.obj
 0003:000063e8       ??_C@_09BCPMJOLL@ProductId?$AA@ 004cf3e8     glib:win_utils.obj
 0003:000063f8       __real@3fd3333333333333    004cf3f8     glib:win_utils.obj
 0003:00006408       __real@3ff8000000000000    004cf408     glib:win_utils.obj
 0003:00006418       __real@4008000000000000    004cf418     glib:win_utils.obj
 0003:00006428       __real@4010000000000000    004cf428     glib:win_utils.obj
 0003:00006438       __real@4014000000000000    004cf438     glib:win_utils.obj
 0003:00006448       __real@401c000000000000    004cf448     glib:win_utils.obj
 0003:00006458       __real@4024000000000000    004cf458     glib:win_utils.obj
 0003:00006464       __real@40400000            004cf464     glib:win_utils.obj
 0003:00006470       __xmm@80000000000000008000000000000000 004cf470     glib:win_utils.obj
 0003:00006488       ??_7BMP@@6B@               004cf488     glib:bmp.obj
 0003:00006490       ??_C@_0BJ@CHGCAHDM@x?3?2data?2_fs?2glib?2bmp?4cpp?$AA@ 004cf490     glib:bmp.obj
 0003:000064b0       ??_C@_0BG@KMGMPLJ@Can?8t?5open?5?4bmp?5file?4?$AA@ 004cf4b0     glib:bmp.obj
 0003:000064cc       ??_C@_1DC@IHDMGEBA@?$AAx?$AA?3?$AA?2?$AAd?$AAa?$AAt?$AAa?$AA?2?$AA_?$AAf?$AAs?$AA?2?$AAg?$AAl?$AAi?$AAb?$AA?2?$AAb?$AAm?$AAp?$AA?4?$AAc?$AAp?$AAp?$AA?$AA@ 004cf4cc     glib:bmp.obj
 0003:00006508       ??_C@_1CG@PFPLIGAD@?$AAs?$AAt?$AAa?$AAt?$AAu?$AAs?$AA?5?$AA?$DN?$AA?$DN?$AA?5?$AAb?$AAm?$AAf?$AAh?$AAS?$AAi?$AAz?$AAe?$AA?$AA@ 004cf508     glib:bmp.obj
 0003:00006538       ??_C@_1CO@IHNKNJIP@?$AAb?$AAm?$AAf?$AAh?$AA?4?$AAb?$AAf?$AAS?$AAi?$AAz?$AAe?$AA?$DN?$AA?$DN?$AAf?$AAi?$AAl?$AAe?$AA_?$AAs?$AAi?$AAz?$AAe?$AA?$AA@ 004cf538     glib:bmp.obj
 0003:00006570       ??_C@_1CK@LJJJOHOA@?$AAo?$AAf?$AAf?$AAs?$AA?$DN?$AA?$DN?$AAb?$AAm?$AAf?$AAh?$AA?4?$AAb?$AAf?$AAO?$AAf?$AAf?$AAB?$AAi?$AAt?$AAs?$AA?$AA@ 004cf570     glib:bmp.obj
 0003:000065a4       ??_C@_1CK@HFIEHHAL@?$AAc?$AAa?$AAl?$AAc?$AA_?$AAs?$AAi?$AAz?$AAe?$AA?$DN?$AA?$DN?$AAf?$AAi?$AAl?$AAe?$AA_?$AAs?$AAi?$AAz?$AAe?$AA?$AA@ 004cf5a4     glib:bmp.obj
 0003:000065d8       ??_C@_1DG@ODAPMEGK@?$AAw?$AA?$DN?$AA?$DN?$AAl?$AAp?$AAb?$AAi?$AA?9?$AA?$DO?$AAb?$AAm?$AAi?$AAH?$AAe?$AAa?$AAd?$AAe?$AAr?$AA?4?$AAb?$AAi?$AAW?$AAi?$AAd?$AAt?$AAh?$AA?$AA@ 004cf5d8     glib:bmp.obj
 0003:00006618       ??_C@_1DI@GLMDPHIP@?$AAh?$AA?$DN?$AA?$DN?$AAl?$AAp?$AAb?$AAi?$AA?9?$AA?$DO?$AAb?$AAm?$AAi?$AAH?$AAe?$AAa?$AAd?$AAe?$AAr?$AA?4?$AAb?$AAi?$AAH?$AAe?$AAi?$AAg?$AAh?$AAt?$AA?$AA@ 004cf618     glib:bmp.obj
 0003:00006660       ??_C@_1EM@GBGHPNOI@?$AAb?$AAm?$AAf?$AAh?$AA?4?$AAb?$AAf?$AAO?$AAf?$AAf?$AAB?$AAi?$AAt?$AAs?$AA?$DN?$AA?$DN?$AA?$CI?$AAb?$AAm?$AAf?$AAh?$AAS?$AAi?$AAz?$AAe?$AA?5?$AA?$CL?$AA?5?$AAb?$AAm?$AAi?$AAh@ 004cf660     glib:bmp.obj
 0003:000066bc       ??_C@_1DA@MDOIBKIN@?$AAo?$AAf?$AAf?$AAs?$AAe?$AAt?$AA?5?$AA?$DN?$AA?5?$AAb?$AAm?$AAf?$AAh?$AA?4?$AAb?$AAf?$AAO?$AAf?$AAf?$AAB?$AAi?$AAt?$AAs?$AA?$AA@ 004cf6bc     glib:bmp.obj
 0003:000066f8       __real@3de147ae            004cf6f8     glib:bmp.obj
 0003:000066fc       __real@3e99999a            004cf6fc     glib:bmp.obj
 0003:00006700       __real@3f170a3d            004cf700     glib:bmp.obj
 0003:00006704       __real@40800000            004cf704     glib:bmp.obj
 0003:00006708       __real@7f7fffff            004cf708     glib:bmp.obj
 0003:0000670c       __real@ff7fffff            004cf70c     glib:bmp.obj
 0003:00006714       ??_7Err@@6B@               004cf714     glib:err.obj
 0003:00006720       __real@3fb99999a0000000    004cf720     tlib:monarch.obj
 0003:00006730       __real@3fc10624e0000000    004cf730     tlib:monarch.obj
 0003:00006740       __real@400921fb54442d18    004cf740     tlib:monarch.obj
 0003:00006750       __real@4018000000000000    004cf750     tlib:monarch.obj
 0003:00006760       __real@4064600000000000    004cf760     tlib:monarch.obj
 0003:00006770       __real@409fc80000000000    004cf770     tlib:monarch.obj
 0003:0000677c       ??_C@_08CNDMIKD@WINDLOAD?$AA@ 004cf77c     tlib:physics.obj
 0003:00006788       ??_C@_0BA@EABMAALJ@CONSTANT_TORQUE?$AA@ 004cf788     tlib:physics.obj
 0003:0000679c       ??_C@_0P@IJODJMIL@CONSTANT_WATTS?$AA@ 004cf79c     tlib:physics.obj
 0003:000067b0       ??_C@_0BB@MCBGLGGE@CONSTANT_CURRENT?$AA@ 004cf7b0     tlib:physics.obj
 0003:000067c4       ??_C@_06BBCANMND@NOMODE?$AA@ 004cf7c4     tlib:physics.obj
 0003:000067cc       ??_C@_0M@LPOABDPE@physics?4ini?$AA@ 004cf7cc     tlib:physics.obj
 0003:000067dc       ??_C@_0BC@OJIKILB@?$CFs?$CFsphysics?$CFd?4log?$AA@ 004cf7dc     tlib:physics.obj
 0003:000067f4       ??_C@_0BP@OKNEHFMG@monarch?5radius?5?$DN?5?$CF?43lf?5meters?6?$AA@ 004cf7f4     tlib:physics.obj
 0003:0000681c       ??_C@_0BE@KCBHOOKI@fish?5scale?5?$DN?5?$CF?42lf?6?$AA@ 004cf81c     tlib:physics.obj
 0003:00006834       ??_C@_04BBAGFKEA@zzz1?$AA@ 004cf834     tlib:physics.obj
 0003:0000683c       ??_C@_04DKCLAJID@zzz2?$AA@ 004cf83c     tlib:physics.obj
 0003:00006844       ??_C@_08DHDIDALD@?40000237?$AA@ 004cf844     tlib:physics.obj
 0003:00006850       ??_C@_02ICGBAFJO@k1?$AA@   004cf850     tlib:physics.obj
 0003:00006854       ??_C@_03BMIBKDHK@?465?$AA@ 004cf854     tlib:physics.obj
 0003:00006858       ??_C@_04CNCNIFFP@gain?$AA@ 004cf858     tlib:physics.obj
 0003:00006860       ??_C@_02JAFMIPLB@?45?$AA@  004cf860     tlib:physics.obj
 0003:00006864       ??_C@_05FBOPNOCA@pgain?$AA@ 004cf864     tlib:physics.obj
 0003:0000686c       ??_C@_07BECGJCFH@physics?$AA@ 004cf86c     tlib:physics.obj
 0003:00006878       ??_C@_03EOFGHIEO@?403?$AA@ 004cf878     tlib:physics.obj
 0003:0000687c       ??_C@_05HFDGINHD@igain?$AA@ 004cf87c     tlib:physics.obj
 0003:00006884       ??_C@_03HPLEMDKK@200?$AA@  004cf884     tlib:physics.obj
 0003:00006888       ??_C@_0O@OJHKODOE@rpm?5filtering?$AA@ 004cf888     tlib:physics.obj
 0003:00006898       ??_C@_0O@EBPPBMGO@mph?5filtering?$AA@ 004cf898     tlib:physics.obj
 0003:000068a8       ??_C@_02PKFBJPLJ@10?$AA@   004cf8a8     tlib:physics.obj
 0003:000068ac       ??_C@_0BA@NAHCBLND@watts?5filtering?$AA@ 004cf8ac     tlib:physics.obj
 0003:000068c0       ??_C@_07KIBFCABI@degauss?$AA@ 004cf8c0     tlib:physics.obj
 0003:000068cc       ??_C@_0L@NHKHIDHE@cc?5degauss?$AA@ 004cf8cc     tlib:physics.obj
 0003:000068dc       ??_C@_03MHAIKEMP@300?$AA@  004cf8dc     tlib:physics.obj
 0003:000068e0       ??_C@_0CO@KKPJGLGH@ergo?5degauss?5full?5swing?5amplitud@ 004cf8e0     tlib:physics.obj
 0003:00006918       ??_C@_03FGNPCODA@233?$AA@  004cf918     tlib:physics.obj
 0003:0000691c       ??_C@_0CI@LOGEIODA@ergo?5degauss?5half?5period?5?$CImillis@ 004cf91c     tlib:physics.obj
 0003:0000694c       ??_C@_03GNABGMEE@100?$AA@  004cf94c     tlib:physics.obj
 0003:00006950       ??_C@_0CO@OCPGCLCM@wind?5degauss?5full?5swing?5amplitud@ 004cf950     tlib:physics.obj
 0003:00006988       ??_C@_03LJIMMBII@179?$AA@  004cf988     tlib:physics.obj
 0003:0000698c       ??_C@_0CI@IKKDNOAN@wind?5degauss?5half?5period?5?$CImillis@ 004cf98c     tlib:physics.obj
 0003:000069bc       ??_C@_0BB@HCFKBIMB@Bad?5Physics?5Mode?$AA@ 004cf9bc     tlib:physics.obj
 0003:000069d0       ??_C@_0BN@IKAKENPK@x?3?2data?2_fs?2tlib?2physics?4cpp?$AA@ 004cf9d0     tlib:physics.obj
 0003:000069f4       ??_C@_1DK@LPPPBKOI@?$AAx?$AA?3?$AA?2?$AAd?$AAa?$AAt?$AAa?$AA?2?$AA_?$AAf?$AAs?$AA?2?$AAt?$AAl?$AAi?$AAb?$AA?2?$AAp?$AAh?$AAy?$AAs?$AAi?$AAc?$AAs?$AA?4?$AAc?$AAp?$AAp?$AA?$AA@ 004cf9f4     tlib:physics.obj
 0003:00006a3c       ??_C@_1O@FNFLKNFA@?$AAi?$AA?$DN?$AA?$DN?$AA2?$AA5?$AA6?$AA?$AA@ 004cfa3c     tlib:physics.obj
 0003:00006a4c       ??_C@_0BB@CDELIALK@Error?5Reading?5PS?$AA@ 004cfa4c     tlib:physics.obj
 0003:00006a60       ??_C@_1CI@PJIMFPMA@?$AAi?$AAl?$AAo?$AA?5?$AA?$DO?$AA?$DN?$AA?5?$AA0?$AA?5?$AA?$CG?$AA?$CG?$AA?5?$AAi?$AAl?$AAo?$AA?$DM?$AA?$DN?$AA2?$AA5?$AA?$AA@ 004cfa60     tlib:physics.obj
 0003:00006a90       ??_C@_1CI@JNGNHPIM@?$AAi?$AAh?$AAi?$AA?5?$AA?$DO?$AA?$DN?$AA?5?$AA0?$AA?5?$AA?$CG?$AA?$CG?$AA?5?$AAi?$AAh?$AAi?$AA?$DM?$AA?$DN?$AA2?$AA5?$AA?$AA@ 004cfa90     tlib:physics.obj
 0003:00006ac0       ??_C@_02IEKCLPJC@35?$AA@   004cfac0     tlib:physics.obj
 0003:00006ac4       ??_C@_0BP@KHIJAKMI@wingate?5acceleration?5filtering?$AA@ 004cfac4     tlib:physics.obj
 0003:00006aec       ??_C@_1DM@GMPLOCPK@?$AAs?$AAt?$AAr?$AAi?$AAn?$AAg?$AA?5?$AAs?$AAu?$AAb?$AAs?$AAc?$AAr?$AAi?$AAp?$AAt?$AA?5?$AAo?$AAu?$AAt?$AA?5?$AAo?$AAf?$AA?5?$AAr?$AAa?$AAn?$AAg?$AAe?$AA?$AA@ 004cfaec     tlib:physics.obj
 0003:00006b38       __real@3eb74d3b7ba75828    004cfb38     tlib:physics.obj
 0003:00006b48       __real@3f445c707983d68b    004cfb48     tlib:physics.obj
 0003:00006b58       __real@3f50624dd2f1a9fc    004cfb58     tlib:physics.obj
 0003:00006b68       __real@3f70ec481a676a61    004cfb68     tlib:physics.obj
 0003:00006b78       __real@3f747ae147ae147b    004cfb78     tlib:physics.obj
 0003:00006b88       __real@3f9a1cac083126e9    004cfb88     tlib:physics.obj
 0003:00006b98       __real@3f9eb851eb851eb8    004cfb98     tlib:physics.obj
 0003:00006ba8       __real@3f9fd36f7e3d1cc1    004cfba8     tlib:physics.obj
 0003:00006bb8       __real@3fb999999999999a    004cfbb8     tlib:physics.obj
 0003:00006bc8       __real@3fd0a3d70a3d70a4    004cfbc8     tlib:physics.obj
 0003:00006bd8       __real@3fe4cccccccccccd    004cfbd8     tlib:physics.obj
 0003:00006be8       __real@3fe5d1745d1745d1    004cfbe8     tlib:physics.obj
 0003:00006bf8       __real@3fecd013a92a3055    004cfbf8     tlib:physics.obj
 0003:00006c08       __real@3ff145a1cac08313    004cfc08     tlib:physics.obj
 0003:00006c18       __real@3ff3333333333333    004cfc18     tlib:physics.obj
 0003:00006c28       __real@3ff5b3aa5b3aa5b4    004cfc28     tlib:physics.obj
 0003:00006c38       __real@3ff7777777777777    004cfc38     tlib:physics.obj
 0003:00006c48       __real@40055c28f5c28f5c    004cfc48     tlib:physics.obj
 0003:00006c58       __real@400db6db6db6db6e    004cfc58     tlib:physics.obj
 0003:00006c68       __real@401224d562370a91    004cfc68     tlib:physics.obj
 0003:00006c78       __real@402399999999999a    004cfc78     tlib:physics.obj
 0003:00006c88       __real@402c000000000000    004cfc88     tlib:physics.obj
 0003:00006c98       __real@4034000000000000    004cfc98     tlib:physics.obj
 0003:00006ca8       __real@4036e66666666666    004cfca8     tlib:physics.obj
 0003:00006cb8       __real@4037566960887304    004cfcb8     tlib:physics.obj
 0003:00006cc8       __real@4039000000000000    004cfcc8     tlib:physics.obj
 0003:00006cd8       __real@4040000000000000    004cfcd8     tlib:physics.obj
 0003:00006ce8       __real@404011d495182a99    004cfce8     tlib:physics.obj
 0003:00006cf8       __real@4044000000000000    004cfcf8     tlib:physics.obj
 0003:00006d08       __real@4049000000000000    004cfd08     tlib:physics.obj
 0003:00006d18       __real@404e000000000000    004cfd18     tlib:physics.obj
 0003:00006d28       __real@404f000000000000    004cfd28     tlib:physics.obj
 0003:00006d38       __real@4057400000000000    004cfd38     tlib:physics.obj
 0003:00006d48       __real@4059000000000000    004cfd48     tlib:physics.obj
 0003:00006d58       __real@406e400000000000    004cfd58     tlib:physics.obj
 0003:00006d68       __real@406f400000000000    004cfd68     tlib:physics.obj
 0003:00006d78       __real@4075500000000000    004cfd78     tlib:physics.obj
 0003:00006d88       __real@4081300000000000    004cfd88     tlib:physics.obj
 0003:00006d98       __real@4086800000000000    004cfd98     tlib:physics.obj
 0003:00006da8       __real@4087500000000000    004cfda8     tlib:physics.obj
 0003:00006db8       __real@408ff80000000000    004cfdb8     tlib:physics.obj
 0003:00006dc8       __real@409f860000000000    004cfdc8     tlib:physics.obj
 0003:00006dd8       __real@40b05a0000000000    004cfdd8     tlib:physics.obj
 0003:00006de8       __real@c024000000000000    004cfde8     tlib:physics.obj
 0003:00006df4       ??_C@_1DK@OCIKNECG@?$AAd?$AAe?$AAq?$AAu?$AAe?$AA?5?$AAs?$AAu?$AAb?$AAs?$AAc?$AAr?$AAi?$AAp?$AAt?$AA?5?$AAo?$AAu?$AAt?$AA?5?$AAo?$AAf?$AA?5?$AAr?$AAa?$AAn?$AAg?$AAe?$AA?$AA@ 004cfdf4     tlib:formula.obj
 0003:00006e3c       __real@3c23d70a            004cfe3c     tlib:formula.obj
 0003:00006e40       __real@3fd0000000000000    004cfe40     tlib:formula.obj
 0003:00006e50       ??_7Bike@@6B@              004cfe50     tlib:bike.obj
 0003:00006e58       ??_C@_0P@PDEEADEA@?$CFs?$CFsbike?$CFd?4log?$AA@ 004cfe58     tlib:bike.obj
 0003:00006e6c       ??_C@_0BA@PAMKPKKM@?$CFs?$CFsgears?$CFd?4log?$AA@ 004cfe6c     tlib:bike.obj
 0003:00006e80       ??_C@_0BI@OACLIALB@?$CF2d?5?$CF6?42f?7?7?7?$CF5d?5?1?5?$CF?94d?6?$AA@ 004cfe80     tlib:bike.obj
 0003:00006e9c       ??_C@_0BA@PCICEKNG@?6?6Front?5Gears?6?6?$AA@ 004cfe9c     tlib:bike.obj
 0003:00006eb0       ??_C@_09MKGKNONM@?$CF2d?5?5?5?$CFd?6?$AA@ 004cfeb0     tlib:bike.obj
 0003:00006ebc       ??_C@_0P@JBLKPJIB@?6?6Rear?5Gears?6?6?$AA@ 004cfebc     tlib:bike.obj
 0003:00006ed0       __real@3ec234361b8b7d41    004cfed0     tlib:bike.obj
 0003:00006ee0       __real@3fa42850a1428509    004cfee0     tlib:bike.obj
 0003:00006ef0       __real@3fbfa9cdc4def649    004cfef0     tlib:bike.obj
 0003:00006f00       __real@40ac200000000000    004cff00     tlib:bike.obj
 0003:00006f0c       __real@40d00000            004cff0c     tlib:bike.obj
 0003:00006f10       __real@40eef00000000000    004cff10     tlib:bike.obj
 0003:00007c38       ??_C@_1JA@NGICDCPJ@?$AAC?$AA?3?$AA?2?$AAP?$AAr?$AAo?$AAg?$AAr?$AAa?$AAm?$AA?5?$AAF?$AAi?$AAl?$AAe?$AAs?$AA?5?$AA?$CI?$AAx?$AA8?$AA6?$AA?$CJ?$AA?2?$AAM?$AAi?$AAc?$AAr?$AAo?$AAs?$AAo?$AAf?$AAt@ 004d0c38     rmg:qtformula.obj
 0003:00007ce8       ??_C@_1JA@CLGJOHFK@?$AAC?$AA?3?$AA?2?$AAP?$AAr?$AAo?$AAg?$AAr?$AAa?$AAm?$AA?5?$AAF?$AAi?$AAl?$AAe?$AAs?$AA?5?$AA?$CI?$AAx?$AA8?$AA6?$AA?$CJ?$AA?2?$AAM?$AAi?$AAc?$AAr?$AAo?$AAs?$AAo?$AAf?$AAt@ 004d0ce8     rmg:qtformula.obj
 0003:00007d98       ??_C@_1IK@MHIAPKFC@?$AAC?$AA?3?$AA?2?$AAP?$AAr?$AAo?$AAg?$AAr?$AAa?$AAm?$AA?5?$AAF?$AAi?$AAl?$AAe?$AAs?$AA?5?$AA?$CI?$AAx?$AA8?$AA6?$AA?$CJ?$AA?2?$AAM?$AAi?$AAc?$AAr?$AAo?$AAs?$AAo?$AAf?$AAt@ 004d0d98     rmg:qtformula.obj
 0003:0000984c       ??_7CRF@@6B@               004d284c     rmg:crf.obj
 0003:00009858       ??_C@_1NM@NBJADEAF@?$AAs?$AAt?$AAd?$AA?3?$AA?3?$AA_?$AAD?$AAe?$AAq?$AAu?$AAe?$AA_?$AAc?$AAo?$AAn?$AAs?$AAt?$AA_?$AAi?$AAt?$AAe?$AAr?$AAa?$AAt?$AAo?$AAr?$AA?$DM?$AAc?$AAl?$AAa?$AAs?$AAs@ 004d2858     rmg:crf.obj
 0003:0000be94       ??_C@_0DD@LKAGGGAA@C?3?2Qt?25?46?2msvc2015?2include?2QtCor@ 004d4e94     ctsrv:moc_ctsrv.obj
 0003:0000bed4       ??_C@_01LPLHEDKD@d?$AA@    004d4ed4     ctsrv:moc_ctsrv.obj
 0003:0000de70       ??_SQCoreApplication@@6B@  004d6e70     ctsrv:ctsrv.obj
 0003:0000deb4       ??_SQThread@@6B@           004d6eb4     ctsrv:ctsrv.obj
 0003:0000def4       ??_7Ctsrv@RACERMATE@@6B@   004d6ef4     ctsrv:ctsrv.obj
 0003:0000df2c       ??_C@_0CK@CNCHLLEE@C?3?2Qt?25?46?2msvc2015?2include?2QtCor@ 004d6f2c     ctsrv:ctsrv.obj
 0003:0000df60       ??_C@_0BM@GBPPOPFF@?$CKnode?5?$DN?$DN?5e?5?$HM?$HM?5?$CI?$CKnode?$CJ?9?$DOnext?$AA@ 004d6f60     ctsrv:ctsrv.obj
 0003:0000df84       __real@bf800000            004d6f84     ctsrv:ctsrv.obj
 0003:0000fd74       ??_7Rider2@@6B@            004d8d74     ctsrv:udp_client.obj
 0003:0000fd84       ??_7UDPClient@RACERMATE@@6B@ 004d8d84     ctsrv:udp_client.obj
 0003:0000fdbc       __real@3bc49ba6            004d8dbc     ctsrv:udp_client.obj
 0003:0000fdc0       __real@4020000000000000    004d8dc0     ctsrv:udp_client.obj
 0003:0000fdd0       __real@405469700e7debe3    004d8dd0     ctsrv:udp_client.obj
 0003:0000fddc       __real@41000000            004d8ddc     ctsrv:udp_client.obj
 0003:0000fde0       __real@428c0000            004d8de0     ctsrv:udp_client.obj
 0003:0000fde4       __real@43800000            004d8de4     ctsrv:udp_client.obj
 0003:0000fde8       __real@47480000            004d8de8     ctsrv:udp_client.obj
 0003:00011de4       ??_SQTimer@@6B@            004dade4     ctsrv:ctsrvworker.obj
 0003:00011e24       ??_SQUdpSocket@@6B@        004dae24     ctsrv:ctsrvworker.obj
 0003:00011ee0       ??_7ctsrvWorker@RACERMATE@@6B@ 004daee0     ctsrv:ctsrvworker.obj
 0003:00015518       ??_C@_0NN@NGPKDKPD@The?5value?5of?5ESP?5was?5not?5properl@ 004de518     MSVCRTD:_error_.obj
 0003:00015628       ??_C@_0BBN@GPMLNJCF@A?5cast?5to?5a?5smaller?5data?5type?5ha@ 004de628     MSVCRTD:_error_.obj
 0003:00015780       ??_C@_0BN@FFOINMNJ@Stack?5memory?5was?5corrupted?6?$AN?$AA@ 004de780     MSVCRTD:_error_.obj
 0003:000157a4       ??_C@_0DG@HKJMLLLP@A?5local?5variable?5was?5used?5before@ 004de7a4     MSVCRTD:_error_.obj
 0003:000157e4       ??_C@_0CM@NGINOKPC@Stack?5memory?5around?5_alloca?5was?5@ 004de7e4     MSVCRTD:_error_.obj
 0003:00015818       ??_C@_0BO@GNIAFIKK@Unknown?5Runtime?5Check?5Error?6?$AN?$AA@ 004de818     MSVCRTD:_error_.obj
 0003:00015840       ??_C@_1GM@OLMCBDMB@?$AAR?$AAu?$AAn?$AAt?$AAi?$AAm?$AAe?$AA?5?$AAC?$AAh?$AAe?$AAc?$AAk?$AA?5?$AAE?$AAr?$AAr?$AAo?$AAr?$AA?4?$AA?6?$AA?$AN?$AA?5?$AAU?$AAn?$AAa?$AAb?$AAl?$AAe?$AA?5?$AAt?$AAo@ 004de840     MSVCRTD:_error_.obj
 0003:000158c8       ??_C@_1EA@NFKNIFJP@?$AAR?$AAu?$AAn?$AA?9?$AAT?$AAi?$AAm?$AAe?$AA?5?$AAC?$AAh?$AAe?$AAc?$AAk?$AA?5?$AAF?$AAa?$AAi?$AAl?$AAu?$AAr?$AAe?$AA?5?$AA?$CD?$AA?$CF?$AAd?$AA?5?$AA?9?$AA?5?$AA?$CF?$AAs?$AA?$AA@ 004de8c8     MSVCRTD:_error_.obj
 0003:00015914       ??_C@_0BB@PFFGGCJP@Unknown?5Filename?$AA@ 004de914     MSVCRTD:_error_.obj
 0003:00015928       ??_C@_0BE@GNBOBNCK@Unknown?5Module?5Name?$AA@ 004de928     MSVCRTD:_error_.obj
 0003:00015940       ??_C@_0CA@IODNCDPG@Run?9Time?5Check?5Failure?5?$CD?$CFd?5?9?5?$CFs?$AA@ 004de940     MSVCRTD:_error_.obj
 0003:00015968       ??_C@_0CG@IAFNJNEE@Stack?5corrupted?5near?5unknown?5var@ 004de968     MSVCRTD:_error_.obj
 0003:00015998       ??_C@_05MKKEDADM@?$CF?42X?5?$AA@ 004de998     MSVCRTD:_error_.obj
 0003:000159a0       ??_C@_0EJ@LJKNEOLN@Stack?5area?5around?5_alloca?5memory@ 004de9a0     MSVCRTD:_error_.obj
 0003:000159f8       ??_C@_08OMAHNMHJ@?6Data?3?5?$DM?$AA@ 004de9f8     MSVCRTD:_error_.obj
 0003:00015a04       ??_C@_0CK@DKGBICFE@?6Allocation?5number?5within?5this?5f@ 004dea04     MSVCRTD:_error_.obj
 0003:00015a38       ??_C@_07DFDJCKFN@?6Size?3?5?$AA@ 004dea38     MSVCRTD:_error_.obj
 0003:00015a44       ??_C@_0N@MHFFIMFG@?6Address?3?50x?$AA@ 004dea44     MSVCRTD:_error_.obj
 0003:00015a58       ??_C@_0EI@CLEPFNGI@Stack?5area?5around?5_alloca?5memory@ 004dea58     MSVCRTD:_error_.obj
 0003:00015ab0       ??_C@_0BC@HHMKLAND@?$CFs?$CFs?$CFp?$CFs?$CFzd?$CFs?$CFd?$CFs?$AA@ 004deab0     MSVCRTD:_error_.obj
 0003:00015ac8       ??_C@_02LLMPMKNF@?$DO?5?$AA@ 004deac8     MSVCRTD:_error_.obj
 0003:00015acc       ??_C@_08KJEDNCKC@?$CFs?$CFs?$CFs?$CFs?$AA@ 004deacc     MSVCRTD:_error_.obj
 0003:00015ad8       ??_C@_0DE@OHJBPMBP@A?5variable?5is?5being?5used?5without@ 004dead8     MSVCRTD:_error_.obj
 0003:00015b1c       ??_7type_info@@6B@         004deb1c     MSVCRTD:std_type_info_static.obj
 0003:00015bcc       ??_C@_1BK@MGMFAEKH@?$AAk?$AAe?$AAr?$AAn?$AAe?$AAl?$AA3?$AA2?$AA?4?$AAd?$AAl?$AAl?$AA?$AA@ 004debcc     MSVCRTD:thread_safe_statics.obj
 0003:00015bec       ??_C@_0BM@HLJJNPAH@InitializeConditionVariable?$AA@ 004debec     MSVCRTD:thread_safe_statics.obj
 0003:00015c10       ??_C@_0BJ@JEBJOJFJ@SleepConditionVariableCS?$AA@ 004dec10     MSVCRTD:thread_safe_statics.obj
 0003:00015c30       ??_C@_0BJ@PGPPEPCC@WakeAllConditionVariable?$AA@ 004dec30     MSVCRTD:thread_safe_statics.obj
 0003:00015c50       ??_C@_1HK@LKKBAJNK@?$AAf?$AA?3?$AA?2?$AAd?$AAd?$AA?2?$AAv?$AAc?$AAt?$AAo?$AAo?$AAl?$AAs?$AA?2?$AAc?$AAr?$AAt?$AA?2?$AAv?$AAc?$AAs?$AAt?$AAa?$AAr?$AAt?$AAu?$AAp?$AA?2?$AAs?$AAr?$AAc?$AA?2@ 004dec50     MSVCRTD:thread_safe_statics.obj
 0003:00015ce8       ??_7exception@std@@6B@     004dece8     MSVCRTD:throw_bad_alloc.obj
 0003:00015cf4       ??_C@_0BC@EOODALEL@Unknown?5exception?$AA@ 004decf4     MSVCRTD:throw_bad_alloc.obj
 0003:00015d10       ??_7bad_alloc@std@@6B@     004ded10     MSVCRTD:throw_bad_alloc.obj
 0003:00015d1c       ??_C@_0P@GHFPNOJB@bad?5allocation?$AA@ 004ded1c     MSVCRTD:throw_bad_alloc.obj
 0003:00015d34       ??_7bad_array_new_length@std@@6B@ 004ded34     MSVCRTD:throw_bad_alloc.obj
 0003:00015d40       ??_C@_0BF@KINCDENJ@bad?5array?5new?5length?$AA@ 004ded40     MSVCRTD:throw_bad_alloc.obj
 0003:00015d74       ??_C@_0BJ@HEGAHDFO@Stack?5pointer?5corruption?$AA@ 004ded74     MSVCRTD:_userapi_.obj
 0003:00015d94       ??_C@_0CK@FEGOIOPB@Cast?5to?5smaller?5type?5causing?5los@ 004ded94     MSVCRTD:_userapi_.obj
 0003:00015dc8       ??_C@_0BI@CIGMDCBH@Stack?5memory?5corruption?$AA@ 004dedc8     MSVCRTD:_userapi_.obj
 0003:00015de4       ??_C@_0CK@CNLNOEPB@Local?5variable?5used?5before?5initi@ 004dede4     MSVCRTD:_userapi_.obj
 0003:00015e18       ??_C@_0BP@OGBCLIBO@Stack?5around?5_alloca?5corrupted?$AA@ 004dee18     MSVCRTD:_userapi_.obj
 0003:00015e98       ??_C@_1EI@MLPKHBGE@?$AAa?$AAp?$AAi?$AA?9?$AAm?$AAs?$AA?9?$AAw?$AAi?$AAn?$AA?9?$AAc?$AAo?$AAr?$AAe?$AA?9?$AAr?$AAe?$AAg?$AAi?$AAs?$AAt?$AAr?$AAy?$AA?9?$AAl?$AA1?$AA?9?$AA1?$AA?9?$AA0?$AA?4@ 004dee98     MSVCRTD:_pdblkup_.obj
 0003:00015ef0       ??_C@_1BK@JHLNAEJL@?$AAa?$AAd?$AAv?$AAa?$AAp?$AAi?$AA3?$AA2?$AA?4?$AAd?$AAl?$AAl?$AA?$AA@ 004deef0     MSVCRTD:_pdblkup_.obj
 0003:00015f10       ??_C@_0O@COHOBMLB@RegOpenKeyExW?$AA@ 004def10     MSVCRTD:_pdblkup_.obj
 0003:00015f20       ??_C@_0BB@GLNAEDBD@RegQueryValueExW?$AA@ 004def20     MSVCRTD:_pdblkup_.obj
 0003:00015f34       ??_C@_0M@HLOHPNFA@RegCloseKey?$AA@ 004def34     MSVCRTD:_pdblkup_.obj
 0003:00015f48       ??_C@_1HE@EBEAGLFB@?$AAS?$AAO?$AAF?$AAT?$AAW?$AAA?$AAR?$AAE?$AA?2?$AAW?$AAo?$AAw?$AA6?$AA4?$AA3?$AA2?$AAN?$AAo?$AAd?$AAe?$AA?2?$AAM?$AAi?$AAc?$AAr?$AAo?$AAs?$AAo?$AAf?$AAt?$AA?2?$AAV@ 004def48     MSVCRTD:_pdblkup_.obj
 0003:00015fd4       ??_C@_1BG@EABPBLLF@?$AAP?$AAr?$AAo?$AAd?$AAu?$AAc?$AAt?$AAD?$AAi?$AAr?$AA?$AA@ 004defd4     MSVCRTD:_pdblkup_.obj
 0003:00016014       ??_C@_1BC@JINFINNJ@?$AAM?$AAS?$AAP?$AAD?$AAB?$AA1?$AA4?$AA0?$AA?$AA@ 004df014     MSVCRTD:_pdblkup_.obj
 0003:0001602c       ??_C@_0BB@KCIACLNC@PDBOpenValidate5?$AA@ 004df02c     MSVCRTD:_pdblkup_.obj
 0003:00016040       ??_C@_01KDCPPGHE@r?$AA@    004df040     MSVCRTD:_pdblkup_.obj
 0003:00016d34       __real@358637bd            004dfd34     rmg:qt_ss.obj
 0003:00016d38       __real@3dcccccd            004dfd38     rmg:qt_ss.obj
 0003:00016d40       __real@3f91df46a2529d39    004dfd40     rmg:qt_ss.obj
 0003:00016d4c       __real@3fc90fdb            004dfd4c     rmg:qt_ss.obj
 0003:00016d50       __real@3ff921fb54442d18    004dfd50     rmg:qt_ss.obj
 0003:00016d60       __real@4020aaaaaaaaaaab    004dfd60     rmg:qt_ss.obj
 0003:00016d70       __real@4076800000000000    004dfd70     rmg:qt_ss.obj
 0003:00016d7c       __real@4096cbe4            004dfd7c     rmg:qt_ss.obj
 0003:00016d80       __real@42652ee1            004dfd80     rmg:qt_ss.obj
 0003:00016d84       __real@42b40000            004dfd84     rmg:qt_ss.obj
 0003:00016d88       __real@43340000            004dfd88     rmg:qt_ss.obj
 0003:00017c48       ??_7Person@@6B@            004e0c48     rmg:person.obj
 0003:00017c54       ??_C@_04EDGDKJNK@Male?$AA@ 004e0c54     rmg:person.obj
 0003:00017c5c       ??_C@_06KGAOHABH@Female?$AA@ 004e0c5c     rmg:person.obj
 0003:00017c64       ??_C@_07NBCGADJA@Unknown?$AA@ 004e0c64     rmg:person.obj
 0003:00017c70       ??_C@_05DNIIFBMG@?$CFs?5?$CFs?$AA@ 004e0c70     rmg:person.obj
 0003:00017c78       ??_C@_08EPEHIMMI@?$CFs?5?$CFs?5?$CFs?$AA@ 004e0c78     rmg:person.obj
 0003:00017c88       ??_C@_1IO@IBHOLMEN@?$AAC?$AA?3?$AA?2?$AAP?$AAr?$AAo?$AAg?$AAr?$AAa?$AAm?$AA?5?$AAF?$AAi?$AAl?$AAe?$AAs?$AA?5?$AA?$CI?$AAx?$AA8?$AA6?$AA?$CJ?$AA?2?$AAM?$AAi?$AAc?$AAr?$AAo?$AAs?$AAo?$AAf?$AAt@ 004e0c88     rmg:person.obj
 0003:00017d38       __real@3f1a36e2eb1c432d    004e0d38     rmg:person.obj
 0003:00017d48       __real@3fd93264c993264c    004e0d48     rmg:person.obj
 0003:0001a4a0       ??_7twoPoleFilter@@6B@     004e34a0     rmg:twopolefilter.obj
 0003:0001a4a8       __real@3fd147ae147ae148    004e34a8     rmg:twopolefilter.obj
 0003:0001a4b8       __real@4030000000000000    004e34b8     rmg:twopolefilter.obj
 0003:0001a508       __load_config_used         004e3508     MSVCRTD:loadcfg.obj
 0003:0001a9fc       __tls_used                 004e39fc     MSVCRTD:tlssup.obj
 0003:0001ab18       ??_R4SE_Exception@@6B@     004e3b18     test.obj
 0003:0001ab30       ??_R3SE_Exception@@8       004e3b30     test.obj
 0003:0001ab44       ??_R2SE_Exception@@8       004e3b44     test.obj
 0003:0001ab4c       ??_R1A@?0A@EA@SE_Exception@@8 004e3b4c     test.obj
 0003:0001ab70       ??_R4qtFormula@@6B@        004e3b70     test.obj
 0003:0001ab88       ??_R3qtFormula@@8          004e3b88     test.obj
 0003:0001ab9c       ??_R2qtFormula@@8          004e3b9c     test.obj
 0003:0001aba4       ??_R1A@?0A@EA@qtFormula@@8 004e3ba4     test.obj
 0003:0001abc8       ??_R4Monarch@@6B@          004e3bc8     test.obj
 0003:0001abe0       ??_R3Monarch@@8            004e3be0     test.obj
 0003:0001abf4       ??_R2Monarch@@8            004e3bf4     test.obj
 0003:0001abfc       ??_R1A@?0A@EA@Monarch@@8   004e3bfc     test.obj
 0003:0001ac20       ??_R4Physics@@6B@          004e3c20     test.obj
 0003:0001ac38       ??_R3Physics@@8            004e3c38     test.obj
 0003:0001ac4c       ??_R2Physics@@8            004e3c4c     test.obj
 0003:0001ac54       ??_R1A@?0A@EA@Physics@@8   004e3c54     test.obj
 0003:0001ac78       ??_R4Formula@@6B@          004e3c78     test.obj
 0003:0001ac90       ??_R3Formula@@8            004e3c90     test.obj
 0003:0001aca4       ??_R2Formula@@8            004e3ca4     test.obj
 0003:0001acac       ??_R1A@?0A@EA@Formula@@8   004e3cac     test.obj
 0003:0001acd0       ??_R4fatalError@@6B@       004e3cd0     test.obj
 0003:0001ace8       ??_R3fatalError@@8         004e3ce8     test.obj
 0003:0001acfc       ??_R2fatalError@@8         004e3cfc     test.obj
 0003:0001ad04       ??_R1A@?0A@EA@fatalError@@8 004e3d04     test.obj
 0003:0001ad28       ??_R4Ini@@6B@              004e3d28     glib:ini.obj
 0003:0001ad40       ??_R3Ini@@8                004e3d40     glib:ini.obj
 0003:0001ad54       ??_R2Ini@@8                004e3d54     glib:ini.obj
 0003:0001ad5c       ??_R1A@?0A@EA@Ini@@8       004e3d5c     glib:ini.obj
 0003:0001ad80       ??_R4AverageTimer@@6B@     004e3d80     glib:averagetimer.obj
 0003:0001ad98       ??_R3AverageTimer@@8       004e3d98     glib:averagetimer.obj
 0003:0001adac       ??_R2AverageTimer@@8       004e3dac     glib:averagetimer.obj
 0003:0001adb4       ??_R1A@?0A@EA@AverageTimer@@8 004e3db4     glib:averagetimer.obj
 0003:0001add8       ??_R4fastTimer@@6B@        004e3dd8     glib:fasttimer.obj
 0003:0001adf0       ??_R3fastTimer@@8          004e3df0     glib:fasttimer.obj
 0003:0001ae04       ??_R2fastTimer@@8          004e3e04     glib:fasttimer.obj
 0003:0001ae0c       ??_R1A@?0A@EA@fastTimer@@8 004e3e0c     glib:fasttimer.obj
 0003:0001ae30       ??_R4Logger@@6B@           004e3e30     glib:logger.obj
 0003:0001ae48       ??_R3Logger@@8             004e3e48     glib:logger.obj
 0003:0001ae5c       ??_R2Logger@@8             004e3e5c     glib:logger.obj
 0003:0001ae64       ??_R1A@?0A@EA@Logger@@8    004e3e64     glib:logger.obj
 0003:0001ae88       ??_R4Serial@@6B@           004e3e88     glib:serial.obj
 0003:0001aea0       ??_R3Serial@@8             004e3ea0     glib:serial.obj
 0003:0001aeb4       ??_R2Serial@@8             004e3eb4     glib:serial.obj
 0003:0001aebc       ??_R1A@?0A@EA@Serial@@8    004e3ebc     glib:serial.obj
 0003:0001aee0       ??_R4BMP@@6B@              004e3ee0     glib:bmp.obj
 0003:0001aef8       ??_R3BMP@@8                004e3ef8     glib:bmp.obj
 0003:0001af0c       ??_R2BMP@@8                004e3f0c     glib:bmp.obj
 0003:0001af14       ??_R1A@?0A@EA@BMP@@8       004e3f14     glib:bmp.obj
 0003:0001af38       ??_R4Err@@6B@              004e3f38     glib:err.obj
 0003:0001af50       ??_R3Err@@8                004e3f50     glib:err.obj
 0003:0001af64       ??_R2Err@@8                004e3f64     glib:err.obj
 0003:0001af6c       ??_R1A@?0A@EA@Err@@8       004e3f6c     glib:err.obj
 0003:0001af90       ??_R4Bike@@6B@             004e3f90     tlib:bike.obj
 0003:0001afa8       ??_R3Bike@@8               004e3fa8     tlib:bike.obj
 0003:0001afbc       ??_R2Bike@@8               004e3fbc     tlib:bike.obj
 0003:0001afc4       ??_R1A@?0A@EA@Bike@@8      004e3fc4     tlib:bike.obj
 0003:0001afe8       ??_R4CRF@@6B@              004e3fe8     rmg:crf.obj
 0003:0001b000       ??_R3CRF@@8                004e4000     rmg:crf.obj
 0003:0001b014       ??_R2CRF@@8                004e4014     rmg:crf.obj
 0003:0001b01c       ??_R1A@?0A@EA@CRF@@8       004e401c     rmg:crf.obj
 0003:0001b040       ??_R4QThread@@6B@          004e4040     ctsrv:ctsrv.obj
 0003:0001b058       ??_R3QThread@@8            004e4058     ctsrv:ctsrv.obj
 0003:0001b06c       ??_R2QThread@@8            004e406c     ctsrv:ctsrv.obj
 0003:0001b078       ??_R1A@?0A@EA@QThread@@8   004e4078     ctsrv:ctsrv.obj
 0003:0001b09c       ??_R1A@?0A@EA@QObject@@8   004e409c     ctsrv:ctsrv.obj
 0003:0001b0c0       ??_R3QObject@@8            004e40c0     ctsrv:ctsrv.obj
 0003:0001b0d4       ??_R2QObject@@8            004e40d4     ctsrv:ctsrv.obj
 0003:0001b0dc       ??_R4QCoreApplication@@6B@ 004e40dc     ctsrv:ctsrv.obj
 0003:0001b0f4       ??_R3QCoreApplication@@8   004e40f4     ctsrv:ctsrv.obj
 0003:0001b108       ??_R2QCoreApplication@@8   004e4108     ctsrv:ctsrv.obj
 0003:0001b114       ??_R1A@?0A@EA@QCoreApplication@@8 004e4114     ctsrv:ctsrv.obj
 0003:0001b138       ??_R4Ctsrv@RACERMATE@@6B@  004e4138     ctsrv:ctsrv.obj
 0003:0001b150       ??_R3Ctsrv@RACERMATE@@8    004e4150     ctsrv:ctsrv.obj
 0003:0001b164       ??_R2Ctsrv@RACERMATE@@8    004e4164     ctsrv:ctsrv.obj
 0003:0001b170       ??_R1A@?0A@EA@Ctsrv@RACERMATE@@8 004e4170     ctsrv:ctsrv.obj
 0003:0001b194       ??_R4Rider2@@6B@           004e4194     ctsrv:udp_client.obj
 0003:0001b1ac       ??_R3Rider2@@8             004e41ac     ctsrv:udp_client.obj
 0003:0001b1c0       ??_R2Rider2@@8             004e41c0     ctsrv:udp_client.obj
 0003:0001b1cc       ??_R1A@?0A@EA@Rider2@@8    004e41cc     ctsrv:udp_client.obj
 0003:0001b1f0       ??_R1A@?0A@EA@Person@@8    004e41f0     ctsrv:udp_client.obj
 0003:0001b214       ??_R3Person@@8             004e4214     ctsrv:udp_client.obj
 0003:0001b228       ??_R2Person@@8             004e4228     ctsrv:udp_client.obj
 0003:0001b230       ??_R4UDPClient@RACERMATE@@6B@ 004e4230     ctsrv:udp_client.obj
 0003:0001b248       ??_R3UDPClient@RACERMATE@@8 004e4248     ctsrv:udp_client.obj
 0003:0001b25c       ??_R2UDPClient@RACERMATE@@8 004e425c     ctsrv:udp_client.obj
 0003:0001b268       ??_R1A@?0A@EA@UDPClient@RACERMATE@@8 004e4268     ctsrv:udp_client.obj
 0003:0001b28c       ??_R4QTimer@@6B@           004e428c     ctsrv:ctsrvworker.obj
 0003:0001b2a4       ??_R3QTimer@@8             004e42a4     ctsrv:ctsrvworker.obj
 0003:0001b2b8       ??_R2QTimer@@8             004e42b8     ctsrv:ctsrvworker.obj
 0003:0001b2c4       ??_R1A@?0A@EA@QTimer@@8    004e42c4     ctsrv:ctsrvworker.obj
 0003:0001b2e8       ??_R4QUdpSocket@@6B@       004e42e8     ctsrv:ctsrvworker.obj
 0003:0001b300       ??_R3QUdpSocket@@8         004e4300     ctsrv:ctsrvworker.obj
 0003:0001b314       ??_R2QUdpSocket@@8         004e4314     ctsrv:ctsrvworker.obj
 0003:0001b328       ??_R1A@?0A@EA@QUdpSocket@@8 004e4328     ctsrv:ctsrvworker.obj
 0003:0001b34c       ??_R1A@?0A@EA@QAbstractSocket@@8 004e434c     ctsrv:ctsrvworker.obj
 0003:0001b370       ??_R3QAbstractSocket@@8    004e4370     ctsrv:ctsrvworker.obj
 0003:0001b384       ??_R2QAbstractSocket@@8    004e4384     ctsrv:ctsrvworker.obj
 0003:0001b394       ??_R1A@?0A@EA@QIODevice@@8 004e4394     ctsrv:ctsrvworker.obj
 0003:0001b3b8       ??_R3QIODevice@@8          004e43b8     ctsrv:ctsrvworker.obj
 0003:0001b3cc       ??_R2QIODevice@@8          004e43cc     ctsrv:ctsrvworker.obj
 0003:0001b3d8       ??_R4ctsrvWorker@RACERMATE@@6B@ 004e43d8     ctsrv:ctsrvworker.obj
 0003:0001b3f0       ??_R3ctsrvWorker@RACERMATE@@8 004e43f0     ctsrv:ctsrvworker.obj
 0003:0001b404       ??_R2ctsrvWorker@RACERMATE@@8 004e4404     ctsrv:ctsrvworker.obj
 0003:0001b410       ??_R1A@?0A@EA@ctsrvWorker@RACERMATE@@8 004e4410     ctsrv:ctsrvworker.obj
 0003:0001b434       ??_R4type_info@@6B@        004e4434     MSVCRTD:std_type_info_static.obj
 0003:0001b44c       ??_R3type_info@@8          004e444c     MSVCRTD:std_type_info_static.obj
 0003:0001b460       ??_R2type_info@@8          004e4460     MSVCRTD:std_type_info_static.obj
 0003:0001b468       ??_R1A@?0A@EA@type_info@@8 004e4468     MSVCRTD:std_type_info_static.obj
 0003:0001b48c       ??_R4exception@std@@6B@    004e448c     MSVCRTD:throw_bad_alloc.obj
 0003:0001b4a4       ??_R3exception@std@@8      004e44a4     MSVCRTD:throw_bad_alloc.obj
 0003:0001b4b8       ??_R2exception@std@@8      004e44b8     MSVCRTD:throw_bad_alloc.obj
 0003:0001b4c0       ??_R1A@?0A@EA@exception@std@@8 004e44c0     MSVCRTD:throw_bad_alloc.obj
 0003:0001b4e4       ??_R4bad_alloc@std@@6B@    004e44e4     MSVCRTD:throw_bad_alloc.obj
 0003:0001b4fc       ??_R3bad_alloc@std@@8      004e44fc     MSVCRTD:throw_bad_alloc.obj
 0003:0001b510       ??_R2bad_alloc@std@@8      004e4510     MSVCRTD:throw_bad_alloc.obj
 0003:0001b51c       ??_R1A@?0A@EA@bad_alloc@std@@8 004e451c     MSVCRTD:throw_bad_alloc.obj
 0003:0001b540       ??_R4bad_array_new_length@std@@6B@ 004e4540     MSVCRTD:throw_bad_alloc.obj
 0003:0001b558       ??_R3bad_array_new_length@std@@8 004e4558     MSVCRTD:throw_bad_alloc.obj
 0003:0001b56c       ??_R2bad_array_new_length@std@@8 004e456c     MSVCRTD:throw_bad_alloc.obj
 0003:0001b57c       ??_R1A@?0A@EA@bad_array_new_length@std@@8 004e457c     MSVCRTD:throw_bad_alloc.obj
 0003:0001b5a0       ??_R4Person@@6B@           004e45a0     rmg:person.obj
 0003:0001b5b8       ??_R4twoPoleFilter@@6B@    004e45b8     rmg:twopolefilter.obj
 0003:0001b5d0       ??_R3twoPoleFilter@@8      004e45d0     rmg:twopolefilter.obj
 0003:0001b5e4       ??_R2twoPoleFilter@@8      004e45e4     rmg:twopolefilter.obj
 0003:0001b5ec       ??_R1A@?0A@EA@twoPoleFilter@@8 004e45ec     rmg:twopolefilter.obj
 0003:0001b8cc       ___rtc_iaa                 004e48cc     MSVCRTD:_initsect_.obj
 0003:0001bb24       ___rtc_izz                 004e4b24     MSVCRTD:_initsect_.obj
 0003:0001bc28       ___rtc_taa                 004e4c28     MSVCRTD:_initsect_.obj
 0003:0001be80       ___rtc_tzz                 004e4e80     MSVCRTD:_initsect_.obj
 0003:0001ea40       __TI1?AVfatalError@@       004e7a40     test.obj
 0003:0001ea54       __CTA1?AVfatalError@@      004e7a54     test.obj
 0003:0001ea5c       __CT??_R0?AVfatalError@@@8??0fatalError@@QAE@ABV0@@Z268 004e7a5c     test.obj
 0003:0001ea7c       __TI1?AVSE_Exception@@     004e7a7c     test.obj
 0003:0001ea90       __CTA1?AVSE_Exception@@    004e7a90     test.obj
 0003:0001ea98       __CT??_R0?AVSE_Exception@@@8??0SE_Exception@@QAE@ABV0@@Z12 004e7a98     test.obj
 0003:0001eab8       __TI2PAD                   004e7ab8     trainer.obj
 0003:0001eacc       __CTA2PAD                  004e7acc     trainer.obj
 0003:0001eadc       __CT??_R0PAD@84            004e7adc     trainer.obj
 0003:0001eafc       __CT??_R0PAX@84            004e7afc     trainer.obj
 0003:0001f208       __TI1H                     004e8208     glib:serial.obj
 0003:0001f21c       __CTA1H                    004e821c     glib:serial.obj
 0003:0001f224       __CT??_R0H@84              004e8224     glib:serial.obj
 0003:000219e8       __TI2?AVbad_alloc@std@@    004ea9e8     MSVCRTD:throw_bad_alloc.obj
 0003:000219fc       __CTA2?AVbad_alloc@std@@   004ea9fc     MSVCRTD:throw_bad_alloc.obj
 0003:00021a0c       __CT??_R0?AVbad_alloc@std@@@8??0bad_alloc@std@@QAE@ABV01@@Z12 004eaa0c     MSVCRTD:throw_bad_alloc.obj
 0003:00021a2c       __CT??_R0?AVexception@std@@@8??0exception@std@@QAE@ABV01@@Z12 004eaa2c     MSVCRTD:throw_bad_alloc.obj
 0003:00021a4c       __TI3?AVbad_array_new_length@std@@ 004eaa4c     MSVCRTD:throw_bad_alloc.obj
 0003:00021a60       __CTA3?AVbad_array_new_length@std@@ 004eaa60     MSVCRTD:throw_bad_alloc.obj
 0003:00021a74       __CT??_R0?AVbad_array_new_length@std@@@8??0bad_array_new_length@std@@QAE@ABV01@@Z12 004eaa74     MSVCRTD:throw_bad_alloc.obj
 0004:0000001c       ?strings@@3PAPBDA          004ef01c     test.obj
 0004:00000054       ?__LINE__Var@?0??_Allocate@std@@YAPAXII_N@Z@4JA 004ef054     test.obj
 0004:00000058       ?__LINE__Var@?0??_Deallocate@std@@YAXPAXII@Z@4JA 004ef058     test.obj
 0004:0000005c       ?__LINE__Var@?0??cleanup@@YAXXZ@4JA 004ef05c     test.obj
 0004:00000060       ?__LINE__Var@?0??handle_program_memory_depletion@@YAHI@Z@4JA 004ef060     test.obj
 0004:00000064       ?__LINE__Var@?0??iph@@YAXPB_W00II@Z@4JA 004ef064     test.obj
 0004:00000068       ?__LINE__Var@?0??handle_pc_keyboard@@YAHPAVTrainer@@@Z@4JA 004ef068     test.obj
 0004:0000006c       ?__LINE__Var@?0??test_ant@@YAXXZ@4JA 004ef06c     test.obj
 0004:00000070       ?__LINE__Var@?0??test_n_trainers@@YAXXZ@4JA 004ef070     test.obj
 0004:00000074       ?__LINE__Var@?0??test_wifi@@YAXXZ@4JA 004ef074     test.obj
 0004:00000078       ?__LINE__Var@?0??test_wifi_and_ant@@YAXXZ@4JA 004ef078     test.obj
 0004:0000007c       ?__LINE__Var@?0??emulate_rm2@@YAXXZ@4JA 004ef07c     test.obj
 0004:0000009c       ?Chainrings@Trainer@@0PAHA 004ef09c     trainer.obj
 0004:000000b0       ?cogset@Trainer@@0PAHA     004ef0b0     trainer.obj
 0004:0000011c       ?__LINE__Var@?0??init@Trainer@@QAEHPBD@Z@4JA 004ef11c     trainer.obj
 0004:00000214       ?__LINE__Var@?0??compute_sine@@YAXPAMHH@Z@4JA 004ef214     glib:utils.obj
 0004:0000023c       ?__LINE__Var@?0??write@Logger@@QAAXHHHPBDZZ@4JA 004ef23c     glib:logger.obj
 0004:00000268       ?__LINE__Var@?0???0Serial@@QAE@PBD00HHHPAVLogger@@@Z@4JA 004ef268     glib:serial.obj
 0004:0000026c       ?__LINE__Var@?0???0Serial@@QAE@PBD0PAVLogger@@@Z@4JA 004ef26c     glib:serial.obj
 0004:00000270       ?__LINE__Var@?0??txThread@Serial@@CAXPAX@Z@4JA 004ef270     glib:serial.obj
 0004:00000274       ?__LINE__Var@?0??rxThread@Serial@@CAXPAX@Z@4JA 004ef274     glib:serial.obj
 0004:0000042c       ?__LINE__Var@?0??SetClientRect@@YAXPAUHWND__@@PAUtagRECT@@@Z@4JA 004ef42c     glib:win_utils.obj
 0004:00000430       ?__LINE__Var@?0??getUniqueFileName@@YAXPADH@Z@4JA 004ef430     glib:win_utils.obj
 0004:00000458       ?__LINE__Var@?0???0BMP@@QAE@HHHPAEPBD@Z@4JA 004ef458     glib:bmp.obj
 0004:0000045c       ?__LINE__Var@?0???0BMP@@QAE@PAD@Z@4JA 004ef45c     glib:bmp.obj
 0004:00000460       ?__LINE__Var@?0??paint@BMP@@QAEXPAUHDC__@@PAUtagRECT@@@Z@4JA 004ef460     glib:bmp.obj
 0004:00000464       ?__LINE__Var@?0??paint2@BMP@@QAEXPAUHDC__@@PAUtagRECT@@@Z@4JA 004ef464     glib:bmp.obj
 0004:00000468       ?__LINE__Var@?0??save@BMP@@QAEXPADPAE@Z@4JA 004ef468     glib:bmp.obj
 0004:0000046c       ?__LINE__Var@?0??save@BMP@@QAEXXZ@4JA 004ef46c     glib:bmp.obj
 0004:00001b44       ?modestrs@Physics@@2PAPBDA 004f0b44     tlib:physics.obj
 0004:00001fec       ?__LINE__Var@?0??run@Physics@@QAEXXZ@4JA 004f0fec     tlib:physics.obj
 0004:00001ff0       ?__LINE__Var@?0??getTableCurrent3@Physics@@AAENNN@Z@4JA 004f0ff0     tlib:physics.obj
 0004:00001ff4       ?__LINE__Var@?0??writeState@Physics@@QAEXPAU_iobuf@@@Z@4JA 004f0ff4     tlib:physics.obj
 0004:00001ff8       ?__LINE__Var@?0??readState@Physics@@QAEXPAU_iobuf@@@Z@4JA 004f0ff8     tlib:physics.obj
 0004:00001ffc       ?__LINE__Var@?0??getTableWatts@Physics@@AAENNN@Z@4JA 004f0ffc     tlib:physics.obj
 0004:00002000       ?front_defaults@Bike@@2PAHA 004f1000     tlib:bike.obj
 0004:00002018       ?rear_defaults@Bike@@2PAHA 004f1018     tlib:bike.obj
 0004:0000207c       ___scrt_native_dllmain_reason 004f107c     MSVCRTD:utility.obj
 0004:00002080       ?_RTC_ErrorLevels@@3PAHA   004f1080     MSVCRTD:_error_.obj
 0004:000020a0       ___security_cookie_complement 004f10a0     MSVCRTD:gs_cookie.obj
 0004:000020a4       ___security_cookie         004f10a4     MSVCRTD:gs_cookie.obj
 0004:000020ac       __fltused                  004f10ac     MSVCRTD:fltused.obj
 0004:000020b0       __Init_global_epoch        004f10b0     MSVCRTD:thread_safe_statics.obj
 0004:000020b4       ___isa_enabled             004f10b4     MSVCRTD:_cpu_disp_.obj
 0004:000020b8       ___scrt_default_matherr    004f10b8     MSVCRTD:matherr.obj
 0004:000020bc       ___scrt_ucrt_dll_is_in_use 004f10bc     MSVCRTD:ucrt_stubs.obj
 0004:000021ec       ??_R0PAD@8                 004f11ec     test.obj
 0004:000021fc       ??_R0?AVfatalError@@@8     004f11fc     test.obj
 0004:0000221c       ??_R0H@8                   004f121c     test.obj
 0004:0000222c       ??_R0?AVSE_Exception@@@8   004f122c     test.obj
 0004:0000224c       ??_R0?AVqtFormula@@@8      004f124c     test.obj
 0004:00002268       ??_R0?AVMonarch@@@8        004f1268     test.obj
 0004:00002284       ??_R0?AVPhysics@@@8        004f1284     test.obj
 0004:000022a0       ??_R0?AVFormula@@@8        004f12a0     test.obj
 0004:000022bc       ??_R0PAX@8                 004f12bc     trainer.obj
 0004:000022cc       ??_R0?AVIni@@@8            004f12cc     glib:ini.obj
 0004:000022e4       ??_R0?AVAverageTimer@@@8   004f12e4     glib:averagetimer.obj
 0004:00002304       ??_R0?AVfastTimer@@@8      004f1304     glib:fasttimer.obj
 0004:00002320       ??_R0?AVLogger@@@8         004f1320     glib:logger.obj
 0004:0000233c       ??_R0?AVSerial@@@8         004f133c     glib:serial.obj
 0004:00002358       ??_R0?AVBMP@@@8            004f1358     glib:bmp.obj
 0004:00002370       ??_R0?AVErr@@@8            004f1370     glib:err.obj
 0004:00002388       ??_R0?AVBike@@@8           004f1388     tlib:bike.obj
 0004:000023a0       ??_R0?AVCRF@@@8            004f13a0     rmg:crf.obj
 0004:000023b8       ??_R0?AVQThread@@@8        004f13b8     ctsrv:ctsrv.obj
 0004:000023d4       ??_R0?AVQObject@@@8        004f13d4     ctsrv:ctsrv.obj
 0004:000023f0       ??_R0?AVQCoreApplication@@@8 004f13f0     ctsrv:ctsrv.obj
 0004:00002418       ??_R0?AVCtsrv@RACERMATE@@@8 004f1418     ctsrv:ctsrv.obj
 0004:0000243c       ??_R0?AVRider2@@@8         004f143c     ctsrv:udp_client.obj
 0004:00002458       ??_R0?AVPerson@@@8         004f1458     ctsrv:udp_client.obj
 0004:00002474       ??_R0?AVUDPClient@RACERMATE@@@8 004f1474     ctsrv:udp_client.obj
 0004:0000249c       ??_R0?AVQTimer@@@8         004f149c     ctsrv:ctsrvworker.obj
 0004:000024b8       ??_R0?AVQUdpSocket@@@8     004f14b8     ctsrv:ctsrvworker.obj
 0004:000024d8       ??_R0?AVQAbstractSocket@@@8 004f14d8     ctsrv:ctsrvworker.obj
 0004:000024fc       ??_R0?AVQIODevice@@@8      004f14fc     ctsrv:ctsrvworker.obj
 0004:00002518       ??_R0?AVctsrvWorker@RACERMATE@@@8 004f1518     ctsrv:ctsrvworker.obj
 0004:00002544       ??_R0?AVtype_info@@@8      004f1544     MSVCRTD:std_type_info_static.obj
 0004:00002560       ??_R0?AVbad_alloc@std@@@8  004f1560     MSVCRTD:throw_bad_alloc.obj
 0004:00002584       ??_R0?AVexception@std@@@8  004f1584     MSVCRTD:throw_bad_alloc.obj
 0004:000025a8       ??_R0?AVbad_array_new_length@std@@@8 004f15a8     MSVCRTD:throw_bad_alloc.obj
 0004:000025d8       ??_R0?AVtwoPoleFilter@@@8  004f15d8     rmg:twopolefilter.obj
 0004:00002718       ?glogstream@@3PAU_iobuf@@A 004f1718     test.obj
 0004:0000271c       ?bp@@3HA                   004f171c     test.obj
 0004:00002720       ?gteststring@@3PADA        004f1720     test.obj
 0004:00002f20       ?lastchar@@3DA             004f1f20     test.obj
 0004:00002f24       ?udmode@@3W4UDMODE@@A      004f1f24     test.obj
 0004:00002f28       ?iwind_mph@@3HA            004f1f28     test.obj
 0004:00002f2c       ?idraftwind_mph@@3HA       004f1f2c     test.obj
 0004:00002f30       ?strs@@3V?$vector@V?$basic_string@DU?$char_traits@D@std@@V?$allocator@D@2@@std@@V?$allocator@V?$basic_string@DU?$char_traits@D@std@@V?$allocator@D@2@@std@@@2@@std@@A 004f1f30     test.obj
 0004:000030e8       ?_OptionsStorage@?1??__local_stdio_printf_options@@9@4_KA 004f20e8     test.obj
 0004:000030f8       ?_OptionsStorage@?1??__local_stdio_scanf_options@@9@4_KA 004f20f8     glib:ini.obj
 0004:00003388       ?gMachineCaps@@3U_MACHINE_CAPS@@A 004f2388     glib:win_utils.obj
 0004:000038d4       ?dirs@@3V?$vector@V?$basic_string@DU?$char_traits@D@std@@V?$allocator@D@2@@std@@V?$allocator@V?$basic_string@DU?$char_traits@D@std@@V?$allocator@D@2@@std@@@2@@std@@A 004f28d4     glib:comglobs.obj
 0004:000038ee       ?gblog@Physics@@2_NA       004f28ee     tlib:physics.obj
 0004:000038ef       ?bini@Physics@@2_NA        004f28ef     tlib:physics.obj
 0004:000038f4       ?mode@Physics@@2W4MODE@1@A 004f28f4     tlib:physics.obj
 0004:00003908       ?hdrstrings@@3V?$vector@V?$basic_string@DU?$char_traits@D@std@@V?$allocator@D@2@@std@@V?$allocator@V?$basic_string@DU?$char_traits@D@std@@V?$allocator@D@2@@std@@@2@@std@@A 004f2908     tlib:physics.obj
 0004:00003921       ?gblog@Bike@@2_NA          004f2921     tlib:bike.obj
 0004:00003922       ?gbgearslog@Bike@@2_NA     004f2922     tlib:bike.obj
 0004:00003924       ?rc4stack@@3V?$stack@UTCRF@@V?$deque@UTCRF@@V?$allocator@UTCRF@@@std@@@std@@@std@@A 004f2924     rmg:crf.obj
 0004:0000393c       ?staticMetaObject@Ctsrv@RACERMATE@@2UQMetaObject@@B 004f293c     ctsrv:moc_ctsrv.obj
 0004:00003958       ?m_instance@Ctsrv@RACERMATE@@0PAV12@A 004f2958     ctsrv:ctsrv.obj
 0004:0000396c       ?staticMetaObject@UDPClient@RACERMATE@@2UQMetaObject@@B 004f296c     ctsrv:moc_udp_client.obj
 0004:00003988       ?staticMetaObject@ctsrvWorker@RACERMATE@@2UQMetaObject@@B 004f2988     ctsrv:moc_ctsrvworker.obj
 0004:000039a4       ?staticMetaObject@ANT@RACERMATE@@2UQMetaObject@@B 004f29a4     rmant:moc_ant.obj
 0004:000039c0       ___scrt_current_native_startup_state 004f29c0     MSVCRTD:utility.obj
 0004:000039c4       ___scrt_native_startup_lock 004f29c4     MSVCRTD:utility.obj
 0004:00003dd4       __tls_index                004f2dd4     MSVCRTD:tlssup.obj
 0004:00003dd8       ___isa_available           004f2dd8     MSVCRTD:_cpu_disp_.obj
 0004:00003ddc       ___favor                   004f2ddc     MSVCRTD:_cpu_disp_.obj
 0004:00003de4       ___scrt_debugger_hook_flag 004f2de4     MSVCRTD:utility_desktop.obj
 0004:00003e00       ?__type_info_root_node@@3U__type_info_node@@A 004f2e00     MSVCRTD:tncleanup.obj
 0004:00003e10       ?nbars@BARINFO@qt_SS@RACERMATE@@0HA 004f2e10     rmg:qt_ss.obj
 0004:00003e18       ?degperseg@BARINFO@qt_SS@RACERMATE@@0NA 004f2e18     rmg:qt_ss.obj
 0004:00003e24       ___dyn_tls_dtor_callback   004f2e24     <common>
 0004:00003e30       ___dyn_tls_init_callback   004f2e30     <common>
 0005:00000000       __imp__RegQueryValueExA@24 004f3000     advapi32:ADVAPI32.dll
 0005:00000004       __imp__RegOpenKeyExA@20    004f3004     advapi32:ADVAPI32.dll
 0005:00000008       __imp__RegCloseKey@4       004f3008     advapi32:ADVAPI32.dll
 0005:0000000c       \177ADVAPI32_NULL_THUNK_DATA 004f300c     advapi32:ADVAPI32.dll
 0005:00000038       __imp__CommDlgExtendedError@0 004f3038     comdlg32:COMDLG32.dll
 0005:0000003c       __imp__PrintDlgA@4         004f303c     comdlg32:COMDLG32.dll
 0005:00000040       __imp__ChooseColorA@4      004f3040     comdlg32:COMDLG32.dll
 0005:00000044       \177COMDLG32_NULL_THUNK_DATA 004f3044     comdlg32:COMDLG32.dll
 0005:00000070       __imp__DeleteDC@4          004f3070     gdi32:GDI32.dll
 0005:00000074       __imp__DeleteObject@4      004f3074     gdi32:GDI32.dll
 0005:00000078       __imp__Ellipse@20          004f3078     gdi32:GDI32.dll
 0005:0000007c       __imp__ExtCreateRegion@12  004f307c     gdi32:GDI32.dll
 0005:00000080       __imp__ExtFloodFill@20     004f3080     gdi32:GDI32.dll
 0005:00000084       __imp__GetDeviceCaps@8     004f3084     gdi32:GDI32.dll
 0005:00000088       __imp__GetTextExtentPoint32A@16 004f3088     gdi32:GDI32.dll
 0005:0000008c       __imp__LineTo@12           004f308c     gdi32:GDI32.dll
 0005:00000090       __imp__ResetDCA@8          004f3090     gdi32:GDI32.dll
 0005:00000094       __imp__SelectObject@8      004f3094     gdi32:GDI32.dll
 0005:00000098       __imp__CreateSolidBrush@4  004f3098     gdi32:GDI32.dll
 0005:0000009c       __imp__StretchBlt@44       004f309c     gdi32:GDI32.dll
 0005:000000a0       __imp__CreateDIBSection@24 004f30a0     gdi32:GDI32.dll
 0005:000000a4       __imp__StartDocA@8         004f30a4     gdi32:GDI32.dll
 0005:000000a8       __imp__EndDoc@4            004f30a8     gdi32:GDI32.dll
 0005:000000ac       __imp__StartPage@4         004f30ac     gdi32:GDI32.dll
 0005:000000b0       __imp__EndPage@4           004f30b0     gdi32:GDI32.dll
 0005:000000b4       __imp__GetObjectA@12       004f30b4     gdi32:GDI32.dll
 0005:000000b8       __imp__MoveToEx@16         004f30b8     gdi32:GDI32.dll
 0005:000000bc       __imp__TextOutA@20         004f30bc     gdi32:GDI32.dll
 0005:000000c0       __imp__Escape@20           004f30c0     gdi32:GDI32.dll
 0005:000000c4       __imp__CreatePen@12        004f30c4     gdi32:GDI32.dll
 0005:000000c8       __imp__CreateFontA@56      004f30c8     gdi32:GDI32.dll
 0005:000000cc       __imp__CreateCompatibleDC@4 004f30cc     gdi32:GDI32.dll
 0005:000000d0       __imp__CreateCompatibleBitmap@12 004f30d0     gdi32:GDI32.dll
 0005:000000d4       __imp__Arc@36              004f30d4     gdi32:GDI32.dll
 0005:000000d8       __imp__CreateBitmap@20     004f30d8     gdi32:GDI32.dll
 0005:000000dc       __imp__BitBlt@36           004f30dc     gdi32:GDI32.dll
 0005:000000e0       __imp__SetBkColor@8        004f30e0     gdi32:GDI32.dll
 0005:000000e4       __imp__StretchDIBits@52    004f30e4     gdi32:GDI32.dll
 0005:000000e8       __imp__CombineRgn@16       004f30e8     gdi32:GDI32.dll
 0005:000000ec       \177GDI32_NULL_THUNK_DATA  004f30ec     gdi32:GDI32.dll
 0005:00000130       __imp__MultiByteToWideChar@24 004f3130     kernel32:KERNEL32.dll
 0005:00000134       __imp__WideCharToMultiByte@32 004f3134     kernel32:KERNEL32.dll
 0005:00000138       __imp__UnhandledExceptionFilter@4 004f3138     kernel32:KERNEL32.dll
 0005:0000013c       __imp__SetUnhandledExceptionFilter@4 004f313c     kernel32:KERNEL32.dll
 0005:00000140       __imp__GetCurrentProcess@0 004f3140     kernel32:KERNEL32.dll
 0005:00000144       __imp__TerminateProcess@8  004f3144     kernel32:KERNEL32.dll
 0005:00000148       __imp__IsProcessorFeaturePresent@4 004f3148     kernel32:KERNEL32.dll
 0005:0000014c       __imp__IsDebuggerPresent@0 004f314c     kernel32:KERNEL32.dll
 0005:00000150       __imp__RaiseException@16   004f3150     kernel32:KERNEL32.dll
 0005:00000154       __imp__EnterCriticalSection@4 004f3154     kernel32:KERNEL32.dll
 0005:00000158       __imp__LeaveCriticalSection@4 004f3158     kernel32:KERNEL32.dll
 0005:0000015c       __imp__DeleteCriticalSection@4 004f315c     kernel32:KERNEL32.dll
 0005:00000160       __imp__WaitForSingleObjectEx@12 004f3160     kernel32:KERNEL32.dll
 0005:00000164       __imp__CreateEventW@16     004f3164     kernel32:KERNEL32.dll
 0005:00000168       __imp__GetModuleHandleW@4  004f3168     kernel32:KERNEL32.dll
 0005:0000016c       __imp__GetProcAddress@8    004f316c     kernel32:KERNEL32.dll
 0005:00000170       __imp__GetStartupInfoW@4   004f3170     kernel32:KERNEL32.dll
 0005:00000174       __imp__HeapAlloc@12        004f3174     kernel32:KERNEL32.dll
 0005:00000178       __imp__HeapFree@12         004f3178     kernel32:KERNEL32.dll
 0005:0000017c       __imp__VirtualQuery@12     004f317c     kernel32:KERNEL32.dll
 0005:00000180       __imp__FreeLibrary@4       004f3180     kernel32:KERNEL32.dll
 0005:00000184       __imp__GetCurrentProcessId@0 004f3184     kernel32:KERNEL32.dll
 0005:00000188       __imp__GetCurrentThreadId@0 004f3188     kernel32:KERNEL32.dll
 0005:0000018c       __imp__GetACP@0            004f318c     kernel32:KERNEL32.dll
 0005:00000190       __imp__LocalFree@4         004f3190     kernel32:KERNEL32.dll
 0005:00000194       __imp__FileTimeToSystemTime@8 004f3194     kernel32:KERNEL32.dll
 0005:00000198       __imp__GetCurrentDirectoryA@8 004f3198     kernel32:KERNEL32.dll
 0005:0000019c       __imp__Sleep@4             004f319c     kernel32:KERNEL32.dll
 0005:000001a0       __imp__GetPrivateProfileStringA@24 004f31a0     kernel32:KERNEL32.dll
 0005:000001a4       __imp__WritePrivateProfileStringA@16 004f31a4     kernel32:KERNEL32.dll
 0005:000001a8       __imp__CopyFileA@12        004f31a8     kernel32:KERNEL32.dll
 0005:000001ac       __imp__OutputDebugStringA@4 004f31ac     kernel32:KERNEL32.dll
 0005:000001b0       __imp__QueryPerformanceCounter@4 004f31b0     kernel32:KERNEL32.dll
 0005:000001b4       __imp__QueryPerformanceFrequency@4 004f31b4     kernel32:KERNEL32.dll
 0005:000001b8       __imp__GetLocalTime@4      004f31b8     kernel32:KERNEL32.dll
 0005:000001bc       __imp__SetCurrentDirectoryA@4 004f31bc     kernel32:KERNEL32.dll
 0005:000001c0       __imp__CreateDirectoryA@8  004f31c0     kernel32:KERNEL32.dll
 0005:000001c4       __imp__DeleteFileA@4       004f31c4     kernel32:KERNEL32.dll
 0005:000001c8       __imp__FindClose@4         004f31c8     kernel32:KERNEL32.dll
 0005:000001cc       __imp__FindFirstFileA@8    004f31cc     kernel32:KERNEL32.dll
 0005:000001d0       __imp__FindNextFileA@8     004f31d0     kernel32:KERNEL32.dll
 0005:000001d4       __imp__CreateFileA@28      004f31d4     kernel32:KERNEL32.dll
 0005:000001d8       __imp__FlushFileBuffers@4  004f31d8     kernel32:KERNEL32.dll
 0005:000001dc       __imp__ReadFile@20         004f31dc     kernel32:KERNEL32.dll
 0005:000001e0       __imp__WriteFile@20        004f31e0     kernel32:KERNEL32.dll
 0005:000001e4       __imp__CloseHandle@4       004f31e4     kernel32:KERNEL32.dll
 0005:000001e8       __imp__GetHandleInformation@8 004f31e8     kernel32:KERNEL32.dll
 0005:000001ec       __imp__GetLastError@0      004f31ec     kernel32:KERNEL32.dll
 0005:000001f0       __imp__HeapValidate@12     004f31f0     kernel32:KERNEL32.dll
 0005:000001f4       __imp__GetProcessHeap@0    004f31f4     kernel32:KERNEL32.dll
 0005:000001f8       __imp__GetOverlappedResult@16 004f31f8     kernel32:KERNEL32.dll
 0005:000001fc       __imp__SetEvent@4          004f31fc     kernel32:KERNEL32.dll
 0005:00000200       __imp__ResetEvent@4        004f3200     kernel32:KERNEL32.dll
 0005:00000204       __imp__WaitForSingleObject@8 004f3204     kernel32:KERNEL32.dll
 0005:00000208       __imp__CreateEventA@16     004f3208     kernel32:KERNEL32.dll
 0005:0000020c       __imp__WaitForMultipleObjects@16 004f320c     kernel32:KERNEL32.dll
 0005:00000210       __imp__ClearCommError@12   004f3210     kernel32:KERNEL32.dll
 0005:00000214       __imp__SetupComm@12        004f3214     kernel32:KERNEL32.dll
 0005:00000218       __imp__EscapeCommFunction@8 004f3218     kernel32:KERNEL32.dll
 0005:0000021c       __imp__GetCommTimeouts@8   004f321c     kernel32:KERNEL32.dll
 0005:00000220       __imp__PurgeComm@8         004f3220     kernel32:KERNEL32.dll
 0005:00000224       __imp__SetCommMask@8       004f3224     kernel32:KERNEL32.dll
 0005:00000228       __imp__SetCommState@8      004f3228     kernel32:KERNEL32.dll
 0005:0000022c       __imp__SetCommTimeouts@8   004f322c     kernel32:KERNEL32.dll
 0005:00000230       __imp__WaitCommEvent@12    004f3230     kernel32:KERNEL32.dll
 0005:00000234       __imp__FormatMessageA@28   004f3234     kernel32:KERNEL32.dll
 0005:00000238       __imp__BuildCommDCBA@8     004f3238     kernel32:KERNEL32.dll
 0005:0000023c       __imp__FileTimeToLocalFileTime@8 004f323c     kernel32:KERNEL32.dll
 0005:00000240       __imp__GetFileAttributesA@4 004f3240     kernel32:KERNEL32.dll
 0005:00000244       __imp__GetFileSize@8       004f3244     kernel32:KERNEL32.dll
 0005:00000248       __imp__GetFullPathNameA@16 004f3248     kernel32:KERNEL32.dll
 0005:0000024c       __imp__SetFileAttributesA@8 004f324c     kernel32:KERNEL32.dll
 0005:00000250       __imp__Beep@8              004f3250     kernel32:KERNEL32.dll
 0005:00000254       __imp__GetSystemTimeAsFileTime@4 004f3254     kernel32:KERNEL32.dll
 0005:00000258       __imp__GetSystemInfo@4     004f3258     kernel32:KERNEL32.dll
 0005:0000025c       __imp__GetWindowsDirectoryA@8 004f325c     kernel32:KERNEL32.dll
 0005:00000260       __imp__GetVersionExA@4     004f3260     kernel32:KERNEL32.dll
 0005:00000264       __imp__GlobalAlloc@8       004f3264     kernel32:KERNEL32.dll
 0005:00000268       __imp__GlobalReAlloc@12    004f3268     kernel32:KERNEL32.dll
 0005:0000026c       __imp__GlobalLock@4        004f326c     kernel32:KERNEL32.dll
 0005:00000270       __imp__GlobalUnlock@4      004f3270     kernel32:KERNEL32.dll
 0005:00000274       __imp__GlobalFree@4        004f3274     kernel32:KERNEL32.dll
 0005:00000278       __imp__GlobalMemoryStatus@4 004f3278     kernel32:KERNEL32.dll
 0005:0000027c       __imp__MulDiv@12           004f327c     kernel32:KERNEL32.dll
 0005:00000280       __imp__lstrlenA@4          004f3280     kernel32:KERNEL32.dll
 0005:00000284       __imp___lopen@8            004f3284     kernel32:KERNEL32.dll
 0005:00000288       __imp___lclose@4           004f3288     kernel32:KERNEL32.dll
 0005:0000028c       __imp__InitializeSListHead@4 004f328c     kernel32:KERNEL32.dll
 0005:00000290       \177KERNEL32_NULL_THUNK_DATA 004f3290     kernel32:KERNEL32.dll
 0005:00000300       __imp_?_Debug_message@std@@YAXPB_W0I@Z 004f3300     msvcprtd:MSVCP140D.dll
 0005:00000304       __imp_?_Xbad_alloc@std@@YAXXZ 004f3304     msvcprtd:MSVCP140D.dll
 0005:00000308       __imp_?_Xlength_error@std@@YAXPBD@Z 004f3308     msvcprtd:MSVCP140D.dll
 0005:0000030c       __imp_?_Xout_of_range@std@@YAXPBD@Z 004f330c     msvcprtd:MSVCP140D.dll
 0005:00000310       __imp_??1_Lockit@std@@QAE@XZ 004f3310     msvcprtd:MSVCP140D.dll
 0005:00000314       __imp_??0_Lockit@std@@QAE@H@Z 004f3314     msvcprtd:MSVCP140D.dll
 0005:00000318       \177MSVCP140D_NULL_THUNK_DATA 004f3318     msvcprtd:MSVCP140D.dll
 0005:00000348       __imp_?thread@QObject@@QBEPAVQThread@@XZ 004f3348     qt5cored:Qt5Cored.dll
 0005:0000034c       __imp_??6QDebug@@QAEAAV0@H@Z 004f334c     qt5cored:Qt5Cored.dll
 0005:00000350       __imp_??5QDataStream@@QAEAAV0@AAH@Z 004f3350     qt5cored:Qt5Cored.dll
 0005:00000354       __imp_??1QDataStream@@QAE@XZ 004f3354     qt5cored:Qt5Cored.dll
 0005:00000358       __imp_??0QDataStream@@QAE@PAVQByteArray@@V?$QFlags@W4OpenModeFlag@QIODevice@@@@@Z 004f3358     qt5cored:Qt5Cored.dll
 0005:0000035c       __imp_?currentDateTime@QDateTime@@SA?AV1@XZ 004f335c     qt5cored:Qt5Cored.dll
 0005:00000360       __imp_?toString@QDateTime@@QBE?AVQString@@ABV2@@Z 004f3360     qt5cored:Qt5Cored.dll
 0005:00000364       __imp_??1QDateTime@@QAE@XZ 004f3364     qt5cored:Qt5Cored.dll
 0005:00000368       __imp_?nextNode@QHashData@@SAPAUNode@1@PAU21@@Z 004f3368     qt5cored:Qt5Cored.dll
 0005:0000036c       __imp_?firstNode@QHashData@@QAEPAUNode@1@XZ 004f336c     qt5cored:Qt5Cored.dll
 0005:00000370       __imp_?free_helper@QHashData@@QAEXP6AXPAUNode@1@@Z@Z 004f3370     qt5cored:Qt5Cored.dll
 0005:00000374       __imp_?willGrow@QHashData@@QAE_NXZ 004f3374     qt5cored:Qt5Cored.dll
 0005:00000378       __imp_?detach_helper@QHashData@@QAEPAU1@P6AXPAUNode@1@PAX@ZP6AX0@ZHH@Z 004f3378     qt5cored:Qt5Cored.dll
 0005:0000037c       __imp_?allocateNode@QHashData@@QAEPAXH@Z 004f337c     qt5cored:Qt5Cored.dll
 0005:00000380       __imp_?connect@QObject@@QBE?AVConnection@QMetaObject@@PBV1@PBD1W4ConnectionType@Qt@@@Z 004f3380     qt5cored:Qt5Cored.dll
 0005:00000384       __imp_?connect@QObject@@SA?AVConnection@QMetaObject@@PBV1@PBD01W4ConnectionType@Qt@@@Z 004f3384     qt5cored:Qt5Cored.dll
 0005:00000388       __imp_?moveToThread@QObject@@QAEXPAVQThread@@@Z 004f3388     qt5cored:Qt5Cored.dll
 0005:0000038c       __imp_??1QObject@@UAE@XZ   004f338c     qt5cored:Qt5Cored.dll
 0005:00000390       __imp_??0QObject@@QAE@PAV0@@Z 004f3390     qt5cored:Qt5Cored.dll
 0005:00000394       __imp_?end@QListData@@QBEPAPAXXZ 004f3394     qt5cored:Qt5Cored.dll
 0005:00000398       __imp_?begin@QListData@@QBEPAPAXXZ 004f3398     qt5cored:Qt5Cored.dll
 0005:0000039c       __imp_?append@QListData@@QAEPAPAXXZ 004f339c     qt5cored:Qt5Cored.dll
 0005:000003a0       __imp_?dispose@QListData@@SAXPAUData@1@@Z 004f33a0     qt5cored:Qt5Cored.dll
 0005:000003a4       __imp_?dispose@QListData@@QAEXXZ 004f33a4     qt5cored:Qt5Cored.dll
 0005:000003a8       __imp_?realloc@QListData@@QAEXH@Z 004f33a8     qt5cored:Qt5Cored.dll
 0005:000003ac       __imp_?detach_grow@QListData@@QAEPAUData@1@PAHH@Z 004f33ac     qt5cored:Qt5Cored.dll
 0005:000003b0       __imp_?detach@QListData@@QAEPAUData@1@H@Z 004f33b0     qt5cored:Qt5Cored.dll
 0005:000003b4       __imp_?qHash@@YAIABVQString@@I@Z 004f33b4     qt5cored:Qt5Cored.dll
 0005:000003b8       __imp_?compare_helper@QString@@CAHPBVQChar@@HPBDHW4CaseSensitivity@Qt@@@Z 004f33b8     qt5cored:Qt5Cored.dll
 0005:000003bc       __imp_??4QString@@QAEAAV0@PBD@Z 004f33bc     qt5cored:Qt5Cored.dll
 0005:000003c0       __imp_??0QString@@QAE@PBD@Z 004f33c0     qt5cored:Qt5Cored.dll
 0005:000003c4       __imp_??8@YA_NABVQString@@0@Z 004f33c4     qt5cored:Qt5Cored.dll
 0005:000003c8       __imp_?number@QString@@SA?AV1@HH@Z 004f33c8     qt5cored:Qt5Cored.dll
 0005:000003cc       __imp_?fromUtf8@QString@@SA?AV1@PBDH@Z 004f33cc     qt5cored:Qt5Cored.dll
 0005:000003d0       __imp_?toUtf8@QString@@QGBE?AVQByteArray@@XZ 004f33d0     qt5cored:Qt5Cored.dll
 0005:000003d4       __imp_??YQString@@QAEAAV0@ABV0@@Z 004f33d4     qt5cored:Qt5Cored.dll
 0005:000003d8       __imp_?trimmed@QString@@QGBE?AV1@XZ 004f33d8     qt5cored:Qt5Cored.dll
 0005:000003dc       __imp_?constData@QString@@QBEPBVQChar@@XZ 004f33dc     qt5cored:Qt5Cored.dll
 0005:000003e0       __imp_?isEmpty@QString@@QBE_NXZ 004f33e0     qt5cored:Qt5Cored.dll
 0005:000003e4       __imp_?size@QString@@QBEHXZ 004f33e4     qt5cored:Qt5Cored.dll
 0005:000003e8       __imp_??4QString@@QAEAAV0@$$QAV0@@Z 004f33e8     qt5cored:Qt5Cored.dll
 0005:000003ec       __imp_??0QString@@QAE@$$QAV0@@Z 004f33ec     qt5cored:Qt5Cored.dll
 0005:000003f0       __imp_??4QString@@QAEAAV0@ABV0@@Z 004f33f0     qt5cored:Qt5Cored.dll
 0005:000003f4       __imp_??0QString@@QAE@XZ   004f33f4     qt5cored:Qt5Cored.dll
 0005:000003f8       __imp_?constData@QByteArray@@QBEPBDXZ 004f33f8     qt5cored:Qt5Cored.dll
 0005:000003fc       __imp_??BQByteArray@@QBEPBDXZ 004f33fc     qt5cored:Qt5Cored.dll
 0005:00000400       __imp_??1QByteArray@@QAE@XZ 004f3400     qt5cored:Qt5Cored.dll
 0005:00000404       __imp_??1Connection@QMetaObject@@QAE@XZ 004f3404     qt5cored:Qt5Cored.dll
 0005:00000408       __imp_?qFlagLocation@@YAPBDPBD@Z 004f3408     qt5cored:Qt5Cored.dll
 0005:0000040c       __imp_?staticMetaObject@QObject@@2UQMetaObject@@B 004f340c     qt5cored:Qt5Cored.dll
 0005:00000410       __imp_?qt_metacall@QObject@@UAEHW4Call@QMetaObject@@HPAPAX@Z 004f3410     qt5cored:Qt5Cored.dll
 0005:00000414       __imp_?qt_metacast@QObject@@UAEPAXPBD@Z 004f3414     qt5cored:Qt5Cored.dll
 0005:00000418       __imp_?dynamicMetaObject@QObjectData@@QBEPAUQMetaObject@@XZ 004f3418     qt5cored:Qt5Cored.dll
 0005:0000041c       __imp_?activate@QMetaObject@@SAXPAVQObject@@PBU1@HPAPAX@Z 004f341c     qt5cored:Qt5Cored.dll
 0005:00000420       __imp_??0QString@@QAE@ABV0@@Z 004f3420     qt5cored:Qt5Cored.dll
 0005:00000424       __imp_?qt_assert@@YAXPBD0H@Z 004f3424     qt5cored:Qt5Cored.dll
 0005:00000428       __imp_??6QDebug@@QAEAAV0@PBD@Z 004f3428     qt5cored:Qt5Cored.dll
 0005:0000042c       __imp_??6QDebug@@QAEAAV0@_J@Z 004f342c     qt5cored:Qt5Cored.dll
 0005:00000430       __imp_??1QDebug@@QAE@XZ    004f3430     qt5cored:Qt5Cored.dll
 0005:00000434       __imp_?debug@QMessageLogger@@QBE?AVQDebug@@XZ 004f3434     qt5cored:Qt5Cored.dll
 0005:00000438       __imp_??0QMessageLogger@@QAE@PBDH0@Z 004f3438     qt5cored:Qt5Cored.dll
 0005:0000043c       __imp_?currentMSecsSinceEpoch@QDateTime@@SA_JXZ 004f343c     qt5cored:Qt5Cored.dll
 0005:00000440       __imp_?tr@QMetaObject@@QBE?AVQString@@PBD0H@Z 004f3440     qt5cored:Qt5Cored.dll
 0005:00000444       __imp_??1QString@@QAE@XZ   004f3444     qt5cored:Qt5Cored.dll
 0005:00000448       __imp_??6QDebug@@QAEAAV0@PBX@Z 004f3448     qt5cored:Qt5Cored.dll
 0005:0000044c       __imp_??0QEventLoop@@QAE@PAVQObject@@@Z 004f344c     qt5cored:Qt5Cored.dll
 0005:00000450       __imp_??1QEventLoop@@UAE@XZ 004f3450     qt5cored:Qt5Cored.dll
 0005:00000454       __imp_?exec@QEventLoop@@QAEHV?$QFlags@W4ProcessEventsFlag@QEventLoop@@@@@Z 004f3454     qt5cored:Qt5Cored.dll
 0005:00000458       __imp_??0QCoreApplication@@QAE@AAHPAPADH@Z 004f3458     qt5cored:Qt5Cored.dll
 0005:0000045c       __imp_??1QCoreApplication@@UAE@XZ 004f345c     qt5cored:Qt5Cored.dll
 0005:00000460       __imp_?instance@QCoreApplication@@SAPAV1@XZ 004f3460     qt5cored:Qt5Cored.dll
 0005:00000464       __imp_??0QMutex@@QAE@W4RecursionMode@0@@Z 004f3464     qt5cored:Qt5Cored.dll
 0005:00000468       __imp_??1QMutex@@QAE@XZ    004f3468     qt5cored:Qt5Cored.dll
 0005:0000046c       __imp_??0QMutexLocker@@QAE@PAVQBasicMutex@@@Z 004f346c     qt5cored:Qt5Cored.dll
 0005:00000470       __imp_??1QMutexLocker@@QAE@XZ 004f3470     qt5cored:Qt5Cored.dll
 0005:00000474       __imp_?currentThreadId@QThread@@SAPAXXZ 004f3474     qt5cored:Qt5Cored.dll
 0005:00000478       __imp_??0QThread@@QAE@PAVQObject@@@Z 004f3478     qt5cored:Qt5Cored.dll
 0005:0000047c       __imp_??1QThread@@UAE@XZ   004f347c     qt5cored:Qt5Cored.dll
 0005:00000480       __imp_?start@QThread@@QAEXW4Priority@1@@Z 004f3480     qt5cored:Qt5Cored.dll
 0005:00000484       __imp_?childEvent@QObject@@MAEXPAVQChildEvent@@@Z 004f3484     qt5cored:Qt5Cored.dll
 0005:00000488       __imp_?compressEvent@QCoreApplication@@MAE_NPAVQEvent@@PAVQObject@@PAVQPostEventList@@@Z 004f3488     qt5cored:Qt5Cored.dll
 0005:0000048c       __imp_?connectNotify@QObject@@MAEXABVQMetaMethod@@@Z 004f348c     qt5cored:Qt5Cored.dll
 0005:00000490       __imp_?customEvent@QObject@@MAEXPAVQEvent@@@Z 004f3490     qt5cored:Qt5Cored.dll
 0005:00000494       __imp_?disconnectNotify@QObject@@MAEXABVQMetaMethod@@@Z 004f3494     qt5cored:Qt5Cored.dll
 0005:00000498       __imp_?event@QCoreApplication@@MAE_NPAVQEvent@@@Z 004f3498     qt5cored:Qt5Cored.dll
 0005:0000049c       __imp_?event@QObject@@UAE_NPAVQEvent@@@Z 004f349c     qt5cored:Qt5Cored.dll
 0005:000004a0       __imp_?event@QThread@@UAE_NPAVQEvent@@@Z 004f34a0     qt5cored:Qt5Cored.dll
 0005:000004a4       __imp_?eventFilter@QObject@@UAE_NPAV1@PAVQEvent@@@Z 004f34a4     qt5cored:Qt5Cored.dll
 0005:000004a8       __imp_?metaObject@QCoreApplication@@UBEPBUQMetaObject@@XZ 004f34a8     qt5cored:Qt5Cored.dll
 0005:000004ac       __imp_?metaObject@QThread@@UBEPBUQMetaObject@@XZ 004f34ac     qt5cored:Qt5Cored.dll
 0005:000004b0       __imp_?notify@QCoreApplication@@UAE_NPAVQObject@@PAVQEvent@@@Z 004f34b0     qt5cored:Qt5Cored.dll
 0005:000004b4       __imp_?qt_metacall@QCoreApplication@@UAEHW4Call@QMetaObject@@HPAPAX@Z 004f34b4     qt5cored:Qt5Cored.dll
 0005:000004b8       __imp_?qt_metacall@QThread@@UAEHW4Call@QMetaObject@@HPAPAX@Z 004f34b8     qt5cored:Qt5Cored.dll
 0005:000004bc       __imp_?qt_metacast@QCoreApplication@@UAEPAXPBD@Z 004f34bc     qt5cored:Qt5Cored.dll
 0005:000004c0       __imp_?qt_metacast@QThread@@UAEPAXPBD@Z 004f34c0     qt5cored:Qt5Cored.dll
 0005:000004c4       __imp_?run@QThread@@MAEXXZ 004f34c4     qt5cored:Qt5Cored.dll
 0005:000004c8       __imp_?timerEvent@QObject@@MAEXPAVQTimerEvent@@@Z 004f34c8     qt5cored:Qt5Cored.dll
 0005:000004cc       __imp_?shared_null@QListData@@2UData@1@B 004f34cc     qt5cored:Qt5Cored.dll
 0005:000004d0       __imp_?fromWCharArray@QString@@SA?AV1@PB_WH@Z 004f34d0     qt5cored:Qt5Cored.dll
 0005:000004d4       __imp_??0QDir@@QAE@ABVQString@@@Z 004f34d4     qt5cored:Qt5Cored.dll
 0005:000004d8       __imp_??1QDir@@QAE@XZ      004f34d8     qt5cored:Qt5Cored.dll
 0005:000004dc       __imp_?mkdir@QDir@@QBE_NABVQString@@@Z 004f34dc     qt5cored:Qt5Cored.dll
 0005:000004e0       __imp_?mkpath@QDir@@QBE_NABVQString@@@Z 004f34e0     qt5cored:Qt5Cored.dll
 0005:000004e4       __imp_?exists@QDir@@QBE_NXZ 004f34e4     qt5cored:Qt5Cored.dll
 0005:000004e8       __imp_?asprintf@QString@@SA?AV1@PBDZZ 004f34e8     qt5cored:Qt5Cored.dll
 0005:000004ec       __imp_?shared_null@QHashData@@2U1@B 004f34ec     qt5cored:Qt5Cored.dll
 0005:000004f0       __imp_?timerEvent@QTimer@@MAEXPAVQTimerEvent@@@Z 004f34f0     qt5cored:Qt5Cored.dll
 0005:000004f4       __imp_?size@QIODevice@@UBE_JXZ 004f34f4     qt5cored:Qt5Cored.dll
 0005:000004f8       __imp_?seek@QIODevice@@UAE_N_J@Z 004f34f8     qt5cored:Qt5Cored.dll
 0005:000004fc       __imp_?reset@QIODevice@@UAE_NXZ 004f34fc     qt5cored:Qt5Cored.dll
 0005:00000500       __imp_?qt_metacast@QTimer@@UAEPAXPBD@Z 004f3500     qt5cored:Qt5Cored.dll
 0005:00000504       __imp_?qt_metacall@QTimer@@UAEHW4Call@QMetaObject@@HPAPAX@Z 004f3504     qt5cored:Qt5Cored.dll
 0005:00000508       __imp_?pos@QIODevice@@UBE_JXZ 004f3508     qt5cored:Qt5Cored.dll
 0005:0000050c       __imp_?open@QIODevice@@UAE_NV?$QFlags@W4OpenModeFlag@QIODevice@@@@@Z 004f350c     qt5cored:Qt5Cored.dll
 0005:00000510       __imp_?metaObject@QTimer@@UBEPBUQMetaObject@@XZ 004f3510     qt5cored:Qt5Cored.dll
 0005:00000514       __imp_?nsecsElapsed@QElapsedTimer@@QBE_JXZ 004f3514     qt5cored:Qt5Cored.dll
 0005:00000518       __imp_?start@QElapsedTimer@@QAEXXZ 004f3518     qt5cored:Qt5Cored.dll
 0005:0000051c       __imp_??0QElapsedTimer@@QAE@XZ 004f351c     qt5cored:Qt5Cored.dll
 0005:00000520       __imp_?currentThread@QThread@@SAPAV1@XZ 004f3520     qt5cored:Qt5Cored.dll
 0005:00000524       __imp_?unlock@QMutex@@QAEXXZ 004f3524     qt5cored:Qt5Cored.dll
 0005:00000528       __imp_?tryLock@QMutex@@QAE_NH@Z 004f3528     qt5cored:Qt5Cored.dll
 0005:0000052c       __imp_?stop@QTimer@@QAEXXZ 004f352c     qt5cored:Qt5Cored.dll
 0005:00000530       __imp_?start@QTimer@@QAEXXZ 004f3530     qt5cored:Qt5Cored.dll
 0005:00000534       __imp_?setInterval@QTimer@@QAEXH@Z 004f3534     qt5cored:Qt5Cored.dll
 0005:00000538       __imp_??1QTimer@@UAE@XZ    004f3538     qt5cored:Qt5Cored.dll
 0005:0000053c       __imp_??0QTimer@@QAE@PAVQObject@@@Z 004f353c     qt5cored:Qt5Cored.dll
 0005:00000540       __imp_?currentPath@QDir@@SA?AVQString@@XZ 004f3540     qt5cored:Qt5Cored.dll
 0005:00000544       __imp_??6QDebug@@QAEAAV0@ABVQString@@@Z 004f3544     qt5cored:Qt5Cored.dll
 0005:00000548       __imp_?invokeMethod@QMetaObject@@SA_NPAVQObject@@PBDVQGenericArgument@@222222222@Z 004f3548     qt5cored:Qt5Cored.dll
 0005:0000054c       __imp_??0QGenericArgument@@QAE@PBDPBX@Z 004f354c     qt5cored:Qt5Cored.dll
 0005:00000550       __imp_?hasShrunk@QHashData@@QAEXXZ 004f3550     qt5cored:Qt5Cored.dll
 0005:00000554       __imp_?freeNode@QHashData@@QAEXPAX@Z 004f3554     qt5cored:Qt5Cored.dll
 0005:00000558       __imp_?clear@QString@@QAEXXZ 004f3558     qt5cored:Qt5Cored.dll
 0005:0000055c       __imp_??8QByteRef@@QBE_ND@Z 004f355c     qt5cored:Qt5Cored.dll
 0005:00000560       __imp_??4QByteRef@@QAEAAV0@D@Z 004f3560     qt5cored:Qt5Cored.dll
 0005:00000564       __imp_??BQByteRef@@QBEDXZ  004f3564     qt5cored:Qt5Cored.dll
 0005:00000568       __imp_??AQByteArray@@QAE?AVQByteRef@@H@Z 004f3568     qt5cored:Qt5Cored.dll
 0005:0000056c       __imp_?at@QByteArray@@QBEDH@Z 004f356c     qt5cored:Qt5Cored.dll
 0005:00000570       __imp_?clear@QByteArray@@QAEXXZ 004f3570     qt5cored:Qt5Cored.dll
 0005:00000574       __imp_?data@QByteArray@@QAEPADXZ 004f3574     qt5cored:Qt5Cored.dll
 0005:00000578       __imp_?resize@QByteArray@@QAEXH@Z 004f3578     qt5cored:Qt5Cored.dll
 0005:0000057c       __imp_?size@QByteArray@@QBEHXZ 004f357c     qt5cored:Qt5Cored.dll
 0005:00000580       __imp_??4QByteArray@@QAEAAV0@ABV0@@Z 004f3580     qt5cored:Qt5Cored.dll
 0005:00000584       __imp_??YQString@@QAEAAV0@PBD@Z 004f3584     qt5cored:Qt5Cored.dll
 0005:00000588       __imp_??0QByteArray@@QAE@ABV0@@Z 004f3588     qt5cored:Qt5Cored.dll
 0005:0000058c       __imp_??0QByteArray@@QAE@XZ 004f358c     qt5cored:Qt5Cored.dll
 0005:00000590       __imp_?copy@QFile@@SA_NABVQString@@0@Z 004f3590     qt5cored:Qt5Cored.dll
 0005:00000594       __imp_??6QDebug@@QAEAAV0@G@Z 004f3594     qt5cored:Qt5Cored.dll
 0005:00000598       __imp_?toStdString@QString@@QBE?AV?$basic_string@DU?$char_traits@D@std@@V?$allocator@D@2@@std@@XZ 004f3598     qt5cored:Qt5Cored.dll
 0005:0000059c       \177Qt5Cored_NULL_THUNK_DATA 004f359c     qt5cored:Qt5Cored.dll
 0005:0000063c       __imp_?socketOption@QAbstractSocket@@UAE?AVQVariant@@W4SocketOption@1@@Z 004f363c     qt5networkd:Qt5Networkd.dll
 0005:00000640       __imp_??0QHostAddress@@QAE@XZ 004f3640     qt5networkd:Qt5Networkd.dll
 0005:00000644       __imp_??1QHostAddress@@QAE@XZ 004f3644     qt5networkd:Qt5Networkd.dll
 0005:00000648       __imp_??4QHostAddress@@QAEAAV0@ABVQString@@@Z 004f3648     qt5networkd:Qt5Networkd.dll
 0005:0000064c       __imp_?clear@QHostAddress@@QAEXXZ 004f364c     qt5networkd:Qt5Networkd.dll
 0005:00000650       __imp_?bind@QAbstractSocket@@QAE_NABVQHostAddress@@GV?$QFlags@W4BindFlag@QAbstractSocket@@@@@Z 004f3650     qt5networkd:Qt5Networkd.dll
 0005:00000654       __imp_?state@QAbstractSocket@@QBE?AW4SocketState@1@XZ 004f3654     qt5networkd:Qt5Networkd.dll
 0005:00000658       __imp_?error@QAbstractSocket@@QBE?AW4SocketError@1@XZ 004f3658     qt5networkd:Qt5Networkd.dll
 0005:0000065c       __imp_??0QHostAddress@@QAE@ABV0@@Z 004f365c     qt5networkd:Qt5Networkd.dll
 0005:00000660       __imp_??0QHostAddress@@QAE@W4SpecialAddress@0@@Z 004f3660     qt5networkd:Qt5Networkd.dll
 0005:00000664       __imp_??4QHostAddress@@QAEAAV0@$$QAV0@@Z 004f3664     qt5networkd:Qt5Networkd.dll
 0005:00000668       __imp_??4QHostAddress@@QAEAAV0@ABV0@@Z 004f3668     qt5networkd:Qt5Networkd.dll
 0005:0000066c       __imp_?protocol@QHostAddress@@QBE?AW4NetworkLayerProtocol@QAbstractSocket@@XZ 004f366c     qt5networkd:Qt5Networkd.dll
 0005:00000670       __imp_?toIPv4Address@QHostAddress@@QBEIXZ 004f3670     qt5networkd:Qt5Networkd.dll
 0005:00000674       __imp_?toString@QHostAddress@@QBE?AVQString@@XZ 004f3674     qt5networkd:Qt5Networkd.dll
 0005:00000678       __imp_?isNull@QHostAddress@@QBE_NXZ 004f3678     qt5networkd:Qt5Networkd.dll
 0005:0000067c       __imp_??0QNetworkAddressEntry@@QAE@XZ 004f367c     qt5networkd:Qt5Networkd.dll
 0005:00000680       __imp_??0QNetworkAddressEntry@@QAE@ABV0@@Z 004f3680     qt5networkd:Qt5Networkd.dll
 0005:00000684       __imp_??1QNetworkAddressEntry@@QAE@XZ 004f3684     qt5networkd:Qt5Networkd.dll
 0005:00000688       __imp_?ip@QNetworkAddressEntry@@QBE?AVQHostAddress@@XZ 004f3688     qt5networkd:Qt5Networkd.dll
 0005:0000068c       __imp_?setIp@QNetworkAddressEntry@@QAEXABVQHostAddress@@@Z 004f368c     qt5networkd:Qt5Networkd.dll
 0005:00000690       __imp_?netmask@QNetworkAddressEntry@@QBE?AVQHostAddress@@XZ 004f3690     qt5networkd:Qt5Networkd.dll
 0005:00000694       __imp_?flags@QNetworkInterface@@QBE?AV?$QFlags@W4InterfaceFlag@QNetworkInterface@@@@XZ 004f3694     qt5networkd:Qt5Networkd.dll
 0005:00000698       __imp_?hardwareAddress@QNetworkInterface@@QBE?AVQString@@XZ 004f3698     qt5networkd:Qt5Networkd.dll
 0005:0000069c       __imp_?addressEntries@QNetworkInterface@@QBE?AV?$QList@VQNetworkAddressEntry@@@@XZ 004f369c     qt5networkd:Qt5Networkd.dll
 0005:000006a0       __imp_?allInterfaces@QNetworkInterface@@SA?AV?$QList@VQNetworkInterface@@@@XZ 004f36a0     qt5networkd:Qt5Networkd.dll
 0005:000006a4       __imp_??0QUdpSocket@@QAE@PAVQObject@@@Z 004f36a4     qt5networkd:Qt5Networkd.dll
 0005:000006a8       __imp_??1QUdpSocket@@UAE@XZ 004f36a8     qt5networkd:Qt5Networkd.dll
 0005:000006ac       __imp_?hasPendingDatagrams@QUdpSocket@@QBE_NXZ 004f36ac     qt5networkd:Qt5Networkd.dll
 0005:000006b0       __imp_?pendingDatagramSize@QUdpSocket@@QBE_JXZ 004f36b0     qt5networkd:Qt5Networkd.dll
 0005:000006b4       __imp_?readDatagram@QUdpSocket@@QAE_JPAD_JPAVQHostAddress@@PAG@Z 004f36b4     qt5networkd:Qt5Networkd.dll
 0005:000006b8       __imp_?writeDatagram@QUdpSocket@@QAE_JPBD_JABVQHostAddress@@G@Z 004f36b8     qt5networkd:Qt5Networkd.dll
 0005:000006bc       __imp_?writeDatagram@QUdpSocket@@QAE_JABVQByteArray@@ABVQHostAddress@@G@Z 004f36bc     qt5networkd:Qt5Networkd.dll
 0005:000006c0       __imp_?atEnd@QAbstractSocket@@UBE_NXZ 004f36c0     qt5networkd:Qt5Networkd.dll
 0005:000006c4       __imp_?bytesAvailable@QAbstractSocket@@UBE_JXZ 004f36c4     qt5networkd:Qt5Networkd.dll
 0005:000006c8       __imp_?bytesToWrite@QAbstractSocket@@UBE_JXZ 004f36c8     qt5networkd:Qt5Networkd.dll
 0005:000006cc       __imp_?canReadLine@QAbstractSocket@@UBE_NXZ 004f36cc     qt5networkd:Qt5Networkd.dll
 0005:000006d0       __imp_?close@QAbstractSocket@@UAEXXZ 004f36d0     qt5networkd:Qt5Networkd.dll
 0005:000006d4       __imp_?connectToHost@QAbstractSocket@@UAEXABVQHostAddress@@GV?$QFlags@W4OpenModeFlag@QIODevice@@@@@Z 004f36d4     qt5networkd:Qt5Networkd.dll
 0005:000006d8       __imp_?broadcast@QNetworkAddressEntry@@QBE?AVQHostAddress@@XZ 004f36d8     qt5networkd:Qt5Networkd.dll
 0005:000006dc       __imp_??0QNetworkInterface@@QAE@ABV0@@Z 004f36dc     qt5networkd:Qt5Networkd.dll
 0005:000006e0       __imp_??1QNetworkInterface@@QAE@XZ 004f36e0     qt5networkd:Qt5Networkd.dll
 0005:000006e4       __imp_?name@QNetworkInterface@@QBE?AVQString@@XZ 004f36e4     qt5networkd:Qt5Networkd.dll
 0005:000006e8       __imp_?connectToHost@QAbstractSocket@@UAEXABVQString@@GV?$QFlags@W4OpenModeFlag@QIODevice@@@@W4NetworkLayerProtocol@1@@Z 004f36e8     qt5networkd:Qt5Networkd.dll
 0005:000006ec       __imp_?writeData@QAbstractSocket@@MAE_JPBD_J@Z 004f36ec     qt5networkd:Qt5Networkd.dll
 0005:000006f0       __imp_?waitForReadyRead@QAbstractSocket@@UAE_NH@Z 004f36f0     qt5networkd:Qt5Networkd.dll
 0005:000006f4       __imp_?disconnectFromHost@QAbstractSocket@@UAEXXZ 004f36f4     qt5networkd:Qt5Networkd.dll
 0005:000006f8       __imp_?isSequential@QAbstractSocket@@UBE_NXZ 004f36f8     qt5networkd:Qt5Networkd.dll
 0005:000006fc       __imp_?metaObject@QUdpSocket@@UBEPBUQMetaObject@@XZ 004f36fc     qt5networkd:Qt5Networkd.dll
 0005:00000700       __imp_?waitForDisconnected@QAbstractSocket@@UAE_NH@Z 004f3700     qt5networkd:Qt5Networkd.dll
 0005:00000704       __imp_?waitForConnected@QAbstractSocket@@UAE_NH@Z 004f3704     qt5networkd:Qt5Networkd.dll
 0005:00000708       __imp_?waitForBytesWritten@QAbstractSocket@@UAE_NH@Z 004f3708     qt5networkd:Qt5Networkd.dll
 0005:0000070c       __imp_?qt_metacall@QUdpSocket@@UAEHW4Call@QMetaObject@@HPAPAX@Z 004f370c     qt5networkd:Qt5Networkd.dll
 0005:00000710       __imp_?socketDescriptor@QAbstractSocket@@UBEHXZ 004f3710     qt5networkd:Qt5Networkd.dll
 0005:00000714       __imp_?setSocketOption@QAbstractSocket@@UAEXW4SocketOption@1@ABVQVariant@@@Z 004f3714     qt5networkd:Qt5Networkd.dll
 0005:00000718       __imp_?setSocketDescriptor@QAbstractSocket@@UAE_NHW4SocketState@1@V?$QFlags@W4OpenModeFlag@QIODevice@@@@@Z 004f3718     qt5networkd:Qt5Networkd.dll
 0005:0000071c       __imp_?setReadBufferSize@QAbstractSocket@@UAEX_J@Z 004f371c     qt5networkd:Qt5Networkd.dll
 0005:00000720       __imp_?resume@QAbstractSocket@@UAEXXZ 004f3720     qt5networkd:Qt5Networkd.dll
 0005:00000724       __imp_?readLineData@QAbstractSocket@@MAE_JPAD_J@Z 004f3724     qt5networkd:Qt5Networkd.dll
 0005:00000728       __imp_?readData@QAbstractSocket@@MAE_JPAD_J@Z 004f3728     qt5networkd:Qt5Networkd.dll
 0005:0000072c       __imp_?qt_metacast@QUdpSocket@@UAEPAXPBD@Z 004f372c     qt5networkd:Qt5Networkd.dll
 0005:00000730       \177Qt5Networkd_NULL_THUNK_DATA 004f3730     qt5networkd:Qt5Networkd.dll
 0005:0000078c       __imp__SHFileOperationA@4  004f378c     shell32:SHELL32.dll
 0005:00000790       __imp__SHGetFolderPathW@20 004f3790     shell32:SHELL32.dll
 0005:00000794       \177SHELL32_NULL_THUNK_DATA 004f3794     shell32:SHELL32.dll
 0005:000007c0       __imp__PathIsDirectoryA@4  004f37c0     shlwapi:SHLWAPI.dll
 0005:000007c4       \177SHLWAPI_NULL_THUNK_DATA 004f37c4     shlwapi:SHLWAPI.dll
 0005:000007f0       __imp__GetActiveWindow@0   004f37f0     user32:USER32.dll
 0005:000007f4       __imp__MessageBoxA@16      004f37f4     user32:USER32.dll
 0005:000007f8       __imp__LoadImageA@24       004f37f8     user32:USER32.dll
 0005:000007fc       __imp__FindWindowA@8       004f37fc     user32:USER32.dll
 0005:00000800       __imp__GetWindowLongA@8    004f3800     user32:USER32.dll
 0005:00000804       __imp__CopyRect@8          004f3804     user32:USER32.dll
 0005:00000808       __imp__SetRect@20          004f3808     user32:USER32.dll
 0005:0000080c       __imp__ShowCursor@4        004f380c     user32:USER32.dll
 0005:00000810       __imp__AdjustWindowRectEx@16 004f3810     user32:USER32.dll
 0005:00000814       __imp__GetWindowRect@8     004f3814     user32:USER32.dll
 0005:00000818       __imp__GetClientRect@8     004f3818     user32:USER32.dll
 0005:0000081c       __imp__InvalidateRect@12   004f381c     user32:USER32.dll
 0005:00000820       __imp__UpdateWindow@4      004f3820     user32:USER32.dll
 0005:00000824       __imp__GetMenu@4           004f3824     user32:USER32.dll
 0005:00000828       __imp__GetSystemMetrics@4  004f3828     user32:USER32.dll
 0005:0000082c       __imp__SetWindowPos@28     004f382c     user32:USER32.dll
 0005:00000830       __imp__MoveWindow@24       004f3830     user32:USER32.dll
 0005:00000834       \177USER32_NULL_THUNK_DATA 004f3834     user32:USER32.dll
 0005:0000086c       __imp____telemetry_main_return_trigger 004f386c     vcruntimed:VCRUNTIME140D.dll
 0005:00000870       __imp___set_se_translator  004f3870     vcruntimed:VCRUNTIME140D.dll
 0005:00000874       __imp__memcmp              004f3874     vcruntimed:VCRUNTIME140D.dll
 0005:00000878       __imp__memcpy              004f3878     vcruntimed:VCRUNTIME140D.dll
 0005:0000087c       __imp__memmove             004f387c     vcruntimed:VCRUNTIME140D.dll
 0005:00000880       __imp__memset              004f3880     vcruntimed:VCRUNTIME140D.dll
 0005:00000884       __imp__strstr              004f3884     vcruntimed:VCRUNTIME140D.dll
 0005:00000888       __imp___CxxThrowException@8 004f3888     vcruntimed:VCRUNTIME140D.dll
 0005:0000088c       __imp____CxxFrameHandler3  004f388c     vcruntimed:VCRUNTIME140D.dll
 0005:00000890       __imp____telemetry_main_invoke_trigger 004f3890     vcruntimed:VCRUNTIME140D.dll
 0005:00000894       __imp____vcrt_InitializeCriticalSectionEx 004f3894     vcruntimed:VCRUNTIME140D.dll
 0005:00000898       __imp___except_handler4_common 004f3898     vcruntimed:VCRUNTIME140D.dll
 0005:0000089c       __imp____std_exception_copy 004f389c     vcruntimed:VCRUNTIME140D.dll
 0005:000008a0       __imp____std_exception_destroy 004f38a0     vcruntimed:VCRUNTIME140D.dll
 0005:000008a4       __imp____vcrt_GetModuleFileNameW 004f38a4     vcruntimed:VCRUNTIME140D.dll
 0005:000008a8       __imp____vcrt_GetModuleHandleW 004f38a8     vcruntimed:VCRUNTIME140D.dll
 0005:000008ac       __imp____vcrt_LoadLibraryExW 004f38ac     vcruntimed:VCRUNTIME140D.dll
 0005:000008b0       __imp____std_type_info_destroy_list 004f38b0     vcruntimed:VCRUNTIME140D.dll
 0005:000008b4       \177VCRUNTIME140D_NULL_THUNK_DATA 004f38b4     vcruntimed:VCRUNTIME140D.dll
 0005:000008ec       __imp__timeGetTime@0       004f38ec     winmm:WINMM.dll
 0005:000008f0       \177WINMM_NULL_THUNK_DATA  004f38f0     winmm:WINMM.dll
 0005:0000091c       __imp__get_udpkey          004f391c     racermate:racermate.dll
 0005:00000920       __imp__GetTrainerData      004f3920     racermate:racermate.dll
 0005:00000924       __imp__get_ss_data         004f3924     racermate:racermate.dll
 0005:00000928       __imp__GetRacerMateDeviceID 004f3928     racermate:racermate.dll
 0005:0000092c       __imp__GetFirmWareVersion  004f392c     racermate:racermate.dll
 0005:00000930       __imp__get_status_bits     004f3930     racermate:racermate.dll
 0005:00000934       __imp__SetSlope            004f3934     racermate:racermate.dll
 0005:00000938       __imp__GetCalibration      004f3938     racermate:racermate.dll
 0005:0000093c       __imp__get_average_bars    004f393c     racermate:racermate.dll
 0005:00000940       __imp__setPause            004f3940     racermate:racermate.dll
 0005:00000944       __imp__stopTrainer         004f3944     racermate:racermate.dll
 0005:00000948       __imp__ResettoIdle         004f3948     racermate:racermate.dll
 0005:0000094c       __imp__Setlogfilepath      004f394c     racermate:racermate.dll
 0005:00000950       __imp__Enablelogs          004f3950     racermate:racermate.dll
 0005:00000954       __imp__get_dll_version     004f3954     racermate:racermate.dll
 0005:00000958       __imp__GetAPIVersion       004f3958     racermate:racermate.dll
 0005:0000095c       __imp__get_build_date      004f395c     racermate:racermate.dll
 0005:00000960       __imp__racermate_init      004f3960     racermate:racermate.dll
 0005:00000964       __imp__start_server        004f3964     racermate:racermate.dll
 0005:00000968       __imp__start_ant           004f3968     racermate:racermate.dll
 0005:0000096c       __imp__stop_ant            004f396c     racermate:racermate.dll
 0005:00000970       __imp__get_ant_sensors_string 004f3970     racermate:racermate.dll
 0005:00000974       __imp__get_ant_sensors     004f3974     racermate:racermate.dll
 0005:00000978       __imp__get_ant_hr          004f3978     racermate:racermate.dll
 0005:0000097c       __imp__associate           004f397c     racermate:racermate.dll
 0005:00000980       __imp__unassociate         004f3980     racermate:racermate.dll
 0005:00000984       __imp__stop_server         004f3984     racermate:racermate.dll
 0005:00000988       __imp__racermate_close     004f3988     racermate:racermate.dll
 0005:0000098c       __imp__get_rs232_ports     004f398c     racermate:racermate.dll
 0005:00000990       __imp__get_udp_trainers    004f3990     racermate:racermate.dll
 0005:00000994       __imp__getPortNames        004f3994     racermate:racermate.dll
 0005:00000998       __imp__get_n_udp_clients   004f3998     racermate:racermate.dll
 0005:0000099c       __imp__get_n_devices       004f399c     racermate:racermate.dll
 0005:000009a0       __imp__GetHandleBarButtons 004f39a0     racermate:racermate.dll
 0005:000009a4       __imp__SetErgModeLoad      004f39a4     racermate:racermate.dll
 0005:000009a8       __imp__SetRecalibrationMode 004f39a8     racermate:racermate.dll
 0005:000009ac       __imp__EndRecalibrationMode 004f39ac     racermate:racermate.dll
 0005:000009b0       __imp__GetCurrentVTGear    004f39b0     racermate:racermate.dll
 0005:000009b4       __imp__setGear             004f39b4     racermate:racermate.dll
 0005:000009b8       __imp__get_bars            004f39b8     racermate:racermate.dll
 0005:000009bc       __imp__get_comstats        004f39bc     racermate:racermate.dll
 0005:000009c0       __imp__ResetAlltoIdle      004f39c0     racermate:racermate.dll
 0005:000009c4       __imp__set_wind            004f39c4     racermate:racermate.dll
 0005:000009c8       __imp__set_draftwind       004f39c8     racermate:racermate.dll
 0005:000009cc       __imp__set_ftp             004f39cc     racermate:racermate.dll
 0005:000009d0       __imp__get_np              004f39d0     racermate:racermate.dll
 0005:000009d4       __imp__get_if              004f39d4     racermate:racermate.dll
 0005:000009d8       __imp__get_tss             004f39d8     racermate:racermate.dll
 0005:000009dc       __imp__calc_tp             004f39dc     racermate:racermate.dll
 0005:000009e0       __imp_??0ANT@RACERMATE@@QAE@PAVQObject@@@Z 004f39e0     racermate:racermate.dll
 0005:000009e4       __imp_?check_maps@@YAHPBD@Z 004f39e4     racermate:racermate.dll
 0005:000009e8       __imp__startTrainer        004f39e8     racermate:racermate.dll
 0005:000009ec       __imp__GetIsCalibrated     004f39ec     racermate:racermate.dll
 0005:000009f0       __imp__resetTrainer        004f39f0     racermate:racermate.dll
 0005:000009f4       __imp__ResetAverages       004f39f4     racermate:racermate.dll
 0005:000009f8       __imp__SetHRBeepBounds     004f39f8     racermate:racermate.dll
 0005:000009fc       __imp__SetVelotronParameters 004f39fc     racermate:racermate.dll
 0005:00000a00       __imp_??0LPFilter@@QAE@H@Z 004f3a00     racermate:racermate.dll
 0005:00000a04       __imp_?calc@LPFilter@@QAENNH@Z 004f3a04     racermate:racermate.dll
 0005:00000a08       __imp_?setfval@LPFilter@@QAEXN@Z 004f3a08     racermate:racermate.dll
 0005:00000a0c       __imp__get_errstr          004f3a0c     racermate:racermate.dll
 0005:00000a10       \177racermate_NULL_THUNK_DATA 004f3a10     racermate:racermate.dll
 0005:00000a6c       __imp__fgetc               004f3a6c     ucrtd:ucrtbased.dll
 0005:00000a70       __imp__rand                004f3a70     ucrtd:ucrtbased.dll
 0005:00000a74       __imp__srand               004f3a74     ucrtd:ucrtbased.dll
 0005:00000a78       __imp__malloc              004f3a78     ucrtd:ucrtbased.dll
 0005:00000a7c       __imp__free                004f3a7c     ucrtd:ucrtbased.dll
 0005:00000a80       __imp___time64             004f3a80     ucrtd:ucrtbased.dll
 0005:00000a84       __imp__sqrt                004f3a84     ucrtd:ucrtbased.dll
 0005:00000a88       __imp__sin                 004f3a88     ucrtd:ucrtbased.dll
 0005:00000a8c       __imp__pow                 004f3a8c     ucrtd:ucrtbased.dll
 0005:00000a90       __imp__fabs                004f3a90     ucrtd:ucrtbased.dll
 0005:00000a94       __imp__exp                 004f3a94     ucrtd:ucrtbased.dll
 0005:00000a98       __imp__acos                004f3a98     ucrtd:ucrtbased.dll
 0005:00000a9c       __imp__strncat             004f3a9c     ucrtd:ucrtbased.dll
 0005:00000aa0       __imp____stdio_common_vsscanf 004f3aa0     ucrtd:ucrtbased.dll
 0005:00000aa4       __imp__fgets               004f3aa4     ucrtd:ucrtbased.dll
 0005:00000aa8       __imp__atoi                004f3aa8     ucrtd:ucrtbased.dll
 0005:00000aac       __imp__atof                004f3aac     ucrtd:ucrtbased.dll
 0005:00000ab0       __imp___wassert            004f3ab0     ucrtd:ucrtbased.dll
 0005:00000ab4       __imp___set_new_mode       004f3ab4     ucrtd:ucrtbased.dll
 0005:00000ab8       __imp___set_new_handler    004f3ab8     ucrtd:ucrtbased.dll
 0005:00000abc       __imp___CrtSetReportMode   004f3abc     ucrtd:ucrtbased.dll
 0005:00000ac0       __imp__fputc               004f3ac0     ucrtd:ucrtbased.dll
 0005:00000ac4       __imp___CrtSetDbgFlag      004f3ac4     ucrtd:ucrtbased.dll
 0005:00000ac8       __imp___CrtMemDumpStatistics 004f3ac8     ucrtd:ucrtbased.dll
 0005:00000acc       __imp___CrtMemDifference   004f3acc     ucrtd:ucrtbased.dll
 0005:00000ad0       __imp___CrtMemCheckpoint   004f3ad0     ucrtd:ucrtbased.dll
 0005:00000ad4       __imp___CrtDumpMemoryLeaks 004f3ad4     ucrtd:ucrtbased.dll
 0005:00000ad8       __imp___CrtCheckMemory     004f3ad8     ucrtd:ucrtbased.dll
 0005:00000adc       __imp__strtok              004f3adc     ucrtd:ucrtbased.dll
 0005:00000ae0       __imp__strncpy             004f3ae0     ucrtd:ucrtbased.dll
 0005:00000ae4       __imp__strlen              004f3ae4     ucrtd:ucrtbased.dll
 0005:00000ae8       __imp__strcpy              004f3ae8     ucrtd:ucrtbased.dll
 0005:00000aec       __imp__strcmp              004f3aec     ucrtd:ucrtbased.dll
 0005:00000af0       __imp__strcat              004f3af0     ucrtd:ucrtbased.dll
 0005:00000af4       __imp____stdio_common_vsprintf 004f3af4     ucrtd:ucrtbased.dll
 0005:00000af8       __imp____stdio_common_vfprintf 004f3af8     ucrtd:ucrtbased.dll
 0005:00000afc       __imp__fopen               004f3afc     ucrtd:ucrtbased.dll
 0005:00000b00       __imp__fflush              004f3b00     ucrtd:ucrtbased.dll
 0005:00000b04       __imp__fclose              004f3b04     ucrtd:ucrtbased.dll
 0005:00000b08       __imp____stdio_common_vswprintf 004f3b08     ucrtd:ucrtbased.dll
 0005:00000b0c       __imp____acrt_iob_func     004f3b0c     ucrtd:ucrtbased.dll
 0005:00000b10       __imp__wcstombs            004f3b10     ucrtd:ucrtbased.dll
 0005:00000b14       __imp___set_invalid_parameter_handler 004f3b14     ucrtd:ucrtbased.dll
 0005:00000b18       __imp___invalid_parameter  004f3b18     ucrtd:ucrtbased.dll
 0005:00000b1c       __imp__fread               004f3b1c     ucrtd:ucrtbased.dll
 0005:00000b20       __imp__fseek               004f3b20     ucrtd:ucrtbased.dll
 0005:00000b24       __imp__ftell               004f3b24     ucrtd:ucrtbased.dll
 0005:00000b28       __imp__fwrite              004f3b28     ucrtd:ucrtbased.dll
 0005:00000b2c       __imp__getc                004f3b2c     ucrtd:ucrtbased.dll
 0005:00000b30       __imp__putc                004f3b30     ucrtd:ucrtbased.dll
 0005:00000b34       __imp__rename              004f3b34     ucrtd:ucrtbased.dll
 0005:00000b38       __imp__isdigit             004f3b38     ucrtd:ucrtbased.dll
 0005:00000b3c       __imp__isxdigit            004f3b3c     ucrtd:ucrtbased.dll
 0005:00000b40       __imp__toupper             004f3b40     ucrtd:ucrtbased.dll
 0005:00000b44       __imp__tolower             004f3b44     ucrtd:ucrtbased.dll
 0005:00000b48       __imp__qsort               004f3b48     ucrtd:ucrtbased.dll
 0005:00000b4c       __imp___beginthread        004f3b4c     ucrtd:ucrtbased.dll
 0005:00000b50       __imp___endthread          004f3b50     ucrtd:ucrtbased.dll
 0005:00000b54       __imp__log10               004f3b54     ucrtd:ucrtbased.dll
 0005:00000b58       __imp__ceil                004f3b58     ucrtd:ucrtbased.dll
 0005:00000b5c       __imp__floor               004f3b5c     ucrtd:ucrtbased.dll
 0005:00000b60       __imp__wcslen              004f3b60     ucrtd:ucrtbased.dll
 0005:00000b64       __imp___heapwalk           004f3b64     ucrtd:ucrtbased.dll
 0005:00000b68       __imp___CrtDbgReport       004f3b68     ucrtd:ucrtbased.dll
 0005:00000b6c       __imp____daylight          004f3b6c     ucrtd:ucrtbased.dll
 0005:00000b70       __imp____timezone          004f3b70     ucrtd:ucrtbased.dll
 0005:00000b74       __imp___tzset              004f3b74     ucrtd:ucrtbased.dll
 0005:00000b78       __imp__terminate           004f3b78     ucrtd:ucrtbased.dll
 0005:00000b7c       __imp___callnewh           004f3b7c     ucrtd:ucrtbased.dll
 0005:00000b80       __imp___free_dbg           004f3b80     ucrtd:ucrtbased.dll
 0005:00000b84       __imp___seh_filter_dll     004f3b84     ucrtd:ucrtbased.dll
 0005:00000b88       __imp___configure_narrow_argv 004f3b88     ucrtd:ucrtbased.dll
 0005:00000b8c       __imp___initialize_narrow_environment 004f3b8c     ucrtd:ucrtbased.dll
 0005:00000b90       __imp___initialize_onexit_table 004f3b90     ucrtd:ucrtbased.dll
 0005:00000b94       __imp___register_onexit_function 004f3b94     ucrtd:ucrtbased.dll
 0005:00000b98       __imp___execute_onexit_table 004f3b98     ucrtd:ucrtbased.dll
 0005:00000b9c       __imp___crt_atexit         004f3b9c     ucrtd:ucrtbased.dll
 0005:00000ba0       __imp___crt_at_quick_exit  004f3ba0     ucrtd:ucrtbased.dll
 0005:00000ba4       __imp___cexit              004f3ba4     ucrtd:ucrtbased.dll
 0005:00000ba8       __imp____stdio_common_vsprintf_s 004f3ba8     ucrtd:ucrtbased.dll
 0005:00000bac       __imp___seh_filter_exe     004f3bac     ucrtd:ucrtbased.dll
 0005:00000bb0       __imp___set_app_type       004f3bb0     ucrtd:ucrtbased.dll
 0005:00000bb4       __imp____setusermatherr    004f3bb4     ucrtd:ucrtbased.dll
 0005:00000bb8       __imp___get_initial_narrow_environment 004f3bb8     ucrtd:ucrtbased.dll
 0005:00000bbc       __imp___initterm           004f3bbc     ucrtd:ucrtbased.dll
 0005:00000bc0       __imp___initterm_e         004f3bc0     ucrtd:ucrtbased.dll
 0005:00000bc4       __imp__exit                004f3bc4     ucrtd:ucrtbased.dll
 0005:00000bc8       __imp___exit               004f3bc8     ucrtd:ucrtbased.dll
 0005:00000bcc       __imp___set_fmode          004f3bcc     ucrtd:ucrtbased.dll
 0005:00000bd0       __imp____p___argc          004f3bd0     ucrtd:ucrtbased.dll
 0005:00000bd4       __imp____p___argv          004f3bd4     ucrtd:ucrtbased.dll
 0005:00000bd8       __imp___c_exit             004f3bd8     ucrtd:ucrtbased.dll
 0005:00000bdc       __imp___register_thread_local_exe_atexit_callback 004f3bdc     ucrtd:ucrtbased.dll
 0005:00000be0       __imp___configthreadlocale 004f3be0     ucrtd:ucrtbased.dll
 0005:00000be4       __imp____p__commode        004f3be4     ucrtd:ucrtbased.dll
 0005:00000be8       __imp___except1            004f3be8     ucrtd:ucrtbased.dll
 0005:00000bec       __imp___wmakepath_s        004f3bec     ucrtd:ucrtbased.dll
 0005:00000bf0       __imp___wsplitpath_s       004f3bf0     ucrtd:ucrtbased.dll
 0005:00000bf4       __imp__wcscpy_s            004f3bf4     ucrtd:ucrtbased.dll
 0005:00000bf8       __imp___controlfp_s        004f3bf8     ucrtd:ucrtbased.dll
 0005:00000bfc       __imp__getch               004f3bfc     ucrtd:ucrtbased.dll
 0005:00000bfc       __imp___getch              004f3bfc     ucrtd:ucrtbased.dll
 0005:00000c00       __imp__kbhit               004f3c00     ucrtd:ucrtbased.dll
 0005:00000c00       __imp___kbhit              004f3c00     ucrtd:ucrtbased.dll
 0005:00000c04       __imp___unlink             004f3c04     ucrtd:ucrtbased.dll
 0005:00000c04       __imp__unlink              004f3c04     ucrtd:ucrtbased.dll
 0005:00000c08       __imp__strupr              004f3c08     ucrtd:ucrtbased.dll
 0005:00000c08       __imp___strupr             004f3c08     ucrtd:ucrtbased.dll
 0005:00000c0c       __imp___CrtDbgReportW      004f3c0c     ucrtd:ucrtbased.dll
 0005:00000c10       __imp__cos                 004f3c10     ucrtd:ucrtbased.dll
 0005:00000c14       \177ucrtbased_NULL_THUNK_DATA 004f3c14     ucrtd:ucrtbased.dll
 0005:00000c94       __IMPORT_DESCRIPTOR_WINMM  004f3c94     winmm:WINMM.dll
 0005:00000ca8       __IMPORT_DESCRIPTOR_Qt5Cored 004f3ca8     qt5cored:Qt5Cored.dll
 0005:00000cbc       __IMPORT_DESCRIPTOR_racermate 004f3cbc     racermate:racermate.dll
 0005:00000cd0       __IMPORT_DESCRIPTOR_KERNEL32 004f3cd0     kernel32:KERNEL32.dll
 0005:00000ce4       __IMPORT_DESCRIPTOR_USER32 004f3ce4     user32:USER32.dll
 0005:00000cf8       __IMPORT_DESCRIPTOR_GDI32  004f3cf8     gdi32:GDI32.dll
 0005:00000d0c       __IMPORT_DESCRIPTOR_COMDLG32 004f3d0c     comdlg32:COMDLG32.dll
 0005:00000d20       __IMPORT_DESCRIPTOR_ADVAPI32 004f3d20     advapi32:ADVAPI32.dll
 0005:00000d34       __IMPORT_DESCRIPTOR_SHELL32 004f3d34     shell32:SHELL32.dll
 0005:00000d48       __IMPORT_DESCRIPTOR_MSVCP140D 004f3d48     msvcprtd:MSVCP140D.dll
 0005:00000d5c       __IMPORT_DESCRIPTOR_VCRUNTIME140D 004f3d5c     vcruntimed:VCRUNTIME140D.dll
 0005:00000d70       __IMPORT_DESCRIPTOR_ucrtbased 004f3d70     ucrtd:ucrtbased.dll
 0005:00000d84       __IMPORT_DESCRIPTOR_SHLWAPI 004f3d84     shlwapi:SHLWAPI.dll
 0005:00000d98       __IMPORT_DESCRIPTOR_Qt5Networkd 004f3d98     qt5networkd:Qt5Networkd.dll
 0005:00000dac       __NULL_IMPORT_DESCRIPTOR   004f3dac     winmm:WINMM.dll
