 racermate

 Timestamp is 59c42666 (Thu Sep 21 13:51:50 2017)

 Preferred load address is 10000000

 Start         Length     Name                   Class
 0001:00000000 00000a10H .text$di                CODE
 0001:00000a10 00052190H .text$mn                CODE
 0001:00052ba0 00003110H .text$x                 CODE
 0001:00055cb0 000002faH .text$yd                CODE
 0002:00000000 00000638H .idata$5                DATA
 0002:00000638 00000004H .00cfg                  DATA
 0002:0000063c 00000004H .CRT$XCA                DATA
 0002:00000640 00000044H .CRT$XCU                DATA
 0002:00000684 00000004H .CRT$XCZ                DATA
 0002:00000688 00000004H .CRT$XIA                DATA
 0002:0000068c 00000004H .CRT$XIZ                DATA
 0002:00000690 00000004H .CRT$XPA                DATA
 0002:00000694 00000004H .CRT$XPZ                DATA
 0002:00000698 00000004H .CRT$XTA                DATA
 0002:0000069c 00000004H .CRT$XTZ                DATA
 0002:000006a0 0000c15cH .rdata                  DATA
 0002:0000c7fc 00000e04H .rdata$r                DATA
 0002:0000d600 000002a4H .rdata$sxdata           DATA
 0002:0000d8a4 000002acH .rdata$zzzdbg           DATA
 0002:0000db50 00000004H .rtc$IAA                DATA
 0002:0000db54 00000004H .rtc$IZZ                DATA
 0002:0000db58 00000004H .rtc$TAA                DATA
 0002:0000db5c 00000004H .rtc$TZZ                DATA
 0002:0000db60 00003710H .xdata$x                DATA
 0002:00011270 00003904H .edata                  DATA
 0002:00014b74 000001b8H .idata$2                DATA
 0002:00014d2c 00000014H .idata$3                DATA
 0002:00014d40 00000638H .idata$4                DATA
 0002:00015378 00002f16H .idata$6                DATA
 0003:00000000 00000380H .data                   DATA
 0003:00000380 00000560H .data$r                 DATA
 0003:000008e0 00005008H .bss                    DATA
 0004:00000000 00000044H .gfids$y                DATA
 0005:00000000 00000060H .rsrc$01                DATA
 0005:00000060 00000180H .rsrc$02                DATA

  Address         Publics by Value              Rva+Base       Lib:Object

 0000:00000000       ___guard_longjmp_count     00000000     <absolute>
 0000:00000000       ___guard_iat_table         00000000     <absolute>
 0000:00000000       ___guard_iat_count         00000000     <absolute>
 0000:00000000       ___guard_fids_table        00000000     <absolute>
 0000:00000000       ___guard_longjmp_table     00000000     <absolute>
 0000:00000000       ___dynamic_value_reloc_table 00000000     <absolute>
 0000:00000000       ___guard_fids_count        00000000     <absolute>
 0000:000000a9       ___safe_se_handler_count   000000a9     <absolute>
 0000:00000100       ___guard_flags             00000100     <absolute>
 0000:00000000       ___ImageBase               10000000     <linker-defined>
 0001:00000a10       ___local_stdio_printf_options 10001a10 f i common:person.obj
 0001:00000a20       __vfprintf_l               10001a20 f i common:person.obj
 0001:00000a50       _fprintf                   10001a50 f i common:person.obj
 0001:00000a70       __vsnprintf_l              10001a70 f i common:person.obj
 0001:00000ab0       _sprintf                   10001ab0 f i common:person.obj
 0001:00000ad0       ?_Deallocate@std@@YAXPAXII@Z 10001ad0 f i common:person.obj
 0001:00000b40       ?getName@Person@@QAEPADXZ  10001b40 f i common:person.obj
 0001:00000bc0       ??0Person@@QAE@XZ          10001bc0 f   common:person.obj
 0001:00000be0       ??_EPerson@@UAEPAXI@Z      10001be0 f i * CIL library *:* CIL module *
 0001:00000be0       ??_GPerson@@UAEPAXI@Z      10001be0 f i common:person.obj
 0001:00000c10       ??0PERSON_DATA@@QAE@XZ     10001c10 f i common:person.obj
 0001:00000cf0       ??1PERSON_DATA@@QAE@XZ     10001cf0 f i common:person.obj
 0001:00000ec0       ??1Person@@UAE@XZ          10001ec0 f   common:person.obj
 0001:00000ed0       ?init@Person@@IAEXXZ       10001ed0 f   common:person.obj
 0001:00000fb0       ?my_export@Person@@UAEXPAU_iobuf@@_N@Z 10001fb0 f   common:person.obj
 0001:000010e0       ??1?$basic_string@DU?$char_traits@D@std@@V?$allocator@D@2@@std@@QAE@XZ 100020e0 f i common:person.obj
 0001:00001120       ?deallocate@?$_Wrap_alloc@V?$allocator@D@std@@@std@@QAEXPADI@Z 10002120 f i common:person.obj
 0001:00001170       ??4OLDSDIRS@@QAEAAV0@ABV0@@Z 10002170 f i glib:logger.obj
 0001:00001190       ??0Logger@@QAE@PBD0@Z      10002190 f   glib:logger.obj
 0001:00001350       ??_ELogger@@UAEPAXI@Z      10002350 f i * CIL library *:* CIL module *
 0001:00001350       ??_GLogger@@UAEPAXI@Z      10002350 f i glib:logger.obj
 0001:000013d0       ?close@Logger@@QAEXXZ      100023d0 f   glib:logger.obj
 0001:00001460       ?cleanup_logfiles@Logger@@AAEXXZ 10002460 f   glib:logger.obj
 0001:00001690       ?sort_function@@YAHPBX0@Z  10002690 f   glib:logger.obj
 0001:000016d0       ?dump@Logger@@QAEXPAEH@Z   100026d0 f   glib:logger.obj
 0001:00001790       ?write@Logger@@QAAXHHHPBDZZ 10002790 f   glib:logger.obj
 0001:00001990       ?write@Logger@@QAAXPBDZZ   10002990 f   glib:logger.obj
 0001:00001a30       ?get_str@fatalError@@QAEPBDXZ 10002a30 f i glib:win_utils.obj
 0001:00001a40       ?get_filename@fatalError@@QAEPBDXZ 10002a40 f i glib:win_utils.obj
 0001:00001a50       ?get_line@fatalError@@QAEHXZ 10002a50 f i glib:win_utils.obj
 0001:00001a50       ?getString@Err@@QAEPADXZ   10002a50 f i glib:err.obj
 0001:00001a60       ??0fatalError@@QAE@ABV0@@Z 10002a60 f i glib:win_utils.obj
 0001:00001aa0       ??_EfatalError@@UAEPAXI@Z  10002aa0 f i glib:win_utils.obj
 0001:00001b50       ?direxists@@YA_NPBD@Z      10002b50 f   glib:win_utils.obj
 0001:00001b70       ___local_stdio_scanf_options 10002b70 f i glib:utils.obj
 0001:00001b80       ?reset@dataSource@@UAEXXZ  10002b80 f i tlib:datasource.obj
 0001:00001b80       ?gradeDown@dataSource@@UAEXXZ 10002b80 f i tlib:datasource.obj
 0001:00001b80       ?finish@dataSource@@UAEXXZ 10002b80 f i tlib:datasource.obj
 0001:00001b80       ?start@dataSource@@UAEXXZ  10002b80 f i tlib:datasource.obj
 0001:00001b80       ?finish@Simulator@@UAEXXZ  10002b80 f i tlib:simulator.obj
 0001:00001b80       ?disconnected@ctsrvWorker@RACERMATE@@AAEXXZ 10002b80 f i ctsrv:ctsrvworker.obj
 0001:00001b80       ?test@dataSource@@UAEXXZ   10002b80 f i tlib:datasource.obj
 0001:00001b80       @_guard_check_icall_nop@4  10002b80 f i MSVCRT:guard_support.obj
 0001:00001b80       ?_Orphan_all@?$_Vector_alloc@U?$_Vec_base_types@V?$basic_string@DU?$char_traits@D@std@@V?$allocator@D@2@@std@@V?$allocator@V?$basic_string@DU?$char_traits@D@std@@V?$allocator@D@2@@std@@@2@@std@@@std@@QAEXXZ 10002b80 f i glib:utils.obj
 0001:00001b80       ?pause@RTD@@UAEXXZ         10002b80 f i tlib:rtd.obj
 0001:00001b80       ?qt_static_metacall@ANT@RACERMATE@@CAXPAVQObject@@W4Call@QMetaObject@@HPAPAX@Z 10002b80 f i rmant:moc_ant.obj
 0001:00001b80       ?integrate@Decoder@@UAEXXZ 10002b80 f i tlib:decoder.obj
 0001:00001b80       ?_Orphan_all@?$_Deque_alloc@U?$_Deque_base_types@UTCRF@@V?$allocator@UTCRF@@@std@@@std@@@std@@QAEXXZ 10002b80 f i rmg:crf.obj
 0001:00001b80       ?update@Decoder@@UAEXXZ    10002b80 f i tlib:decoder.obj
 0001:00001b80       ?startCal_x@dataSource@@UAEXXZ 10002b80 f i tlib:datasource.obj
 0001:00001b80       ?dec_speed@Decoder@@UAEXXZ 10002b80 f i tlib:decoder.obj
 0001:00001b80       ??1?$_Compressed_pair@U?$_Wrap_alloc@V?$allocator@UTCRF@@@std@@@std@@V?$_Deque_val@U?$_Deque_simple_types@UTCRF@@@std@@@2@$00@std@@QAE@XZ 10002b80 f i rmg:crf.obj
 0001:00001b80       ?gradeDown@Decoder@@UAEXXZ 10002b80 f i tlib:decoder.obj
 0001:00001b80       ?_Orphan_all@?$_Vector_alloc@U?$_Vec_base_types@V?$_List_unchecked_iterator@V?$_List_val@U?$_List_simple_types@U?$pair@$$CBV?$basic_string@DU?$char_traits@D@std@@V?$allocator@D@2@@std@@G@std@@@std@@@std@@@std@@U?$_Wrap_alloc@V?$allocator@V?$_List_unchecked_iterator@V?$_List_val@U?$_List_simple_types@U?$pair@$$CBV?$basic_string@DU?$char_traits@D@std@@V?$allocator@D@2@@std@@G@std@@@std@@@std@@@std@@@std@@@2@@std@@@std@@QAEXXZ 10002b80 f i dll_globals.obj
 0001:00001b80       ?gradeUp@Decoder@@UAEXXZ   10002b80 f i tlib:decoder.obj
 0001:00001b80       ?clear_averages@dataSource@@UAEXXZ 10002b80 f i tlib:datasource.obj
 0001:00001b80       ?makelogpacket@RTD@@MAEXXZ 10002b80 f i tlib:computrainer.obj
 0001:00001b80       ?logData@Physics@@AAEXXZ   10002b80 f i tlib:physics.obj
 0001:00001b80       ?_Orphan_all@?$_Vector_alloc@U?$_Vec_base_types@V?$_List_unchecked_iterator@V?$_List_val@U?$_List_simple_types@U?$pair@$$CBV?$basic_string@DU?$char_traits@D@std@@V?$allocator@D@2@@std@@VDEVICE@@@std@@@std@@@std@@@std@@U?$_Wrap_alloc@V?$allocator@V?$_List_unchecked_iterator@V?$_List_val@U?$_List_simple_types@U?$pair@$$CBV?$basic_string@DU?$char_traits@D@std@@V?$allocator@D@2@@std@@VDEVICE@@@std@@@std@@@std@@@std@@@std@@@2@@std@@@std@@QAEXXZ 10002b80 f i dll_globals.obj
 0001:00001b80       ?gradeUp@dataSource@@UAEXXZ 10002b80 f i tlib:datasource.obj
 0001:00001b80       ?flush@dataSource@@UAEXXZ  10002b80 f i tlib:datasource.obj
 0001:00001b80       ??3@YAXPAX0@Z              10002b80 f i glib:utils.obj
 0001:00001b80       ??1Tmr@RACERMATE@@QAE@XZ   10002b80 f i rmg:tmr.obj
 0001:00001b80       ?finish@Performance@@UAEXXZ 10002b80 f i tlib:performance.obj
 0001:00001b80       ?inc_speed@Decoder@@UAEXXZ 10002b80 f i tlib:decoder.obj
 0001:00001b90       _printf                    10002b90 f i glib:utils.obj
 0001:00001bc0       __vsscanf_l                10002bc0 f i glib:utils.obj
 0001:00001bf0       _sscanf                    10002bf0 f i glib:utils.obj
 0001:00001c10       ?indexIgnoreCase@@YAHPBD0H_N@Z 10002c10 f   glib:utils.obj
 0001:00001cf0       ?ltrim@@YAXPADH0@Z         10002cf0 f   glib:utils.obj
 0001:00001dd0       ?trim@@YAXPADPBD@Z         10002dd0 f   glib:utils.obj
 0001:00001e60       ?exists@@YA_NPBD@Z         10002e60 f   glib:utils.obj
 0001:00001ee0       ??0?$basic_string@DU?$char_traits@D@std@@V?$allocator@D@2@@std@@QAE@PBD@Z 10002ee0 f i glib:utils.obj
 0001:00001f40       ?_Reserve@?$vector@V?$basic_string@DU?$char_traits@D@std@@V?$allocator@D@2@@std@@V?$allocator@V?$basic_string@DU?$char_traits@D@std@@V?$allocator@D@2@@std@@@2@@std@@IAEXI@Z 10002f40 f i glib:utils.obj
 0001:00001fe0       ?assign@?$basic_string@DU?$char_traits@D@std@@V?$allocator@D@2@@std@@QAEAAV12@PBDI@Z 10002fe0 f i glib:utils.obj
 0001:000020e0       ?assign@?$basic_string@DU?$char_traits@D@std@@V?$allocator@D@2@@std@@QAEAAV12@ABV12@II@Z 100030e0 f i glib:utils.obj
 0001:00002200       ?_Assign_rv@?$basic_string@DU?$char_traits@D@std@@V?$allocator@D@2@@std@@QAEX$$QAV12@@Z 10003200 f i glib:utils.obj
 0001:00002270       ?_Reallocate@?$vector@V?$basic_string@DU?$char_traits@D@std@@V?$allocator@D@2@@std@@V?$allocator@V?$basic_string@DU?$char_traits@D@std@@V?$allocator@D@2@@std@@@2@@std@@IAEXI@Z 10003270 f i glib:utils.obj
 0001:00002310       ?erase@?$basic_string@DU?$char_traits@D@std@@V?$allocator@D@2@@std@@QAEAAV12@II@Z 10003310 f i glib:utils.obj
 0001:000023b0       ?deallocate@?$allocator@V?$basic_string@DU?$char_traits@D@std@@V?$allocator@D@2@@std@@@std@@QAEXPAV?$basic_string@DU?$char_traits@D@std@@V?$allocator@D@2@@2@I@Z 100033b0 f i glib:utils.obj
 0001:00002420       ?_Copy@?$basic_string@DU?$char_traits@D@std@@V?$allocator@D@2@@std@@QAEXII@Z 10003420 f i glib:utils.obj
 0001:000025b0       ?allocate@?$allocator@V?$basic_string@DU?$char_traits@D@std@@V?$allocator@D@2@@std@@@std@@QAEPAV?$basic_string@DU?$char_traits@D@std@@V?$allocator@D@2@@2@I@Z 100035b0 f i glib:utils.obj
 0001:00002610       ?allocate@?$_Wrap_alloc@V?$allocator@D@std@@@std@@QAEPADI@Z 10003610 f i glib:utils.obj
 0001:00002660       ??0?$_Wrap_alloc@V?$allocator@V?$basic_string@DU?$char_traits@D@std@@V?$allocator@D@2@@std@@@std@@@std@@QAE@XZ 10003660 f i glib:utils.obj
 0001:00002660       ??0?$_Wrap_alloc@V?$allocator@UTCRF@@@std@@@std@@QAE@XZ 10003660 f i rmg:crf.obj
 0001:00002670       ??$_Destroy_range1@V?$allocator@V?$basic_string@DU?$char_traits@D@std@@V?$allocator@D@2@@std@@@std@@PAV?$basic_string@DU?$char_traits@D@std@@V?$allocator@D@2@@2@@std@@YAXPAV?$basic_string@DU?$char_traits@D@std@@V?$allocator@D@2@@0@0AAU?$_Wrap_alloc@V?$allocator@V?$basic_string@DU?$char_traits@D@std@@V?$allocator@D@2@@std@@@std@@@0@U?$integral_constant@_N$0A@@0@@Z 10003670 f i glib:utils.obj
 0001:000026f0       ??$_Uninitialized_move_al_unchecked1@PAV?$basic_string@DU?$char_traits@D@std@@V?$allocator@D@2@@std@@PAV12@V?$allocator@V?$basic_string@DU?$char_traits@D@std@@V?$allocator@D@2@@std@@@2@@std@@YAPAV?$basic_string@DU?$char_traits@D@std@@V?$allocator@D@2@@0@PAV10@00AAU?$_Wrap_alloc@V?$allocator@V?$basic_string@DU?$char_traits@D@std@@V?$allocator@D@2@@std@@@std@@@0@U_General_ptr_iterator_tag@0@U_Any_tag@0@@Z 100036f0 f i glib:utils.obj
 0001:000027a0       ??0fatalError@@QAE@PBDH0@Z 100037a0 f   glib:fatalerror.obj
 0001:00002890       ??1fatalError@@UAE@XZ      10003890 f   glib:fatalerror.obj
 0001:000028a0       ??_FfastTimer@@QAEXXZ      100038a0 f i glib:fasttimer.obj
 0001:000028e0       ??_EfastTimer@@UAEPAXI@Z   100038e0 f i glib:fasttimer.obj
 0001:00002990       ??0fastTimer@@QAE@PAD@Z    10003990 f   glib:fasttimer.obj
 0001:000029f0       ?reset@fastTimer@@QAEXXZ   100039f0 f   glib:fasttimer.obj
 0001:00002a70       ??1fastTimer@@UAE@XZ       10003a70 f   glib:fasttimer.obj
 0001:00002a80       ?start@fastTimer@@QAEXXZ   10003a80 f   glib:fasttimer.obj
 0001:00002aa0       ?stop@fastTimer@@QAENXZ    10003aa0 f   glib:fasttimer.obj
 0001:00002b10       ?getTotalSeconds@fastTimer@@QAENXZ 10003b10 f   glib:fasttimer.obj
 0001:00002b20       ?getCycles@fastTimer@@QAEKXZ 10003b20 f   glib:fasttimer.obj
 0001:00002b30       ?read@fastTimer@@QAE_JXZ   10003b30 f   glib:fasttimer.obj
 0001:00002b60       ?getAverageSeconds@fastTimer@@QAENXZ 10003b60 f   glib:fasttimer.obj
 0001:00002ba0       ?getseconds@fastTimer@@QAENXZ 10003ba0 f   glib:fasttimer.obj
 0001:00002ba0       ?getSeconds@fastTimer@@QAENXZ 10003ba0 f   glib:fasttimer.obj
 0001:00002c00       ?getms@fastTimer@@QAEKXZ   10003c00 f   glib:fasttimer.obj
 0001:00002c70       ?getFreq@fastTimer@@QAE_JXZ 10003c70 f   glib:fasttimer.obj
 0001:00002c80       ?delay@fastTimer@@QAEXK@Z  10003c80 f   glib:fasttimer.obj
 0001:00002d30       ?average@fastTimer@@QAEXXZ 10003d30 f   glib:fasttimer.obj
 0001:00002e20       ?getus@fastTimer@@QAEMXZ   10003e20 f   glib:fasttimer.obj
 0001:00002e90       ?print@fastTimer@@QAEXXZ   10003e90 f   glib:fasttimer.obj
 0001:00002f20       ??_ESerial@@UAEPAXI@Z      10003f20 f i * CIL library *:* CIL module *
 0001:00002f20       ??_GSerial@@UAEPAXI@Z      10003f20 f i glib:serial.obj
 0001:00002f80       ??0Serial@@QAE@PBD00HHHPAVLogger@@@Z 10003f80 f   glib:serial.obj
 0001:000030b0       ??0Serial@@QAE@_NPBD1HPAVLogger@@@Z 100040b0 f   glib:serial.obj
 0001:00003190       ??0Serial@@QAE@PBD0PAVLogger@@@Z 10004190 f   glib:serial.obj
 0001:00003250       ?Open@Serial@@AAEHPBD0H@Z  10004250 f   glib:serial.obj
 0001:00003710       ?Close@Serial@@AAEXH@Z     10004710 f   glib:serial.obj
 0001:00003a30       ?DisplayOpenError@Serial@@AAEXH@Z 10004a30 f   glib:serial.obj
 0001:00003ac0       ?FlushBuffers@Serial@@AAEXXZ 10004ac0 f   glib:serial.obj
 0001:00003ac0       ?flush@Serial@@QAEXXZ      10004ac0 f   glib:serial.obj
 0001:00003b20       ?flushrx@Serial@@QAEXK@Z   10004b20 f   glib:serial.obj
 0001:00003bc0       ?txx@Serial@@QAEXPAEH@Z    10004bc0 f   glib:serial.obj
 0001:00003c20       ?txThread@Serial@@CAXPAX@Z 10004c20 f   glib:serial.obj
 0001:00004050       ?rx@Serial@@QAEHPADH@Z     10005050 f   glib:serial.obj
 0001:000040b0       ?rxThread@Serial@@CAXPAX@Z 100050b0 f   glib:serial.obj
 0001:00004480       ?process_events@Serial@@AAEXK@Z 10005480 f   glib:serial.obj
 0001:000045f0       ?send@Serial@@QAEXPADH@Z   100055f0 f   glib:serial.obj
 0001:00004660       ?expect@Serial@@QAEHPADK@Z 10005660 f   glib:serial.obj
 0001:00004740       ?destroy@Serial@@AAEXXZ    10005740 f   glib:serial.obj
 0001:000047e0       ?get_port_name@Serial@@QAEPBDXZ 100057e0 f   glib:serial.obj
 0001:000047f0       ??_EIni@@UAEPAXI@Z         100057f0 f i glib:ini.obj
 0001:000048a0       ??0Ini@@QAE@PBD@Z          100058a0 f   glib:ini.obj
 0001:00004a10       ??1Ini@@UAE@XZ             10005a10 f   glib:ini.obj
 0001:00004a20       ?getBool@Ini@@QAE_NPBD0_N@Z 10005a20 f   glib:ini.obj
 0001:00004af0       ?getBool@Ini@@QAE_NPBD_N@Z 10005af0 f   glib:ini.obj
 0001:00004bc0       ?getBool@Ini@@QAE_NPBD00@Z 10005bc0 f   glib:ini.obj
 0001:00004c50       ?getBool@Ini@@QAE_NPBD00_N@Z 10005c50 f   glib:ini.obj
 0001:00004ce0       ?getBool@Ini@@QAE_NPBD0_N1@Z 10005ce0 f   glib:ini.obj
 0001:00004d80       ?getFloat@Ini@@QAEMPBDM@Z  10005d80 f   glib:ini.obj
 0001:00004e20       ?getFloat@Ini@@QAEMPBD0M@Z 10005e20 f   glib:ini.obj
 0001:00004eb0       ?getFloat@Ini@@QAEMPBD00@Z 10005eb0 f   glib:ini.obj
 0001:00004f10       ?getFloat@Ini@@QAEMPBD00_N@Z 10005f10 f   glib:ini.obj
 0001:00004f70       ?getInt@Ini@@QAEHPBD0@Z    10005f70 f   glib:ini.obj
 0001:00004fe0       ?getInt@Ini@@QAEHPBDH@Z    10005fe0 f   glib:ini.obj
 0001:00005040       ?getInt@Ini@@QAEHPBD00@Z   10006040 f   glib:ini.obj
 0001:000050a0       ?getInt@Ini@@QAEHPBD00_N@Z 100060a0 f   glib:ini.obj
 0001:00005100       ?getInt@Ini@@QAEHPBD0H_N@Z 10006100 f   glib:ini.obj
 0001:00005170       ?getul@Ini@@QAEKPBD0K_N@Z  10006170 f   glib:ini.obj
 0001:000051f0       ?getString@Ini@@QAEPBDPBD00@Z 100061f0 f   glib:ini.obj
 0001:00005240       ?getString@Ini@@QAEPBDPBD0@Z 10006240 f   glib:ini.obj
 0001:000052b0       ?getString@Ini@@QAEPBDPBD00_N@Z 100062b0 f   glib:ini.obj
 0001:00005310       ?writeString@Ini@@QAEXPBD00@Z 10006310 f   glib:ini.obj
 0001:00005330       ?writeBool@Ini@@QAEXPBD0H@Z 10006330 f   glib:ini.obj
 0001:00005370       ?writeBool@Ini@@QAEXPBDH@Z 10006370 f   glib:ini.obj
 0001:000053c0       ?set_section@Ini@@QAEXPBD@Z 100063c0 f   glib:ini.obj
 0001:000053e0       ?writeInt@Ini@@QAEXPBD0H@Z 100063e0 f   glib:ini.obj
 0001:00005440       ?writeInt@Ini@@QAEXPBDH@Z  10006440 f   glib:ini.obj
 0001:000054a0       ?writeul@Ini@@QAEXPBD0K@Z  100064a0 f   glib:ini.obj
 0001:00005500       ?write_long_hex@Ini@@QAEXPBD0K@Z 10006500 f   glib:ini.obj
 0001:00005560       ?writeFloat@Ini@@QAEXPBD0M@Z 10006560 f   glib:ini.obj
 0001:000055c0       ?writeFloat@Ini@@QAEXPBDM@Z 100065c0 f   glib:ini.obj
 0001:00005620       ?getName@Ini@@QAEPBDXZ     10006620 f   glib:ini.obj
 0001:00005630       ?clear_section@Ini@@QAEXPBD@Z 10006630 f   glib:ini.obj
 0001:000057c0       ?get_long_hex@Ini@@QAEKPBD0K_N@Z 100067c0 f   glib:ini.obj
 0001:00005860       ??_EErr@@UAEPAXI@Z         10006860 f i glib:err.obj
 0001:00005910       ??0Err@@QAE@XZ             10006910 f   glib:err.obj
 0001:00005950       ??1Err@@UAE@XZ             10006950 f   glib:err.obj
 0001:00005960       ??1mutex@tthread@@QAE@XZ   10006960 f i tinythread++:tinythread.obj
 0001:00005970       ?wrapper_function@thread@tthread@@CGIPAX@Z 10006970 f   tinythread++:tinythread.obj
 0001:00005a20       ??0thread@tthread@@QAE@P6AXPAX@Z0@Z 10006a20 f   tinythread++:tinythread.obj
 0001:00005b00       ??1thread@tthread@@QAE@XZ  10006b00 f   tinythread++:tinythread.obj
 0001:00005b60       ?join@thread@tthread@@QAEXXZ 10006b60 f   tinythread++:tinythread.obj
 0001:00005bd0       ??1?$lock_guard@Vmutex@tthread@@@tthread@@QAE@XZ 10006bd0 f i tinythread++:tinythread.obj
 0001:00005bf0       ?set_ftp@qtFormula@@QAEXM@Z 10006bf0 f i dll.obj
 0001:00005bf0       ?set_ftp@Formula@@QAEXM@Z  10006bf0 f i tlib:formula.obj
 0001:00005c10       ?get_ftp@qtFormula@@QAEMXZ 10006c10 f i dll.obj
 0001:00005c10       ?get_ftp@Formula@@QAEMXZ   10006c10 f i tlib:formula.obj
 0001:00005c20       ?get_x_np@qtFormula@@QAEMXZ 10006c20 f i dll.obj
 0001:00005c20       ?get_x_np@Formula@@QAEMXZ  10006c20 f i tlib:formula.obj
 0001:00005c30       ?get_x_tss@Formula@@QAEMXZ 10006c30 f i tlib:formula.obj
 0001:00005c30       ?get_x_tss@qtFormula@@QAEMXZ 10006c30 f i dll.obj
 0001:00005c40       ?get_x_if@qtFormula@@QAEMXZ 10006c40 f i dll.obj
 0001:00005c40       ?get_x_if@Formula@@QAEMXZ  10006c40 f i tlib:formula.obj
 0001:00005c50       ?get_avg_watts@Formula@@QAEMXZ 10006c50 f i tlib:formula.obj
 0001:00005c50       ?get_avg_watts@qtFormula@@QAEMXZ 10006c50 f i dll.obj
 0001:00005c60       ??0Formula@@QAE@ABV0@@Z    10006c60 f i tlib:formula.obj
 0001:00005d20       ??4Formula@@QAEAAV0@ABV0@@Z 10006d20 f i tlib:formula.obj
 0001:00005f90       ??_FFormula@@QAEXXZ        10006f90 f i tlib:formula.obj
 0001:00005fa0       ??_EFormula@@UAEPAXI@Z     10006fa0 f i tlib:formula.obj
 0001:000060a0       ??0Formula@@QAE@M@Z        100070a0 f   tlib:formula.obj
 0001:00006210       ??1Formula@@UAE@XZ         10007210 f   tlib:formula.obj
 0001:000062a0       ?reset@Formula@@QAEXXZ     100072a0 f   tlib:formula.obj
 0001:00006320       ?calc@Formula@@QAEXM@Z     10007320 f   tlib:formula.obj
 0001:00006370       ?push_back@?$deque@UFORMULA_PAIR@@V?$allocator@UFORMULA_PAIR@@@std@@@std@@QAEXABUFORMULA_PAIR@@@Z 10007370 f i tlib:formula.obj
 0001:00006370       ??$emplace_back@ABUFORMULA_PAIR@@@?$deque@UFORMULA_PAIR@@V?$allocator@UFORMULA_PAIR@@@std@@@std@@QAEXABUFORMULA_PAIR@@@Z 10007370 f i tlib:formula.obj
 0001:00006400       ?pop_front@?$deque@NV?$allocator@N@std@@@std@@QAEXXZ 10007400 f i tlib:velotron.obj
 0001:00006400       ?pop_front@?$deque@UFORMULA2_PAIR@@V?$allocator@UFORMULA2_PAIR@@@std@@@std@@QAEXXZ 10007400 f i dll.obj
 0001:00006400       ?pop_front@?$deque@UFORMULA_PAIR@@V?$allocator@UFORMULA_PAIR@@@std@@@std@@QAEXXZ 10007400 f i tlib:formula.obj
 0001:00006420       ??1?$deque@UFORMULA_PAIR@@V?$allocator@UFORMULA_PAIR@@@std@@@std@@QAE@XZ 10007420 f i tlib:formula.obj
 0001:00006420       ??1?$deque@NV?$allocator@N@std@@@std@@QAE@XZ 10007420 f i tlib:velotron.obj
 0001:00006440       ??0?$deque@UFORMULA_PAIR@@V?$allocator@UFORMULA_PAIR@@@std@@@std@@QAE@ABV01@@Z 10007440 f i tlib:formula.obj
 0001:000064f0       ??H?$_Deque_const_iterator@V?$_Deque_val@U?$_Deque_simple_types@N@std@@@std@@@std@@QBE?AV01@H@Z 100074f0 f i tlib:velotron.obj
 0001:000064f0       ??H?$_Deque_iterator@V?$_Deque_val@U?$_Deque_simple_types@N@std@@@std@@@std@@QBE?AV01@H@Z 100074f0 f i tlib:velotron.obj
 0001:000064f0       ??H?$_Deque_iterator@V?$_Deque_val@U?$_Deque_simple_types@UFORMULA_PAIR@@@std@@@std@@@std@@QBE?AV01@H@Z 100074f0 f i tlib:formula.obj
 0001:000064f0       ??H?$_Deque_iterator@V?$_Deque_val@U?$_Deque_simple_types@UFORMULA2_PAIR@@@std@@@std@@@std@@QBE?AV01@H@Z 100074f0 f i dll.obj
 0001:000064f0       ??H?$_Deque_const_iterator@V?$_Deque_val@U?$_Deque_simple_types@UFORMULA2_PAIR@@@std@@@std@@@std@@QBE?AV01@H@Z 100074f0 f i dll.obj
 0001:000064f0       ??H?$_Deque_const_iterator@V?$_Deque_val@U?$_Deque_simple_types@UFORMULA_PAIR@@@std@@@std@@@std@@QBE?AV01@H@Z 100074f0 f i tlib:formula.obj
 0001:00006530       ??1?$_Deque_alloc@U?$_Deque_base_types@UFORMULA_PAIR@@V?$allocator@UFORMULA_PAIR@@@std@@@std@@@std@@QAE@XZ 10007530 f i tlib:formula.obj
 0001:00006530       ??1?$_Deque_alloc@U?$_Deque_base_types@NV?$allocator@N@std@@@std@@@std@@QAE@XZ 10007530 f i tlib:velotron.obj
 0001:00006550       ?_Tidy@?$deque@NV?$allocator@N@std@@@std@@IAEXXZ 10007550 f i tlib:velotron.obj
 0001:00006550       ?_Tidy@?$deque@UTCRF@@V?$allocator@UTCRF@@@std@@@std@@IAEXXZ 10007550 f i rmg:crf.obj
 0001:00006550       ?_Tidy@?$deque@UFORMULA2_PAIR@@V?$allocator@UFORMULA2_PAIR@@@std@@@std@@IAEXXZ 10007550 f i dll.obj
 0001:00006550       ?_Tidy@?$deque@UFORMULA_PAIR@@V?$allocator@UFORMULA_PAIR@@@std@@@std@@IAEXXZ 10007550 f i tlib:formula.obj
 0001:00006610       ?_Growmap@?$deque@NV?$allocator@N@std@@@std@@IAEXI@Z 10007610 f i tlib:velotron.obj
 0001:00006610       ?_Growmap@?$deque@UFORMULA_PAIR@@V?$allocator@UFORMULA_PAIR@@@std@@@std@@IAEXI@Z 10007610 f i tlib:formula.obj
 0001:00006760       ?erase@?$deque@UFORMULA_PAIR@@V?$allocator@UFORMULA_PAIR@@@std@@@std@@QAE?AV?$_Deque_iterator@V?$_Deque_val@U?$_Deque_simple_types@UFORMULA_PAIR@@@std@@@std@@@2@V?$_Deque_const_iterator@V?$_Deque_val@U?$_Deque_simple_types@UFORMULA_PAIR@@@std@@@std@@@2@0@Z 10007760 f i tlib:formula.obj
 0001:00006930       ?end@?$deque@UFORMULA_PAIR@@V?$allocator@UFORMULA_PAIR@@@std@@@std@@QAE?AV?$_Deque_iterator@V?$_Deque_val@U?$_Deque_simple_types@UFORMULA_PAIR@@@std@@@std@@@2@XZ 10007930 f i tlib:formula.obj
 0001:00006930       ?end@?$deque@NV?$allocator@N@std@@@std@@QAE?AV?$_Deque_iterator@V?$_Deque_val@U?$_Deque_simple_types@N@std@@@std@@@2@XZ 10007930 f i tlib:velotron.obj
 0001:00006930       ?end@?$deque@UFORMULA_PAIR@@V?$allocator@UFORMULA_PAIR@@@std@@@std@@QBE?AV?$_Deque_const_iterator@V?$_Deque_val@U?$_Deque_simple_types@UFORMULA_PAIR@@@std@@@std@@@2@XZ 10007930 f i tlib:formula.obj
 0001:00006930       ?end@?$deque@UFORMULA2_PAIR@@V?$allocator@UFORMULA2_PAIR@@@std@@@std@@QAE?AV?$_Deque_iterator@V?$_Deque_val@U?$_Deque_simple_types@UFORMULA2_PAIR@@@std@@@std@@@2@XZ 10007930 f i dll.obj
 0001:00006930       ?end@?$deque@NV?$allocator@N@std@@@std@@QBE?AV?$_Deque_const_iterator@V?$_Deque_val@U?$_Deque_simple_types@N@std@@@std@@@2@XZ 10007930 f i tlib:velotron.obj
 0001:00006930       ?end@?$deque@UFORMULA2_PAIR@@V?$allocator@UFORMULA2_PAIR@@@std@@@std@@QBE?AV?$_Deque_const_iterator@V?$_Deque_val@U?$_Deque_simple_types@UFORMULA2_PAIR@@@std@@@std@@@2@XZ 10007930 f i dll.obj
 0001:00006950       ?begin@?$deque@UFORMULA_PAIR@@V?$allocator@UFORMULA_PAIR@@@std@@@std@@QAE?AV?$_Deque_iterator@V?$_Deque_val@U?$_Deque_simple_types@UFORMULA_PAIR@@@std@@@std@@@2@XZ 10007950 f i tlib:formula.obj
 0001:00006950       ?begin@?$deque@UFORMULA_PAIR@@V?$allocator@UFORMULA_PAIR@@@std@@@std@@QBE?AV?$_Deque_const_iterator@V?$_Deque_val@U?$_Deque_simple_types@UFORMULA_PAIR@@@std@@@std@@@2@XZ 10007950 f i tlib:formula.obj
 0001:00006950       ?begin@?$deque@NV?$allocator@N@std@@@std@@QBE?AV?$_Deque_const_iterator@V?$_Deque_val@U?$_Deque_simple_types@N@std@@@std@@@2@XZ 10007950 f i tlib:velotron.obj
 0001:00006950       ?begin@?$deque@UFORMULA2_PAIR@@V?$allocator@UFORMULA2_PAIR@@@std@@@std@@QAE?AV?$_Deque_iterator@V?$_Deque_val@U?$_Deque_simple_types@UFORMULA2_PAIR@@@std@@@std@@@2@XZ 10007950 f i dll.obj
 0001:00006950       ?begin@?$deque@NV?$allocator@N@std@@@std@@QAE?AV?$_Deque_iterator@V?$_Deque_val@U?$_Deque_simple_types@N@std@@@std@@@2@XZ 10007950 f i tlib:velotron.obj
 0001:00006950       ?begin@?$deque@UFORMULA2_PAIR@@V?$allocator@UFORMULA2_PAIR@@@std@@@std@@QBE?AV?$_Deque_const_iterator@V?$_Deque_val@U?$_Deque_simple_types@UFORMULA2_PAIR@@@std@@@std@@@2@XZ 10007950 f i dll.obj
 0001:00006970       ?deallocate@?$_Wrap_alloc@V?$allocator@UGEARINFO@@@std@@@std@@QAEXPAUGEARINFO@@I@Z 10007970 f i tlib:rtd.obj
 0001:00006970       ?deallocate@?$_Wrap_alloc@V?$allocator@PAN@std@@@std@@QAEXPAPANI@Z 10007970 f i tlib:velotron.obj
 0001:00006970       ?deallocate@?$_Wrap_alloc@V?$allocator@M@std@@@std@@QAEXPAMI@Z 10007970 f i tlib:computrainer.obj
 0001:00006970       ?deallocate@?$_Wrap_alloc@V?$allocator@PAUFORMULA_PAIR@@@std@@@std@@QAEXPAPAUFORMULA_PAIR@@I@Z 10007970 f i tlib:formula.obj
 0001:000069d0       ?allocate@?$_Wrap_alloc@V?$allocator@PAUFORMULA_PAIR@@@std@@@std@@QAEPAPAUFORMULA_PAIR@@I@Z 100079d0 f i tlib:formula.obj
 0001:000069d0       ?allocate@?$_Wrap_alloc@V?$allocator@PAN@std@@@std@@QAEPAPANI@Z 100079d0 f i tlib:velotron.obj
 0001:00006a30       ?_Make_iter@?$deque@UFORMULA_PAIR@@V?$allocator@UFORMULA_PAIR@@@std@@@std@@QBE?AV?$_Deque_iterator@V?$_Deque_val@U?$_Deque_simple_types@UFORMULA_PAIR@@@std@@@std@@@2@V?$_Deque_const_iterator@V?$_Deque_val@U?$_Deque_simple_types@UFORMULA_PAIR@@@std@@@std@@@2@@Z 10007a30 f i tlib:formula.obj
 0001:00006a30       ?_Make_iter@?$deque@UFORMULA2_PAIR@@V?$allocator@UFORMULA2_PAIR@@@std@@@std@@QBE?AV?$_Deque_iterator@V?$_Deque_val@U?$_Deque_simple_types@UFORMULA2_PAIR@@@std@@@std@@@2@V?$_Deque_const_iterator@V?$_Deque_val@U?$_Deque_simple_types@UFORMULA2_PAIR@@@std@@@std@@@2@@Z 10007a30 f i dll.obj
 0001:00006a30       ?_Make_iter@?$deque@NV?$allocator@N@std@@@std@@QBE?AV?$_Deque_iterator@V?$_Deque_val@U?$_Deque_simple_types@N@std@@@std@@@2@V?$_Deque_const_iterator@V?$_Deque_val@U?$_Deque_simple_types@N@std@@@std@@@2@@Z 10007a30 f i tlib:velotron.obj
 0001:00006a60       ??$copy@V?$_Deque_const_iterator@V?$_Deque_val@U?$_Deque_simple_types@UFORMULA_PAIR@@@std@@@std@@@std@@V?$_Deque_iterator@V?$_Deque_val@U?$_Deque_simple_types@UFORMULA_PAIR@@@std@@@std@@@2@@std@@YA?AV?$_Deque_iterator@V?$_Deque_val@U?$_Deque_simple_types@UFORMULA_PAIR@@@std@@@std@@@0@V?$_Deque_const_iterator@V?$_Deque_val@U?$_Deque_simple_types@UFORMULA_PAIR@@@std@@@std@@@0@0V10@@Z 10007a60 f i tlib:formula.obj
 0001:00006a60       ??$move@V?$_Deque_iterator@V?$_Deque_val@U?$_Deque_simple_types@UFORMULA_PAIR@@@std@@@std@@@std@@V12@@std@@YA?AV?$_Deque_iterator@V?$_Deque_val@U?$_Deque_simple_types@UFORMULA_PAIR@@@std@@@std@@@0@V10@00@Z 10007a60 f i tlib:formula.obj
 0001:00006b00       ??$insert@V?$_Deque_const_iterator@V?$_Deque_val@U?$_Deque_simple_types@UFORMULA_PAIR@@@std@@@std@@@std@@@?$deque@UFORMULA_PAIR@@V?$allocator@UFORMULA_PAIR@@@std@@@std@@QAE?AV?$_Deque_iterator@V?$_Deque_val@U?$_Deque_simple_types@UFORMULA_PAIR@@@std@@@std@@@1@V?$_Deque_const_iterator@V?$_Deque_val@U?$_Deque_simple_types@UFORMULA_PAIR@@@std@@@std@@@1@00@Z 10007b00 f i tlib:formula.obj
 0001:00006d30       ??$_Construct@V?$_Deque_const_iterator@V?$_Deque_val@U?$_Deque_simple_types@UFORMULA_PAIR@@@std@@@std@@@std@@@?$deque@UFORMULA_PAIR@@V?$allocator@UFORMULA_PAIR@@@std@@@std@@QAEXV?$_Deque_const_iterator@V?$_Deque_val@U?$_Deque_simple_types@UFORMULA_PAIR@@@std@@@std@@@1@0@Z 10007d30 f i tlib:formula.obj
 0001:00006dd0       ??$move_backward@V?$_Deque_iterator@V?$_Deque_val@U?$_Deque_simple_types@UFORMULA_PAIR@@@std@@@std@@@std@@V12@@std@@YA?AV?$_Deque_iterator@V?$_Deque_val@U?$_Deque_simple_types@UFORMULA_PAIR@@@std@@@std@@@0@V10@00@Z 10007dd0 f i tlib:formula.obj
 0001:00006e60       ?update@Decoder@@UAEXM@Z   10007e60 f i tlib:decoder.obj
 0001:00006e60       ?setConstantWatts@dataSource@@UAEXM@Z 10007e60 f i tlib:datasource.obj
 0001:00006e60       ?emergencyStop@dataSource@@UAEXH@Z 10007e60 f i tlib:datasource.obj
 0001:00006e60       ?setPhysicsMode@dataSource@@UAEXH@Z 10007e60 f i tlib:datasource.obj
 0001:00006e60       ??$destroy@PAU?$_List_node@U?$pair@$$CBV?$basic_string@DU?$char_traits@D@std@@V?$allocator@D@2@@std@@G@std@@PAX@std@@@?$_Wrap_alloc@V?$allocator@U?$_List_node@U?$pair@$$CBV?$basic_string@DU?$char_traits@D@std@@V?$allocator@D@2@@std@@G@std@@PAX@std@@@std@@@std@@QAEXPAPAU?$_List_node@U?$pair@$$CBV?$basic_string@DU?$char_traits@D@std@@V?$allocator@D@2@@std@@G@std@@PAX@1@@Z 10007e60 f i dll_globals.obj
 0001:00006e60       ?setShutDownDelay@dataSource@@UAEXK@Z 10007e60 f i tlib:datasource.obj
 0001:00006e60       ?keydown@dataSource@@UAEXI@Z 10007e60 f i tlib:datasource.obj
 0001:00006e60       ?setConstantCurrent@dataSource@@UAEXM@Z 10007e60 f i tlib:datasource.obj
 0001:00006e60       ?set_grade@dataSource@@UAEXM@Z 10007e60 f i tlib:datasource.obj
 0001:00006e60       ?setkgs@dataSource@@UAEXM@Z 10007e60 f i tlib:datasource.obj
 0001:00006e60       ?setTimeout@dataSource@@UAEXK@Z 10007e60 f i tlib:datasource.obj
 0001:00006e60       ?set_manual_mph@Decoder@@UAEXM@Z 10007e60 f i tlib:decoder.obj
 0001:00006e60       ?set_physics_pause@Decoder@@UAEX_N@Z 10007e60 f i tlib:decoder.obj
 0001:00006e60       ??$destroy@PAU?$_List_node@U?$pair@$$CBV?$basic_string@DU?$char_traits@D@std@@V?$allocator@D@2@@std@@VDEVICE@@@std@@PAX@std@@@?$_Wrap_alloc@V?$allocator@U?$_List_node@U?$pair@$$CBV?$basic_string@DU?$char_traits@D@std@@V?$allocator@D@2@@std@@VDEVICE@@@std@@PAX@std@@@std@@@std@@QAEXPAPAU?$_List_node@U?$pair@$$CBV?$basic_string@DU?$char_traits@D@std@@V?$allocator@D@2@@std@@VDEVICE@@@std@@PAX@1@@Z 10007e60 f i dll_globals.obj
 0001:00006e60       ?set_manual_mph@dataSource@@UAEXM@Z 10007e60 f i tlib:datasource.obj
 0001:00006e60       ?set_performance_file_name_x@dataSource@@UAEXPBD@Z 10007e60 f i tlib:datasource.obj
 0001:00006e60       ??$destroy@U_Container_proxy@std@@@?$_Wrap_alloc@V?$allocator@U_Container_proxy@std@@@std@@@std@@QAEXPAU_Container_proxy@1@@Z 10007e60 f i tlib:formula.obj
 0001:00006e60       ?set_ftp@UDPClient@RACERMATE@@QAEXM@Z 10007e60 f i ctsrv:udp_client.obj
 0001:00006e60       ?end_cal@dataSource@@UAEXE@Z 10007e60 f i tlib:datasource.obj
 0001:00006e70       ?push_front@?$deque@UFORMULA_PAIR@@V?$allocator@UFORMULA_PAIR@@@std@@@std@@QAEXABUFORMULA_PAIR@@@Z 10007e70 f i tlib:formula.obj
 0001:00006f00       ??$_Move_no_deprecate@V?$_Deque_iterator@V?$_Deque_val@U?$_Deque_simple_types@UFORMULA_PAIR@@@std@@@std@@@std@@V12@@std@@YA?AV?$_Deque_iterator@V?$_Deque_val@U?$_Deque_simple_types@UFORMULA_PAIR@@@std@@@std@@@0@V10@00@Z 10007f00 f i tlib:formula.obj
 0001:00006f00       ??$_Copy_no_deprecate@V?$_Deque_const_iterator@V?$_Deque_val@U?$_Deque_simple_types@UFORMULA_PAIR@@@std@@@std@@@std@@V?$_Deque_iterator@V?$_Deque_val@U?$_Deque_simple_types@UFORMULA_PAIR@@@std@@@std@@@2@@std@@YA?AV?$_Deque_iterator@V?$_Deque_val@U?$_Deque_simple_types@UFORMULA_PAIR@@@std@@@std@@@0@V?$_Deque_const_iterator@V?$_Deque_val@U?$_Deque_simple_types@UFORMULA_PAIR@@@std@@@std@@@0@0V10@@Z 10007f00 f i tlib:formula.obj
 0001:00006f90       ??$reverse@V?$_Deque_iterator@V?$_Deque_val@U?$_Deque_simple_types@UFORMULA_PAIR@@@std@@@std@@@std@@@std@@YAXV?$_Deque_iterator@V?$_Deque_val@U?$_Deque_simple_types@UFORMULA_PAIR@@@std@@@std@@@0@0@Z 10007f90 f i tlib:formula.obj
 0001:00006ff0       ??$rotate@V?$_Deque_iterator@V?$_Deque_val@U?$_Deque_simple_types@UFORMULA_PAIR@@@std@@@std@@@std@@@std@@YA?AV?$_Deque_iterator@V?$_Deque_val@U?$_Deque_simple_types@UFORMULA_PAIR@@@std@@@std@@@0@V10@00@Z 10007ff0 f i tlib:formula.obj
 0001:000070c0       ??$_Move_backward1@V?$_Deque_unchecked_iterator@V?$_Deque_val@U?$_Deque_simple_types@UFORMULA_PAIR@@@std@@@std@@@std@@V?$_Deque_iterator@V?$_Deque_val@U?$_Deque_simple_types@UFORMULA_PAIR@@@std@@@std@@@2@@std@@YA?AV?$_Deque_iterator@V?$_Deque_val@U?$_Deque_simple_types@UFORMULA_PAIR@@@std@@@std@@@0@V?$_Deque_unchecked_iterator@V?$_Deque_val@U?$_Deque_simple_types@UFORMULA_PAIR@@@std@@@std@@@0@0V10@Urandom_access_iterator_tag@0@2@Z 100080c0 f i tlib:formula.obj
 0001:00007140       ??$_Copy_no_deprecate1@V?$_Deque_unchecked_const_iterator@V?$_Deque_val@U?$_Deque_simple_types@UFORMULA_PAIR@@@std@@@std@@@std@@V?$_Deque_iterator@V?$_Deque_val@U?$_Deque_simple_types@UFORMULA_PAIR@@@std@@@std@@@2@@std@@YA?AV?$_Deque_iterator@V?$_Deque_val@U?$_Deque_simple_types@UFORMULA_PAIR@@@std@@@std@@@0@V?$_Deque_unchecked_const_iterator@V?$_Deque_val@U?$_Deque_simple_types@UFORMULA_PAIR@@@std@@@std@@@0@0V10@Urandom_access_iterator_tag@0@2@Z 10008140 f i tlib:formula.obj
 0001:00007140       ??$_Move_no_deprecate1@V?$_Deque_unchecked_iterator@V?$_Deque_val@U?$_Deque_simple_types@UFORMULA_PAIR@@@std@@@std@@@std@@V?$_Deque_iterator@V?$_Deque_val@U?$_Deque_simple_types@UFORMULA_PAIR@@@std@@@std@@@2@@std@@YA?AV?$_Deque_iterator@V?$_Deque_val@U?$_Deque_simple_types@UFORMULA_PAIR@@@std@@@std@@@0@V?$_Deque_unchecked_iterator@V?$_Deque_val@U?$_Deque_simple_types@UFORMULA_PAIR@@@std@@@std@@@0@0V10@Urandom_access_iterator_tag@0@2@Z 10008140 f i tlib:formula.obj
 0001:000071c0       ??$_Reverse_unchecked@V?$_Deque_unchecked_iterator@V?$_Deque_val@U?$_Deque_simple_types@UFORMULA_PAIR@@@std@@@std@@@std@@@std@@YAXV?$_Deque_unchecked_iterator@V?$_Deque_val@U?$_Deque_simple_types@UFORMULA_PAIR@@@std@@@std@@@0@0@Z 100081c0 f i tlib:formula.obj
 0001:00007240       ??$_Rotate_unchecked1@V?$_Deque_unchecked_iterator@V?$_Deque_val@U?$_Deque_simple_types@UFORMULA_PAIR@@@std@@@std@@@std@@@std@@YA?AV?$_Deque_unchecked_iterator@V?$_Deque_val@U?$_Deque_simple_types@UFORMULA_PAIR@@@std@@@std@@@0@V10@00Urandom_access_iterator_tag@0@@Z 10008240 f i tlib:formula.obj
 0001:000072b0       ??$_Move_backward_unchecked1@V?$_Deque_unchecked_iterator@V?$_Deque_val@U?$_Deque_simple_types@UFORMULA_PAIR@@@std@@@std@@@std@@V12@@std@@YA?AV?$_Deque_unchecked_iterator@V?$_Deque_val@U?$_Deque_simple_types@UFORMULA_PAIR@@@std@@@std@@@0@V10@00U_General_ptr_iterator_tag@0@@Z 100082b0 f i tlib:formula.obj
 0001:000072b0       ??$_Move_backward_unchecked1@V?$_Deque_unchecked_iterator@V?$_Deque_val@U?$_Deque_simple_types@UFORMULA2_PAIR@@@std@@@std@@@std@@V12@@std@@YA?AV?$_Deque_unchecked_iterator@V?$_Deque_val@U?$_Deque_simple_types@UFORMULA2_PAIR@@@std@@@std@@@0@V10@00U_General_ptr_iterator_tag@0@@Z 100082b0 f i dll.obj
 0001:00007320       ??$_Move_unchecked1@V?$_Deque_unchecked_iterator@V?$_Deque_val@U?$_Deque_simple_types@UFORMULA_PAIR@@@std@@@std@@@std@@V12@@std@@YA?AV?$_Deque_unchecked_iterator@V?$_Deque_val@U?$_Deque_simple_types@UFORMULA_PAIR@@@std@@@std@@@0@V10@00U_General_ptr_iterator_tag@0@@Z 10008320 f i tlib:formula.obj
 0001:00007320       ??$_Copy_unchecked1@V?$_Deque_unchecked_const_iterator@V?$_Deque_val@U?$_Deque_simple_types@UFORMULA2_PAIR@@@std@@@std@@@std@@V?$_Deque_unchecked_iterator@V?$_Deque_val@U?$_Deque_simple_types@UFORMULA2_PAIR@@@std@@@std@@@2@@std@@YA?AV?$_Deque_unchecked_iterator@V?$_Deque_val@U?$_Deque_simple_types@UFORMULA2_PAIR@@@std@@@std@@@0@V?$_Deque_unchecked_const_iterator@V?$_Deque_val@U?$_Deque_simple_types@UFORMULA2_PAIR@@@std@@@std@@@0@0V10@U_General_ptr_iterator_tag@0@@Z 10008320 f i dll.obj
 0001:00007320       ??$_Copy_unchecked1@V?$_Deque_unchecked_const_iterator@V?$_Deque_val@U?$_Deque_simple_types@UFORMULA_PAIR@@@std@@@std@@@std@@V?$_Deque_unchecked_iterator@V?$_Deque_val@U?$_Deque_simple_types@UFORMULA_PAIR@@@std@@@std@@@2@@std@@YA?AV?$_Deque_unchecked_iterator@V?$_Deque_val@U?$_Deque_simple_types@UFORMULA_PAIR@@@std@@@std@@@0@V?$_Deque_unchecked_const_iterator@V?$_Deque_val@U?$_Deque_simple_types@UFORMULA_PAIR@@@std@@@std@@@0@0V10@U_General_ptr_iterator_tag@0@@Z 10008320 f i tlib:formula.obj
 0001:00007320       ??$_Move_unchecked1@V?$_Deque_unchecked_iterator@V?$_Deque_val@U?$_Deque_simple_types@UFORMULA2_PAIR@@@std@@@std@@@std@@V12@@std@@YA?AV?$_Deque_unchecked_iterator@V?$_Deque_val@U?$_Deque_simple_types@UFORMULA2_PAIR@@@std@@@std@@@0@V10@00U_General_ptr_iterator_tag@0@@Z 10008320 f i dll.obj
 0001:000073a0       ??0Monarch@@QAE@ABV0@@Z    100083a0 f i tlib:monarch.obj
 0001:000074a0       ??4Monarch@@QAEAAV0@ABV0@@Z 100084a0 f i tlib:monarch.obj
 0001:000075a0       ??_FMonarch@@QAEXXZ        100085a0 f i tlib:monarch.obj
 0001:00007690       ??_EMonarch@@UAEPAXI@Z     10008690 f i tlib:monarch.obj
 0001:00007740       ??0Monarch@@QAE@N@Z        10008740 f   tlib:monarch.obj
 0001:00007830       ??1Monarch@@UAE@XZ         10008830 f   tlib:monarch.obj
 0001:00007840       ?set_dropped_weight@Monarch@@QAEXN@Z 10008840 f   tlib:monarch.obj
 0001:00007870       ?getfval@LPFilter@@QAENXZ  10008870 f i tlib:physics.obj
 0001:00007870       ?get_measured_ergo_watts@Physics@@QAENXZ 10008870 f i tlib:physics.obj
 0001:00007880       ?inc_factor@Physics@@QAEXXZ 10008880 f i tlib:physics.obj
 0001:000078e0       ?dec_factor@Physics@@QAEXXZ 100088e0 f i tlib:physics.obj
 0001:00007940       ?is_paused@Physics@@QAE_NXZ 10008940 f i tlib:physics.obj
 0001:00007950       ?set_paused@Physics@@QAEX_N@Z 10008950 f i tlib:physics.obj
 0001:00007960       ?getWindPowerConstant@Physics@@QAENXZ 10008960 f i tlib:physics.obj
 0001:00007970       ?getWindForceConstant@Physics@@QAENXZ 10008970 f i tlib:physics.obj
 0001:00007980       ?get_watts_factor@Physics@@QAENXZ 10008980 f i tlib:physics.obj
 0001:00007990       ?setwgif@Physics@@QAEX_N@Z 10008990 f i tlib:physics.obj
 0001:000079a0       ?setflip@Physics@@QAEX_N@Z 100089a0 f i tlib:physics.obj
 0001:000079b0       ?setifgain@Physics@@QAEXN@Z 100089b0 f i tlib:physics.obj
 0001:000079d0       ?set_watts_factor@Physics@@QAEXN@Z 100089d0 f i tlib:physics.obj
 0001:00007a40       ?getGrade@Physics@@QAENXZ  10008a40 f i tlib:physics.obj
 0001:00007a50       ??0Physics@@QAE@ABV0@@Z    10008a50 f i tlib:physics.obj
 0001:000083e0       ??4Physics@@QAEAAV0@ABV0@@Z 100093e0 f i tlib:physics.obj
 0001:00008e60       ??_EPhysics@@UAEPAXI@Z     10009e60 f i tlib:physics.obj
 0001:00008f20       ??0Physics@@QAE@PAVBike@@NN@Z 10009f20 f   tlib:physics.obj
 0001:00009cd0       ??1Physics@@UAE@XZ         1000acd0 f   tlib:physics.obj
 0001:00009d20       ?setDistance@Physics@@QAEXN@Z 1000ad20 f   tlib:physics.obj
 0001:00009d60       ?setmiles@Physics@@QAEXN@Z 1000ad60 f   tlib:physics.obj
 0001:00009da0       ?map@Physics@@AAEHNNNNPAN0@Z 1000ada0 f   tlib:physics.obj
 0001:00009e10       ?updatePicCurrent@Physics@@QAEXXZ 1000ae10 f   tlib:physics.obj
 0001:00009e40       ?computeMass@Physics@@QAEXXZ 1000ae40 f   tlib:physics.obj
 0001:00009e60       ?run@Physics@@QAEXXZ       1000ae60 f   tlib:physics.obj
 0001:00009fe0       ?computeAcceleration@Physics@@QAEHXZ 1000afe0 f   tlib:physics.obj
 0001:0000a350       ?gradeUp@Physics@@QAEXXZ   1000b350 f   tlib:physics.obj
 0001:0000a380       ?gradeDown@Physics@@QAEXXZ 1000b380 f   tlib:physics.obj
 0001:0000a3b0       ?getTableCurrent3@Physics@@AAENNN@Z 1000b3b0 f   tlib:physics.obj
 0001:0000a9f0       ?reset@Physics@@QAEXXZ     1000b9f0 f   tlib:physics.obj
 0001:0000aba0       ?resetIntegrators@Physics@@QAEXXZ 1000bba0 f   tlib:physics.obj
 0001:0000ac50       ?pause@Physics@@QAEXXZ     1000bc50 f   tlib:physics.obj
 0001:0000ac70       ?resume@Physics@@QAEXXZ    1000bc70 f   tlib:physics.obj
 0001:0000ac90       ?adjustCurrent@Physics@@AAEXXZ 1000bc90 f   tlib:physics.obj
 0001:0000ad40       ?ergoDegauss@Physics@@AAEXXZ 1000bd40 f   tlib:physics.obj
 0001:0000add0       ?windDegauss@Physics@@AAEXXZ 1000bdd0 f   tlib:physics.obj
 0001:0000ae90       ?manualLoadControl@Physics@@AAEXXZ 1000be90 f   tlib:physics.obj
 0001:0000b130       ?cleanup@Physics@@AAEXXZ   1000c130 f   tlib:physics.obj
 0001:0000b280       ?lowCurrent@Physics@@AAENNN@Z 1000c280 f   tlib:physics.obj
 0001:0000b470       ?getAcceleration@Physics@@QAENXZ 1000c470 f   tlib:physics.obj
 0001:0000b480       ?getRPM@Physics@@QAENXZ    1000c480 f   tlib:physics.obj
 0001:0000b490       ?getMPH@Physics@@QAENXZ    1000c490 f   tlib:physics.obj
 0001:0000b4a0       ?getWatts@Physics@@QAENXZ  1000c4a0 f   tlib:physics.obj
 0001:0000b4b0       ?getConstantWatts@Physics@@QAEMXZ 1000c4b0 f   tlib:physics.obj
 0001:0000b4c0       ?getDisplayedWatts@Physics@@QAENXZ 1000c4c0 f   tlib:physics.obj
 0001:0000b4d0       ?getPicCurrent@Physics@@QAENXZ 1000c4d0 f   tlib:physics.obj
 0001:0000b4f0       ?runWindLoad@Physics@@AAEXXZ 1000c4f0 f   tlib:physics.obj
 0001:0000ba60       ?runConstantCurrent@Physics@@AAEXXZ 1000ca60 f   tlib:physics.obj
 0001:0000bac0       ?setMode@Physics@@QAEXW4MODE@1@@Z 1000cac0 f   tlib:physics.obj
 0001:0000bad0       ?setConstantCurrent@Physics@@QAEXM@Z 1000cad0 f   tlib:physics.obj
 0001:0000baf0       ?writeState@Physics@@QAEXPAU_iobuf@@@Z 1000caf0 f   tlib:physics.obj
 0001:0000bc70       ?readState@Physics@@QAEXPAU_iobuf@@@Z 1000cc70 f   tlib:physics.obj
 0001:0000be10       ?setConstantWatts@Physics@@QAEXM@Z 1000ce10 f   tlib:physics.obj
 0001:0000be30       ?crowbarRPM@Physics@@QAEXXZ 1000ce30 f   tlib:physics.obj
 0001:0000be50       ?set_weight_lbs@Physics@@QAEXN@Z 1000ce50 f   tlib:physics.obj
 0001:0000be90       ?getTableWatts@Physics@@AAENNN@Z 1000ce90 f   tlib:physics.obj
 0001:0000c170       ?set_grade@Physics@@QAEXM@Z 1000d170 f   tlib:physics.obj
 0001:0000c1a0       ?set_constant_force@Physics@@QAEXN@Z 1000d1a0 f   tlib:physics.obj
 0001:0000c2f0       ?run_constant_force@Physics@@AAEXXZ 1000d2f0 f   tlib:physics.obj
 0001:0000c5d0       ??0Bike@@QAE@HPAUPARAMS@0@@Z 1000d5d0 f   tlib:bike.obj
 0001:0000c8c0       ??_GBike@@UAEPAXI@Z        1000d8c0 f i tlib:bike.obj
 0001:0000c8c0       ??_EBike@@UAEPAXI@Z        1000d8c0 f i * CIL library *:* CIL module *
 0001:0000c930       ??1Bike@@UAE@XZ            1000d930 f   tlib:bike.obj
 0001:0000c980       ?frontDown@Bike@@QAEXXZ    1000d980 f   tlib:bike.obj
 0001:0000c9e0       ?frontUp@Bike@@QAEXXZ      1000d9e0 f   tlib:bike.obj
 0001:0000ca40       ?setupVirtualGearInches@Bike@@AAEXXZ 1000da40 f   tlib:bike.obj
 0001:0000cd40       ?run@Bike@@QAEHXZ          1000dd40 f   tlib:bike.obj
 0001:0000ce60       ?upkeydown@Bike@@QAEXXZ    1000de60 f   tlib:bike.obj
 0001:0000cea0       ?upkeyup@Bike@@QAEHXZ      1000dea0 f   tlib:bike.obj
 0001:0000cf30       ?downkeyup@Bike@@QAEHXZ    1000df30 f   tlib:bike.obj
 0001:0000cfb0       ?downkeydown@Bike@@QAEXXZ  1000dfb0 f   tlib:bike.obj
 0001:0000cff0       ?set_gear@Bike@@QAEXHH@Z   1000dff0 f   tlib:bike.obj
 0001:0000d090       ??0RIDER_DATA@@QAE@XZ      1000e090 f i tlib:decoder.obj
 0001:0000d130       ??1RIDER_DATA@@QAE@XZ      1000e130 f i tlib:decoder.obj
 0001:0000d140       ??4PERSON_DATA@@QAEAAU0@ABU0@@Z 1000e140 f i tlib:decoder.obj
 0001:0000d280       ?getConstantWatts@dataSource@@UAEMXZ 1000e280 f i tlib:datasource.obj
 0001:0000d280       ?getGrade@dataSource@@UAENXZ 1000e280 f i tlib:datasource.obj
 0001:0000d280       ?get_ftp@UDPClient@RACERMATE@@QAEMXZ 1000e280 f i ctsrv:udp_client.obj
 0001:0000d280       ?getWatts@dataSource@@UAENXZ 1000e280 f i tlib:datasource.obj
 0001:0000d280       ?getTotalMiles@dataSource@@UAENXZ 1000e280 f i tlib:datasource.obj
 0001:0000d280       ?get_start_miles@dataSource@@UAEMXZ 1000e280 f i tlib:datasource.obj
 0001:0000d280       ?get_measured_ergo_watts@Decoder@@UAENXZ 1000e280 f i tlib:decoder.obj
 0001:0000d290       ?get_gear_pair@Decoder@@UAE?AUGEARPAIR@Bike@@XZ 1000e290 f i tlib:decoder.obj
 0001:0000d290       ?get_gear_pair@dataSource@@UAE?AUGEARPAIR@Bike@@XZ 1000e290 f i tlib:datasource.obj
 0001:0000d290       ?get_gear_indices@Decoder@@UAE?AUGEARPAIR@Bike@@XZ 1000e290 f i tlib:decoder.obj
 0001:0000d290       ?get_gear_indices_x@dataSource@@UAE?AUGEARPAIR@Bike@@XZ 1000e290 f i tlib:datasource.obj
 0001:0000d2b0       ?set_weight_lbs@Decoder@@UAEXN@Z 1000e2b0 f i tlib:decoder.obj
 0001:0000d2e0       ?set_weight_kgs@Decoder@@UAEXN@Z 1000e2e0 f i tlib:decoder.obj
 0001:0000d300       ?set_lower_hr@Decoder@@UAEXM@Z 1000e300 f i tlib:decoder.obj
 0001:0000d320       ?set_upper_hr@Decoder@@UAEXM@Z 1000e320 f i tlib:decoder.obj
 0001:0000d340       ?decode@Decoder@@UAEHPAEK@Z 1000e340 f i tlib:decoder.obj
 0001:0000d350       ?is_perf@dataSource@@UAE_NXZ 1000e350 f i tlib:datasource.obj
 0001:0000d350       ?get_physics_pause@Decoder@@UAE_NXZ 1000e350 f i tlib:decoder.obj
 0001:0000d350       ?getControlByte@dataSource@@UAEEXZ 1000e350 f i tlib:datasource.obj
 0001:0000d350       ?is_realtime@dataSource@@UAE_NXZ 1000e350 f i tlib:datasource.obj
 0001:0000d350       ?start_cal@dataSource@@UAEEXZ 1000e350 f i tlib:datasource.obj
 0001:0000d350       ?out_of_data@dataSource@@UAE_NXZ 1000e350 f i tlib:datasource.obj
 0001:0000d360       ?setDistance@Decoder@@UAEXM@Z 1000e360 f i tlib:decoder.obj
 0001:0000d3a0       ??0Decoder@@QAE@HPAVCourse@@AAVRIDER_DATA@@H@Z 1000e3a0 f   tlib:decoder.obj
 0001:0000da40       ??_GDecoder@@UAEPAXI@Z     1000ea40 f i tlib:decoder.obj
 0001:0000da40       ??_EDecoder@@UAEPAXI@Z     1000ea40 f i * CIL library *:* CIL module *
 0001:0000da70       ??4RIDER_DATA@@QAEAAV0@ABV0@@Z 1000ea70 f i tlib:decoder.obj
 0001:0000db00       ??1Decoder@@UAE@XZ         1000eb00 f   tlib:decoder.obj
 0001:0000dc10       ?reset_averages@Decoder@@QAEXXZ 1000ec10 f   tlib:decoder.obj
 0001:0000ddb0       ?reset@Decoder@@UAEXXZ     1000edb0 f   tlib:decoder.obj
 0001:0000dfd0       ?fill_in_mma@Decoder@@QAEXXZ 1000efd0 f   tlib:decoder.obj
 0001:0000e220       ?set_minmax@Decoder@@MAEXXZ 1000f220 f   tlib:decoder.obj
 0001:0000e370       ?set_watts_factor@Decoder@@UAEXM@Z 1000f370 f   tlib:decoder.obj
 0001:0000e390       ?peaks_and_averages@Decoder@@MAEXXZ 1000f390 f   tlib:decoder.obj
 0001:0000e900       ?compute_armed_rpm@Decoder@@IAEXXZ 1000f900 f   tlib:decoder.obj
 0001:0000e9d0       ?seed_avgs@Decoder@@QAEXXZ 1000f9d0 f   tlib:decoder.obj
 0001:0000ea40       ??0RESULT@@QAE@XZ          1000fa40 f i tlib:datasource.obj
 0001:0000eb30       ?jumpmiles@dataSource@@UAEHM@Z 1000fb30 f i tlib:datasource.obj
 0001:0000eb30       ?set_constant_force_x@dataSource@@UAEHM@Z 1000fb30 f i tlib:datasource.obj
 0001:0000eb30       ?addcourse@dataSource@@UAEHPBD@Z 1000fb30 f i tlib:datasource.obj
 0001:0000eb30       ?read@dataSource@@UAEHH@Z  1000fb30 f i tlib:datasource.obj
 0001:0000eb30       ?save@RTD@@MAEPAD_N@Z      1000fb30 f i tlib:computrainer.obj
 0001:0000eb30       ?updateHardware@dataSource@@UAEH_N@Z 1000fb30 f i tlib:datasource.obj
 0001:0000eb30       ?get_ant_cm@ANT@RACERMATE@@QAEKI@Z 1000fb30 f i rmant:ant.obj
 0001:0000eb40       ?getLastName@dataSource@@UAEPADXZ 1000fb40 f i tlib:datasource.obj
 0001:0000eb40       ?get_perf_file_name_x@dataSource@@UAEPBDXZ 1000fb40 f i tlib:datasource.obj
 0001:0000eb40       ?check_udp_keys@Ctsrv@RACERMATE@@QAEHXZ 1000fb40 f i ctsrv:ctsrv.obj
 0001:0000eb40       ?reset_stats@UDPClient@RACERMATE@@QAEHXZ 1000fb40 f i ctsrv:udp_client.obj
 0001:0000eb40       ?get_x_status_bits@dataSource@@UAEHXZ 1000fb40 f i tlib:datasource.obj
 0001:0000eb40       ?packetsAvailable@dataSource@@UAEHXZ 1000fb40 f i tlib:datasource.obj
 0001:0000eb40       ?getvidfile@dataSource@@UAEPADXZ 1000fb40 f i tlib:datasource.obj
 0001:0000eb40       ?get_physics_x@dataSource@@UAEPAVPhysics@@XZ 1000fb40 f i tlib:datasource.obj
 0001:0000eb40       ?getvidbase@dataSource@@UAEPADXZ 1000fb40 f i tlib:datasource.obj
 0001:0000eb40       ?get_x_accum_tdc@dataSource@@UAEHXZ 1000fb40 f i tlib:datasource.obj
 0001:0000eb40       ?reset@UDPClient@RACERMATE@@QAEHXZ 1000fb40 f i ctsrv:udp_client.obj
 0001:0000eb40       ?get_calibration_x@dataSource@@UAEHXZ 1000fb40 f i tlib:datasource.obj
 0001:0000eb40       __is_c_termination_complete 1000fb40 f i MSVCRT:ucrt_stubs.obj
 0001:0000eb40       _SetErgModeLoad            1000fb40 f i dll.obj
 0001:0000eb40       _ResetAlltoIdle            1000fb40 f i dll.obj
 0001:0000eb40       ___scrt_stub_for_is_c_termination_complete 1000fb40 f i MSVCRT:ucrt_stubs.obj
 0001:0000eb40       ?getFirstName@dataSource@@UAEPADXZ 1000fb40 f i tlib:datasource.obj
 0001:0000eb50       ?get_result@dataSource@@UAE?AURESULT@@XZ 1000fb50 f i tlib:datasource.obj
 0001:0000eb70       ?set_x_wind@dataSource@@UAEXM@Z 1000fb70 f i tlib:datasource.obj
 0001:0000eba0       ?get_physics_mode_x@dataSource@@UAE?AW4MODE@Physics@@XZ 1000fba0 f i tlib:datasource.obj
 0001:0000ebb0       ?get_computrainer_mode_x@dataSource@@UAEEXZ 1000fbb0 f i tlib:datasource.obj
 0001:0000ebb0       ?get_control_byte_x@dataSource@@UAEEXZ 1000fbb0 f i tlib:datasource.obj
 0001:0000ebc0       ?set_hr_bounds@dataSource@@UAEXHH_N@Z 1000fbc0 f i tlib:datasource.obj
 0001:0000ebd0       ?get_keys@dataSource@@UAEHXZ 1000fbd0 f i tlib:datasource.obj
 0001:0000ebd0       ?get_accum_keys@dataSource@@UAEHXZ 1000fbd0 f i tlib:datasource.obj
 0001:0000ebe0       ?seek@dataSource@@UAEHJ@Z  1000fbe0 f i tlib:datasource.obj
 0001:0000ebe0       ?myexport@dataSource@@UAEHPAD@Z 1000fbe0 f i tlib:datasource.obj
 0001:0000ebe0       ?getRecord@dataSource@@UAEHH@Z 1000fbe0 f i tlib:datasource.obj
 0001:0000ebe0       ?getPreviousRecord@dataSource@@UAEHK@Z 1000fbe0 f i tlib:datasource.obj
 0001:0000ebf0       ?getNextRecord@dataSource@@UAEHXZ 1000fbf0 f i tlib:datasource.obj
 0001:0000ebf0       _get_trainer_type          1000fbf0 f i dll.obj
 0001:0000ec00       ?get_nRecords@dataSource@@UAEHXZ 1000fc00 f i tlib:datasource.obj
 0001:0000ec10       ?getOffset@dataSource@@UAEJXZ 1000fc10 f i tlib:datasource.obj
 0001:0000ec20       ?remap@dataSource@@UAEXUtagRECT@@MM@Z 1000fc20 f i tlib:datasource.obj
 0001:0000ec30       ?pause@dataSource@@UAEXXZ  1000fc30 f i tlib:datasource.obj
 0001:0000ec40       ?resume@dataSource@@UAEXXZ 1000fc40 f i tlib:datasource.obj
 0001:0000ec50       ?set_draft_wind@dataSource@@UAEXM@Z 1000fc50 f i tlib:datasource.obj
 0001:0000ec70       ?get_draft_wind@dataSource@@UAEMXZ 1000fc70 f i tlib:datasource.obj
 0001:0000ec90       ?get_wind@dataSource@@UAEMXZ 1000fc90 f i tlib:datasource.obj
 0001:0000ecb0       ?save@dataSource@@UAEPAD_N0@Z 1000fcb0 f i tlib:datasource.obj
 0001:0000ecc0       ??0dataSource@@QAE@AAVRIDER_DATA@@PAVCourse@@PAVBike@@W4LoggingType@@@Z 1000fcc0 f   tlib:datasource.obj
 0001:0000edb0       ??_EdataSource@@UAEPAXI@Z  1000fdb0 f i * CIL library *:* CIL module *
 0001:0000edb0       ??_GdataSource@@UAEPAXI@Z  1000fdb0 f i tlib:datasource.obj
 0001:0000ede0       ??1dataSource@@UAE@XZ      1000fde0 f   tlib:datasource.obj
 0001:0000eec0       ?reset_averages@dataSource@@UAEXXZ 1000fec0 f   tlib:datasource.obj
 0001:0000eed0       ?set_export@dataSource@@QAEXPBD@Z 1000fed0 f   tlib:datasource.obj
 0001:0000ef10       ?init@dataSource@@AAEXXZ   1000ff10 f   tlib:datasource.obj
 0001:0000f1b0       ?set_x_ftp@dataSource@@QAEHM@Z 100101b0 f   tlib:datasource.obj
 0001:0000f1f0       ?set_logging_x@dataSource@@QAEXW4LoggingType@@@Z 100101f0 f   tlib:datasource.obj
 0001:0000f200       ?set_drag_factor@dataSource@@QAEXM@Z 10010200 f   tlib:datasource.obj
 0001:0000f230       ?iround@@YAHN@Z            10010230 f i tlib:ss.obj
 0001:0000f260       ??0SS@@QAE@XZ              10010260 f   tlib:ss.obj
 0001:0000f600       ??1SS@@QAE@XZ              10010600 f   tlib:ss.obj
 0001:0000f780       ?run@SS@@QAEMNNNPAUMETADATA@@@Z 10010780 f   tlib:ss.obj
 0001:0000fb00       ?load@SS@@AAEXN@Z          10010b00 f   tlib:ss.obj
 0001:00010020       ?filter@SS@@AAEXXZ         10011020 f   tlib:ss.obj
 0001:00010410       ?reset@SS@@QAEXXZ          10011410 f   tlib:ss.obj
 0001:00010640       ?do_ten_hz_filter@SS@@QAEXPAUMETADATA@@_N11@Z 10011640 f   tlib:ss.obj
 0001:00010bf0       ___acrt_initialize         10011bf0 f i MSVCRT:ucrt_stubs.obj
 0001:00010bf0       ___vcrt_uninitialize_critical 10011bf0 f i MSVCRT:ucrt_stubs.obj
 0001:00010bf0       ___scrt_stub_for_acrt_thread_detach 10011bf0 f i MSVCRT:ucrt_stubs.obj
 0001:00010bf0       ___scrt_stub_for_acrt_initialize 10011bf0 f i MSVCRT:ucrt_stubs.obj
 0001:00010bf0       ___scrt_stub_for_acrt_uninitialize_critical 10011bf0 f i MSVCRT:ucrt_stubs.obj
 0001:00010bf0       ___acrt_thread_attach      10011bf0 f i MSVCRT:ucrt_stubs.obj
 0001:00010bf0       ___acrt_uninitialize       10011bf0 f i MSVCRT:ucrt_stubs.obj
 0001:00010bf0       ___vcrt_uninitialize       10011bf0 f i MSVCRT:ucrt_stubs.obj
 0001:00010bf0       ___vcrt_thread_detach      10011bf0 f i MSVCRT:ucrt_stubs.obj
 0001:00010bf0       ?is_realtime@RTD@@UAE_NXZ  10011bf0 f i tlib:computrainer.obj
 0001:00010bf0       ___scrt_stub_for_acrt_thread_attach 10011bf0 f i MSVCRT:ucrt_stubs.obj
 0001:00010bf0       ___acrt_thread_detach      10011bf0 f i MSVCRT:ucrt_stubs.obj
 0001:00010bf0       ___vcrt_initialize         10011bf0 f i MSVCRT:ucrt_stubs.obj
 0001:00010bf0       ___scrt_stub_for_acrt_uninitialize 10011bf0 f i MSVCRT:ucrt_stubs.obj
 0001:00010bf0       ___acrt_uninitialize_critical 10011bf0 f i MSVCRT:ucrt_stubs.obj
 0001:00010bf0       ___vcrt_thread_attach      10011bf0 f i MSVCRT:ucrt_stubs.obj
 0001:00010c00       ?getConstantWatts@Computrainer@@UAEMXZ 10011c00 f i tlib:computrainer.obj
 0001:00010c10       ?get_physics_mode_x@Computrainer@@UAE?AW4MODE@Physics@@XZ 10011c10 f i tlib:computrainer.obj
 0001:00010c10       ?get_physics_mode@Velotron@@UAE?AW4MODE@Physics@@XZ 10011c10 f i tlib:velotron.obj
 0001:00010c20       ?get_control_byte_x@Computrainer@@UAEEXZ 10011c20 f i tlib:computrainer.obj
 0001:00010c20       ?get_computrainer_mode_x@Computrainer@@UAEEXZ 10011c20 f i tlib:computrainer.obj
 0001:00010c20       ?getControlByte@Computrainer@@UAEEXZ 10011c20 f i tlib:computrainer.obj
 0001:00010c30       ??0Computrainer@@QAE@PBDAAVRIDER_DATA@@PAVCourse@@PAVBike@@W4LoggingType@@0H@Z 10011c30 f   tlib:computrainer.obj
 0001:00010d70       ??_EComputrainer@@UAEPAXI@Z 10011d70 f i * CIL library *:* CIL module *
 0001:00010d70       ??_GComputrainer@@UAEPAXI@Z 10011d70 f i tlib:computrainer.obj
 0001:00010df0       ??0Computrainer@@QAE@PAVSerial@@AAVRIDER_DATA@@PAVCourse@@PAVBike@@W4LoggingType@@@Z 10011df0 f   tlib:computrainer.obj
 0001:00010f40       ?getNextRecord@Computrainer@@UAEHXZ 10011f40 f   tlib:computrainer.obj
 0001:000114f0       ?init@Computrainer@@AAEXXZ 100124f0 f   tlib:computrainer.obj
 0001:00011660       ?updateHardware@Computrainer@@UAEH_N@Z 10012660 f   tlib:computrainer.obj
 0001:00011b50       ?getPreviousRecord@Computrainer@@UAEHK@Z 10012b50 f   tlib:computrainer.obj
 0001:00011b50       ?getPreviousRecord@Velotron@@UAEHK@Z 10012b50 f   tlib:velotron.obj
 0001:00011b60       ?pause@Computrainer@@UAEXXZ 10012b60 f   tlib:computrainer.obj
 0001:00011ba0       ?resume@Computrainer@@UAEXXZ 10012ba0 f   tlib:computrainer.obj
 0001:00011c00       ?start@Computrainer@@UAEXXZ 10012c00 f   tlib:computrainer.obj
 0001:00011c90       ?gradeUp@Computrainer@@UAEXXZ 10012c90 f   tlib:computrainer.obj
 0001:00011ca0       ?gradeDown@Computrainer@@UAEXXZ 10012ca0 f   tlib:computrainer.obj
 0001:00011cb0       ?getGrade@Computrainer@@UAENXZ 10012cb0 f   tlib:computrainer.obj
 0001:00011cc0       ?reset@Computrainer@@UAEXXZ 10012cc0 f   tlib:computrainer.obj
 0001:00011d50       ?save@Computrainer@@UAEPAD_N0@Z 10012d50 f   tlib:computrainer.obj
 0001:00011d80       ?finish@Computrainer@@UAEXXZ 10012d80 f   tlib:computrainer.obj
 0001:00011dc0       ?flush@Computrainer@@UAEXXZ 10012dc0 f   tlib:computrainer.obj
 0001:00011df0       ?setkgs@Computrainer@@UAEXM@Z 10012df0 f   tlib:computrainer.obj
 0001:00011e20       ?set_hr_bounds@Computrainer@@UAEXHH_N@Z 10012e20 f   tlib:computrainer.obj
 0001:00011e20       ?set_hr_bounds@Velotron@@UAEXHH_N@Z 10012e20 f   tlib:velotron.obj
 0001:00011eb0       ?get_keys@Velotron@@UAEHXZ 10012eb0 f   tlib:velotron.obj
 0001:00011eb0       ?get_keys@Computrainer@@UAEHXZ 10012eb0 f   tlib:computrainer.obj
 0001:00011ee0       ?get_accum_tdc@Computrainer@@UAEHXZ 10012ee0 f   tlib:computrainer.obj
 0001:00011ee0       ?get_accum_tdc@Velotron@@UAEHXZ 10012ee0 f   tlib:velotron.obj
 0001:00011ef0       ?get_status_bits@Computrainer@@UAEHXZ 10012ef0 f   tlib:computrainer.obj
 0001:00011f00       ?get_accum_keys@Computrainer@@UAEHXZ 10012f00 f   tlib:computrainer.obj
 0001:00011f30       ?start_cal@Computrainer@@UAEEXZ 10012f30 f   tlib:computrainer.obj
 0001:00011f50       ?end_cal@Computrainer@@UAEXE@Z 10012f50 f   tlib:computrainer.obj
 0001:00011f60       ?setConstantWatts@Computrainer@@UAEXM@Z 10012f60 f   tlib:computrainer.obj
 0001:00011fa0       ?set_grade@Computrainer@@UAEXM@Z 10012fa0 f   tlib:computrainer.obj
 0001:00012050       ?get_result@Computrainer@@UAE?AURESULT@@XZ 10013050 f   tlib:computrainer.obj
 0001:000122f0       ?push_back@?$vector@MV?$allocator@M@std@@@std@@QAEXABM@Z 100132f0 f i tlib:computrainer.obj
 0001:00012360       ?_Reserve@?$vector@MV?$allocator@M@std@@@std@@IAEXI@Z 10013360 f i tlib:computrainer.obj
 0001:000123c0       ?_Reallocate@?$vector@MV?$allocator@M@std@@@std@@IAEXI@Z 100133c0 f i tlib:computrainer.obj
 0001:00012470       ??0Simulator@@QAE@AAVRIDER_DATA@@_NPAVCourse@@PBD@Z 10013470 f   tlib:simulator.obj
 0001:00012570       ??_ESimulator@@UAEPAXI@Z   10013570 f i * CIL library *:* CIL module *
 0001:00012570       ??_GSimulator@@UAEPAXI@Z   10013570 f i tlib:simulator.obj
 0001:000125c0       ?getNextRecord@Simulator@@UAEHXZ 100135c0 f   tlib:simulator.obj
 0001:000125c0       ?getNextRecord@Performance@@UAEHXZ 100135c0 f   tlib:performance.obj
 0001:00012600       ?reset@Simulator@@UAEXXZ   10013600 f   tlib:simulator.obj
 0001:00012600       ?reset@Performance@@UAEXXZ 10013600 f   tlib:performance.obj
 0001:000126a0       ?start@Simulator@@UAEXXZ   100136a0 f   tlib:simulator.obj
 0001:000126c0       ?set_manual_mph@Performance@@UAEXM@Z 100136c0 f   tlib:performance.obj
 0001:000126c0       ?set_manual_mph@Simulator@@UAEXM@Z 100136c0 f   tlib:simulator.obj
 0001:000126e0       ??0Performance@@QAE@AAVRIDER_DATA@@_NPBD@Z 100136e0 f   tlib:performance.obj
 0001:00012800       ??_EPerformance@@UAEPAXI@Z 10013800 f i * CIL library *:* CIL module *
 0001:00012800       ??_GPerformance@@UAEPAXI@Z 10013800 f i tlib:performance.obj
 0001:00012890       ?start@Performance@@UAEXXZ 10013890 f   tlib:performance.obj
 0001:000128b0       ?set_performance_file_name@Performance@@UAEXPBD@Z 100138b0 f   tlib:performance.obj
 0001:00012a80       ?check_perf@Performance@@QAEHPBDAAK@Z 10013a80 f   tlib:performance.obj
 0001:00012fd0       ??0RIDER_INFO@@QAE@XZ      10013fd0 f i tlib:performance.obj
 0001:00013040       ?push_back@?$vector@USEC@@V?$allocator@USEC@@@std@@@std@@QAEXABUSEC@@@Z 10014040 f i tlib:performance.obj
 0001:000130f0       ??1?$vector@USEC@@V?$allocator@USEC@@@std@@@std@@QAE@XZ 100140f0 f i tlib:performance.obj
 0001:00013130       ?push_back@?$vector@UFPOINT@@V?$allocator@UFPOINT@@@std@@@std@@QAEXABUFPOINT@@@Z 10014130 f i tlib:performance.obj
 0001:000131a0       ??1?$vector@UFPOINT@@V?$allocator@UFPOINT@@@std@@@std@@QAE@XZ 100141a0 f i tlib:performance.obj
 0001:000131d0       ??0?$vector@UFPOINT@@V?$allocator@UFPOINT@@@std@@@std@@QAE@ABV01@@Z 100141d0 f i tlib:performance.obj
 0001:00013260       ?_Reserve@?$vector@USEC@@V?$allocator@USEC@@@std@@@std@@IAEXI@Z 10014260 f i tlib:performance.obj
 0001:00013300       ?_Reserve@?$vector@UFPOINT@@V?$allocator@UFPOINT@@@std@@@std@@IAEXI@Z 10014300 f i tlib:performance.obj
 0001:00013360       ?_Buy@?$vector@UFPOINT@@V?$allocator@UFPOINT@@@std@@@std@@IAE_NI@Z 10014360 f i tlib:performance.obj
 0001:000133c0       ?deallocate@?$_Wrap_alloc@V?$allocator@USEC@@@std@@@std@@QAEXPAUSEC@@I@Z 100143c0 f i tlib:performance.obj
 0001:00013420       ?_Reallocate@?$vector@USEC@@V?$allocator@USEC@@@std@@@std@@IAEXI@Z 10014420 f i tlib:performance.obj
 0001:000134f0       ?deallocate@?$_Wrap_alloc@V?$allocator@UFPOINT@@@std@@@std@@QAEXPAUFPOINT@@I@Z 100144f0 f i tlib:performance.obj
 0001:00013550       ?allocate@?$_Wrap_alloc@V?$allocator@UFPOINT@@@std@@@std@@QAEPAUFPOINT@@I@Z 10014550 f i tlib:performance.obj
 0001:000135b0       ?_Reallocate@?$vector@UFPOINT@@V?$allocator@UFPOINT@@@std@@@std@@IAEXI@Z 100145b0 f i tlib:performance.obj
 0001:00013660       ??$_Uninitialized_move_al_unchecked1@PAUSEC@@PAU1@V?$allocator@USEC@@@std@@@std@@YAPAUSEC@@PAU1@00AAU?$_Wrap_alloc@V?$allocator@USEC@@@std@@@0@U_General_ptr_iterator_tag@0@U_Any_tag@0@@Z 10014660 f i tlib:performance.obj
 0001:000136a0       ??0Heartrate@@QAE@ABV0@@Z  100146a0 f i tlib:velotron.obj
 0001:000138d0       ??4Heartrate@@QAEAAV0@ABV0@@Z 100148d0 f i tlib:velotron.obj
 0001:00013b10       ?get_calibration@Velotron@@UAEHXZ 10014b10 f i tlib:velotron.obj
 0001:00013b20       ?setTimeout@Velotron@@UAEXK@Z 10014b20 f i tlib:velotron.obj
 0001:00013b30       ?getGrade@Velotron@@UAENXZ 10014b30 f i tlib:velotron.obj
 0001:00013b40       ??0Velotron@@QAE@PBDAAVRIDER_DATA@@PAVCourse@@PAVBike@@W4LoggingType@@@Z 10014b40 f   tlib:velotron.obj
 0001:00013c30       ??_EVelotron@@UAEPAXI@Z    10014c30 f i * CIL library *:* CIL module *
 0001:00013c30       ??_GVelotron@@UAEPAXI@Z    10014c30 f i tlib:velotron.obj
 0001:00013ca0       ?getNextRecord@Velotron@@UAEHXZ 10014ca0 f   tlib:velotron.obj
 0001:00013e90       ?packetsAvailable@Velotron@@EAEHXZ 10014e90 f   tlib:velotron.obj
 0001:00014070       ?updateHardware@Velotron@@UAEH_N@Z 10015070 f   tlib:velotron.obj
 0001:00014160       ?startCal@Velotron@@UAEXXZ 10015160 f   tlib:velotron.obj
 0001:00014240       ?start_cal@Velotron@@UAEEXZ 10015240 f   tlib:velotron.obj
 0001:000142c0       ?end_cal@Velotron@@UAEXE@Z 100152c0 f   tlib:velotron.obj
 0001:000142f0       ?emergencyStop@Velotron@@UAEXH@Z 100152f0 f   tlib:velotron.obj
 0001:00014310       ?gradeUp@Velotron@@UAEXXZ  10015310 f   tlib:velotron.obj
 0001:00014360       ?gradeDown@Velotron@@UAEXXZ 10015360 f   tlib:velotron.obj
 0001:000143b0       ?set_draft_wind@Velotron@@UAEXM@Z 100153b0 f   tlib:velotron.obj
 0001:000143e0       ?set_wind@Velotron@@UAEXM@Z 100153e0 f   tlib:velotron.obj
 0001:00014420       ?destroy@Velotron@@AAEXXZ  10015420 f   tlib:velotron.obj
 0001:00014540       ?pause@Velotron@@UAEXXZ    10015540 f   tlib:velotron.obj
 0001:00014570       ?resume@Velotron@@UAEXXZ   10015570 f   tlib:velotron.obj
 0001:000145a0       ?reset@Velotron@@UAEXXZ    100155a0 f   tlib:velotron.obj
 0001:00014680       ?setPicCurrent@Velotron@@AAEXG@Z 10015680 f   tlib:velotron.obj
 0001:000146f0       ?start@Velotron@@UAEXXZ    100156f0 f   tlib:velotron.obj
 0001:00014750       ?init@Velotron@@AAEXXZ     10015750 f   tlib:velotron.obj
 0001:00014d10       ?setConstantCurrent@Velotron@@UAEXM@Z 10015d10 f   tlib:velotron.obj
 0001:00014d40       ?setConstantWatts@Velotron@@UAEXM@Z 10015d40 f   tlib:velotron.obj
 0001:00014d90       ?getWatts@Velotron@@UAENXZ 10015d90 f   tlib:velotron.obj
 0001:00014d90       ?getConstantWatts@Velotron@@UAEMXZ 10015d90 f   tlib:velotron.obj
 0001:00014da0       ?flush@Velotron@@UAEXXZ    10015da0 f   tlib:velotron.obj
 0001:00014e00       ?get_accum_keys@Velotron@@UAEHXZ 10015e00 f   tlib:velotron.obj
 0001:00014e30       ?get_gear_pair@Velotron@@UAE?AUGEARPAIR@Bike@@XZ 10015e30 f   tlib:velotron.obj
 0001:00014e50       ?get_gear_indices@Velotron@@UAE?AUGEARPAIR@Bike@@XZ 10015e50 f   tlib:velotron.obj
 0001:00014e70       ?set_grade@Velotron@@UAEXM@Z 10015e70 f   tlib:velotron.obj
 0001:00014eb0       ?setkgs@Velotron@@UAEXM@Z  10015eb0 f   tlib:velotron.obj
 0001:00014f20       ?set_constant_force@Velotron@@UAEHM@Z 10015f20 f   tlib:velotron.obj
 0001:00014f50       ?get_physics_x@Velotron@@UAEPAVPhysics@@XZ 10015f50 f   tlib:velotron.obj
 0001:00014f60       ??4?$deque@NV?$allocator@N@std@@@std@@QAEAAV01@ABV01@@Z 10015f60 f i tlib:velotron.obj
 0001:00015120       ??0?$deque@NV?$allocator@N@std@@@std@@QAE@ABV01@@Z 10016120 f i tlib:velotron.obj
 0001:000151d0       ?erase@?$deque@NV?$allocator@N@std@@@std@@QAE?AV?$_Deque_iterator@V?$_Deque_val@U?$_Deque_simple_types@N@std@@@std@@@2@V?$_Deque_const_iterator@V?$_Deque_val@U?$_Deque_simple_types@N@std@@@std@@@2@0@Z 100161d0 f i tlib:velotron.obj
 0001:000153a0       ??$move@V?$_Deque_iterator@V?$_Deque_val@U?$_Deque_simple_types@N@std@@@std@@@std@@V12@@std@@YA?AV?$_Deque_iterator@V?$_Deque_val@U?$_Deque_simple_types@N@std@@@std@@@0@V10@00@Z 100163a0 f i tlib:velotron.obj
 0001:000153a0       ??$copy@V?$_Deque_const_iterator@V?$_Deque_val@U?$_Deque_simple_types@N@std@@@std@@@std@@V?$_Deque_iterator@V?$_Deque_val@U?$_Deque_simple_types@N@std@@@std@@@2@@std@@YA?AV?$_Deque_iterator@V?$_Deque_val@U?$_Deque_simple_types@N@std@@@std@@@0@V?$_Deque_const_iterator@V?$_Deque_val@U?$_Deque_simple_types@N@std@@@std@@@0@0V10@@Z 100163a0 f i tlib:velotron.obj
 0001:00015440       ??$insert@V?$_Deque_const_iterator@V?$_Deque_val@U?$_Deque_simple_types@N@std@@@std@@@std@@@?$deque@NV?$allocator@N@std@@@std@@QAE?AV?$_Deque_iterator@V?$_Deque_val@U?$_Deque_simple_types@N@std@@@std@@@1@V?$_Deque_const_iterator@V?$_Deque_val@U?$_Deque_simple_types@N@std@@@std@@@1@00@Z 10016440 f i tlib:velotron.obj
 0001:00015670       ??$_Construct@V?$_Deque_const_iterator@V?$_Deque_val@U?$_Deque_simple_types@N@std@@@std@@@std@@@?$deque@NV?$allocator@N@std@@@std@@QAEXV?$_Deque_const_iterator@V?$_Deque_val@U?$_Deque_simple_types@N@std@@@std@@@1@0@Z 10016670 f i tlib:velotron.obj
 0001:000157a0       ??$move_backward@V?$_Deque_iterator@V?$_Deque_val@U?$_Deque_simple_types@N@std@@@std@@@std@@V12@@std@@YA?AV?$_Deque_iterator@V?$_Deque_val@U?$_Deque_simple_types@N@std@@@std@@@0@V10@00@Z 100167a0 f i tlib:velotron.obj
 0001:00015830       ?push_back@?$deque@NV?$allocator@N@std@@@std@@QAEXABN@Z 10016830 f i tlib:velotron.obj
 0001:000158c0       ?push_front@?$deque@NV?$allocator@N@std@@@std@@QAEXABN@Z 100168c0 f i tlib:velotron.obj
 0001:00015950       ??$_Move_no_deprecate@V?$_Deque_iterator@V?$_Deque_val@U?$_Deque_simple_types@N@std@@@std@@@std@@V12@@std@@YA?AV?$_Deque_iterator@V?$_Deque_val@U?$_Deque_simple_types@N@std@@@std@@@0@V10@00@Z 10016950 f i tlib:velotron.obj
 0001:00015950       ??$_Copy_no_deprecate@V?$_Deque_const_iterator@V?$_Deque_val@U?$_Deque_simple_types@N@std@@@std@@@std@@V?$_Deque_iterator@V?$_Deque_val@U?$_Deque_simple_types@N@std@@@std@@@2@@std@@YA?AV?$_Deque_iterator@V?$_Deque_val@U?$_Deque_simple_types@N@std@@@std@@@0@V?$_Deque_const_iterator@V?$_Deque_val@U?$_Deque_simple_types@N@std@@@std@@@0@0V10@@Z 10016950 f i tlib:velotron.obj
 0001:000159e0       ??$reverse@V?$_Deque_iterator@V?$_Deque_val@U?$_Deque_simple_types@N@std@@@std@@@std@@@std@@YAXV?$_Deque_iterator@V?$_Deque_val@U?$_Deque_simple_types@N@std@@@std@@@0@0@Z 100169e0 f i tlib:velotron.obj
 0001:00015a40       ??$rotate@V?$_Deque_iterator@V?$_Deque_val@U?$_Deque_simple_types@N@std@@@std@@@std@@@std@@YA?AV?$_Deque_iterator@V?$_Deque_val@U?$_Deque_simple_types@N@std@@@std@@@0@V10@00@Z 10016a40 f i tlib:velotron.obj
 0001:00015b10       ??$_Move_backward1@V?$_Deque_unchecked_iterator@V?$_Deque_val@U?$_Deque_simple_types@N@std@@@std@@@std@@V?$_Deque_iterator@V?$_Deque_val@U?$_Deque_simple_types@N@std@@@std@@@2@@std@@YA?AV?$_Deque_iterator@V?$_Deque_val@U?$_Deque_simple_types@N@std@@@std@@@0@V?$_Deque_unchecked_iterator@V?$_Deque_val@U?$_Deque_simple_types@N@std@@@std@@@0@0V10@Urandom_access_iterator_tag@0@2@Z 10016b10 f i tlib:velotron.obj
 0001:00015b90       ??$_Copy_no_deprecate1@V?$_Deque_unchecked_const_iterator@V?$_Deque_val@U?$_Deque_simple_types@N@std@@@std@@@std@@V?$_Deque_iterator@V?$_Deque_val@U?$_Deque_simple_types@N@std@@@std@@@2@@std@@YA?AV?$_Deque_iterator@V?$_Deque_val@U?$_Deque_simple_types@N@std@@@std@@@0@V?$_Deque_unchecked_const_iterator@V?$_Deque_val@U?$_Deque_simple_types@N@std@@@std@@@0@0V10@Urandom_access_iterator_tag@0@2@Z 10016b90 f i tlib:velotron.obj
 0001:00015b90       ??$_Move_no_deprecate1@V?$_Deque_unchecked_iterator@V?$_Deque_val@U?$_Deque_simple_types@N@std@@@std@@@std@@V?$_Deque_iterator@V?$_Deque_val@U?$_Deque_simple_types@N@std@@@std@@@2@@std@@YA?AV?$_Deque_iterator@V?$_Deque_val@U?$_Deque_simple_types@N@std@@@std@@@0@V?$_Deque_unchecked_iterator@V?$_Deque_val@U?$_Deque_simple_types@N@std@@@std@@@0@0V10@Urandom_access_iterator_tag@0@2@Z 10016b90 f i tlib:velotron.obj
 0001:00015c10       ??$_Reverse_unchecked@V?$_Deque_unchecked_iterator@V?$_Deque_val@U?$_Deque_simple_types@N@std@@@std@@@std@@@std@@YAXV?$_Deque_unchecked_iterator@V?$_Deque_val@U?$_Deque_simple_types@N@std@@@std@@@0@0@Z 10016c10 f i tlib:velotron.obj
 0001:00015c90       ??$_Rotate_unchecked1@V?$_Deque_unchecked_iterator@V?$_Deque_val@U?$_Deque_simple_types@N@std@@@std@@@std@@@std@@YA?AV?$_Deque_unchecked_iterator@V?$_Deque_val@U?$_Deque_simple_types@N@std@@@std@@@0@V10@00Urandom_access_iterator_tag@0@@Z 10016c90 f i tlib:velotron.obj
 0001:00015d00       ??$_Move_backward_unchecked1@V?$_Deque_unchecked_iterator@V?$_Deque_val@U?$_Deque_simple_types@N@std@@@std@@@std@@V12@@std@@YA?AV?$_Deque_unchecked_iterator@V?$_Deque_val@U?$_Deque_simple_types@N@std@@@std@@@0@V10@00U_General_ptr_iterator_tag@0@@Z 10016d00 f i tlib:velotron.obj
 0001:00015d70       ??$_Copy_unchecked1@V?$_Deque_unchecked_const_iterator@V?$_Deque_val@U?$_Deque_simple_types@N@std@@@std@@@std@@V?$_Deque_unchecked_iterator@V?$_Deque_val@U?$_Deque_simple_types@N@std@@@std@@@2@@std@@YA?AV?$_Deque_unchecked_iterator@V?$_Deque_val@U?$_Deque_simple_types@N@std@@@std@@@0@V?$_Deque_unchecked_const_iterator@V?$_Deque_val@U?$_Deque_simple_types@N@std@@@std@@@0@0V10@U_General_ptr_iterator_tag@0@@Z 10016d70 f i tlib:velotron.obj
 0001:00015d70       ??$_Move_unchecked1@V?$_Deque_unchecked_iterator@V?$_Deque_val@U?$_Deque_simple_types@N@std@@@std@@@std@@V12@@std@@YA?AV?$_Deque_unchecked_iterator@V?$_Deque_val@U?$_Deque_simple_types@N@std@@@std@@@0@V10@00U_General_ptr_iterator_tag@0@@Z 10016d70 f i tlib:velotron.obj
 0001:00015de0       ??0NVRAM@@QAE@PAD@Z        10016de0 f   tlib:nvram.obj
 0001:00015e30       ??_GNVRAM@@UAEPAXI@Z       10016e30 f i tlib:nvram.obj
 0001:00015e30       ??_ENVRAM@@UAEPAXI@Z       10016e30 f i * CIL library *:* CIL module *
 0001:00015e80       ??0NVRAM@@QAE@PAVSerial@@@Z 10016e80 f   tlib:nvram.obj
 0001:00015ec0       ?read@NVRAM@@QAEHXZ        10016ec0 f   tlib:nvram.obj
 0001:00015ff0       ?connect@NVRAM@@QAEXXZ     10016ff0 f   tlib:nvram.obj
 0001:00016070       ??0Client@@QAE@PBDHH@Z     10017070 f   tlib:client.obj
 0001:00016160       ??1Client@@QAE@XZ          10017160 f   tlib:client.obj
 0001:000162b0       ?init@Client@@AAEHXZ       100172b0 f   tlib:client.obj
 0001:000168d0       ?destroy@Client@@AAEXXZ    100178d0 f   tlib:client.obj
 0001:00016930       ?close@Client@@AAEHXZ      10017930 f   tlib:client.obj
 0001:00016b90       ?snd@Client@@QAEHPBDH@Z    10017b90 f   tlib:client.obj
 0001:00016be0       ?expect@Client@@QAEHPBDK@Z 10017be0 f   tlib:client.obj
 0001:000170d0       ?rx@Client@@QAEHPADH@Z     100180d0 f   tlib:client.obj
 0001:00017180       ?logg@Client@@AAAX_NPBDZZ  10018180 f   tlib:client.obj
 0001:00017290       ??1?$vector@U_INTERFACE_INFO@@V?$allocator@U_INTERFACE_INFO@@@std@@@std@@QAE@XZ 10018290 f i tlib:client.obj
 0001:000172d0       ?deallocate@?$_Wrap_alloc@V?$allocator@U_INTERFACE_INFO@@@std@@@std@@QAEXPAU_INTERFACE_INFO@@I@Z 100182d0 f i tlib:client.obj
 0001:00017330       ??0Course@@QAE@PBD@Z       10018330 f   tlib:course.obj
 0001:000173e0       ??_ECourse@@UAEPAXI@Z      100183e0 f i * CIL library *:* CIL module *
 0001:000173e0       ??_GCourse@@UAEPAXI@Z      100183e0 f i tlib:course.obj
 0001:00017410       ??0Course@@QAE@V?$vector@UFPOINT@@V?$allocator@UFPOINT@@@std@@@std@@PBD@Z 10018410 f   tlib:course.obj
 0001:000177b0       ??1Course@@UAE@XZ          100187b0 f   tlib:course.obj
 0001:00017880       ?init@Course@@AAEXXZ       10018880 f   tlib:course.obj
 0001:00017920       ?compute_grades@Course@@AAEXXZ 10018920 f   tlib:course.obj
 0001:00017a80       ??4?$vector@UFPOINT@@V?$allocator@UFPOINT@@@std@@@std@@QAEAAV01@ABV01@@Z 10018a80 f i tlib:course.obj
 0001:00017ba0       ??1?$vector@MV?$allocator@M@std@@@std@@QAE@XZ 10018ba0 f i tlib:course.obj
 0001:00017bd0       ??0RTD@@QAE@PBDHAAVRIDER_DATA@@PAVCourse@@PAVBike@@_NW4LoggingType@@0H@Z 10018bd0 f   tlib:rtd.obj
 0001:00018ae0       ??_ERTD@@UAEPAXI@Z         10019ae0 f i * CIL library *:* CIL module *
 0001:00018ae0       ??_GRTD@@UAEPAXI@Z         10019ae0 f i tlib:rtd.obj
 0001:00018b10       ??0RTD@@QAE@PAVSerial@@AAVRIDER_DATA@@PAVCourse@@_NPAVBike@@W4LoggingType@@@Z 10019b10 f   tlib:rtd.obj
 0001:00019020       ??1RTD@@UAE@XZ             1001a020 f   tlib:rtd.obj
 0001:00019160       ?destruct@RTD@@IAEXXZ      1001a160 f   tlib:rtd.obj
 0001:00019220       ?reset@RTD@@MAEXXZ         1001a220 f   tlib:rtd.obj
 0001:00019290       ?setShutDownDelay@RTD@@UAEXK@Z 1001a290 f   tlib:rtd.obj
 0001:000192b0       ?create_perf_file@RTD@@AAEXXZ 1001a2b0 f   tlib:rtd.obj
 0001:000193f0       ?get_perf_file_name@RTD@@UAEPBDXZ 1001a3f0 f   tlib:rtd.obj
 0001:00019400       ??1?$vector@UGEARINFO@@V?$allocator@UGEARINFO@@@std@@@std@@QAE@XZ 1001a400 f i tlib:rtd.obj
 0001:00019430       ??0computrainerDecoder@@QAE@PAVCourse@@AAVRIDER_DATA@@H@Z 1001a430 f   tlib:computrainer_decoder.obj
 0001:00019550       ??_EcomputrainerDecoder@@UAEPAXI@Z 1001a550 f i * CIL library *:* CIL module *
 0001:00019550       ??_GcomputrainerDecoder@@UAEPAXI@Z 1001a550 f i tlib:computrainer_decoder.obj
 0001:00019580       ??1computrainerDecoder@@UAE@XZ 1001a580 f   tlib:computrainer_decoder.obj
 0001:00019700       ?decode@computrainerDecoder@@UAEHPAEK@Z 1001a700 f   tlib:computrainer_decoder.obj
 0001:00019ff0       ?reset@computrainerDecoder@@UAEXXZ 1001aff0 f   tlib:computrainer_decoder.obj
 0001:0001a0e0       ?peaks_and_averages@computrainerDecoder@@EAEXXZ 1001b0e0 f   tlib:computrainer_decoder.obj
 0001:0001a1b0       ?gradeUp@computrainerDecoder@@UAEXXZ 1001b1b0 f   tlib:computrainer_decoder.obj
 0001:0001a1e0       ?gradeDown@computrainerDecoder@@UAEXXZ 1001b1e0 f   tlib:computrainer_decoder.obj
 0001:0001a210       ?integrate@computrainerDecoder@@UAEXXZ 1001b210 f   tlib:computrainer_decoder.obj
 0001:0001a330       ?runkeys@computrainerDecoder@@AAEXXZ 1001b330 f   tlib:computrainer_decoder.obj
 0001:0001a4b0       ?set_watts_factor@computrainerDecoder@@UAEXM@Z 1001b4b0 f   tlib:computrainer_decoder.obj
 0001:0001a4e0       ??0simDecoder@@QAE@PAVCourse@@AAVRIDER_DATA@@@Z 1001b4e0 f   tlib:simdecoder.obj
 0001:0001a7d0       ??_GsimDecoder@@UAEPAXI@Z  1001b7d0 f i tlib:simdecoder.obj
 0001:0001a7d0       ??_EsimDecoder@@UAEPAXI@Z  1001b7d0 f i * CIL library *:* CIL module *
 0001:0001a800       ??1simDecoder@@UAE@XZ      1001b800 f   tlib:simdecoder.obj
 0001:0001a8b0       ?decode@simDecoder@@UAEHPAEK@Z 1001b8b0 f   tlib:simdecoder.obj
 0001:0001ad50       ?integrate@simDecoder@@EAEXXZ 1001bd50 f   tlib:simdecoder.obj
 0001:0001afb0       ?reset@simDecoder@@UAEXXZ  1001bfb0 f   tlib:simdecoder.obj
 0001:0001b040       ?set_manual_mph@simDecoder@@UAEXM@Z 1001c040 f   tlib:simdecoder.obj
 0001:0001b060       ??0performanceDecoder@@QAE@PAVCourse@@AAVRIDER_DATA@@@Z 1001c060 f   tlib:performance_decoder.obj
 0001:0001b320       ??_GperformanceDecoder@@UAEPAXI@Z 1001c320 f i tlib:performance_decoder.obj
 0001:0001b320       ??_EperformanceDecoder@@UAEPAXI@Z 1001c320 f i * CIL library *:* CIL module *
 0001:0001b350       ??1performanceDecoder@@UAE@XZ 1001c350 f   tlib:performance_decoder.obj
 0001:0001b400       ?decode@performanceDecoder@@UAEHPAEK@Z 1001c400 f   tlib:performance_decoder.obj
 0001:0001b8a0       ?integrate@performanceDecoder@@EAEXXZ 1001c8a0 f   tlib:performance_decoder.obj
 0001:0001bb00       ?reset@performanceDecoder@@UAEXXZ 1001cb00 f   tlib:performance_decoder.obj
 0001:0001bb90       ?setDistance@velotronDecoder@@UAEXM@Z 1001cb90 f i tlib:velotron_decoder.obj
 0001:0001bc10       ?get_measured_ergo_watts@velotronDecoder@@UAENXZ 1001cc10 f i tlib:velotron_decoder.obj
 0001:0001bc20       ?get_physics_pause@velotronDecoder@@UAE_NXZ 1001cc20 f i tlib:velotron_decoder.obj
 0001:0001bc30       ?set_physics_pause@velotronDecoder@@UAEX_N@Z 1001cc30 f i tlib:velotron_decoder.obj
 0001:0001bc70       ??0velotronDecoder@@QAE@PAVCourse@@AAVRIDER_DATA@@PAVBike@@PAVPhysics@@H@Z 1001cc70 f   tlib:velotron_decoder.obj
 0001:0001c220       ??_GvelotronDecoder@@UAEPAXI@Z 1001d220 f i tlib:velotron_decoder.obj
 0001:0001c220       ??_EvelotronDecoder@@UAEPAXI@Z 1001d220 f i * CIL library *:* CIL module *
 0001:0001c250       ??1velotronDecoder@@UAE@XZ 1001d250 f   tlib:velotron_decoder.obj
 0001:0001c360       ?decode@velotronDecoder@@UAEHPAEK@Z 1001d360 f   tlib:velotron_decoder.obj
 0001:0001cfc0       ?runkeys@velotronDecoder@@AAEXXZ 1001dfc0 f   tlib:velotron_decoder.obj
 0001:0001d140       ?set_grade@velotronDecoder@@UAEXM@Z 1001e140 f   tlib:velotron_decoder.obj
 0001:0001d160       ?set_watts_factor@velotronDecoder@@UAEXM@Z 1001e160 f   tlib:velotron_decoder.obj
 0001:0001d1e0       ?set_weight_lbs@velotronDecoder@@UAEXN@Z 1001e1e0 f   tlib:velotron_decoder.obj
 0001:0001d220       ?get_gear_pair@velotronDecoder@@UAE?AUGEARPAIR@Bike@@XZ 1001e220 f   tlib:velotron_decoder.obj
 0001:0001d260       ?get_gear_indices@velotronDecoder@@UAE?AUGEARPAIR@Bike@@XZ 1001e260 f   tlib:velotron_decoder.obj
 0001:0001d2a0       ??0Heartrate@@QAE@XZ       1001e2a0 f   tlib:heartrate.obj
 0001:0001d710       ??1Heartrate@@QAE@XZ       1001e710 f   tlib:heartrate.obj
 0001:0001d870       ?input@Heartrate@@QAEXGG@Z 1001e870 f   tlib:heartrate.obj
 0001:0001dce0       ?findpeak@Heartrate@@AAEHXZ 1001ece0 f   tlib:heartrate.obj
 0001:0001ddd0       ?dump@Heartrate@@QAEXXZ    1001edd0 f   tlib:heartrate.obj
 0001:0001deb0       ?dumpPtab@Heartrate@@QAEXXZ 1001eeb0 f   tlib:heartrate.obj
 0001:0001dfc0       ?valid@Heartrate@@AAEHXZ   1001efc0 f   tlib:heartrate.obj
 0001:0001e100       ?insert@Heartrate@@AAEXXZ  1001f100 f   tlib:heartrate.obj
 0001:0001e2a0       ?restart@Heartrate@@AAEXXZ 1001f2a0 f   tlib:heartrate.obj
 0001:0001e360       ??$sort@V?$_Deque_iterator@V?$_Deque_val@U?$_Deque_simple_types@N@std@@@std@@@std@@@std@@YAXV?$_Deque_iterator@V?$_Deque_val@U?$_Deque_simple_types@N@std@@@std@@@0@0@Z 1001f360 f i tlib:heartrate.obj
 0001:0001e3e0       ??$_Sort_unchecked1@V?$_Deque_unchecked_iterator@V?$_Deque_val@U?$_Deque_simple_types@N@std@@@std@@@std@@HU?$less@X@2@@std@@YAXV?$_Deque_unchecked_iterator@V?$_Deque_val@U?$_Deque_simple_types@N@std@@@std@@@0@0HAAU?$less@X@0@@Z 1001f3e0 f i tlib:heartrate.obj
 0001:0001e4d0       ??$_Partition_by_median_guess_unchecked@V?$_Deque_unchecked_iterator@V?$_Deque_val@U?$_Deque_simple_types@N@std@@@std@@@std@@U?$less@X@2@@std@@YA?AU?$pair@V?$_Deque_unchecked_iterator@V?$_Deque_val@U?$_Deque_simple_types@N@std@@@std@@@std@@V12@@0@V?$_Deque_unchecked_iterator@V?$_Deque_val@U?$_Deque_simple_types@N@std@@@std@@@0@0AAU?$less@X@0@@Z 1001f4d0 f i tlib:heartrate.obj
 0001:0001e950       ??$_Make_heap_unchecked@V?$_Deque_unchecked_iterator@V?$_Deque_val@U?$_Deque_simple_types@N@std@@@std@@@std@@U?$less@X@2@@std@@YAXV?$_Deque_unchecked_iterator@V?$_Deque_val@U?$_Deque_simple_types@N@std@@@std@@@0@0AAU?$less@X@0@@Z 1001f950 f i tlib:heartrate.obj
 0001:0001e9e0       ??$_Sort_heap_unchecked@V?$_Deque_unchecked_iterator@V?$_Deque_val@U?$_Deque_simple_types@N@std@@@std@@@std@@U?$less@X@2@@std@@YAXV?$_Deque_unchecked_iterator@V?$_Deque_val@U?$_Deque_simple_types@N@std@@@std@@@0@0AAU?$less@X@0@@Z 1001f9e0 f i tlib:heartrate.obj
 0001:0001ea90       ??$_Insertion_sort_unchecked@V?$_Deque_unchecked_iterator@V?$_Deque_val@U?$_Deque_simple_types@N@std@@@std@@@std@@U?$less@X@2@@std@@YAXV?$_Deque_unchecked_iterator@V?$_Deque_val@U?$_Deque_simple_types@N@std@@@std@@@0@0AAU?$less@X@0@@Z 1001fa90 f i tlib:heartrate.obj
 0001:0001ec00       ??$_Guess_median_unchecked@V?$_Deque_unchecked_iterator@V?$_Deque_val@U?$_Deque_simple_types@N@std@@@std@@@std@@U?$less@X@2@@std@@YAXV?$_Deque_unchecked_iterator@V?$_Deque_val@U?$_Deque_simple_types@N@std@@@std@@@0@00AAU?$less@X@0@@Z 1001fc00 f i tlib:heartrate.obj
 0001:0001ecc0       ??$_Pop_heap_hole_by_index@V?$_Deque_unchecked_iterator@V?$_Deque_val@U?$_Deque_simple_types@N@std@@@std@@@std@@HNU?$less@X@2@@std@@YAXV?$_Deque_unchecked_iterator@V?$_Deque_val@U?$_Deque_simple_types@N@std@@@std@@@0@HH$$QANAAU?$less@X@0@@Z 1001fcc0 f i tlib:heartrate.obj
 0001:0001ee00       ??$_Med3_unchecked@V?$_Deque_unchecked_iterator@V?$_Deque_val@U?$_Deque_simple_types@N@std@@@std@@@std@@U?$less@X@2@@std@@YAXV?$_Deque_unchecked_iterator@V?$_Deque_val@U?$_Deque_simple_types@N@std@@@std@@@0@00AAU?$less@X@0@@Z 1001fe00 f i tlib:heartrate.obj
 0001:0001ef00       ??$_Push_heap_by_index@V?$_Deque_unchecked_iterator@V?$_Deque_val@U?$_Deque_simple_types@N@std@@@std@@@std@@HNU?$less@X@2@@std@@YAXV?$_Deque_unchecked_iterator@V?$_Deque_val@U?$_Deque_simple_types@N@std@@@std@@@0@HH$$QANAAU?$less@X@0@@Z 1001ff00 f i tlib:heartrate.obj
 0001:0001efd0       __snprintf                 1001ffd0 f i libusb-1.0:core.obj
 0001:0001f0f0       _discovered_devs_append    100200f0 f   libusb-1.0:core.obj
 0001:0001f1b0       _usbi_alloc_device         100201b0 f   libusb-1.0:core.obj
 0001:0001f220       _usbi_connect_device       10020220 f   libusb-1.0:core.obj
 0001:0001f2a0       _usbi_disconnect_device    100202a0 f   libusb-1.0:core.obj
 0001:0001f340       _usbi_sanitize_device      10020340 f   libusb-1.0:core.obj
 0001:0001f3a0       _usbi_get_device_by_session_id 100203a0 f   libusb-1.0:core.obj
 0001:0001f430       _libusb_get_device_list@8  10020430 f   libusb-1.0:core.obj
 0001:0001f5a0       _libusb_free_device_list@8 100205a0 f   libusb-1.0:core.obj
 0001:0001f680       _libusb_get_bus_number@4   10020680 f   libusb-1.0:core.obj
 0001:0001f690       _libusb_get_port_number@4  10020690 f   libusb-1.0:core.obj
 0001:0001f6a0       _libusb_get_device_address@4 100206a0 f   libusb-1.0:core.obj
 0001:0001f6b0       _libusb_unref_device@4     100206b0 f   libusb-1.0:core.obj
 0001:0001f750       _usbi_clear_event          10020750 f   libusb-1.0:core.obj
 0001:0001f790       _libusb_open@8             10020790 f   libusb-1.0:core.obj
 0001:0001fa80       _libusb_close@4            10020a80 f   libusb-1.0:core.obj
 0001:0001fbf0       _libusb_claim_interface@8  10020bf0 f   libusb-1.0:core.obj
 0001:0001fc80       _libusb_release_interface@8 10020c80 f   libusb-1.0:core.obj
 0001:0001fd10       _libusb_kernel_driver_active@8 10020d10 f   libusb-1.0:core.obj
 0001:0001fd70       _libusb_detach_kernel_driver@8 10020d70 f   libusb-1.0:core.obj
 0001:0001fdd0       _libusb_init@4             10020dd0 f   libusb-1.0:core.obj
 0001:00020190       _libusb_exit@4             10021190 f   libusb-1.0:core.obj
 0001:00020400       _usbi_gettimeofday         10021400 f   libusb-1.0:core.obj
 0001:00020460       _usbi_log_v                10021460 f   libusb-1.0:core.obj
 0001:000206b0       _usbi_log                  100216b0 f   libusb-1.0:core.obj
 0001:000206d0       _libusb_error_name@4       100216d0 f   libusb-1.0:core.obj
 0001:00020830       _libusb_get_version@0      10021830 f   libusb-1.0:core.obj
 0001:00020840       _usbi_parse_descriptor     10021840 f   libusb-1.0:descriptor.obj
 0001:000212d0       _usbi_device_cache_descriptor 100222d0 f   libusb-1.0:descriptor.obj
 0001:00021360       _libusb_get_device_descriptor@8 10022360 f   libusb-1.0:descriptor.obj
 0001:000213a0       _libusb_get_active_config_descriptor@8 100223a0 f   libusb-1.0:descriptor.obj
 0001:000214b0       _libusb_get_config_descriptor@12 100224b0 f   libusb-1.0:descriptor.obj
 0001:00021600       _libusb_free_config_descriptor@4 10022600 f   libusb-1.0:descriptor.obj
 0001:00021620       _libusb_get_string_descriptor_ascii@16 10022620 f   libusb-1.0:descriptor.obj
 0001:000218b0       _libusb_control_transfer@32 100228b0 f   libusb-1.0:sync.obj
 0001:00021c10       _libusb_bulk_transfer@24   10022c10 f   libusb-1.0:sync.obj
 0001:00021c40       _usbi_mutex_static_lock    10022c40 f   libusb-1.0:threads_windows.obj
 0001:00021c80       _usbi_mutex_init           10022c80 f   libusb-1.0:threads_windows.obj
 0001:00021cb0       _usbi_mutex_lock           10022cb0 f   libusb-1.0:threads_windows.obj
 0001:00021ce0       _usbi_mutex_destroy        10022ce0 f   libusb-1.0:threads_windows.obj
 0001:00021d10       _usbi_cond_destroy         10022d10 f   libusb-1.0:threads_windows.obj
 0001:00021d70       _usbi_cond_broadcast       10022d70 f   libusb-1.0:threads_windows.obj
 0001:00022040       _init_polling              10023040 f   libusb-1.0:poll_windows.obj
 0001:00022190       _exit_polling              10023190 f   libusb-1.0:poll_windows.obj
 0001:00022280       _usbi_pipe                 10023280 f   libusb-1.0:poll_windows.obj
 0001:000223a0       _usbi_create_fd            100233a0 f   libusb-1.0:poll_windows.obj
 0001:00022640       _usbi_free_fd              10023640 f   libusb-1.0:poll_windows.obj
 0001:000226a0       _handle_to_winfd           100236a0 f   libusb-1.0:poll_windows.obj
 0001:00022850       _usbi_poll                 10023850 f   libusb-1.0:poll_windows.obj
 0001:00022b60       _usbi_close                10023b60 f   libusb-1.0:poll_windows.obj
 0001:00022c00       _usbi_write                10023c00 f   libusb-1.0:poll_windows.obj
 0001:00022c90       _usbi_read                 10023c90 f   libusb-1.0:poll_windows.obj
 0001:00022d60       _usbi_hotplug_match        10023d60 f   libusb-1.0:hotplug.obj
 0001:00022e90       _usbi_hotplug_notification 10023e90 f   libusb-1.0:hotplug.obj
 0001:00022f80       _usbi_hotplug_deregister_all 10023f80 f   libusb-1.0:hotplug.obj
 0001:00023010       _usbi_io_init              10024010 f   libusb-1.0:io.obj
 0001:00023190       _usbi_io_exit              10024190 f   libusb-1.0:io.obj
 0001:00023330       _libusb_alloc_transfer@4   10024330 f   libusb-1.0:io.obj
 0001:00023390       _libusb_free_transfer@4    10024390 f   libusb-1.0:io.obj
 0001:000234f0       _libusb_submit_transfer@4  100244f0 f   libusb-1.0:io.obj
 0001:00023610       _libusb_cancel_transfer@4  10024610 f   libusb-1.0:io.obj
 0001:000236d0       _usbi_handle_transfer_completion 100246d0 f   libusb-1.0:io.obj
 0001:000237d0       _usbi_handle_transfer_cancellation 100247d0 f   libusb-1.0:io.obj
 0001:00023840       _libusb_unlock_events@4    10024840 f   libusb-1.0:io.obj
 0001:00023890       _libusb_wait_for_event@8   10024890 f   libusb-1.0:io.obj
 0001:00023f50       _libusb_handle_events_timeout_completed@12 10024f50 f   libusb-1.0:io.obj
 0001:000241d0       _libusb_get_next_timeout@8 100251d0 f   libusb-1.0:io.obj
 0001:000243e0       _usbi_add_pollfd           100253e0 f   libusb-1.0:io.obj
 0001:00024490       _usbi_remove_pollfd        10025490 f   libusb-1.0:io.obj
 0001:00027930       _windows_clear_transfer_priv 10028930 f   libusb-1.0:windows_winusb.obj
 0001:0002b740       _windows_error_str         1002c740 f   libusb-1.0:windows_nt_common.obj
 0001:0002b9e0       _htab_hash                 1002c9e0 f   libusb-1.0:windows_nt_common.obj
 0001:0002bef0       _windows_destroy_clock     1002cef0 f   libusb-1.0:windows_nt_common.obj
 0001:0002c210       _windows_clock_gettime     1002d210 f   libusb-1.0:windows_nt_common.obj
 0001:0002c4b0       _windows_handle_events     1002d4b0 f   libusb-1.0:windows_nt_common.obj
 0001:0002c6a0       _windows_common_init       1002d6a0 f   libusb-1.0:windows_nt_common.obj
 0001:0002c6f0       ??_EAverageTimer@@UAEPAXI@Z 1002d6f0 f i glib:averagetimer.obj
 0001:0002c790       ??0AverageTimer@@QAE@XZ    1002d790 f   glib:averagetimer.obj
 0001:0002c7e0       ??0AverageTimer@@QAE@PBD@Z 1002d7e0 f   glib:averagetimer.obj
 0001:0002c840       ??1AverageTimer@@UAE@XZ    1002d840 f   glib:averagetimer.obj
 0001:0002c850       ?update@AverageTimer@@QAEXXZ 1002d850 f   glib:averagetimer.obj
 0001:0002c890       ?getAverage@AverageTimer@@QAENXZ 1002d890 f   glib:averagetimer.obj
 0001:0002c8e0       ?getms@AverageTimer@@QAENXZ 1002d8e0 f   glib:averagetimer.obj
 0001:0002c930       ?reset@AverageTimer@@QAEXXZ 1002d930 f   glib:averagetimer.obj
 0001:0002c970       ??_ELPFilter@@UAEPAXI@Z    1002d970 f i glib:lpfilter.obj
 0001:0002ca10       ??0LPFilter@@QAE@XZ        1002da10 f   glib:lpfilter.obj
 0001:0002ca20       ??0LPFilter@@QAE@H@Z       1002da20 f   glib:lpfilter.obj
 0001:0002ca50       ??1LPFilter@@UAE@XZ        1002da50 f   glib:lpfilter.obj
 0001:0002ca60       ?calc@LPFilter@@QAENN@Z    1002da60 f   glib:lpfilter.obj
 0001:0002caa0       ?setTC@LPFilter@@QAEXN@Z   1002daa0 f   glib:lpfilter.obj
 0001:0002cac0       ?getTC@LPFilter@@QAENXZ    1002dac0 f   glib:lpfilter.obj
 0001:0002cad0       ?setfval@LPFilter@@QAEXN@Z 1002dad0 f   glib:lpfilter.obj
 0001:0002caf0       ?reset@LPFilter@@QAEXXZ    1002daf0 f   glib:lpfilter.obj
 0001:0002cb00       ??_ETimeout@@UAEPAXI@Z     1002db00 f i * CIL library *:* CIL module *
 0001:0002cb00       ??_GTimeout@@UAEPAXI@Z     1002db00 f i glib:timeout.obj
 0001:0002cb30       ??1Timeout@@UAE@XZ         1002db30 f   glib:timeout.obj
 0001:0002cb40       ?stop@Timeout@@QAEXXZ      1002db40 f   glib:timeout.obj
 0001:0002cbb0       ??_EsignalStrengthMeter@@UAEPAXI@Z 1002dbb0 f i glib:signalstrengthmeter.obj
 0001:0002cc70       ??0signalStrengthMeter@@QAE@H@Z 1002dc70 f   glib:signalstrengthmeter.obj
 0001:0002ccd0       ??1signalStrengthMeter@@UAE@XZ 1002dcd0 f   glib:signalstrengthmeter.obj
 0001:0002ccf0       ?compute@signalStrengthMeter@@QAENN@Z 1002dcf0 f   glib:signalstrengthmeter.obj
 0001:0002cd80       ??$_Buynode@ABUpiecewise_construct_t@std@@V?$tuple@$$QAV?$basic_string@DU?$char_traits@D@std@@V?$allocator@D@2@@std@@@2@V?$tuple@$$V@2@@?$_List_buy@U?$pair@$$CBV?$basic_string@DU?$char_traits@D@std@@V?$allocator@D@2@@std@@G@std@@V?$allocator@U?$pair@$$CBV?$basic_string@DU?$char_traits@D@std@@V?$allocator@D@2@@std@@G@std@@@2@@std@@QAEPAU?$_List_node@U?$pair@$$CBV?$basic_string@DU?$char_traits@D@std@@V?$allocator@D@2@@std@@G@std@@PAX@1@PAU21@0ABUpiecewise_construct_t@1@$$QAV?$tuple@$$QAV?$basic_string@DU?$char_traits@D@std@@V?$allocator@D@2@@std@@@1@$$QAV?$tuple@$$V@1@@Z 1002dd80 f i dll.obj
 0001:0002cdd0       ??$_Buynode@ABUpiecewise_construct_t@std@@V?$tuple@$$QAV?$basic_string@DU?$char_traits@D@std@@V?$allocator@D@2@@std@@@2@V?$tuple@$$V@2@@?$_List_buy@U?$pair@$$CBV?$basic_string@DU?$char_traits@D@std@@V?$allocator@D@2@@std@@VDEVICE@@@std@@V?$allocator@U?$pair@$$CBV?$basic_string@DU?$char_traits@D@std@@V?$allocator@D@2@@std@@VDEVICE@@@std@@@2@@std@@QAEPAU?$_List_node@U?$pair@$$CBV?$basic_string@DU?$char_traits@D@std@@V?$allocator@D@2@@std@@VDEVICE@@@std@@PAX@1@PAU21@0ABUpiecewise_construct_t@1@$$QAV?$tuple@$$QAV?$basic_string@DU?$char_traits@D@std@@V?$allocator@D@2@@std@@@1@$$QAV?$tuple@$$V@1@@Z 1002ddd0 f i dll.obj
 0001:0002ce30       ??$_Construct@V?$_Deque_const_iterator@V?$_Deque_val@U?$_Deque_simple_types@UFORMULA2_PAIR@@@std@@@std@@@std@@@?$deque@UFORMULA2_PAIR@@V?$allocator@UFORMULA2_PAIR@@@std@@@std@@QAEXV?$_Deque_const_iterator@V?$_Deque_val@U?$_Deque_simple_types@UFORMULA2_PAIR@@@std@@@std@@@1@0@Z 1002de30 f i dll.obj
 0001:0002ced0       ??$_Move_no_deprecate@V?$_Deque_iterator@V?$_Deque_val@U?$_Deque_simple_types@UFORMULA2_PAIR@@@std@@@std@@@std@@V12@@std@@YA?AV?$_Deque_iterator@V?$_Deque_val@U?$_Deque_simple_types@UFORMULA2_PAIR@@@std@@@std@@@0@V10@00@Z 1002ded0 f i dll.obj
 0001:0002ced0       ??$_Copy_no_deprecate@V?$_Deque_const_iterator@V?$_Deque_val@U?$_Deque_simple_types@UFORMULA2_PAIR@@@std@@@std@@@std@@V?$_Deque_iterator@V?$_Deque_val@U?$_Deque_simple_types@UFORMULA2_PAIR@@@std@@@std@@@2@@std@@YA?AV?$_Deque_iterator@V?$_Deque_val@U?$_Deque_simple_types@UFORMULA2_PAIR@@@std@@@std@@@0@V?$_Deque_const_iterator@V?$_Deque_val@U?$_Deque_simple_types@UFORMULA2_PAIR@@@std@@@std@@@0@0V10@@Z 1002ded0 f i dll.obj
 0001:0002cf60       ??$_Insert@AAU?$pair@$$CBV?$basic_string@DU?$char_traits@D@std@@V?$allocator@D@2@@std@@G@std@@V?$_List_unchecked_iterator@V?$_List_val@U?$_List_simple_types@U?$pair@$$CBV?$basic_string@DU?$char_traits@D@std@@V?$allocator@D@2@@std@@G@std@@@std@@@std@@@2@@?$_Hash@V?$_Umap_traits@V?$basic_string@DU?$char_traits@D@std@@V?$allocator@D@2@@std@@GV?$_Uhash_compare@V?$basic_string@DU?$char_traits@D@std@@V?$allocator@D@2@@std@@U?$hash@V?$basic_string@DU?$char_traits@D@std@@V?$allocator@D@2@@std@@@2@U?$equal_to@V?$basic_string@DU?$char_traits@D@std@@V?$allocator@D@2@@std@@@2@@2@V?$allocator@U?$pair@$$CBV?$basic_string@DU?$char_traits@D@std@@V?$allocator@D@2@@std@@G@std@@@2@$0A@@std@@@std@@IAE?AU?$pair@V?$_List_iterator@V?$_List_val@U?$_List_simple_types@U?$pair@$$CBV?$basic_string@DU?$char_traits@D@std@@V?$allocator@D@2@@std@@G@std@@@std@@@std@@@std@@_N@1@AAU?$pair@$$CBV?$basic_string@DU?$char_traits@D@std@@V?$allocator@D@2@@std@@G@1@V?$_List_unchecked_iterator@V?$_List_val@U?$_List_simple_types@U?$pair@$$CBV?$basic_string@DU?$char_traits@D@std@@V?$allocator@D@2@@std@@G@std@@@std@@@std@@@1@@Z 1002df60 f i dll.obj
 0001:0002d1d0       ??$_Insert@AAU?$pair@$$CBV?$basic_string@DU?$char_traits@D@std@@V?$allocator@D@2@@std@@VDEVICE@@@std@@V?$_List_unchecked_iterator@V?$_List_val@U?$_List_simple_types@U?$pair@$$CBV?$basic_string@DU?$char_traits@D@std@@V?$allocator@D@2@@std@@VDEVICE@@@std@@@std@@@std@@@2@@?$_Hash@V?$_Umap_traits@V?$basic_string@DU?$char_traits@D@std@@V?$allocator@D@2@@std@@VDEVICE@@V?$_Uhash_compare@V?$basic_string@DU?$char_traits@D@std@@V?$allocator@D@2@@std@@U?$hash@V?$basic_string@DU?$char_traits@D@std@@V?$allocator@D@2@@std@@@2@U?$equal_to@V?$basic_string@DU?$char_traits@D@std@@V?$allocator@D@2@@std@@@2@@2@V?$allocator@U?$pair@$$CBV?$basic_string@DU?$char_traits@D@std@@V?$allocator@D@2@@std@@VDEVICE@@@std@@@2@$0A@@std@@@std@@IAE?AU?$pair@V?$_List_iterator@V?$_List_val@U?$_List_simple_types@U?$pair@$$CBV?$basic_string@DU?$char_traits@D@std@@V?$allocator@D@2@@std@@VDEVICE@@@std@@@std@@@std@@@std@@_N@1@AAU?$pair@$$CBV?$basic_string@DU?$char_traits@D@std@@V?$allocator@D@2@@std@@VDEVICE@@@1@V?$_List_unchecked_iterator@V?$_List_val@U?$_List_simple_types@U?$pair@$$CBV?$basic_string@DU?$char_traits@D@std@@V?$allocator@D@2@@std@@VDEVICE@@@std@@@std@@@std@@@1@@Z 1002e1d0 f i dll.obj
 0001:0002d460       ??$_Move_backward1@V?$_Deque_unchecked_iterator@V?$_Deque_val@U?$_Deque_simple_types@UFORMULA2_PAIR@@@std@@@std@@@std@@V?$_Deque_iterator@V?$_Deque_val@U?$_Deque_simple_types@UFORMULA2_PAIR@@@std@@@std@@@2@@std@@YA?AV?$_Deque_iterator@V?$_Deque_val@U?$_Deque_simple_types@UFORMULA2_PAIR@@@std@@@std@@@0@V?$_Deque_unchecked_iterator@V?$_Deque_val@U?$_Deque_simple_types@UFORMULA2_PAIR@@@std@@@std@@@0@0V10@Urandom_access_iterator_tag@0@2@Z 1002e460 f i dll.obj
 0001:0002d4d0       ??$_Move_no_deprecate1@V?$_Deque_unchecked_iterator@V?$_Deque_val@U?$_Deque_simple_types@UFORMULA2_PAIR@@@std@@@std@@@std@@V?$_Deque_iterator@V?$_Deque_val@U?$_Deque_simple_types@UFORMULA2_PAIR@@@std@@@std@@@2@@std@@YA?AV?$_Deque_iterator@V?$_Deque_val@U?$_Deque_simple_types@UFORMULA2_PAIR@@@std@@@std@@@0@V?$_Deque_unchecked_iterator@V?$_Deque_val@U?$_Deque_simple_types@UFORMULA2_PAIR@@@std@@@std@@@0@0V10@Urandom_access_iterator_tag@0@2@Z 1002e4d0 f i dll.obj
 0001:0002d4d0       ??$_Copy_no_deprecate1@V?$_Deque_unchecked_const_iterator@V?$_Deque_val@U?$_Deque_simple_types@UFORMULA2_PAIR@@@std@@@std@@@std@@V?$_Deque_iterator@V?$_Deque_val@U?$_Deque_simple_types@UFORMULA2_PAIR@@@std@@@std@@@2@@std@@YA?AV?$_Deque_iterator@V?$_Deque_val@U?$_Deque_simple_types@UFORMULA2_PAIR@@@std@@@std@@@0@V?$_Deque_unchecked_const_iterator@V?$_Deque_val@U?$_Deque_simple_types@UFORMULA2_PAIR@@@std@@@std@@@0@0V10@Urandom_access_iterator_tag@0@2@Z 1002e4d0 f i dll.obj
 0001:0002d540       ??$_Reverse_unchecked@V?$_Deque_unchecked_iterator@V?$_Deque_val@U?$_Deque_simple_types@UFORMULA2_PAIR@@@std@@@std@@@std@@@std@@YAXV?$_Deque_unchecked_iterator@V?$_Deque_val@U?$_Deque_simple_types@UFORMULA2_PAIR@@@std@@@std@@@0@0@Z 1002e540 f i dll.obj
 0001:0002d5c0       ??$_Rotate_unchecked1@V?$_Deque_unchecked_iterator@V?$_Deque_val@U?$_Deque_simple_types@UFORMULA2_PAIR@@@std@@@std@@@std@@@std@@YA?AV?$_Deque_unchecked_iterator@V?$_Deque_val@U?$_Deque_simple_types@UFORMULA2_PAIR@@@std@@@std@@@0@V10@00Urandom_access_iterator_tag@0@@Z 1002e5c0 f i dll.obj
 0001:0002d630       ??$_Uninit_alloc_fill_n1@PAV?$_List_unchecked_iterator@V?$_List_val@U?$_List_simple_types@U?$pair@$$CBV?$basic_string@DU?$char_traits@D@std@@V?$allocator@D@2@@std@@VDEVICE@@@std@@@std@@@std@@@std@@IU?$_Wrap_alloc@V?$allocator@V?$_List_unchecked_iterator@V?$_List_val@U?$_List_simple_types@U?$pair@$$CBV?$basic_string@DU?$char_traits@D@std@@V?$allocator@D@2@@std@@VDEVICE@@@std@@@std@@@std@@@std@@@std@@@2@@std@@YAXPAV?$_List_unchecked_iterator@V?$_List_val@U?$_List_simple_types@U?$pair@$$CBV?$basic_string@DU?$char_traits@D@std@@V?$allocator@D@2@@std@@VDEVICE@@@std@@@std@@@std@@@0@IPBV10@AAU?$_Wrap_alloc@U?$_Wrap_alloc@V?$allocator@V?$_List_unchecked_iterator@V?$_List_val@U?$_List_simple_types@U?$pair@$$CBV?$basic_string@DU?$char_traits@D@std@@V?$allocator@D@2@@std@@VDEVICE@@@std@@@std@@@std@@@std@@@std@@@std@@@0@U?$integral_constant@_N$0A@@0@@Z 1002e630 f i dll.obj
 0001:0002d630       ??$_Uninit_alloc_fill_n1@PAV?$_List_unchecked_iterator@V?$_List_val@U?$_List_simple_types@U?$pair@$$CBV?$basic_string@DU?$char_traits@D@std@@V?$allocator@D@2@@std@@G@std@@@std@@@std@@@std@@IU?$_Wrap_alloc@V?$allocator@V?$_List_unchecked_iterator@V?$_List_val@U?$_List_simple_types@U?$pair@$$CBV?$basic_string@DU?$char_traits@D@std@@V?$allocator@D@2@@std@@G@std@@@std@@@std@@@std@@@std@@@2@@std@@YAXPAV?$_List_unchecked_iterator@V?$_List_val@U?$_List_simple_types@U?$pair@$$CBV?$basic_string@DU?$char_traits@D@std@@V?$allocator@D@2@@std@@G@std@@@std@@@std@@@0@IPBV10@AAU?$_Wrap_alloc@U?$_Wrap_alloc@V?$allocator@V?$_List_unchecked_iterator@V?$_List_val@U?$_List_simple_types@U?$pair@$$CBV?$basic_string@DU?$char_traits@D@std@@V?$allocator@D@2@@std@@G@std@@@std@@@std@@@std@@@std@@@std@@@0@U?$integral_constant@_N$0A@@0@@Z 1002e630 f i dll.obj
 0001:0002d660       ??$_Uninitialized_move_al_unchecked1@PAV?$_List_unchecked_iterator@V?$_List_val@U?$_List_simple_types@U?$pair@$$CBV?$basic_string@DU?$char_traits@D@std@@V?$allocator@D@2@@std@@G@std@@@std@@@std@@@std@@PAV12@U?$_Wrap_alloc@V?$allocator@V?$_List_unchecked_iterator@V?$_List_val@U?$_List_simple_types@U?$pair@$$CBV?$basic_string@DU?$char_traits@D@std@@V?$allocator@D@2@@std@@G@std@@@std@@@std@@@std@@@std@@@2@@std@@YAPAV?$_List_unchecked_iterator@V?$_List_val@U?$_List_simple_types@U?$pair@$$CBV?$basic_string@DU?$char_traits@D@std@@V?$allocator@D@2@@std@@G@std@@@std@@@std@@@0@PAV10@00AAU?$_Wrap_alloc@U?$_Wrap_alloc@V?$allocator@V?$_List_unchecked_iterator@V?$_List_val@U?$_List_simple_types@U?$pair@$$CBV?$basic_string@DU?$char_traits@D@std@@V?$allocator@D@2@@std@@G@std@@@std@@@std@@@std@@@std@@@std@@@0@U_General_ptr_iterator_tag@0@U_Any_tag@0@@Z 1002e660 f i dll.obj
 0001:0002d660       ??$_Uninitialized_move_al_unchecked1@PAV?$_List_unchecked_iterator@V?$_List_val@U?$_List_simple_types@U?$pair@$$CBV?$basic_string@DU?$char_traits@D@std@@V?$allocator@D@2@@std@@VDEVICE@@@std@@@std@@@std@@@std@@PAV12@U?$_Wrap_alloc@V?$allocator@V?$_List_unchecked_iterator@V?$_List_val@U?$_List_simple_types@U?$pair@$$CBV?$basic_string@DU?$char_traits@D@std@@V?$allocator@D@2@@std@@VDEVICE@@@std@@@std@@@std@@@std@@@std@@@2@@std@@YAPAV?$_List_unchecked_iterator@V?$_List_val@U?$_List_simple_types@U?$pair@$$CBV?$basic_string@DU?$char_traits@D@std@@V?$allocator@D@2@@std@@VDEVICE@@@std@@@std@@@std@@@0@PAV10@00AAU?$_Wrap_alloc@U?$_Wrap_alloc@V?$allocator@V?$_List_unchecked_iterator@V?$_List_val@U?$_List_simple_types@U?$pair@$$CBV?$basic_string@DU?$char_traits@D@std@@V?$allocator@D@2@@std@@VDEVICE@@@std@@@std@@@std@@@std@@@std@@@std@@@0@U_General_ptr_iterator_tag@0@U_Any_tag@0@@Z 1002e660 f i dll.obj
 0001:0002d6a0       ??$move@V?$_Deque_iterator@V?$_Deque_val@U?$_Deque_simple_types@UFORMULA2_PAIR@@@std@@@std@@@std@@V12@@std@@YA?AV?$_Deque_iterator@V?$_Deque_val@U?$_Deque_simple_types@UFORMULA2_PAIR@@@std@@@std@@@0@V10@00@Z 1002e6a0 f i dll.obj
 0001:0002d6a0       ??$copy@V?$_Deque_const_iterator@V?$_Deque_val@U?$_Deque_simple_types@UFORMULA2_PAIR@@@std@@@std@@@std@@V?$_Deque_iterator@V?$_Deque_val@U?$_Deque_simple_types@UFORMULA2_PAIR@@@std@@@std@@@2@@std@@YA?AV?$_Deque_iterator@V?$_Deque_val@U?$_Deque_simple_types@UFORMULA2_PAIR@@@std@@@std@@@0@V?$_Deque_const_iterator@V?$_Deque_val@U?$_Deque_simple_types@UFORMULA2_PAIR@@@std@@@std@@@0@0V10@@Z 1002e6a0 f i dll.obj
 0001:0002d740       ??$emplace@ABUpiecewise_construct_t@std@@V?$tuple@$$QAV?$basic_string@DU?$char_traits@D@std@@V?$allocator@D@2@@std@@@2@V?$tuple@$$V@2@@?$_Hash@V?$_Umap_traits@V?$basic_string@DU?$char_traits@D@std@@V?$allocator@D@2@@std@@GV?$_Uhash_compare@V?$basic_string@DU?$char_traits@D@std@@V?$allocator@D@2@@std@@U?$hash@V?$basic_string@DU?$char_traits@D@std@@V?$allocator@D@2@@std@@@2@U?$equal_to@V?$basic_string@DU?$char_traits@D@std@@V?$allocator@D@2@@std@@@2@@2@V?$allocator@U?$pair@$$CBV?$basic_string@DU?$char_traits@D@std@@V?$allocator@D@2@@std@@G@std@@@2@$0A@@std@@@std@@QAE?AU?$pair@V?$_List_iterator@V?$_List_val@U?$_List_simple_types@U?$pair@$$CBV?$basic_string@DU?$char_traits@D@std@@V?$allocator@D@2@@std@@G@std@@@std@@@std@@@std@@_N@1@ABUpiecewise_construct_t@1@$$QAV?$tuple@$$QAV?$basic_string@DU?$char_traits@D@std@@V?$allocator@D@2@@std@@@1@$$QAV?$tuple@$$V@1@@Z 1002e740 f i dll.obj
 0001:0002d7b0       ??$emplace@ABUpiecewise_construct_t@std@@V?$tuple@$$QAV?$basic_string@DU?$char_traits@D@std@@V?$allocator@D@2@@std@@@2@V?$tuple@$$V@2@@?$_Hash@V?$_Umap_traits@V?$basic_string@DU?$char_traits@D@std@@V?$allocator@D@2@@std@@VDEVICE@@V?$_Uhash_compare@V?$basic_string@DU?$char_traits@D@std@@V?$allocator@D@2@@std@@U?$hash@V?$basic_string@DU?$char_traits@D@std@@V?$allocator@D@2@@std@@@2@U?$equal_to@V?$basic_string@DU?$char_traits@D@std@@V?$allocator@D@2@@std@@@2@@2@V?$allocator@U?$pair@$$CBV?$basic_string@DU?$char_traits@D@std@@V?$allocator@D@2@@std@@VDEVICE@@@std@@@2@$0A@@std@@@std@@QAE?AU?$pair@V?$_List_iterator@V?$_List_val@U?$_List_simple_types@U?$pair@$$CBV?$basic_string@DU?$char_traits@D@std@@V?$allocator@D@2@@std@@VDEVICE@@@std@@@std@@@std@@@std@@_N@1@ABUpiecewise_construct_t@1@$$QAV?$tuple@$$QAV?$basic_string@DU?$char_traits@D@std@@V?$allocator@D@2@@std@@@1@$$QAV?$tuple@$$V@1@@Z 1002e7b0 f i dll.obj
 0001:0002d820       ??$insert@V?$_Deque_const_iterator@V?$_Deque_val@U?$_Deque_simple_types@UFORMULA2_PAIR@@@std@@@std@@@std@@@?$deque@UFORMULA2_PAIR@@V?$allocator@UFORMULA2_PAIR@@@std@@@std@@QAE?AV?$_Deque_iterator@V?$_Deque_val@U?$_Deque_simple_types@UFORMULA2_PAIR@@@std@@@std@@@1@V?$_Deque_const_iterator@V?$_Deque_val@U?$_Deque_simple_types@UFORMULA2_PAIR@@@std@@@std@@@1@00@Z 1002e820 f i dll.obj
 0001:0002da80       ??$move_backward@V?$_Deque_iterator@V?$_Deque_val@U?$_Deque_simple_types@UFORMULA2_PAIR@@@std@@@std@@@std@@V12@@std@@YA?AV?$_Deque_iterator@V?$_Deque_val@U?$_Deque_simple_types@UFORMULA2_PAIR@@@std@@@std@@@0@V10@00@Z 1002ea80 f i dll.obj
 0001:0002db10       ??$rotate@V?$_Deque_iterator@V?$_Deque_val@U?$_Deque_simple_types@UFORMULA2_PAIR@@@std@@@std@@@std@@@std@@YA?AV?$_Deque_iterator@V?$_Deque_val@U?$_Deque_simple_types@UFORMULA2_PAIR@@@std@@@std@@@0@V10@00@Z 1002eb10 f i dll.obj
 0001:0002dbd0       ??$try_emplace@$$V@?$unordered_map@V?$basic_string@DU?$char_traits@D@std@@V?$allocator@D@2@@std@@VDEVICE@@U?$hash@V?$basic_string@DU?$char_traits@D@std@@V?$allocator@D@2@@std@@@2@U?$equal_to@V?$basic_string@DU?$char_traits@D@std@@V?$allocator@D@2@@std@@@2@V?$allocator@U?$pair@$$CBV?$basic_string@DU?$char_traits@D@std@@V?$allocator@D@2@@std@@VDEVICE@@@std@@@2@@std@@QAE?AU?$pair@V?$_List_iterator@V?$_List_val@U?$_List_simple_types@U?$pair@$$CBV?$basic_string@DU?$char_traits@D@std@@V?$allocator@D@2@@std@@VDEVICE@@@std@@@std@@@std@@@std@@_N@1@$$QAV?$basic_string@DU?$char_traits@D@std@@V?$allocator@D@2@@1@@Z 1002ebd0 f i dll.obj
 0001:0002dc30       ??0?$deque@UFORMULA2_PAIR@@V?$allocator@UFORMULA2_PAIR@@@std@@@std@@QAE@ABV01@@Z 1002ec30 f i dll.obj
 0001:0002dce0       ??0DEVICE@@QAE@XZ          1002ece0 f i dll.obj
 0001:0002ddc0       ??0RIDER_DATA@@QAE@ABV0@@Z 1002edc0 f i dll.obj
 0001:0002de90       ??0qtFormula@@QAE@ABV0@@Z  1002ee90 f i dll.obj
 0001:0002df70       ??1?$_Deque_alloc@U?$_Deque_base_types@UFORMULA2_PAIR@@V?$allocator@UFORMULA2_PAIR@@@std@@@std@@@std@@QAE@XZ 1002ef70 f i dll.obj
 0001:0002df90       ??4qtFormula@@QAEAAV0@ABV0@@Z 1002ef90 f i dll.obj
 0001:0002e220       ??A?$unordered_map@V?$basic_string@DU?$char_traits@D@std@@V?$allocator@D@2@@std@@VDEVICE@@U?$hash@V?$basic_string@DU?$char_traits@D@std@@V?$allocator@D@2@@std@@@2@U?$equal_to@V?$basic_string@DU?$char_traits@D@std@@V?$allocator@D@2@@std@@@2@V?$allocator@U?$pair@$$CBV?$basic_string@DU?$char_traits@D@std@@V?$allocator@D@2@@std@@VDEVICE@@@std@@@2@@std@@QAEAAVDEVICE@@$$QAV?$basic_string@DU?$char_traits@D@std@@V?$allocator@D@2@@1@@Z 1002f220 f i dll.obj
 0001:0002e270       ??_EqtFormula@@UAEPAXI@Z   1002f270 f i dll.obj
 0001:0002e320       ??_FANT@RACERMATE@@QAEXXZ  1002f320 f i dll.obj
 0001:0002e330       ??_FqtFormula@@QAEXXZ      1002f330 f i dll.obj
 0001:0002e340       ?_Buynode0@?$_List_alloc@U?$_List_base_types@U?$pair@$$CBV?$basic_string@DU?$char_traits@D@std@@V?$allocator@D@2@@std@@G@std@@V?$allocator@U?$pair@$$CBV?$basic_string@DU?$char_traits@D@std@@V?$allocator@D@2@@std@@G@std@@@2@@std@@@std@@QAEPAU?$_List_node@U?$pair@$$CBV?$basic_string@DU?$char_traits@D@std@@V?$allocator@D@2@@std@@G@std@@PAX@2@PAU32@0@Z 1002f340 f i dll.obj
 0001:0002e380       ?_Buynode0@?$_List_alloc@U?$_List_base_types@U?$pair@$$CBV?$basic_string@DU?$char_traits@D@std@@V?$allocator@D@2@@std@@VDEVICE@@@std@@V?$allocator@U?$pair@$$CBV?$basic_string@DU?$char_traits@D@std@@V?$allocator@D@2@@std@@VDEVICE@@@std@@@2@@std@@@std@@QAEPAU?$_List_node@U?$pair@$$CBV?$basic_string@DU?$char_traits@D@std@@V?$allocator@D@2@@std@@VDEVICE@@@std@@PAX@2@PAU32@0@Z 1002f380 f i dll.obj
 0001:0002e3c0       ?_Check_size@?$_Hash@V?$_Umap_traits@V?$basic_string@DU?$char_traits@D@std@@V?$allocator@D@2@@std@@GV?$_Uhash_compare@V?$basic_string@DU?$char_traits@D@std@@V?$allocator@D@2@@std@@U?$hash@V?$basic_string@DU?$char_traits@D@std@@V?$allocator@D@2@@std@@@2@U?$equal_to@V?$basic_string@DU?$char_traits@D@std@@V?$allocator@D@2@@std@@@2@@2@V?$allocator@U?$pair@$$CBV?$basic_string@DU?$char_traits@D@std@@V?$allocator@D@2@@std@@G@std@@@2@$0A@@std@@@std@@IAEXXZ 1002f3c0 f i dll.obj
 0001:0002e460       ?_Check_size@?$_Hash@V?$_Umap_traits@V?$basic_string@DU?$char_traits@D@std@@V?$allocator@D@2@@std@@VDEVICE@@V?$_Uhash_compare@V?$basic_string@DU?$char_traits@D@std@@V?$allocator@D@2@@std@@U?$hash@V?$basic_string@DU?$char_traits@D@std@@V?$allocator@D@2@@std@@@2@U?$equal_to@V?$basic_string@DU?$char_traits@D@std@@V?$allocator@D@2@@std@@@2@@2@V?$allocator@U?$pair@$$CBV?$basic_string@DU?$char_traits@D@std@@V?$allocator@D@2@@std@@VDEVICE@@@std@@@2@$0A@@std@@@std@@IAEXXZ 1002f460 f i dll.obj
 0001:0002e500       ?_Freenode@?$_List_buy@U?$pair@$$CBV?$basic_string@DU?$char_traits@D@std@@V?$allocator@D@2@@std@@VDEVICE@@@std@@V?$allocator@U?$pair@$$CBV?$basic_string@DU?$char_traits@D@std@@V?$allocator@D@2@@std@@VDEVICE@@@std@@@2@@std@@QAEXPAU?$_List_node@U?$pair@$$CBV?$basic_string@DU?$char_traits@D@std@@V?$allocator@D@2@@std@@VDEVICE@@@std@@PAX@2@@Z 1002f500 f i dll.obj
 0001:0002e570       ?_Growmap@?$deque@UFORMULA2_PAIR@@V?$allocator@UFORMULA2_PAIR@@@std@@@std@@IAEXI@Z 1002f570 f i dll.obj
 0001:0002e6c0       ?_Init@?$_Hash@V?$_Umap_traits@V?$basic_string@DU?$char_traits@D@std@@V?$allocator@D@2@@std@@GV?$_Uhash_compare@V?$basic_string@DU?$char_traits@D@std@@V?$allocator@D@2@@std@@U?$hash@V?$basic_string@DU?$char_traits@D@std@@V?$allocator@D@2@@std@@@2@U?$equal_to@V?$basic_string@DU?$char_traits@D@std@@V?$allocator@D@2@@std@@@2@@2@V?$allocator@U?$pair@$$CBV?$basic_string@DU?$char_traits@D@std@@V?$allocator@D@2@@std@@G@std@@@2@$0A@@std@@@std@@IAEXI@Z 1002f6c0 f i dll.obj
 0001:0002e6c0       ?_Init@?$_Hash@V?$_Umap_traits@V?$basic_string@DU?$char_traits@D@std@@V?$allocator@D@2@@std@@VDEVICE@@V?$_Uhash_compare@V?$basic_string@DU?$char_traits@D@std@@V?$allocator@D@2@@std@@U?$hash@V?$basic_string@DU?$char_traits@D@std@@V?$allocator@D@2@@std@@@2@U?$equal_to@V?$basic_string@DU?$char_traits@D@std@@V?$allocator@D@2@@std@@@2@@2@V?$allocator@U?$pair@$$CBV?$basic_string@DU?$char_traits@D@std@@V?$allocator@D@2@@std@@VDEVICE@@@std@@@2@$0A@@std@@@std@@IAEXI@Z 1002f6c0 f i dll.obj
 0001:0002e730       ?_Insert_n@?$vector@V?$_List_unchecked_iterator@V?$_List_val@U?$_List_simple_types@U?$pair@$$CBV?$basic_string@DU?$char_traits@D@std@@V?$allocator@D@2@@std@@VDEVICE@@@std@@@std@@@std@@@std@@U?$_Wrap_alloc@V?$allocator@V?$_List_unchecked_iterator@V?$_List_val@U?$_List_simple_types@U?$pair@$$CBV?$basic_string@DU?$char_traits@D@std@@V?$allocator@D@2@@std@@VDEVICE@@@std@@@std@@@std@@@std@@@std@@@2@@std@@IAE?AV?$_Vector_iterator@V?$_Vector_val@U?$_Simple_types@V?$_List_unchecked_iterator@V?$_List_val@U?$_List_simple_types@U?$pair@$$CBV?$basic_string@DU?$char_traits@D@std@@V?$allocator@D@2@@std@@VDEVICE@@@std@@@std@@@std@@@std@@@std@@@std@@@2@V?$_Vector_const_iterator@V?$_Vector_val@U?$_Simple_types@V?$_List_unchecked_iterator@V?$_List_val@U?$_List_simple_types@U?$pair@$$CBV?$basic_string@DU?$char_traits@D@std@@V?$allocator@D@2@@std@@VDEVICE@@@std@@@std@@@std@@@std@@@std@@@std@@@2@IABV?$_List_unchecked_iterator@V?$_List_val@U?$_List_simple_types@U?$pair@$$CBV?$basic_string@DU?$char_traits@D@std@@V?$allocator@D@2@@std@@VDEVICE@@@std@@@std@@@std@@@2@@Z 1002f730 f i dll.obj
 0001:0002e730       ?_Insert_n@?$vector@V?$_List_unchecked_iterator@V?$_List_val@U?$_List_simple_types@U?$pair@$$CBV?$basic_string@DU?$char_traits@D@std@@V?$allocator@D@2@@std@@G@std@@@std@@@std@@@std@@U?$_Wrap_alloc@V?$allocator@V?$_List_unchecked_iterator@V?$_List_val@U?$_List_simple_types@U?$pair@$$CBV?$basic_string@DU?$char_traits@D@std@@V?$allocator@D@2@@std@@G@std@@@std@@@std@@@std@@@std@@@2@@std@@IAE?AV?$_Vector_iterator@V?$_Vector_val@U?$_Simple_types@V?$_List_unchecked_iterator@V?$_List_val@U?$_List_simple_types@U?$pair@$$CBV?$basic_string@DU?$char_traits@D@std@@V?$allocator@D@2@@std@@G@std@@@std@@@std@@@std@@@std@@@std@@@2@V?$_Vector_const_iterator@V?$_Vector_val@U?$_Simple_types@V?$_List_unchecked_iterator@V?$_List_val@U?$_List_simple_types@U?$pair@$$CBV?$basic_string@DU?$char_traits@D@std@@V?$allocator@D@2@@std@@G@std@@@std@@@std@@@std@@@std@@@std@@@2@IABV?$_List_unchecked_iterator@V?$_List_val@U?$_List_simple_types@U?$pair@$$CBV?$basic_string@DU?$char_traits@D@std@@V?$allocator@D@2@@std@@G@std@@@std@@@std@@@2@@Z 1002f730 f i dll.obj
 0001:0002e990       ?_Reallocate@?$vector@V?$_List_unchecked_iterator@V?$_List_val@U?$_List_simple_types@U?$pair@$$CBV?$basic_string@DU?$char_traits@D@std@@V?$allocator@D@2@@std@@VDEVICE@@@std@@@std@@@std@@@std@@U?$_Wrap_alloc@V?$allocator@V?$_List_unchecked_iterator@V?$_List_val@U?$_List_simple_types@U?$pair@$$CBV?$basic_string@DU?$char_traits@D@std@@V?$allocator@D@2@@std@@VDEVICE@@@std@@@std@@@std@@@std@@@std@@@2@@std@@IAEXI@Z 1002f990 f i dll.obj
 0001:0002e990       ?_Reallocate@?$vector@V?$_List_unchecked_iterator@V?$_List_val@U?$_List_simple_types@U?$pair@$$CBV?$basic_string@DU?$char_traits@D@std@@V?$allocator@D@2@@std@@G@std@@@std@@@std@@@std@@U?$_Wrap_alloc@V?$allocator@V?$_List_unchecked_iterator@V?$_List_val@U?$_List_simple_types@U?$pair@$$CBV?$basic_string@DU?$char_traits@D@std@@V?$allocator@D@2@@std@@G@std@@@std@@@std@@@std@@@std@@@2@@std@@IAEXI@Z 1002f990 f i dll.obj
 0001:0002ea50       ?allocate@?$allocator@V?$_List_unchecked_iterator@V?$_List_val@U?$_List_simple_types@U?$pair@$$CBV?$basic_string@DU?$char_traits@D@std@@V?$allocator@D@2@@std@@VDEVICE@@@std@@@std@@@std@@@std@@@std@@QAEPAV?$_List_unchecked_iterator@V?$_List_val@U?$_List_simple_types@U?$pair@$$CBV?$basic_string@DU?$char_traits@D@std@@V?$allocator@D@2@@std@@VDEVICE@@@std@@@std@@@std@@@2@I@Z 1002fa50 f i dll.obj
 0001:0002ea50       ?allocate@?$allocator@PAUFORMULA2_PAIR@@@std@@QAEPAPAUFORMULA2_PAIR@@I@Z 1002fa50 f i dll.obj
 0001:0002ea50       ?allocate@?$allocator@V?$_List_unchecked_iterator@V?$_List_val@U?$_List_simple_types@U?$pair@$$CBV?$basic_string@DU?$char_traits@D@std@@V?$allocator@D@2@@std@@G@std@@@std@@@std@@@std@@@std@@QAEPAV?$_List_unchecked_iterator@V?$_List_val@U?$_List_simple_types@U?$pair@$$CBV?$basic_string@DU?$char_traits@D@std@@V?$allocator@D@2@@std@@G@std@@@std@@@std@@@2@I@Z 1002fa50 f i dll.obj
 0001:0002eac0       ?clear@?$list@U?$pair@$$CBV?$basic_string@DU?$char_traits@D@std@@V?$allocator@D@2@@std@@G@std@@V?$allocator@U?$pair@$$CBV?$basic_string@DU?$char_traits@D@std@@V?$allocator@D@2@@std@@G@std@@@2@@std@@QAEXXZ 1002fac0 f i dll.obj
 0001:0002eb60       ?equal_range@?$_Hash@V?$_Umap_traits@V?$basic_string@DU?$char_traits@D@std@@V?$allocator@D@2@@std@@GV?$_Uhash_compare@V?$basic_string@DU?$char_traits@D@std@@V?$allocator@D@2@@std@@U?$hash@V?$basic_string@DU?$char_traits@D@std@@V?$allocator@D@2@@std@@@2@U?$equal_to@V?$basic_string@DU?$char_traits@D@std@@V?$allocator@D@2@@std@@@2@@2@V?$allocator@U?$pair@$$CBV?$basic_string@DU?$char_traits@D@std@@V?$allocator@D@2@@std@@G@std@@@2@$0A@@std@@@std@@QAE?AU?$pair@V?$_List_iterator@V?$_List_val@U?$_List_simple_types@U?$pair@$$CBV?$basic_string@DU?$char_traits@D@std@@V?$allocator@D@2@@std@@G@std@@@std@@@std@@@std@@V12@@2@ABV?$basic_string@DU?$char_traits@D@std@@V?$allocator@D@2@@2@@Z 1002fb60 f i dll.obj
 0001:0002ed90       ?erase@?$_Hash@V?$_Umap_traits@V?$basic_string@DU?$char_traits@D@std@@V?$allocator@D@2@@std@@GV?$_Uhash_compare@V?$basic_string@DU?$char_traits@D@std@@V?$allocator@D@2@@std@@U?$hash@V?$basic_string@DU?$char_traits@D@std@@V?$allocator@D@2@@std@@@2@U?$equal_to@V?$basic_string@DU?$char_traits@D@std@@V?$allocator@D@2@@std@@@2@@2@V?$allocator@U?$pair@$$CBV?$basic_string@DU?$char_traits@D@std@@V?$allocator@D@2@@std@@G@std@@@2@$0A@@std@@@std@@QAE?AV?$_List_iterator@V?$_List_val@U?$_List_simple_types@U?$pair@$$CBV?$basic_string@DU?$char_traits@D@std@@V?$allocator@D@2@@std@@G@std@@@std@@@std@@@2@V?$_List_const_iterator@V?$_List_val@U?$_List_simple_types@U?$pair@$$CBV?$basic_string@DU?$char_traits@D@std@@V?$allocator@D@2@@std@@G@std@@@std@@@std@@@2@0@Z 1002fd90 f i dll.obj
 0001:0002ee40       ?erase@?$_Hash@V?$_Umap_traits@V?$basic_string@DU?$char_traits@D@std@@V?$allocator@D@2@@std@@GV?$_Uhash_compare@V?$basic_string@DU?$char_traits@D@std@@V?$allocator@D@2@@std@@U?$hash@V?$basic_string@DU?$char_traits@D@std@@V?$allocator@D@2@@std@@@2@U?$equal_to@V?$basic_string@DU?$char_traits@D@std@@V?$allocator@D@2@@std@@@2@@2@V?$allocator@U?$pair@$$CBV?$basic_string@DU?$char_traits@D@std@@V?$allocator@D@2@@std@@G@std@@@2@$0A@@std@@@std@@QAE?AV?$_List_iterator@V?$_List_val@U?$_List_simple_types@U?$pair@$$CBV?$basic_string@DU?$char_traits@D@std@@V?$allocator@D@2@@std@@G@std@@@std@@@std@@@2@V?$_List_const_iterator@V?$_List_val@U?$_List_simple_types@U?$pair@$$CBV?$basic_string@DU?$char_traits@D@std@@V?$allocator@D@2@@std@@G@std@@@std@@@std@@@2@@Z 1002fe40 f i dll.obj
 0001:0002eed0       ?erase@?$_Hash@V?$_Umap_traits@V?$basic_string@DU?$char_traits@D@std@@V?$allocator@D@2@@std@@VDEVICE@@V?$_Uhash_compare@V?$basic_string@DU?$char_traits@D@std@@V?$allocator@D@2@@std@@U?$hash@V?$basic_string@DU?$char_traits@D@std@@V?$allocator@D@2@@std@@@2@U?$equal_to@V?$basic_string@DU?$char_traits@D@std@@V?$allocator@D@2@@std@@@2@@2@V?$allocator@U?$pair@$$CBV?$basic_string@DU?$char_traits@D@std@@V?$allocator@D@2@@std@@VDEVICE@@@std@@@2@$0A@@std@@@std@@QAE?AV?$_List_iterator@V?$_List_val@U?$_List_simple_types@U?$pair@$$CBV?$basic_string@DU?$char_traits@D@std@@V?$allocator@D@2@@std@@VDEVICE@@@std@@@std@@@std@@@2@V?$_List_const_iterator@V?$_List_val@U?$_List_simple_types@U?$pair@$$CBV?$basic_string@DU?$char_traits@D@std@@V?$allocator@D@2@@std@@VDEVICE@@@std@@@std@@@std@@@2@@Z 1002fed0 f i dll.obj
 0001:0002ef80       ?erase@?$deque@UFORMULA2_PAIR@@V?$allocator@UFORMULA2_PAIR@@@std@@@std@@QAE?AV?$_Deque_iterator@V?$_Deque_val@U?$_Deque_simple_types@UFORMULA2_PAIR@@@std@@@std@@@2@V?$_Deque_const_iterator@V?$_Deque_val@U?$_Deque_simple_types@UFORMULA2_PAIR@@@std@@@std@@@2@0@Z 1002ff80 f i dll.obj
 0001:0002f160       ?erase@?$list@U?$pair@$$CBV?$basic_string@DU?$char_traits@D@std@@V?$allocator@D@2@@std@@G@std@@V?$allocator@U?$pair@$$CBV?$basic_string@DU?$char_traits@D@std@@V?$allocator@D@2@@std@@G@std@@@2@@std@@QAE?AV?$_List_iterator@V?$_List_val@U?$_List_simple_types@U?$pair@$$CBV?$basic_string@DU?$char_traits@D@std@@V?$allocator@D@2@@std@@G@std@@@std@@@std@@@2@V?$_List_const_iterator@V?$_List_val@U?$_List_simple_types@U?$pair@$$CBV?$basic_string@DU?$char_traits@D@std@@V?$allocator@D@2@@std@@G@std@@@std@@@std@@@2@@Z 10030160 f i dll.obj
 0001:0002f1d0       ?getPortNumber@Ctsrv@RACERMATE@@QAEHXZ 100301d0 f i dll.obj
 0001:0002f1e0       ?get_scanning_for_devices@ANT@RACERMATE@@QAE_NXZ 100301e0 f i dll.obj
 0001:0002f1f0       ?is_listening@ANT@RACERMATE@@QAE_NXZ 100301f0 f i dll.obj
 0001:0002f200       ?lower_bound@?$_Hash@V?$_Umap_traits@V?$basic_string@DU?$char_traits@D@std@@V?$allocator@D@2@@std@@GV?$_Uhash_compare@V?$basic_string@DU?$char_traits@D@std@@V?$allocator@D@2@@std@@U?$hash@V?$basic_string@DU?$char_traits@D@std@@V?$allocator@D@2@@std@@@2@U?$equal_to@V?$basic_string@DU?$char_traits@D@std@@V?$allocator@D@2@@std@@@2@@2@V?$allocator@U?$pair@$$CBV?$basic_string@DU?$char_traits@D@std@@V?$allocator@D@2@@std@@G@std@@@2@$0A@@std@@@std@@QAE?AV?$_List_iterator@V?$_List_val@U?$_List_simple_types@U?$pair@$$CBV?$basic_string@DU?$char_traits@D@std@@V?$allocator@D@2@@std@@G@std@@@std@@@std@@@2@ABV?$basic_string@DU?$char_traits@D@std@@V?$allocator@D@2@@2@@Z 10030200 f i dll.obj
 0001:0002f200       ?lower_bound@?$_Hash@V?$_Umap_traits@V?$basic_string@DU?$char_traits@D@std@@V?$allocator@D@2@@std@@VDEVICE@@V?$_Uhash_compare@V?$basic_string@DU?$char_traits@D@std@@V?$allocator@D@2@@std@@U?$hash@V?$basic_string@DU?$char_traits@D@std@@V?$allocator@D@2@@std@@@2@U?$equal_to@V?$basic_string@DU?$char_traits@D@std@@V?$allocator@D@2@@std@@@2@@2@V?$allocator@U?$pair@$$CBV?$basic_string@DU?$char_traits@D@std@@V?$allocator@D@2@@std@@VDEVICE@@@std@@@2@$0A@@std@@@std@@QAE?AV?$_List_iterator@V?$_List_val@U?$_List_simple_types@U?$pair@$$CBV?$basic_string@DU?$char_traits@D@std@@V?$allocator@D@2@@std@@VDEVICE@@@std@@@std@@@std@@@2@ABV?$basic_string@DU?$char_traits@D@std@@V?$allocator@D@2@@2@@Z 10030200 f i dll.obj
 0001:0002f3c0       ?push_back@?$deque@UFORMULA2_PAIR@@V?$allocator@UFORMULA2_PAIR@@@std@@@std@@QAEXABUFORMULA2_PAIR@@@Z 100303c0 f i dll.obj
 0001:0002f3c0       ??$emplace_back@ABUFORMULA2_PAIR@@@?$deque@UFORMULA2_PAIR@@V?$allocator@UFORMULA2_PAIR@@@std@@@std@@QAEXABUFORMULA2_PAIR@@@Z 100303c0 f i dll.obj
 0001:0002f460       ?push_front@?$deque@UFORMULA2_PAIR@@V?$allocator@UFORMULA2_PAIR@@@std@@@std@@QAEXABUFORMULA2_PAIR@@@Z 10030460 f i dll.obj
 0001:0002f500       ?trUtf8@ANT@RACERMATE@@SA?AVQString@@PBD0H@Z 10030500 f i dll.obj
 0001:0002f500       ?tr@ANT@RACERMATE@@SA?AVQString@@PBD0H@Z 10030500 f i dll.obj
 0001:0002f530       ?trUtf8@Ctsrv@RACERMATE@@SA?AVQString@@PBD0H@Z 10030530 f i dll.obj
 0001:0002f530       ?tr@Ctsrv@RACERMATE@@SA?AVQString@@PBD0H@Z 10030530 f i dll.obj
 0001:0002f560       _Enablelogs                10030560 f   dll.obj
 0001:0002f600       _EndRecalibrationMode      10030600 f   dll.obj
 0001:0002fa80       _GetAPIVersion             10030a80 f   dll.obj
 0001:0002fa80       _get_dll_version           10030a80 f   dll.obj
 0001:0002fa90       _GetCalibration            10030a90 f   dll.obj
 0001:0002fdc0       _GetCurrentVTGear          10030dc0 f   dll.obj
 0001:0002ff70       _GetFirmWareVersion        10030f70 f   dll.obj
 0001:00030190       _GetHandleBarButtons       10031190 f i dll.obj
 0001:00030630       _GetIsCalibrated           10031630 f   dll.obj
 0001:00030730       _GetRacerMateDeviceID      10031730 f   dll.obj
 0001:00030e00       _GetTrainerData            10031e00 f i dll.obj
 0001:00031250       _ResetAverages             10032250 f   dll.obj
 0001:00031410       _ResettoIdle               10032410 f   dll.obj
 0001:00031840       _SetHRBeepBounds           10032840 f   dll.obj
 0001:00031ca0       _SetRecalibrationMode      10032ca0 f   dll.obj
 0001:000320d0       _SetSlope                  100330d0 f   dll.obj
 0001:00032410       _SetVelotronParameters     10033410 f   dll.obj
 0001:00032950       _Setlogfilepath            10033950 f   dll.obj
 0001:000329c0       _associate                 100339c0 f   dll.obj
 0001:00032a80       _calc_tp                   10033a80 f i dll.obj
 0001:00032cc0       _getPortNames              10033cc0 f   dll.obj
 0001:00032d60       _get_ant_hr                10033d60 f   dll.obj
 0001:00032d80       _get_ant_sensors           10033d80 f   dll.obj
 0001:00032da0       _get_ant_sensors_string    10033da0 f   dll.obj
 0001:00032dc0       _get_average_bars          10033dc0 f i dll.obj
 0001:000330e0       _get_bars                  100340e0 f i dll.obj
 0001:00033400       _get_build_date            10034400 f   dll.obj
 0001:00033430       _get_calories              10034430 f i dll.obj
 0001:000335a0       _get_computrainer_mode     100345a0 f   dll.obj
 0001:00033780       ?get_errstr2@@YAPBDH@Z     10034780 f   internal.obj
 0001:00033780       _get_errstr                10034780 f   dll.obj
 0001:000337c0       _get_if                    100347c0 f i dll.obj
 0001:00033930       _get_n_devices             10034930 f   dll.obj
 0001:00033940       _get_n_udp_clients         10034940 f   dll.obj
 0001:00033960       _get_np                    10034960 f i dll.obj
 0001:00033ad0       _get_pp                    10034ad0 f i dll.obj
 0001:00033c40       _get_rs232_ports           10034c40 f   dll.obj
 0001:00033db0       _get_ss_data               10034db0 f i dll.obj
 0001:00034180       _get_status_bits           10035180 f   dll.obj
 0001:000344a0       _get_tss                   100354a0 f i dll.obj
 0001:00034610       _get_udp_trainers          10035610 f   dll.obj
 0001:00034630       _get_udpkey                10035630 f   dll.obj
 0001:00034760       _racermate_close           10035760 f   dll.obj
 0001:000347c0       _racermate_init            100357c0 f   dll.obj
 0001:00034830       _resetTrainer              10035830 f   dll.obj
 0001:000349a0       _setGear                   100359a0 f   dll.obj
 0001:00034b10       _setPause                  10035b10 f   dll.obj
 0001:00034cd0       _set_draftwind             10035cd0 f   dll.obj
 0001:00034e30       _set_ftp                   10035e30 f i dll.obj
 0001:00034fa0       _set_wind                  10035fa0 f   dll.obj
 0001:00035100       _startTrainer              10036100 f   dll.obj
 0001:00035e20       _start_ant                 10036e20 f   dll.obj
 0001:00035ee0       _start_server              10036ee0 f   dll.obj
 0001:00035fb0       _start_trainer             10036fb0 f   dll.obj
 0001:000362f0       _stopTrainer               100372f0 f   dll.obj
 0001:000366e0       _stop_ant                  100376e0 f   dll.obj
 0001:00036700       _stop_server               10037700 f   dll.obj
 0001:00036720       _unassociate               10037720 f   dll.obj
 0001:000367d0       ??$?0ABU?$_Wrap_alloc@V?$allocator@V?$_List_unchecked_iterator@V?$_List_val@U?$_List_simple_types@U?$pair@$$CBV?$basic_string@DU?$char_traits@D@std@@V?$allocator@D@2@@std@@VDEVICE@@@std@@@std@@@std@@@std@@@std@@@std@@@?$_Wrap_alloc@U?$_Wrap_alloc@V?$allocator@V?$_List_unchecked_iterator@V?$_List_val@U?$_List_simple_types@U?$pair@$$CBV?$basic_string@DU?$char_traits@D@std@@V?$allocator@D@2@@std@@VDEVICE@@@std@@@std@@@std@@@std@@@std@@@std@@@std@@QAE@ABU?$_Wrap_alloc@V?$allocator@V?$_List_unchecked_iterator@V?$_List_val@U?$_List_simple_types@U?$pair@$$CBV?$basic_string@DU?$char_traits@D@std@@V?$allocator@D@2@@std@@VDEVICE@@@std@@@std@@@std@@@std@@@std@@@1@@Z 100377d0 f i dll_globals.obj
 0001:000367d0       ??$?0ABV?$allocator@U?$pair@$$CBV?$basic_string@DU?$char_traits@D@std@@V?$allocator@D@2@@std@@VDEVICE@@@std@@@std@@@?$_Wrap_alloc@V?$allocator@U?$_List_node@U?$pair@$$CBV?$basic_string@DU?$char_traits@D@std@@V?$allocator@D@2@@std@@VDEVICE@@@std@@PAX@std@@@std@@@std@@QAE@ABV?$allocator@U?$pair@$$CBV?$basic_string@DU?$char_traits@D@std@@V?$allocator@D@2@@std@@VDEVICE@@@std@@@1@@Z 100377d0 f i dll_globals.obj
 0001:000367d0       ??$?0ABV?$allocator@U?$pair@$$CBV?$basic_string@DU?$char_traits@D@std@@V?$allocator@D@2@@std@@VDEVICE@@@std@@@std@@@?$_Wrap_alloc@V?$allocator@V?$_List_unchecked_iterator@V?$_List_val@U?$_List_simple_types@U?$pair@$$CBV?$basic_string@DU?$char_traits@D@std@@V?$allocator@D@2@@std@@VDEVICE@@@std@@@std@@@std@@@std@@@std@@@std@@QAE@ABV?$allocator@U?$pair@$$CBV?$basic_string@DU?$char_traits@D@std@@V?$allocator@D@2@@std@@VDEVICE@@@std@@@1@@Z 100377d0 f i dll_globals.obj
 0001:000367d0       ??$?0ABV?$allocator@U?$pair@$$CBV?$basic_string@DU?$char_traits@D@std@@V?$allocator@D@2@@std@@G@std@@@std@@@?$_Wrap_alloc@V?$allocator@U?$_List_node@U?$pair@$$CBV?$basic_string@DU?$char_traits@D@std@@V?$allocator@D@2@@std@@G@std@@PAX@std@@@std@@@std@@QAE@ABV?$allocator@U?$pair@$$CBV?$basic_string@DU?$char_traits@D@std@@V?$allocator@D@2@@std@@G@std@@@1@@Z 100377d0 f i dll_globals.obj
 0001:000367d0       ??$?0ABV?$allocator@U?$pair@$$CBV?$basic_string@DU?$char_traits@D@std@@V?$allocator@D@2@@std@@G@std@@@std@@@?$_Wrap_alloc@V?$allocator@V?$_List_unchecked_iterator@V?$_List_val@U?$_List_simple_types@U?$pair@$$CBV?$basic_string@DU?$char_traits@D@std@@V?$allocator@D@2@@std@@G@std@@@std@@@std@@@std@@@std@@@std@@QAE@ABV?$allocator@U?$pair@$$CBV?$basic_string@DU?$char_traits@D@std@@V?$allocator@D@2@@std@@G@std@@@1@@Z 100377d0 f i dll_globals.obj
 0001:000367d0       ??$?0ABU?$_Wrap_alloc@V?$allocator@V?$_List_unchecked_iterator@V?$_List_val@U?$_List_simple_types@U?$pair@$$CBV?$basic_string@DU?$char_traits@D@std@@V?$allocator@D@2@@std@@G@std@@@std@@@std@@@std@@@std@@@std@@@?$_Wrap_alloc@U?$_Wrap_alloc@V?$allocator@V?$_List_unchecked_iterator@V?$_List_val@U?$_List_simple_types@U?$pair@$$CBV?$basic_string@DU?$char_traits@D@std@@V?$allocator@D@2@@std@@G@std@@@std@@@std@@@std@@@std@@@std@@@std@@QAE@ABU?$_Wrap_alloc@V?$allocator@V?$_List_unchecked_iterator@V?$_List_val@U?$_List_simple_types@U?$pair@$$CBV?$basic_string@DU?$char_traits@D@std@@V?$allocator@D@2@@std@@G@std@@@std@@@std@@@std@@@std@@@1@@Z 100377d0 f i dll_globals.obj
 0001:000367d0       ??$?0AAU?$_Wrap_alloc@V?$allocator@UTCRF@@@std@@@std@@@?$_Wrap_alloc@V?$allocator@U_Container_proxy@std@@@std@@@std@@QAE@AAU?$_Wrap_alloc@V?$allocator@UTCRF@@@std@@@1@@Z 100377d0 f i rmg:crf.obj
 0001:000367e0       ??1?$list@U?$pair@$$CBV?$basic_string@DU?$char_traits@D@std@@V?$allocator@D@2@@std@@G@std@@V?$allocator@U?$pair@$$CBV?$basic_string@DU?$char_traits@D@std@@V?$allocator@D@2@@std@@G@std@@@2@@std@@QAE@XZ 100377e0 f i dll_globals.obj
 0001:00036800       ??1?$list@U?$pair@$$CBV?$basic_string@DU?$char_traits@D@std@@V?$allocator@D@2@@std@@VDEVICE@@@std@@V?$allocator@U?$pair@$$CBV?$basic_string@DU?$char_traits@D@std@@V?$allocator@D@2@@std@@VDEVICE@@@std@@@2@@std@@QAE@XZ 10037800 f i dll_globals.obj
 0001:00036820       ??1?$vector@V?$_List_unchecked_iterator@V?$_List_val@U?$_List_simple_types@U?$pair@$$CBV?$basic_string@DU?$char_traits@D@std@@V?$allocator@D@2@@std@@VDEVICE@@@std@@@std@@@std@@@std@@U?$_Wrap_alloc@V?$allocator@V?$_List_unchecked_iterator@V?$_List_val@U?$_List_simple_types@U?$pair@$$CBV?$basic_string@DU?$char_traits@D@std@@V?$allocator@D@2@@std@@VDEVICE@@@std@@@std@@@std@@@std@@@std@@@2@@std@@QAE@XZ 10037820 f i dll_globals.obj
 0001:00036820       ??1?$vector@V?$_List_unchecked_iterator@V?$_List_val@U?$_List_simple_types@U?$pair@$$CBV?$basic_string@DU?$char_traits@D@std@@V?$allocator@D@2@@std@@G@std@@@std@@@std@@@std@@U?$_Wrap_alloc@V?$allocator@V?$_List_unchecked_iterator@V?$_List_val@U?$_List_simple_types@U?$pair@$$CBV?$basic_string@DU?$char_traits@D@std@@V?$allocator@D@2@@std@@G@std@@@std@@@std@@@std@@@std@@@2@@std@@QAE@XZ 10037820 f i dll_globals.obj
 0001:00036860       ?_Destroy@?$vector@V?$_List_unchecked_iterator@V?$_List_val@U?$_List_simple_types@U?$pair@$$CBV?$basic_string@DU?$char_traits@D@std@@V?$allocator@D@2@@std@@VDEVICE@@@std@@@std@@@std@@@std@@U?$_Wrap_alloc@V?$allocator@V?$_List_unchecked_iterator@V?$_List_val@U?$_List_simple_types@U?$pair@$$CBV?$basic_string@DU?$char_traits@D@std@@V?$allocator@D@2@@std@@VDEVICE@@@std@@@std@@@std@@@std@@@std@@@2@@std@@IAEXPAV?$_List_unchecked_iterator@V?$_List_val@U?$_List_simple_types@U?$pair@$$CBV?$basic_string@DU?$char_traits@D@std@@V?$allocator@D@2@@std@@VDEVICE@@@std@@@std@@@std@@@2@0@Z 10037860 f i dll_globals.obj
 0001:00036860       ?setFinished@Ctsrv@RACERMATE@@QAEXPBD_N@Z 10037860 f i ctsrv:ctsrv.obj
 0001:00036860       ?setStarted@Ctsrv@RACERMATE@@QAEXPBD_N@Z 10037860 f i ctsrv:ctsrv.obj
 0001:00036860       ?_Destroy@?$vector@V?$_List_unchecked_iterator@V?$_List_val@U?$_List_simple_types@U?$pair@$$CBV?$basic_string@DU?$char_traits@D@std@@V?$allocator@D@2@@std@@G@std@@@std@@@std@@@std@@U?$_Wrap_alloc@V?$allocator@V?$_List_unchecked_iterator@V?$_List_val@U?$_List_simple_types@U?$pair@$$CBV?$basic_string@DU?$char_traits@D@std@@V?$allocator@D@2@@std@@G@std@@@std@@@std@@@std@@@std@@@2@@std@@IAEXPAV?$_List_unchecked_iterator@V?$_List_val@U?$_List_simple_types@U?$pair@$$CBV?$basic_string@DU?$char_traits@D@std@@V?$allocator@D@2@@std@@G@std@@@std@@@std@@@2@0@Z 10037860 f i dll_globals.obj
 0001:00036870       ?clear@?$list@U?$pair@$$CBV?$basic_string@DU?$char_traits@D@std@@V?$allocator@D@2@@std@@VDEVICE@@@std@@V?$allocator@U?$pair@$$CBV?$basic_string@DU?$char_traits@D@std@@V?$allocator@D@2@@std@@VDEVICE@@@std@@@2@@std@@QAEXXZ 10037870 f i dll_globals.obj
 0001:00036920       ??0EV@@QAE@PBDW4EnumDeviceType@@VRIDER_DATA@@PAUPARAMS@Bike@@PAVCourse@@W4LoggingType@@@Z 10037920 f   ev.obj
 0001:00037160       ??1EV@@QAE@XZ              10038160 f   ev.obj
 0001:00037280       ?TimerProc@EV@@CGXIIKKK@Z  10038280 f   ev.obj
 0001:000372d0       ?calc_tp_x@EV@@QAEXKM@Z    100382d0 f   ev.obj
 0001:00037300       ?end_cal@EV@@QAEHE@Z       10038300 f   ev.obj
 0001:00037320       ?fastread@EV@@QAEPAUTrainerData@RACERMATE@@XZ 10038320 f   ev.obj
 0001:00037400       ?get_average_bars_x@EV@@QAEPAMXZ 10038400 f   ev.obj
 0001:00037420       ?get_bars_x@EV@@QAEPAMXZ   10038420 f   ev.obj
 0001:00037430       ?get_calories_x@EV@@QAEMXZ 10038430 f   ev.obj
 0001:00037440       ?get_computrainer_cal@EV@@QAEPBDXZ 10038440 f   ev.obj
 0001:00037550       ?get_computrainer_mode_x@EV@@QAEHXZ 10038550 f   ev.obj
 0001:00037570       ?get_gear_pair@EV@@QAE?AUGEARPAIR@Bike@@XZ 10038570 f   ev.obj
 0001:000375b0       ?get_if_x@EV@@QAEMXZ       100385b0 f   ev.obj
 0001:000375d0       ?get_keys@EV@@QAEHXZ       100385d0 f   ev.obj
 0001:000375e0       ?get_pp_x@EV@@QAEMXZ       100385e0 f   ev.obj
 0001:000375f0       ?get_status_bits_x@EV@@QAEHXZ 100385f0 f   ev.obj
 0001:00037600       ?get_tss_x@EV@@QAEMXZ      10038600 f   ev.obj
 0001:00037620       ?get_x_np@EV@@QAEMXZ       10038620 f   ev.obj
 0001:00037640       ?keydownfunc@EV@@SAXPAXHH@Z 10038640 f   ev.obj
 0001:00037740       ?keyupfunc@EV@@SAXPAXHH@Z  10038740 f   ev.obj
 0001:000377f0       ?myread@EV@@QAEPAUTrainerData@RACERMATE@@XZ 100387f0 f   ev.obj
 0001:00037980       ?read_ss@EV@@QAEPAUSSDATA@@XZ 10038980 f   ev.obj
 0001:000379e0       ?reset@EV@@QAEHXZ          100389e0 f   ev.obj
 0001:00037a10       ?reset_averages@EV@@QAEHXZ 10038a10 f   ev.obj
 0001:00037a30       ?serverthreadproc@EV@@CAXPAX@Z 10038a30 f   ev.obj
 0001:00037af0       ?set_draft_wind_x@EV@@QAEHM@Z 10038af0 f   ev.obj
 0001:00037b30       ?set_export@EV@@QAEXPBDH@Z 10038b30 f   ev.obj
 0001:00037b70       ?set_ftp_x@EV@@QAEHM@Z     10038b70 f   ev.obj
 0001:00037ba0       ?set_gear@EV@@QAEHHH@Z     10038ba0 f   ev.obj
 0001:00037bc0       ?set_hr_bounds_x@EV@@QAEHHH_N@Z 10038bc0 f   ev.obj
 0001:00037c00       ?set_logging_x@EV@@QAEXW4LoggingType@@@Z 10038c00 f   ev.obj
 0001:00037c10       ?set_paused@EV@@QAEH_N@Z   10038c10 f   ev.obj
 0001:00037c40       ?set_slope@EV@@QAEHMMHM@Z  10038c40 f   ev.obj
 0001:00037d60       ?set_wind_x@EV@@QAEHM@Z    10038d60 f   ev.obj
 0001:00037d90       ?start@EV@@QAEX_N@Z        10038d90 f   ev.obj
 0001:00037db0       ?start_cal@EV@@QAEHXZ      10038db0 f   ev.obj
 0001:00037dd0       ?start_collection_thread@EV@@AAEHXZ 10038dd0 f   ev.obj
 0001:00037f50       ?stop@EV@@QAEXXZ           10038f50 f   ev.obj
 0001:00038000       ??0DEVICE@@QAE@ABV0@@Z     10039000 f i internal.obj
 0001:00038100       ??1?$pair@$$CBV?$basic_string@DU?$char_traits@D@std@@V?$allocator@D@2@@std@@VDEVICE@@@std@@QAE@XZ 10039100 f i internal.obj
 0001:00038150       ??1DEVICE@@QAE@XZ          10039150 f i internal.obj
 0001:00038170       ??4DEVICE@@QAEAAV0@ABV0@@Z 10039170 f i internal.obj
 0001:000382f0       ?ant_timer_proc@@YGXIIKKK@Z 100392f0 f   internal.obj
 0001:00038360       ?check_dirs@@YAXPBD@Z      10039360 f   internal.obj
 0001:00038410       ?check_for_trainers@@YA?AW4EnumDeviceType@@PBD@Z 10039410 f   internal.obj
 0001:000386e0       ?check_for_windows_rs232_computrainer@@YA?AW4EnumDeviceType@@PBD@Z 100396e0 f   internal.obj
 0001:00038d00       ?check_for_windows_rs232_velotron@@YA?AW4EnumDeviceType@@PBD@Z 10039d00 f   internal.obj
 0001:00039250       ?check_for_windows_server_computrainer@@YA?AW4EnumDeviceType@@PBD@Z 1003a250 f   internal.obj
 0001:000393b0       ?export_flag_file@@YA_NXZ  1003a3b0 f   internal.obj
 0001:000393f0       ?get_computrainer_cal@@YAPBDPBD@Z 1003a3f0 f   internal.obj
 0001:00039700       ?get_computrainer_cal_from_thread@@YAPBDPBDH@Z 1003a700 f   internal.obj
 0001:00039970       ?get_computrainer_firmware@@YAPBDPBD@Z 1003a970 f   internal.obj
 0001:00039c60       ?get_velotron_cal@@YAPBDPBD@Z 1003ac60 f   internal.obj
 0001:00039dd0       ?get_velotron_cal_from_thread@@YAPBDPBDH@Z 1003add0 f   internal.obj
 0001:00039f70       ?get_velotron_firmware@@YAPBDPBD@Z 1003af70 f   internal.obj
 0001:0003a120       ?haveDevice@@YA_NW4EnumDeviceType@@PBD@Z 1003b120 f   internal.obj
 0001:0003a800       ?init_udp_device@@YAXPBD@Z 1003b800 f   internal.obj
 0001:0003aca0       ?isVelotron@@YA_NPAVSerial@@K@Z 1003bca0 f   internal.obj
 0001:0003ad40       ?iscal@@YA_NW4EnumDeviceType@@PBD@Z 1003bd40 f   internal.obj
 0001:0003adb0       ?push_back@?$vector@V?$basic_string@DU?$char_traits@D@std@@V?$allocator@D@2@@std@@V?$allocator@V?$basic_string@DU?$char_traits@D@std@@V?$allocator@D@2@@std@@@2@@std@@QAEX$$QAV?$basic_string@DU?$char_traits@D@std@@V?$allocator@D@2@@2@@Z 1003bdb0 f i internal.obj
 0001:0003ae30       ?read_computrainer@@YAHPBDPAVSerial@@@Z 1003be30 f   internal.obj
 0001:0003b3f0       ?read_velotron@@YAHPAVSerial@@@Z 1003c3f0 f   internal.obj
 0001:0003b5f0       ?scan_for_ant_devices@@YAHXZ 1003c5f0 f   internal.obj
 0001:0003b610       ?setup_standard_dirs@@YAXPBD@Z 1003c610 f   internal.obj
 0001:0003baf0       ?sync@@YA?AW4ADJCODE@@PBD0@Z 1003caf0 f   internal.obj
 0001:0003bd10       ??0qtFormula@@QAE@M@Z      1003cd10 f   rmg:qtformula.obj
 0001:0003be60       ??1?$deque@UFORMULA2_PAIR@@V?$allocator@UFORMULA2_PAIR@@@std@@@std@@QAE@XZ 1003ce60 f i rmg:qtformula.obj
 0001:0003be80       ??1qtFormula@@UAE@XZ       1003ce80 f   rmg:qtformula.obj
 0001:0003bef0       ?calc@qtFormula@@QAEXM@Z   1003cef0 f   rmg:qtformula.obj
 0001:0003c160       ?reset@qtFormula@@QAEXXZ   1003d160 f   rmg:qtformula.obj
 0001:0003c1f0       ??0CRF@@QAE@_N@Z           1003d1f0 f   rmg:crf.obj
 0001:0003c210       ??1CRF@@UAE@XZ             1003d210 f   rmg:crf.obj
 0001:0003c220       ??_GCRF@@UAEPAXI@Z         1003d220 f i rmg:crf.obj
 0001:0003c220       ??_ECRF@@UAEPAXI@Z         1003d220 f i rmg:crf.obj
 0001:0003c250       ?doo@CRF@@QAEXPAEH@Z       1003d250 f   rmg:crf.obj
 0001:0003c300       ?init@CRF@@QAEXXZ          1003d300 f   rmg:crf.obj
 0001:0003c4e0       ??0Tmr@RACERMATE@@QAE@PBD@Z 1003d4e0 f   rmg:tmr.obj
 0001:0003c610       ??0?$QList@VQString@@@@QAE@ABV0@@Z 1003d610 f i ctsrv:ctsrv.obj
 0001:0003c6c0       ??0Ctsrv@RACERMATE@@QAE@HHPBDHPAVQObject@@@Z 1003d6c0 f   ctsrv:ctsrv.obj
 0001:0003cc10       ??1?$QForeachContainer@V?$QList@VQString@@@@@@QAE@XZ 1003dc10 f i ctsrv:ctsrv.obj
 0001:0003cc20       ??1?$QList@VQString@@@@QAE@XZ 1003dc20 f i ctsrv:ctsrv.obj
 0001:0003ccb0       ??1Ctsrv@RACERMATE@@UAE@XZ 1003dcb0 f   ctsrv:ctsrv.obj
 0001:0003cf50       ??A?$QHash@VQString@@PAVUDPClient@RACERMATE@@@@QAEAAPAVUDPClient@RACERMATE@@ABVQString@@@Z 1003df50 f i ctsrv:ctsrv.obj
 0001:0003d030       ??H@YA?BVQString@@ABV0@PBD@Z 1003e030 f i ctsrv:ctsrv.obj
 0001:0003d0c0       ??H@YA?BVQString@@PBDABV0@@Z 1003e0c0 f i ctsrv:ctsrv.obj
 0001:0003d130       ??_ECtsrv@RACERMATE@@UAEPAXI@Z 1003e130 f i ctsrv:ctsrv.obj
 0001:0003d1e0       ??_GQCoreApplication@@UAEPAXI@Z 1003e1e0 f i ctsrv:ctsrv.obj
 0001:0003d1e0       ??_EQCoreApplication@@UAEPAXI@Z 1003e1e0 f i ctsrv:ctsrv.obj
 0001:0003d210       ??_EQThread@@UAEPAXI@Z     1003e210 f i ctsrv:ctsrv.obj
 0001:0003d210       ??_GQThread@@UAEPAXI@Z     1003e210 f i ctsrv:ctsrv.obj
 0001:0003d240       ?GetTrainerData@Ctsrv@RACERMATE@@QAE?AUTrainerData@2@PBD@Z 1003e240 f   ctsrv:ctsrv.obj
 0001:0003d3a0       ?append@?$QList@VQString@@@@QAEXABVQString@@@Z 1003e3a0 f i ctsrv:ctsrv.obj
 0001:0003d450       ?calc_tp@Ctsrv@RACERMATE@@QAEXVQString@@M@Z 1003e450 f   ctsrv:ctsrv.obj
 0001:0003d500       ?client_is_running@Ctsrv@RACERMATE@@QAE_NH@Z 1003e500 f   ctsrv:ctsrv.obj
 0001:0003d520       ?connected_to_trainer_slot@Ctsrv@RACERMATE@@AAEXVQString@@_N@Z 1003e520 f   ctsrv:ctsrv.obj
 0001:0003d580       ?createNode@?$QHash@VQString@@PAVUDPClient@RACERMATE@@@@AAEPAU?$QHashNode@VQString@@PAVUDPClient@RACERMATE@@@@IABVQString@@ABQAVUDPClient@RACERMATE@@PAPAU2@@Z 1003e580 f i ctsrv:ctsrv.obj
 0001:0003d5f0       ?data_slot@Ctsrv@RACERMATE@@AAEXVQString@@PAVQT_DATA@2@@Z 1003e5f0 f   ctsrv:ctsrv.obj
 0001:0003d650       ?deleteNode2@?$QHash@VQString@@PAVUDPClient@RACERMATE@@@@CAXPAUNode@QHashData@@@Z 1003e650 f i ctsrv:ctsrv.obj
 0001:0003d660       ?detach@?$QHash@VQString@@PAVUDPClient@RACERMATE@@@@QAEXXZ 1003e660 f i ctsrv:ctsrv.obj
 0001:0003d6c0       ?detach_helper@?$QList@VQString@@@@AAEXH@Z 1003e6c0 f i ctsrv:ctsrv.obj
 0001:0003d7b0       ?detach_helper_grow@?$QList@VQString@@@@AAEPAUNode@1@HH@Z 1003e7b0 f i ctsrv:ctsrv.obj
 0001:0003d930       ?doSomeOtherStuff@Ctsrv@RACERMATE@@QAEXH@Z 1003e930 f   ctsrv:ctsrv.obj
 0001:0003d9d0       ?duplicateNode@?$QHash@VQString@@PAVUDPClient@RACERMATE@@@@CAXPAUNode@QHashData@@PAX@Z 1003e9d0 f i ctsrv:ctsrv.obj
 0001:0003da00       ?end_cal@Ctsrv@RACERMATE@@QAEHVQString@@@Z 1003ea00 f   ctsrv:ctsrv.obj
 0001:0003dab0       ?get_appkey@Ctsrv@RACERMATE@@QAE?AVQString@@V3@@Z 1003eab0 f   ctsrv:ctsrv.obj
 0001:0003db50       ?get_average_bars@Ctsrv@RACERMATE@@QAEPAMVQString@@@Z 1003eb50 f   ctsrv:ctsrv.obj
 0001:0003dc00       ?get_barinfo@Ctsrv@RACERMATE@@QAEPAVBARINFO@qt_SS@2@VQString@@H@Z 1003ec00 f   ctsrv:ctsrv.obj
 0001:0003dcd0       ?get_bars@Ctsrv@RACERMATE@@QAEPAMVQString@@@Z 1003ecd0 f   ctsrv:ctsrv.obj
 0001:0003dd80       ?get_cal@Ctsrv@RACERMATE@@QAEHVQString@@@Z 1003ed80 f   ctsrv:ctsrv.obj
 0001:0003de40       ?get_debug_dir@SDIRS@RACERMATE@@QBE?AVQString@@XZ 1003ee40 f i ctsrv:ctsrv.obj
 0001:0003de60       ?get_devnum@Ctsrv@RACERMATE@@QAEHVQString@@@Z 1003ee60 f   ctsrv:ctsrv.obj
 0001:0003df10       ?get_devnums@Ctsrv@RACERMATE@@QAEPBDXZ 1003ef10 f   ctsrv:ctsrv.obj
 0001:0003df30       ?get_ftp@Ctsrv@RACERMATE@@QAEMVQString@@@Z 1003ef30 f   ctsrv:ctsrv.obj
 0001:0003dff0       ?get_fw@Ctsrv@RACERMATE@@QAEGPBD@Z 1003eff0 f   ctsrv:ctsrv.obj
 0001:0003e130       ?get_handlebar_buttons@Ctsrv@RACERMATE@@QAEHVQString@@@Z 1003f130 f   ctsrv:ctsrv.obj
 0001:0003e1e0       ?get_keys@Ctsrv@RACERMATE@@QAE?AV?$QList@VQString@@@@XZ 1003f1e0 f   ctsrv:ctsrv.obj
 0001:0003e360       ?get_nclients@Ctsrv@RACERMATE@@QAEHXZ 1003f360 f   ctsrv:ctsrv.obj
 0001:0003e380       ?get_ss_data@Ctsrv@RACERMATE@@QAE?AUSSDATA@@VQString@@H@Z 1003f380 f   ctsrv:ctsrv.obj
 0001:0003e470       ?get_status_bits@Ctsrv@RACERMATE@@QAEHVQString@@@Z 1003f470 f   ctsrv:ctsrv.obj
 0001:0003e520       ?get_udpclient_names@Ctsrv@RACERMATE@@QAEPBDXZ 1003f520 f   ctsrv:ctsrv.obj
 0001:0003e770       ?get_udpkey_from_appkey@Ctsrv@RACERMATE@@QAEPBDVQString@@@Z 1003f770 f   ctsrv:ctsrv.obj
 0001:0003e780       ?get_udpkey_from_devnum@Ctsrv@RACERMATE@@QAEPBDPBD@Z 1003f780 f   ctsrv:ctsrv.obj
 0001:0003e9f0       ?get_watts_factor@Ctsrv@RACERMATE@@QAEMVQString@@@Z 1003f9f0 f   ctsrv:ctsrv.obj
 0001:0003eab0       ?handleResults@Ctsrv@RACERMATE@@AAEXABVQString@@@Z 1003fab0 f   ctsrv:ctsrv.obj
 0001:0003eb50       ?have@Ctsrv@RACERMATE@@QAE_NPBD@Z 1003fb50 f   ctsrv:ctsrv.obj
 0001:0003eb70       ?instance@Ctsrv@RACERMATE@@SAPAV12@XZ 1003fb70 f   ctsrv:ctsrv.obj
 0001:0003eb80       ?is_client_connected@Ctsrv@RACERMATE@@QAE_NVQString@@@Z 1003fb80 f   ctsrv:ctsrv.obj
 0001:0003ec40       ?is_paused@Ctsrv@RACERMATE@@QAE_NVQString@@@Z 1003fc40 f   ctsrv:ctsrv.obj
 0001:0003ecf0       ?logg@Ctsrv@RACERMATE@@AAAXPBDZZ 1003fcf0 f   ctsrv:ctsrv.obj
 0001:0003ee10       ?node_copy@?$QList@VQString@@@@AAEXPAUNode@1@00@Z 1003fe10 f i ctsrv:ctsrv.obj
 0001:0003ee50       ?node_destruct@?$QList@VQString@@@@AAEXPAUNode@1@0@Z 1003fe50 f i ctsrv:ctsrv.obj
 0001:0003ee80       ?rescale_slot@Ctsrv@RACERMATE@@AAEXVQString@@H@Z 1003fe80 f   ctsrv:ctsrv.obj
 0001:0003eee0       ?reset_averages@Ctsrv@RACERMATE@@QAEHVQString@@@Z 1003fee0 f   ctsrv:ctsrv.obj
 0001:0003ef90       ?reset_client@Ctsrv@RACERMATE@@QAEHPBD@Z 1003ff90 f   ctsrv:ctsrv.obj
 0001:0003f0d0       ?send@Ctsrv@RACERMATE@@QAEHHPBEH_N@Z 100400d0 f   ctsrv:ctsrv.obj
 0001:0003f0e0       ?setPaused@Ctsrv@RACERMATE@@QAEHVQString@@_N@Z 100400e0 f   ctsrv:ctsrv.obj
 0001:0003f190       ?set_draftwind@Ctsrv@RACERMATE@@QAEXVQString@@M@Z 10040190 f   ctsrv:ctsrv.obj
 0001:0003f240       ?set_ergo_mode@Ctsrv@RACERMATE@@QAEHVQString@@HHM@Z 10040240 f   ctsrv:ctsrv.obj
 0001:0003f300       ?set_export@Ctsrv@RACERMATE@@QAEXVQString@@PBD@Z 10040300 f   ctsrv:ctsrv.obj
 0001:0003f3b0       ?set_file_mode@Ctsrv@RACERMATE@@QAEHVQString@@_N@Z 100403b0 f   ctsrv:ctsrv.obj
 0001:0003f460       ?set_ftp@Ctsrv@RACERMATE@@QAEHVQString@@M@Z 10040460 f   ctsrv:ctsrv.obj
 0001:0003f520       ?set_grade@Ctsrv@RACERMATE@@QAEHVQString@@MMMH@Z 10040520 f   ctsrv:ctsrv.obj
 0001:0003f5f0       ?set_hr_bounds@Ctsrv@RACERMATE@@QAEHVQString@@HH_N@Z 100405f0 f   ctsrv:ctsrv.obj
 0001:0003f6a0       ?set_paused@Ctsrv@RACERMATE@@QAEHVQString@@_N@Z 100406a0 f   ctsrv:ctsrv.obj
 0001:0003f750       ?set_slope@Ctsrv@RACERMATE@@QAEHVQString@@MMHM@Z 10040750 f   ctsrv:ctsrv.obj
 0001:0003f870       ?setkgs@Ctsrv@RACERMATE@@QAEXVQString@@MM@Z 10040870 f   ctsrv:ctsrv.obj
 0001:0003f930       ?setlbs@Ctsrv@RACERMATE@@QAEXVQString@@MM@Z 10040930 f   ctsrv:ctsrv.obj
 0001:0003f9f0       ?setwind@Ctsrv@RACERMATE@@QAEXVQString@@M@Z 100409f0 f   ctsrv:ctsrv.obj
 0001:0003faa0       ?ss_slot@Ctsrv@RACERMATE@@AAEXVQString@@PAVSSD@qt_SS@2@@Z 10040aa0 f   ctsrv:ctsrv.obj
 0001:0003fb00       ?start_cal@Ctsrv@RACERMATE@@QAEHVQString@@@Z 10040b00 f   ctsrv:ctsrv.obj
 0001:0003fbb0       ?connected_to_trainer_signal@Ctsrv@RACERMATE@@QAEXVQString@@_N@Z 10040bb0 f   ctsrv:moc_ctsrv.obj
 0001:0003fc30       ?data_signal@Ctsrv@RACERMATE@@QAEXVQString@@PAVQT_DATA@2@@Z 10040c30 f   ctsrv:moc_ctsrv.obj
 0001:0003fcc0       ?metaObject@Ctsrv@RACERMATE@@UBEPBUQMetaObject@@XZ 10040cc0 f   ctsrv:moc_ctsrv.obj
 0001:0003fce0       ?qt_metacall@Ctsrv@RACERMATE@@UAEHW4Call@QMetaObject@@HPAPAX@Z 10040ce0 f   ctsrv:moc_ctsrv.obj
 0001:0003fd40       ?qt_metacast@Ctsrv@RACERMATE@@UAEPAXPBD@Z 10040d40 f   ctsrv:moc_ctsrv.obj
 0001:0003fda0       ?qt_static_metacall@Ctsrv@RACERMATE@@CAXPAVQObject@@W4Call@QMetaObject@@HPAPAX@Z 10040da0 f   ctsrv:moc_ctsrv.obj
 0001:0003ff40       ?rescale_signal@Ctsrv@RACERMATE@@QAEXVQString@@H@Z 10040f40 f   ctsrv:moc_ctsrv.obj
 0001:0003ffc0       ?ss_signal@Ctsrv@RACERMATE@@QAEXVQString@@PAVSSD@qt_SS@2@@Z 10040fc0 f   ctsrv:moc_ctsrv.obj
 0001:00040050       ??0SDIRS@RACERMATE@@QAE@HVQString@@@Z 10041050 f   ctsrv:sdirs.obj
 0001:00040390       ??1SDIRS@RACERMATE@@QAE@XZ 10041390 f   ctsrv:sdirs.obj
 0001:000403c0       ??0Rider2@@QAE@XZ          100413c0 f i ctsrv:udp_client.obj
 0001:00040470       ??0UDPClient@RACERMATE@@QAE@VQString@@HPAVQObject@@@Z 10041470 f   ctsrv:udp_client.obj
 0001:00040600       ??1QT_DATA@RACERMATE@@QAE@XZ 10041600 f i ctsrv:udp_client.obj
 0001:00040610       ??1Rider2@@UAE@XZ          10041610 f i ctsrv:udp_client.obj
 0001:00040630       ??1UDPClient@RACERMATE@@UAE@XZ 10041630 f   ctsrv:udp_client.obj
 0001:00040870       ??H@YA?BVQString@@ABV0@0@Z 10041870 f i ctsrv:udp_client.obj
 0001:000408e0       ??_GRider2@@UAEPAXI@Z      100418e0 f i ctsrv:udp_client.obj
 0001:000408e0       ??_ERider2@@UAEPAXI@Z      100418e0 f i ctsrv:udp_client.obj
 0001:00040920       ??_EUDPClient@RACERMATE@@UAEPAXI@Z 10041920 f i ctsrv:udp_client.obj
 0001:00040920       ??_GUDPClient@RACERMATE@@UAEPAXI@Z 10041920 f i ctsrv:udp_client.obj
 0001:00040950       ?GetTrainerData@UDPClient@RACERMATE@@AAE?AUTrainerData@2@H@Z 10041950 f   ctsrv:udp_client.obj
 0001:000409d0       ?calc_tp@UDPClient@RACERMATE@@QAEXM@Z 100419d0 f   ctsrv:udp_client.obj
 0001:000409f0       ?decode_fast@UDPClient@RACERMATE@@AAEXHPAUNHBDATA@12@@Z 100419f0 f   ctsrv:udp_client.obj
 0001:00040aa0       ?decode_slow@UDPClient@RACERMATE@@AAEXHPAUNHBDATA@12@@Z 10041aa0 f   ctsrv:udp_client.obj
 0001:00040b80       ?decode_ss@UDPClient@RACERMATE@@AAEHH@Z 10041b80 f   ctsrv:udp_client.obj
 0001:00040c90       ?end_cal@UDPClient@RACERMATE@@QAEHXZ 10041c90 f   ctsrv:udp_client.obj
 0001:00040ca0       ?gen_hbctl@UDPClient@RACERMATE@@AAEHPAEH@Z 10041ca0 f   ctsrv:udp_client.obj
 0001:00040d80       ?get_average_bars@UDPClient@RACERMATE@@QAEPAMXZ 10041d80 f   ctsrv:udp_client.obj
 0001:00040da0       ?get_bars@UDPClient@RACERMATE@@QAEPAMXZ 10041da0 f   ctsrv:udp_client.obj
 0001:00040dc0       ?get_cal@UDPClient@RACERMATE@@QAEMXZ 10041dc0 f   ctsrv:udp_client.obj
 0001:00040dd0       ?get_fw@UDPClient@RACERMATE@@QAEGXZ 10041dd0 f   ctsrv:udp_client.obj
 0001:00040de0       ?get_handlebar_buttons@UDPClient@RACERMATE@@QAEHXZ 10041de0 f   ctsrv:udp_client.obj
 0001:00040e50       ?get_ss_data@UDPClient@RACERMATE@@AAE?AUSSDATA@@H@Z 10041e50 f   ctsrv:udp_client.obj
 0001:00040ed0       ?get_status_bits@UDPClient@RACERMATE@@QAEHXZ 10041ed0 f   ctsrv:udp_client.obj
 0001:00040ee0       ?get_ubermsg@UDPClient@RACERMATE@@AAEHXZ 10041ee0 f   ctsrv:udp_client.obj
 0001:00041050       ?get_watts_factor@UDPClient@RACERMATE@@QAEMXZ 10042050 f   ctsrv:udp_client.obj
 0001:00041070       ?init@UDPClient@RACERMATE@@AAEHXZ 10042070 f   ctsrv:udp_client.obj
 0001:00041900       ?is_paused@UDPClient@RACERMATE@@QAE_NXZ 10042900 f   ctsrv:udp_client.obj
 0001:00041950       ?process@UDPClient@RACERMATE@@QAEXXZ 10042950 f   ctsrv:udp_client.obj
 0001:00041db0       ?send_ctlmsg@UDPClient@RACERMATE@@AAEHH@Z 10042db0 f   ctsrv:udp_client.obj
 0001:00041ed0       ?set_draft_wind@UDPClient@RACERMATE@@AAEXM@Z 10042ed0 f   ctsrv:udp_client.obj
 0001:00041ef0       ?set_ergo_mode@UDPClient@RACERMATE@@QAEHHGM@Z 10042ef0 f   ctsrv:udp_client.obj
 0001:00041f40       ?set_export@UDPClient@RACERMATE@@QAEXPBD@Z 10042f40 f   ctsrv:udp_client.obj
 0001:00041fd0       ?set_file_mode@UDPClient@RACERMATE@@QAEX_N@Z 10042fd0 f   ctsrv:udp_client.obj
 0001:00041fe0       ?set_grade@UDPClient@RACERMATE@@AAEHMMMH@Z 10042fe0 f   ctsrv:udp_client.obj
 0001:000420b0       ?set_hr_bounds@UDPClient@RACERMATE@@QAEHHH_N@Z 100430b0 f   ctsrv:udp_client.obj
 0001:000420e0       ?set_kgs@UDPClient@RACERMATE@@QAEXMM@Z 100430e0 f   ctsrv:udp_client.obj
 0001:00042130       ?set_lbs@UDPClient@RACERMATE@@QAEXMM@Z 10043130 f   ctsrv:udp_client.obj
 0001:00042160       ?set_paused@UDPClient@RACERMATE@@QAEX_N@Z 10043160 f   ctsrv:udp_client.obj
 0001:00042200       ?set_wind@UDPClient@RACERMATE@@AAEXM@Z 10043200 f   ctsrv:udp_client.obj
 0001:00042220       ?start_cal@UDPClient@RACERMATE@@QAEHXZ 10043220 f   ctsrv:udp_client.obj
 0001:00042240       ?updateHardware@UDPClient@RACERMATE@@AAEHXZ 10043240 f   ctsrv:udp_client.obj
 0001:000423d0       ??0?$QList@VQNetworkAddressEntry@@@@QAE@ABV0@@Z 100433d0 f i ctsrv:ctsrvworker.obj
 0001:00042480       ??0?$QList@VQNetworkInterface@@@@QAE@ABV0@@Z 10043480 f i ctsrv:ctsrvworker.obj
 0001:00042530       ??0IPrintDialogServices@ctsrvWorker@RACERMATE@@QAE@ABV012@@Z 10043530 f i ctsrv:ctsrvworker.obj
 0001:000425d0       ??0IPrintDialogServices@ctsrvWorker@RACERMATE@@QAE@XZ 100435d0 f i ctsrv:ctsrvworker.obj
 0001:000426a0       ??0ctsrvWorker@RACERMATE@@QAE@FFVQString@@HPAVQObject@@@Z 100436a0 f   ctsrv:ctsrvworker.obj
 0001:00042cd0       ??1?$QForeachContainer@V?$QList@VQNetworkAddressEntry@@@@@@QAE@XZ 10043cd0 f i ctsrv:ctsrvworker.obj
 0001:00042ce0       ??1?$QForeachContainer@V?$QList@VQNetworkInterface@@@@@@QAE@XZ 10043ce0 f i ctsrv:ctsrvworker.obj
 0001:00042cf0       ??1?$QHash@VQString@@PAVUDPClient@RACERMATE@@@@QAE@XZ 10043cf0 f i ctsrv:ctsrvworker.obj
 0001:00042d50       ??1?$QHash@VQString@@VBCINF@ctsrvWorker@RACERMATE@@@@QAE@XZ 10043d50 f i ctsrv:ctsrvworker.obj
 0001:00042db0       ??1?$QHash@VQString@@VIPrintDialogServices@ctsrvWorker@RACERMATE@@@@QAE@XZ 10043db0 f i ctsrv:ctsrvworker.obj
 0001:00042e10       ??1?$QList@VQNetworkAddressEntry@@@@QAE@XZ 10043e10 f i ctsrv:ctsrvworker.obj
 0001:00042ea0       ??1?$QList@VQNetworkInterface@@@@QAE@XZ 10043ea0 f i ctsrv:ctsrvworker.obj
 0001:00042f30       ??1BCINF@ctsrvWorker@RACERMATE@@QAE@XZ 10043f30 f i ctsrv:ctsrvworker.obj
 0001:00042f50       ??1IPrintDialogServices@ctsrvWorker@RACERMATE@@QAE@XZ 10043f50 f i ctsrv:ctsrvworker.obj
 0001:00042f90       ??1ctsrvWorker@RACERMATE@@UAE@XZ 10043f90 f i ctsrv:ctsrvworker.obj
 0001:00043070       ??A?$QHash@VQString@@VBCINF@ctsrvWorker@RACERMATE@@@@QAEAAVBCINF@ctsrvWorker@RACERMATE@@ABVQString@@@Z 10044070 f i ctsrv:ctsrvworker.obj
 0001:000431f0       ??A?$QHash@VQString@@VIPrintDialogServices@ctsrvWorker@RACERMATE@@@@QAEAAVIPrintDialogServices@ctsrvWorker@RACERMATE@@ABVQString@@@Z 100441f0 f i ctsrv:ctsrvworker.obj
 0001:00043390       ??_GQTimer@@UAEPAXI@Z      10044390 f i ctsrv:ctsrvworker.obj
 0001:00043390       ??_EQTimer@@UAEPAXI@Z      10044390 f i ctsrv:ctsrvworker.obj
 0001:000433c0       ??_EQUdpSocket@@UAEPAXI@Z  100443c0 f i ctsrv:ctsrvworker.obj
 0001:000433c0       ??_GQUdpSocket@@UAEPAXI@Z  100443c0 f i ctsrv:ctsrvworker.obj
 0001:000433f0       ??_EctsrvWorker@RACERMATE@@UAEPAXI@Z 100443f0 f i ctsrv:ctsrvworker.obj
 0001:000433f0       ??_GctsrvWorker@RACERMATE@@UAEPAXI@Z 100443f0 f i ctsrv:ctsrvworker.obj
 0001:00043420       ?append@?$QList@VQNetworkAddressEntry@@@@QAEXABVQNetworkAddressEntry@@@Z 10044420 f i ctsrv:ctsrvworker.obj
 0001:00043510       ?bc_timeout@ctsrvWorker@RACERMATE@@AAEXXZ 10044510 f   ctsrv:ctsrvworker.obj
 0001:00043960       ?clear@?$QHash@VQString@@VBCINF@ctsrvWorker@RACERMATE@@@@QAEXXZ 10044960 f i ctsrv:ctsrvworker.obj
 0001:00043a00       ?connected_to_trainer_slot@ctsrvWorker@RACERMATE@@AAEXVQString@@_N@Z 10044a00 f   ctsrv:ctsrvworker.obj
 0001:00043b10       ?createNode@?$QHash@VQString@@VBCINF@ctsrvWorker@RACERMATE@@@@AAEPAU?$QHashNode@VQString@@VBCINF@ctsrvWorker@RACERMATE@@@@IABVQString@@ABVBCINF@ctsrvWorker@RACERMATE@@PAPAU2@@Z 10044b10 f i ctsrv:ctsrvworker.obj
 0001:00043bd0       ?create_udp_server_socket@ctsrvWorker@RACERMATE@@AAEHXZ 10044bd0 f   ctsrv:ctsrvworker.obj
 0001:00043d20       ?ctlmsg_slot@ctsrvWorker@RACERMATE@@AAEXVQString@@PAEH@Z 10044d20 f   ctsrv:ctsrvworker.obj
 0001:00043e10       ?deleteNode2@?$QHash@VQString@@VBCINF@ctsrvWorker@RACERMATE@@@@CAXPAUNode@QHashData@@@Z 10044e10 f i ctsrv:ctsrvworker.obj
 0001:00043e40       ?deleteNode2@?$QHash@VQString@@VIPrintDialogServices@ctsrvWorker@RACERMATE@@@@CAXPAUNode@QHashData@@@Z 10044e40 f i ctsrv:ctsrvworker.obj
 0001:00043e90       ?detach_helper_grow@?$QList@VQNetworkAddressEntry@@@@AAEPAUNode@1@HH@Z 10044e90 f i ctsrv:ctsrvworker.obj
 0001:00044010       ?duplicateNode@?$QHash@VQString@@VBCINF@ctsrvWorker@RACERMATE@@@@CAXPAUNode@QHashData@@PAX@Z 10045010 f i ctsrv:ctsrvworker.obj
 0001:000440b0       ?duplicateNode@?$QHash@VQString@@VIPrintDialogServices@ctsrvWorker@RACERMATE@@@@CAXPAUNode@QHashData@@PAX@Z 100450b0 f i ctsrv:ctsrvworker.obj
 0001:00044130       ?findNode@?$QHash@VQString@@PAVUDPClient@RACERMATE@@@@ABEPAPAU?$QHashNode@VQString@@PAVUDPClient@RACERMATE@@@@ABVQString@@I@Z 10045130 f i ctsrv:ctsrv.obj
 0001:00044130       ?findNode@?$QHash@VQString@@VIPrintDialogServices@ctsrvWorker@RACERMATE@@@@ABEPAPAU?$QHashNode@VQString@@VIPrintDialogServices@ctsrvWorker@RACERMATE@@@@ABVQString@@I@Z 10045130 f i ctsrv:ctsrvworker.obj
 0001:00044130       ?findNode@?$QHash@VQString@@VBCINF@ctsrvWorker@RACERMATE@@@@ABEPAPAU?$QHashNode@VQString@@VBCINF@ctsrvWorker@RACERMATE@@@@ABVQString@@I@Z 10045130 f i ctsrv:ctsrvworker.obj
 0001:000441a0       ?get_appkey@ctsrvWorker@RACERMATE@@AAE?AVQString@@V3@@Z 100451a0 f   ctsrv:ctsrvworker.obj
 0001:00044260       ?have@ctsrvWorker@RACERMATE@@AAE_NPBD@Z 10045260 f   ctsrv:ctsrvworker.obj
 0001:00044310       ?hostFound@ctsrvWorker@RACERMATE@@AAEXXZ 10045310 f   ctsrv:ctsrvworker.obj
 0001:00044320       ?keys@?$QHash@VQString@@PAVUDPClient@RACERMATE@@@@QBE?AV?$QList@VQString@@@@XZ 10045320 f i ctsrv:ctsrv.obj
 0001:00044320       ?keys@?$QHash@VQString@@VBCINF@ctsrvWorker@RACERMATE@@@@QBE?AV?$QList@VQString@@@@XZ 10045320 f i ctsrv:ctsrvworker.obj
 0001:00044400       ?node_copy@?$QList@VQNetworkAddressEntry@@@@AAEXPAUNode@1@00@Z 10045400 f i ctsrv:ctsrvworker.obj
 0001:000444b0       ?node_copy@?$QList@VQNetworkInterface@@@@AAEXPAUNode@1@00@Z 100454b0 f i ctsrv:ctsrvworker.obj
 0001:00044560       ?node_destruct@?$QList@VQNetworkAddressEntry@@@@AAEXPAUNode@1@0@Z 10045560 f i ctsrv:ctsrvworker.obj
 0001:00044590       ?processPendingDatagrams@ctsrvWorker@RACERMATE@@AAEXXZ 10045590 f   ctsrv:ctsrvworker.obj
 0001:00044f50       ?remove@?$QHash@VQString@@PAVUDPClient@RACERMATE@@@@QAEHABVQString@@@Z 10045f50 f i ctsrv:ctsrvworker.obj
 0001:00045010       ?scan_interfaces@ctsrvWorker@RACERMATE@@AAEHXZ 10046010 f   ctsrv:ctsrvworker.obj
 0001:00045cd0       ?start@ctsrvWorker@RACERMATE@@QAEXXZ 10046cd0 f   ctsrv:ctsrvworker.obj
 0001:00045d50       ?stop@ctsrvWorker@RACERMATE@@QAEXXZ 10046d50 f   ctsrv:ctsrvworker.obj
 0001:00046220       ?timeout@ctsrvWorker@RACERMATE@@AAEXXZ 10047220 f   ctsrv:ctsrvworker.obj
 0001:000463b0       ?connected_to_trainer_signal@UDPClient@RACERMATE@@QAEXVQString@@_N@Z 100473b0 f   ctsrv:moc_udp_client.obj
 0001:00046430       ?ctlmsg_signal@UDPClient@RACERMATE@@QAEXVQString@@PAEH@Z 10047430 f   ctsrv:moc_udp_client.obj
 0001:000464c0       ?data_signal@UDPClient@RACERMATE@@QAEXVQString@@PAVQT_DATA@2@@Z 100474c0 f   ctsrv:moc_udp_client.obj
 0001:00046550       ?metaObject@UDPClient@RACERMATE@@UBEPBUQMetaObject@@XZ 10047550 f   ctsrv:moc_udp_client.obj
 0001:00046570       ?qt_metacall@UDPClient@RACERMATE@@UAEHW4Call@QMetaObject@@HPAPAX@Z 10047570 f   ctsrv:moc_udp_client.obj
 0001:000465d0       ?qt_metacast@UDPClient@RACERMATE@@UAEPAXPBD@Z 100475d0 f   ctsrv:moc_udp_client.obj
 0001:00046630       ?qt_static_metacall@UDPClient@RACERMATE@@CAXPAVQObject@@W4Call@QMetaObject@@HPAPAX@Z 10047630 f   ctsrv:moc_udp_client.obj
 0001:00046770       ?rescale_signal@UDPClient@RACERMATE@@QAEHVQString@@H@Z 10047770 f   ctsrv:moc_udp_client.obj
 0001:00046800       ?ss_signal@UDPClient@RACERMATE@@QAEXVQString@@PAVSSD@qt_SS@2@@Z 10047800 f   ctsrv:moc_udp_client.obj
 0001:00046890       ?connected_to_trainer_signal@ctsrvWorker@RACERMATE@@QAEXVQString@@_N@Z 10047890 f   ctsrv:moc_ctsrvworker.obj
 0001:00046910       ?data_signal@ctsrvWorker@RACERMATE@@QAEXVQString@@PAVQT_DATA@2@@Z 10047910 f   ctsrv:moc_ctsrvworker.obj
 0001:000469a0       ?finished@ctsrvWorker@RACERMATE@@QAEXXZ 100479a0 f   ctsrv:moc_ctsrvworker.obj
 0001:000469c0       ?metaObject@ctsrvWorker@RACERMATE@@UBEPBUQMetaObject@@XZ 100479c0 f   ctsrv:moc_ctsrvworker.obj
 0001:000469e0       ?qt_metacall@ctsrvWorker@RACERMATE@@UAEHW4Call@QMetaObject@@HPAPAX@Z 100479e0 f   ctsrv:moc_ctsrvworker.obj
 0001:00046a40       ?qt_metacast@ctsrvWorker@RACERMATE@@UAEPAXPBD@Z 10047a40 f   ctsrv:moc_ctsrvworker.obj
 0001:00046aa0       ?qt_static_metacall@ctsrvWorker@RACERMATE@@CAXPAVQObject@@W4Call@QMetaObject@@HPAPAX@Z 10047aa0 f   ctsrv:moc_ctsrvworker.obj
 0001:00046c80       ?rescale_signal@ctsrvWorker@RACERMATE@@QAEXVQString@@H@Z 10047c80 f   ctsrv:moc_ctsrvworker.obj
 0001:00046d00       ?resultReady@ctsrvWorker@RACERMATE@@QAEXABVQString@@@Z 10047d00 f   ctsrv:moc_ctsrvworker.obj
 0001:00046d30       ?ss_signal@ctsrvWorker@RACERMATE@@QAEXVQString@@PAVSSD@qt_SS@2@@Z 10047d30 f   ctsrv:moc_ctsrvworker.obj
 0001:00046dc0       ??0?$QForeachContainer@V?$QMap@GUSENSOR@@@@@@QAE@ABV?$QMap@GUSENSOR@@@@@Z 10047dc0 f i rmant:ant.obj
 0001:00046e50       ??0?$QList@I@@QAE@ABV0@@Z  10047e50 f i rmant:ant.obj
 0001:00046f00       ??0?$QMap@GUSENSOR@@@@QAE@ABV0@@Z 10047f00 f i rmant:ant.obj
 0001:00046f60       ??0ANT@RACERMATE@@QAE@HPAVQObject@@@Z 10047f60 f   rmant:ant.obj
 0001:00047240       ??0ANT@RACERMATE@@QAE@PAVQObject@@@Z 10048240 f   rmant:ant.obj
 0001:00047520       ??0ANTCHAN@@QAE@ABV0@@Z    10048520 f i rmant:ant.obj
 0001:000475c0       ??1?$QForeachContainer@V?$QList@I@@@@QAE@XZ 100485c0 f i rmant:ant.obj
 0001:00047620       ??1?$QForeachContainer@V?$QMap@GUSENSOR@@@@@@QAE@XZ 10048620 f i rmant:ant.obj
 0001:00047620       ??1ANTCHAN@@QAE@XZ         10048620 f i rmant:antchan.obj
 0001:000476a0       ??1?$QList@I@@QAE@XZ       100486a0 f i rmant:ant.obj
 0001:00047700       ??1?$QMap@IPAVANTDEV@@@@QAE@XZ 10048700 f i rmant:ant.obj
 0001:00047770       ??1ANT@RACERMATE@@UAE@XZ   10048770 f   rmant:ant.obj
 0001:00047b60       ??4?$QMap@GUSENSOR@@@@QAEAAV0@ABV0@@Z 10048b60 f i rmant:ant.obj
 0001:00047bf0       ??4ANTCHAN@@QAEAAV0@ABV0@@Z 10048bf0 f i rmant:ant.obj
 0001:00047c40       ??A?$QMap@GUSENSOR@@@@QAEAAUSENSOR@@ABG@Z 10048c40 f i rmant:ant.obj
 0001:00047ce0       ??A?$QMap@HVANTCHAN@@@@QAEAAVANTCHAN@@ABH@Z 10048ce0 f i rmant:ant.obj
 0001:00047da0       ??A?$QMap@IPAVANTDEV@@@@QAEAAPAVANTDEV@@ABI@Z 10048da0 f i rmant:ant.obj
 0001:00047e20       ??_EANT@RACERMATE@@UAEPAXI@Z 10048e20 f i rmant:ant.obj
 0001:00047ed0       ?append@?$QList@I@@QAEXABI@Z 10048ed0 f i rmant:ant.obj
 0001:00047f60       ?assign_sensor@ANT@RACERMATE@@QAEHHH@Z 10048f60 f   rmant:ant.obj
 0001:000480d0       ?clear@?$QMap@GUSENSOR@@@@QAEXXZ 100490d0 f i rmant:antdev.obj
 0001:000480d0       ?clear@?$QMap@IPAVANTDEV@@@@QAEXXZ 100490d0 f i rmant:ant.obj
 0001:000481a0       ?contains@?$QMap@GUSENSOR@@@@QBE_NABG@Z 100491a0 f i rmant:ant.obj
 0001:000481e0       ?copy@?$QMapNode@GUSENSOR@@@@QBEPAU1@PAU?$QMapData@GUSENSOR@@@@@Z 100491e0 f i rmant:ant.obj
 0001:00048260       ?copy@?$QMapNode@HVANTCHAN@@@@QBEPAU1@PAU?$QMapData@HVANTCHAN@@@@@Z 10049260 f i rmant:ant.obj
 0001:000482e0       ?copy@?$QMapNode@IPAVANTDEV@@@@QBEPAU1@PAU?$QMapData@IPAVANTDEV@@@@@Z 100492e0 f i rmant:ant.obj
 0001:00048360       ?createNode@?$QMapData@GUSENSOR@@@@QAEPAU?$QMapNode@GUSENSOR@@@@ABGABUSENSOR@@PAU2@_N@Z 10049360 f i rmant:ant.obj
 0001:000483b0       ?createNode@?$QMapData@HVANTCHAN@@@@QAEPAU?$QMapNode@HVANTCHAN@@@@ABHABVANTCHAN@@PAU2@_N@Z 100493b0 f i rmant:ant.obj
 0001:00048450       ?createNode@?$QMapData@IPAVANTDEV@@@@QAEPAU?$QMapNode@IPAVANTDEV@@@@ABIABQAVANTDEV@@PAU2@_N@Z 10049450 f i rmant:ant.obj
 0001:00048490       ?destroySubTree@?$QMapNode@HVANTCHAN@@@@QAEXXZ 10049490 f i rmant:ant.obj
 0001:000484b0       ?detach_helper@?$QList@I@@AAEXH@Z 100494b0 f i rmant:ant.obj
 0001:00048580       ?detach_helper@?$QMap@GUSENSOR@@@@AAEXXZ 10049580 f i rmant:ant.obj
 0001:00048600       ?detach_helper@?$QMap@HVANTCHAN@@@@AAEXXZ 10049600 f i rmant:ant.obj
 0001:000486a0       ?detach_helper@?$QMap@IPAVANTDEV@@@@AAEXXZ 100496a0 f i rmant:ant.obj
 0001:00048720       ?detach_helper_grow@?$QList@I@@AAEPAUNode@1@HH@Z 10049720 f i rmant:ant.obj
 0001:00048860       ?dump@ANT@RACERMATE@@QAEXXZ 10049860 f   rmant:ant.obj
 0001:00048a50       ?dump_antdevs@ANT@RACERMATE@@AAEXXZ 10049a50 f   rmant:ant.obj
 0001:00048bf0       ?get_ant_cadence@ANT@RACERMATE@@QAEMI@Z 10049bf0 f   rmant:ant.obj
 0001:00048c40       ?get_ant_wheel_rpm@ANT@RACERMATE@@QAEMI@Z 10049c40 f   rmant:ant.obj
 0001:00048c40       ?get_ant_meters_per_hour@ANT@RACERMATE@@QAEMI@Z 10049c40 f   rmant:ant.obj
 0001:00048c50       ?get_hr@ANT@RACERMATE@@QAEHG@Z 10049c50 f   rmant:ant.obj
 0001:00048e00       ?get_n_devices@ANT@RACERMATE@@QAEHXZ 10049e00 f   rmant:ant.obj
 0001:00048e10       ?get_sensors@ANT@RACERMATE@@QAEPBUSENSORS@@XZ 10049e10 f   rmant:ant.obj
 0001:00048e60       ?get_sensors_string@ANT@RACERMATE@@QAEPBDXZ 10049e60 f   rmant:ant.obj
 0001:00048f50       ?get_sticks@ANT@RACERMATE@@QAEPBDXZ 10049f50 f   rmant:ant.obj
 0001:000491c0       ?init@ANT@RACERMATE@@AAEHXZ 1004a1c0 f   rmant:ant.obj
 0001:00049720       ?insert@?$QMap@GUSENSOR@@@@QAE?AViterator@1@ABGABUSENSOR@@@Z 1004a720 f i rmant:ant.obj
 0001:000497c0       ?insert@?$QMap@HVANTCHAN@@@@QAE?AViterator@1@ABHABVANTCHAN@@@Z 1004a7c0 f i rmant:ant.obj
 0001:00049860       ?insert@?$QMap@IPAVANTDEV@@@@QAE?AViterator@1@ABIABQAVANTDEV@@@Z 1004a860 f i rmant:ant.obj
 0001:000498f0       ?keys@?$QMap@IPAVANTDEV@@@@QBE?AV?$QList@I@@XZ 1004a8f0 f i rmant:ant.obj
 0001:000499b0       ?lock_logging@ANT@RACERMATE@@AAEXXZ 1004a9b0 f   rmant:ant.obj
 0001:000499c0       ?logg@ANT@RACERMATE@@AAAXPBDZZ 1004a9c0 f   rmant:ant.obj
 0001:00049af0       ?merge_log_files@ANT@RACERMATE@@AAEXXZ 1004aaf0 f   rmant:ant.obj
 0001:00049bf0       ?node_copy@?$QList@I@@AAEXPAUNode@1@00@Z 1004abf0 f i rmant:ant.obj
 0001:00049c20       ?remove@?$QMap@IPAVANTDEV@@@@QAEHABI@Z 1004ac20 f i rmant:ant.obj
 0001:00049c80       ?scan_for_devices@ANT@RACERMATE@@QAEHXZ 1004ac80 f   rmant:ant.obj
 0001:0004a6e0       ?start_listening@ANT@RACERMATE@@QAEHXZ 1004b6e0 f   rmant:ant.obj
 0001:0004a7d0       ?stop@ANT@RACERMATE@@QAEHXZ 1004b7d0 f   rmant:ant.obj
 0001:0004a7f0       ?unassign_sensor@ANT@RACERMATE@@QAEHH@Z 1004b7f0 f   rmant:ant.obj
 0001:0004a9f0       ?unlock_logging@ANT@RACERMATE@@AAEXXZ 1004b9f0 f   rmant:ant.obj
 0001:0004aa00       ?metaObject@ANT@RACERMATE@@UBEPBUQMetaObject@@XZ 1004ba00 f   rmant:moc_ant.obj
 0001:0004aa20       ?qt_metacall@ANT@RACERMATE@@UAEHW4Call@QMetaObject@@HPAPAX@Z 1004ba20 f   rmant:moc_ant.obj
 0001:0004aa30       ?qt_metacast@ANT@RACERMATE@@UAEPAXPBD@Z 1004ba30 f   rmant:moc_ant.obj
 0001:0004aa90       ??0ANTCHAN@@QAE@XZ         1004ba90 f   rmant:antchan.obj
 0001:0004aad0       ?reset@ANTCHAN@@QAEXXZ     1004bad0 f   rmant:antchan.obj
 0001:0004ab00       ??$_Destroy_range@U?$_Wrap_alloc@V?$allocator@VALTSETTING@@@std@@@std@@@std@@YAXPAVALTSETTING@@0AAU?$_Wrap_alloc@V?$allocator@VALTSETTING@@@std@@@0@@Z 1004bb00 f i rmant:antdev.obj
 0001:0004ab80       ??$_Destroy_range@U?$_Wrap_alloc@V?$allocator@VINTF@@@std@@@std@@@std@@YAXPAVINTF@@0AAU?$_Wrap_alloc@V?$allocator@VINTF@@@std@@@0@@Z 1004bb80 f i rmant:antdev.obj
 0001:0004ac20       ??0?$QForeachContainer@V?$QMap@HVANTCHAN@@@@@@QAE@ABV?$QMap@HVANTCHAN@@@@@Z 1004bc20 f i rmant:antdev.obj
 0001:0004acb0       ??0?$QMap@HVQString@@@@QAE@V?$initializer_list@U?$pair@HVQString@@@std@@@std@@@Z 1004bcb0 f i rmant:antdev.obj
 0001:0004ad50       ??0ANTDEV@@QAE@_JHHPAVQObject@@@Z 1004bd50 f   rmant:antdev.obj
 0001:0004b1d0       ??1?$QForeachContainer@V?$QMap@HVANTCHAN@@@@@@QAE@XZ 1004c1d0 f i rmant:antdev.obj
 0001:0004b1e0       ??1?$QMap@HVANTCHAN@@@@QAE@XZ 1004c1e0 f i rmant:antdev.obj
 0001:0004b270       ??1?$QMap@HVQString@@@@QAE@XZ 1004c270 f i rmant:antdev.obj
 0001:0004b310       ??1?$pair@HVQString@@@std@@QAE@XZ 1004c310 f i rmant:antdev.obj
 0001:0004b320       ??1?$vector@VINTF@@V?$allocator@VINTF@@@std@@@std@@QAE@XZ 1004c320 f i rmant:antdev.obj
 0001:0004b370       ??1ANTDEV@@UAE@XZ          1004c370 f   rmant:antdev.obj
 0001:0004b750       ??A?$QMap@HVQString@@@@QAEAAVQString@@ABH@Z 1004c750 f i rmant:antdev.obj
 0001:0004b810       ??_GANTDEV@@UAEPAXI@Z      1004c810 f i rmant:antdev.obj
 0001:0004b810       ??_EANTDEV@@UAEPAXI@Z      1004c810 f i rmant:antdev.obj
 0001:0004b840       ?ant_decode_speed_cadence@ANTDEV@@AAEHXZ 1004c840 f   rmant:antdev.obj
 0001:0004baf0       ?assign@ANTDEV@@QAEHHH@Z   1004caf0 f   rmant:antdev.obj
 0001:0004c2a0       ?checksum@ANTDEV@@AAEXPAEH@Z 1004d2a0 f   rmant:antdev.obj
 0001:0004c360       ?clear@ANTDEV@@AAEXXZ      1004d360 f   rmant:antdev.obj
 0001:0004c420       ?clear@INTF@@QAEXXZ        1004d420 f i rmant:antdev.obj
 0001:0004c490       ?close_chan@ANTDEV@@AAEHH@Z 1004d490 f   rmant:antdev.obj
 0001:0004c540       ?copy@?$QMapNode@HVQString@@@@QBEPAU1@PAU?$QMapData@HVQString@@@@@Z 1004d540 f i rmant:antdev.obj
 0001:0004c5c0       ?createNode@?$QMapData@HVQString@@@@QAEPAU?$QMapNode@HVQString@@@@ABHABVQString@@PAU2@_N@Z 1004d5c0 f i rmant:antdev.obj
 0001:0004c600       ?decode_hr@ANTDEV@@AAEHXZ  1004d600 f   rmant:antdev.obj
 0001:0004c880       ?destroySubTree@?$QMapNode@HVQString@@@@QAEXXZ 1004d880 f i rmant:antdev.obj
 0001:0004c8b0       ?detach_helper@?$QMap@HVQString@@@@AAEXXZ 1004d8b0 f i rmant:antdev.obj
 0001:0004c950       ?dump_channels@ANTDEV@@QAEXPBD@Z 1004d950 f   rmant:antdev.obj
 0001:0004ccb0       ?get_hr@ANTDEV@@QAEHG@Z    1004dcb0 f   rmant:antdev.obj
 0001:0004cf80       ?get_sensors@ANTDEV@@QAEPBUSENSORS@@XZ 1004df80 f   rmant:antdev.obj
 0001:0004d100       ?get_sensors_string@ANTDEV@@QAE?AVQString@@XZ 1004e100 f   rmant:antdev.obj
 0001:0004d2e0       ?init@ANTDEV@@AAEHXZ       1004e2e0 f   rmant:antdev.obj
 0001:0004d530       ?insert@?$QMap@HVQString@@@@QAE?AViterator@1@ABHABVQString@@@Z 1004e530 f i rmant:antdev.obj
 0001:0004d5d0       ?logg@ANTDEV@@AAAXPBDZZ    1004e5d0 f   rmant:antdev.obj
 0001:0004d720       ?open_listening_channel@ANTDEV@@AAEHXZ 1004e720 f   rmant:antdev.obj
 0001:0004d7d0       ?process@ANTDEV@@AAEXXZ    1004e7d0 f   rmant:antdev.obj
 0001:0004e0d0       ?qRound@@YAHN@Z            1004f0d0 f i rmant:antdev.obj
 0001:0004e120       ?reader@ANTDEV@@AAEXXZ     1004f120 f   rmant:antdev.obj
 0001:0004e270       ?receiveByte@ANTDEV@@AAEXE@Z 1004f270 f   rmant:antdev.obj
 0001:0004e460       ?remove@?$QMap@HVANTCHAN@@@@QAEHABH@Z 1004f460 f i rmant:antdev.obj
 0001:0004e4d0       ?rx@ANTDEV@@AAEHXZ         1004f4d0 f   rmant:antdev.obj
 0001:0004e6c0       ?send@ANTDEV@@AAEHPBEH@Z   1004f6c0 f   rmant:antdev.obj
 0001:0004e730       ?set_device@ANTDEV@@QAEHPAUlibusb_device@@@Z 1004f730 f   rmant:antdev.obj
 0001:0004e980       ?start@ANTDEV@@QAEHXZ      1004f980 f   rmant:antdev.obj
 0001:0004edc0       ?start_listening@ANTDEV@@QAEHXZ 1004fdc0 f   rmant:antdev.obj
 0001:0004f3d0       ?tx@ANTDEV@@AAEHPAEHK@Z    100503d0 f   rmant:antdev.obj
 0001:0004f510       ?unassign@ANTDEV@@QAEHHH@Z 10050510 f   rmant:antdev.obj
 0001:0004f6b0       ?wfm@ANTDEV@@AAE_NE_J@Z    100506b0 f   rmant:antdev.obj
 0001:0004f890       ?wfr@ANTDEV@@AAE_NE_J@Z    10050890 f   rmant:antdev.obj
 0001:0004faf0       ?writer@ANTDEV@@AAEXXZ     10050af0 f   rmant:antdev.obj
 0001:0004fb60       ??0antWorker@RACERMATE@@QAE@_JHPAVQObject@@@Z 10050b60 f   rmant:antworker.obj
 0001:0004ff60       ??_GantWorker@RACERMATE@@UAEPAXI@Z 10050f60 f i rmant:antworker.obj
 0001:0004ff60       ??_EantWorker@RACERMATE@@UAEPAXI@Z 10050f60 f i rmant:antworker.obj
 0001:0004ffa0       ?logg@antWorker@RACERMATE@@AAAXPBDZZ 10050fa0 f   rmant:antworker.obj
 0001:000500d0       ?start@antWorker@RACERMATE@@QAEXXZ 100510d0 f   rmant:antworker.obj
 0001:000501c0       ?stop@antWorker@RACERMATE@@QAEXXZ 100511c0 f   rmant:antworker.obj
 0001:00050280       ?timeout_slot@antWorker@RACERMATE@@AAEXXZ 10051280 f   rmant:antworker.obj
 0001:000502a0       ??0sMav@@QAE@H_N@Z         100512a0 f   rmant:smav.obj
 0001:00050360       ??1sMav@@QAE@XZ            10051360 f   rmant:smav.obj
 0001:000503a0       ?compute@sMav@@QAEMM@Z     100513a0 f   rmant:smav.obj
 0001:00050460       ?reset@sMav@@QAEXM@Z       10051460 f   rmant:smav.obj
 0001:000504e0       ??0MEDIAN@@QAE@H@Z         100514e0 f   rmant:median.obj
 0001:00050520       ??1MEDIAN@@QAE@XZ          10051520 f   rmant:median.obj
 0001:00050540       ?metaObject@ANTDEV@@UBEPBUQMetaObject@@XZ 10051540 f   rmant:moc_antdev.obj
 0001:00050560       ?qt_metacall@ANTDEV@@UAEHW4Call@QMetaObject@@HPAPAX@Z 10051560 f   rmant:moc_antdev.obj
 0001:000505e0       ?qt_metacast@ANTDEV@@UAEPAXPBD@Z 100515e0 f   rmant:moc_antdev.obj
 0001:00050640       ?qt_static_metacall@ANTDEV@@CAXPAVQObject@@W4Call@QMetaObject@@HPAPAX@Z 10051640 f   rmant:moc_antdev.obj
 0001:00050670       ?metaObject@antWorker@RACERMATE@@UBEPBUQMetaObject@@XZ 10051670 f   rmant:moc_antworker.obj
 0001:00050690       ?qt_metacall@antWorker@RACERMATE@@UAEHW4Call@QMetaObject@@HPAPAX@Z 10051690 f   rmant:moc_antworker.obj
 0001:000506f0       ?qt_metacast@antWorker@RACERMATE@@UAEPAXPBD@Z 100516f0 f   rmant:moc_antworker.obj
 0001:00050750       ?qt_static_metacall@antWorker@RACERMATE@@CAXPAVQObject@@W4Call@QMetaObject@@HPAPAX@Z 10051750 f   rmant:moc_antworker.obj
 0001:000507d0       ?worker_finished@antWorker@RACERMATE@@QAEXXZ 100517d0 f   rmant:moc_antworker.obj
 0001:000507e4       ??_M@YGXPAXIIP6EX0@Z@Z     100517e4 f   MSVCRT:ehvecdtr.obj
 0001:0005085e       ?__ArrayUnwind@@YGXPAXIIP6EX0@Z@Z 1005185e f   MSVCRT:ehvecdtr.obj
 0001:000508cb       ??2@YAPAXI@Z               100518cb f   MSVCRT:new_scalar.obj
 0001:000508fe       ??3@YAXPAX@Z               100518fe f   MSVCRT:delete_scalar.obj
 0001:00050903       ??3@YAXPAXI@Z              10051903 f   MSVCRT:delete_scalar_size.obj
 0001:00050911       ??_V@YAXPAXI@Z             10051911 f   MSVCRT:delete_array_size.obj
 0001:0005091f       @__security_check_cookie@4 1005191f f   MSVCRT:_secchk_.obj
 0001:00050930       ??_Etype_info@@UAEPAXI@Z   10051930 f i MSVCRT:std_type_info_static.obj
 0001:00050930       ??_Gtype_info@@UAEPAXI@Z   10051930 f i MSVCRT:std_type_info_static.obj
 0001:00050997       ___scrt_acquire_startup_lock 10051997 f   MSVCRT:utility.obj
 0001:000509cc       ___scrt_dllmain_after_initialize_c 100519cc f   MSVCRT:utility.obj
 0001:000509f7       ___scrt_dllmain_before_initialize_c 100519f7 f   MSVCRT:utility.obj
 0001:00050a05       ___scrt_dllmain_crt_thread_attach 10051a05 f   MSVCRT:utility.obj
 0001:00050a24       ___scrt_dllmain_crt_thread_detach 10051a24 f   MSVCRT:utility.obj
 0001:00050a31       ___scrt_dllmain_exception_filter 10051a31 f   MSVCRT:utility.obj
 0001:00050a64       ___scrt_dllmain_uninitialize_c 10051a64 f   MSVCRT:utility.obj
 0001:00050a87       ___scrt_dllmain_uninitialize_critical 10051a87 f   MSVCRT:utility.obj
 0001:00050a94       ___scrt_initialize_crt     10051a94 f   MSVCRT:utility.obj
 0001:00050acd       ___scrt_initialize_onexit_tables 10051acd f   MSVCRT:utility.obj
 0001:00050b64       ___scrt_is_nonwritable_in_current_image 10051b64 f   MSVCRT:utility.obj
 0001:00050bee       ___scrt_release_startup_lock 10051bee f   MSVCRT:utility.obj
 0001:00050c0b       ___scrt_uninitialize_crt   10051c0b f   MSVCRT:utility.obj
 0001:00050c33       __onexit                   10051c33 f   MSVCRT:utility.obj
 0001:00050c6e       _atexit                    10051c6e f   MSVCRT:utility.obj
 0001:00050f8b       __DllMainCRTStartup@12     10051f8b f   MSVCRT:dll_dllmain.obj
 0001:00050fb0       __ftoui3                   10051fb0 f   MSVCRT:_ftol3_.obj
 0001:00050fbf       __ftoul3                   10051fbf f   MSVCRT:_ftol3_.obj
 0001:00050fce       __ftol3                    10051fce f   MSVCRT:_ftol3_.obj
 0001:00050fdb       __ftol3_NaN                10051fdb f   MSVCRT:_ftol3_.obj
 0001:00050ff3       __ftol3_work               10051ff3 f   MSVCRT:_ftol3_.obj
 0001:00051079       __ftol3_common             10052079 f   MSVCRT:_ftol3_.obj
 0001:0005113b       __ftol3_arg_error          1005213b f   MSVCRT:_ftol3_.obj
 0001:0005114d       __ftol3_except             1005214d f   MSVCRT:_ftol3_.obj
 0001:00051191       __dtoui3                   10052191 f   MSVCRT:_ftol3_.obj
 0001:000511a0       __dtoul3                   100521a0 f   MSVCRT:_ftol3_.obj
 0001:000511af       __dtol3                    100521af f   MSVCRT:_ftol3_.obj
 0001:000511bc       __dtol3_NaN                100521bc f   MSVCRT:_ftol3_.obj
 0001:000511d9       __dtol3_work               100521d9 f   MSVCRT:_ftol3_.obj
 0001:000512c0       __ultod3                   100522c0 f   MSVCRT:_ftol3_.obj
 0001:00051300       __ltod3                    10052300 f   MSVCRT:_ftol3_.obj
 0001:00051327       ___raise_securityfailure   10052327 f   MSVCRT:gs_report.obj
 0001:0005134f       ___report_gsfailure        1005234f f   MSVCRT:gs_report.obj
 0001:0005144a       ___report_rangecheckfailure 1005244a f   MSVCRT:gs_report.obj
 0001:00051456       ___report_securityfailure  10052456 f   MSVCRT:gs_report.obj
 0001:00051530       __alldiv                   10052530 f   MSVCRT:lldiv.obj
 0001:000515da       ??_U@YAPAXI@Z              100525da f   MSVCRT:new_array.obj
 0001:000515e3       ??_V@YAXPAX@Z              100525e3 f   MSVCRT:delete_array.obj
 0001:000515e8       @_guard_check_icall@4      100525e8 f i MSVCRT:checkcfg.obj
 0001:000515f0       __SEH_prolog4              100525f0 f   MSVCRT:_sehprolg4_.obj
 0001:00051636       __SEH_epilog4              10052636 f   MSVCRT:_sehprolg4_.obj
 0001:0005164b       __except_handler4          1005264b f   MSVCRT:_chandler4gs_.obj
 0001:0005166e       ??0bad_alloc@std@@QAE@ABV01@@Z 1005266e f i MSVCRT:throw_bad_alloc.obj
 0001:00051689       ??0bad_alloc@std@@QAE@XZ   10052689 f i MSVCRT:throw_bad_alloc.obj
 0001:000516a1       ??0bad_array_new_length@std@@QAE@ABV01@@Z 100526a1 f i MSVCRT:throw_bad_alloc.obj
 0001:000516bc       ??0bad_array_new_length@std@@QAE@XZ 100526bc f i MSVCRT:throw_bad_alloc.obj
 0001:000516d4       ??0exception@std@@QAE@ABV01@@Z 100526d4 f i MSVCRT:throw_bad_alloc.obj
 0001:00051700       ??1bad_array_new_length@std@@UAE@XZ 10052700 f i MSVCRT:throw_bad_alloc.obj
 0001:00051700       ??1bad_alloc@std@@UAE@XZ   10052700 f i MSVCRT:throw_bad_alloc.obj
 0001:00051711       ??_Gbad_alloc@std@@UAEPAXI@Z 10052711 f i MSVCRT:throw_bad_alloc.obj
 0001:00051711       ??_Ebad_array_new_length@std@@UAEPAXI@Z 10052711 f i MSVCRT:throw_bad_alloc.obj
 0001:00051711       ??_Gexception@std@@UAEPAXI@Z 10052711 f i MSVCRT:throw_bad_alloc.obj
 0001:00051711       ??_Gbad_array_new_length@std@@UAEPAXI@Z 10052711 f i MSVCRT:throw_bad_alloc.obj
 0001:00051711       ??_Eexception@std@@UAEPAXI@Z 10052711 f i MSVCRT:throw_bad_alloc.obj
 0001:00051711       ??_Ebad_alloc@std@@UAEPAXI@Z 10052711 f i MSVCRT:throw_bad_alloc.obj
 0001:0005173e       ?__scrt_throw_std_bad_alloc@@YAXXZ 1005273e f   MSVCRT:throw_bad_alloc.obj
 0001:0005175b       ?__scrt_throw_std_bad_array_new_length@@YAXXZ 1005275b f   MSVCRT:throw_bad_alloc.obj
 0001:00051778       ?what@exception@std@@UBEPBDXZ 10052778 f i MSVCRT:throw_bad_alloc.obj
 0001:00051785       ___isa_available_init      10052785 f   MSVCRT:_cpu_disp_.obj
 0001:0005191f       __get_startup_argv_mode    1005291f f   MSVCRT:argv_mode.obj
 0001:00051923       ___scrt_is_ucrt_dll_in_use 10052923 f   MSVCRT:ucrt_detection.obj
 0001:0005192f       ___scrt_fastfail           1005292f f   MSVCRT:utility_desktop.obj
 0001:00051a4a       ___security_init_cookie    10052a4a f   MSVCRT:gs_support.obj
 0001:00051ae6       _DllMain@12                10052ae6 f   MSVCRT:dll_dllmain_stub.obj
 0001:00051b08       ?__scrt_initialize_type_info@@YAXXZ 10052b08 f   MSVCRT:tncleanup.obj
 0001:00051b14       ?__scrt_uninitialize_type_info@@YAXXZ 10052b14 f   MSVCRT:tncleanup.obj
 0001:00051b20       ___scrt_initialize_default_local_stdio_options 10052b20 f   MSVCRT:default_local_stdio_options.obj
 0001:00051b3d       ___scrt_get_dyn_tls_init_callback 10052b3d f   MSVCRT:dyn_tls_init.obj
 0001:00051b43       __RTC_Initialize           10052b43 f   MSVCRT:_initsect_.obj
 0001:00051b6e       __RTC_Terminate            10052b6e f   MSVCRT:_initsect_.obj
 0001:00051b9a       ___std_terminate           10052b9a f   vcruntime:VCRUNTIME140.dll
 0001:00051ba0       __CxxThrowException@8      10052ba0 f   vcruntime:VCRUNTIME140.dll
 0001:00051ba6       ___CxxFrameHandler3        10052ba6 f   vcruntime:VCRUNTIME140.dll
 0001:00051bac       _memcpy                    10052bac f   vcruntime:VCRUNTIME140.dll
 0001:00051bb2       _memset                    10052bb2 f   vcruntime:VCRUNTIME140.dll
 0001:00051bb8       __except_handler4_common   10052bb8 f   vcruntime:VCRUNTIME140.dll
 0001:00051bbe       ___std_exception_copy      10052bbe f   vcruntime:VCRUNTIME140.dll
 0001:00051bc4       ___std_exception_destroy   10052bc4 f   vcruntime:VCRUNTIME140.dll
 0001:00051bca       ___std_type_info_destroy_list 10052bca f   vcruntime:VCRUNTIME140.dll
 0001:00051bd0       _atoi                      10052bd0 f   ucrt:api-ms-win-crt-convert-l1-1-0.dll
 0001:00051bd6       __libm_sse2_pow_precise    10052bd6 f   ucrt:api-ms-win-crt-math-l1-1-0.dll
 0001:00051bdc       __libm_sse2_sqrt_precise   10052bdc f   ucrt:api-ms-win-crt-math-l1-1-0.dll
 0001:00051be2       _strtok                    10052be2 f   ucrt:api-ms-win-crt-string-l1-1-0.dll
 0001:00051be8       _toupper                   10052be8 f   ucrt:api-ms-win-crt-string-l1-1-0.dll
 0001:00051bee       ___acrt_iob_func           10052bee f   ucrt:api-ms-win-crt-stdio-l1-1-0.dll
 0001:00051bf4       _terminate                 10052bf4 f   ucrt:api-ms-win-crt-runtime-l1-1-0.dll
 0001:00051bfa       _free                      10052bfa f   ucrt:api-ms-win-crt-heap-l1-1-0.dll
 0001:00051c00       _malloc                    10052c00 f   ucrt:api-ms-win-crt-heap-l1-1-0.dll
 0001:00051c06       __beginthreadex            10052c06 f   ucrt:api-ms-win-crt-runtime-l1-1-0.dll
 0001:00051c0c       __callnewh                 10052c0c f   ucrt:api-ms-win-crt-heap-l1-1-0.dll
 0001:00051c12       __seh_filter_dll           10052c12 f   ucrt:api-ms-win-crt-runtime-l1-1-0.dll
 0001:00051c18       __configure_narrow_argv    10052c18 f   ucrt:api-ms-win-crt-runtime-l1-1-0.dll
 0001:00051c1e       __initialize_narrow_environment 10052c1e f   ucrt:api-ms-win-crt-runtime-l1-1-0.dll
 0001:00051c24       __initialize_onexit_table  10052c24 f   ucrt:api-ms-win-crt-runtime-l1-1-0.dll
 0001:00051c2a       __register_onexit_function 10052c2a f   ucrt:api-ms-win-crt-runtime-l1-1-0.dll
 0001:00051c30       __execute_onexit_table     10052c30 f   ucrt:api-ms-win-crt-runtime-l1-1-0.dll
 0001:00051c36       __crt_atexit               10052c36 f   ucrt:api-ms-win-crt-runtime-l1-1-0.dll
 0001:00051c3c       __cexit                    10052c3c f   ucrt:api-ms-win-crt-runtime-l1-1-0.dll
 0001:00051c42       __initterm                 10052c42 f   ucrt:api-ms-win-crt-runtime-l1-1-0.dll
 0001:00051c48       __initterm_e               10052c48 f   ucrt:api-ms-win-crt-runtime-l1-1-0.dll
 0001:00051c4e       __except1                  10052c4e f   ucrt:api-ms-win-crt-math-l1-1-0.dll
 0001:00051c54       ?childEvent@QObject@@MAEXPAVQChildEvent@@@Z 10052c54 f   qt5core:Qt5Core.dll
 0001:00051c5a       ?compressEvent@QCoreApplication@@MAE_NPAVQEvent@@PAVQObject@@PAVQPostEventList@@@Z 10052c5a f   qt5core:Qt5Core.dll
 0001:00051c60       ?connectNotify@QObject@@MAEXABVQMetaMethod@@@Z 10052c60 f   qt5core:Qt5Core.dll
 0001:00051c66       ?customEvent@QObject@@MAEXPAVQEvent@@@Z 10052c66 f   qt5core:Qt5Core.dll
 0001:00051c6c       ?disconnectNotify@QObject@@MAEXABVQMetaMethod@@@Z 10052c6c f   qt5core:Qt5Core.dll
 0001:00051c72       ?event@QCoreApplication@@MAE_NPAVQEvent@@@Z 10052c72 f   qt5core:Qt5Core.dll
 0001:00051c78       ?event@QObject@@UAE_NPAVQEvent@@@Z 10052c78 f   qt5core:Qt5Core.dll
 0001:00051c7e       ?event@QThread@@UAE_NPAVQEvent@@@Z 10052c7e f   qt5core:Qt5Core.dll
 0001:00051c84       ?eventFilter@QObject@@UAE_NPAV1@PAVQEvent@@@Z 10052c84 f   qt5core:Qt5Core.dll
 0001:00051c8a       ?metaObject@QCoreApplication@@UBEPBUQMetaObject@@XZ 10052c8a f   qt5core:Qt5Core.dll
 0001:00051c90       ?metaObject@QThread@@UBEPBUQMetaObject@@XZ 10052c90 f   qt5core:Qt5Core.dll
 0001:00051c96       ?notify@QCoreApplication@@UAE_NPAVQObject@@PAVQEvent@@@Z 10052c96 f   qt5core:Qt5Core.dll
 0001:00051c9c       ?qt_metacall@QCoreApplication@@UAEHW4Call@QMetaObject@@HPAPAX@Z 10052c9c f   qt5core:Qt5Core.dll
 0001:00051ca2       ?qt_metacall@QThread@@UAEHW4Call@QMetaObject@@HPAPAX@Z 10052ca2 f   qt5core:Qt5Core.dll
 0001:00051ca8       ?qt_metacast@QCoreApplication@@UAEPAXPBD@Z 10052ca8 f   qt5core:Qt5Core.dll
 0001:00051cae       ?qt_metacast@QThread@@UAEPAXPBD@Z 10052cae f   qt5core:Qt5Core.dll
 0001:00051cb4       ?run@QThread@@MAEXXZ       10052cb4 f   qt5core:Qt5Core.dll
 0001:00051cba       ?timerEvent@QObject@@MAEXPAVQTimerEvent@@@Z 10052cba f   qt5core:Qt5Core.dll
 0001:00051cc0       ?metaObject@QTimer@@UBEPBUQMetaObject@@XZ 10052cc0 f   qt5core:Qt5Core.dll
 0001:00051cc6       ?open@QIODevice@@UAE_NV?$QFlags@W4OpenModeFlag@QIODevice@@@@@Z 10052cc6 f   qt5core:Qt5Core.dll
 0001:00051ccc       ?pos@QIODevice@@UBE_JXZ    10052ccc f   qt5core:Qt5Core.dll
 0001:00051cd2       ?qt_metacall@QTimer@@UAEHW4Call@QMetaObject@@HPAPAX@Z 10052cd2 f   qt5core:Qt5Core.dll
 0001:00051cd8       ?qt_metacast@QTimer@@UAEPAXPBD@Z 10052cd8 f   qt5core:Qt5Core.dll
 0001:00051cde       ?reset@QIODevice@@UAE_NXZ  10052cde f   qt5core:Qt5Core.dll
 0001:00051ce4       ?seek@QIODevice@@UAE_N_J@Z 10052ce4 f   qt5core:Qt5Core.dll
 0001:00051cea       ?size@QIODevice@@UBE_JXZ   10052cea f   qt5core:Qt5Core.dll
 0001:00051cf0       ?timerEvent@QTimer@@MAEXPAVQTimerEvent@@@Z 10052cf0 f   qt5core:Qt5Core.dll
 0001:00051cf6       ?atEnd@QAbstractSocket@@UBE_NXZ 10052cf6 f   qt5network:Qt5Network.dll
 0001:00051cfc       ?bytesAvailable@QAbstractSocket@@UBE_JXZ 10052cfc f   qt5network:Qt5Network.dll
 0001:00051d02       ?bytesToWrite@QAbstractSocket@@UBE_JXZ 10052d02 f   qt5network:Qt5Network.dll
 0001:00051d08       ?canReadLine@QAbstractSocket@@UBE_NXZ 10052d08 f   qt5network:Qt5Network.dll
 0001:00051d0e       ?close@QAbstractSocket@@UAEXXZ 10052d0e f   qt5network:Qt5Network.dll
 0001:00051d14       ?connectToHost@QAbstractSocket@@UAEXABVQHostAddress@@GV?$QFlags@W4OpenModeFlag@QIODevice@@@@@Z 10052d14 f   qt5network:Qt5Network.dll
 0001:00051d1a       ?connectToHost@QAbstractSocket@@UAEXABVQString@@GV?$QFlags@W4OpenModeFlag@QIODevice@@@@W4NetworkLayerProtocol@1@@Z 10052d1a f   qt5network:Qt5Network.dll
 0001:00051d20       ?disconnectFromHost@QAbstractSocket@@UAEXXZ 10052d20 f   qt5network:Qt5Network.dll
 0001:00051d26       ?isSequential@QAbstractSocket@@UBE_NXZ 10052d26 f   qt5network:Qt5Network.dll
 0001:00051d2c       ?metaObject@QUdpSocket@@UBEPBUQMetaObject@@XZ 10052d2c f   qt5network:Qt5Network.dll
 0001:00051d32       ?qt_metacall@QUdpSocket@@UAEHW4Call@QMetaObject@@HPAPAX@Z 10052d32 f   qt5network:Qt5Network.dll
 0001:00051d38       ?qt_metacast@QUdpSocket@@UAEPAXPBD@Z 10052d38 f   qt5network:Qt5Network.dll
 0001:00051d3e       ?readData@QAbstractSocket@@MAE_JPAD_J@Z 10052d3e f   qt5network:Qt5Network.dll
 0001:00051d44       ?readLineData@QAbstractSocket@@MAE_JPAD_J@Z 10052d44 f   qt5network:Qt5Network.dll
 0001:00051d4a       ?resume@QAbstractSocket@@UAEXXZ 10052d4a f   qt5network:Qt5Network.dll
 0001:00051d50       ?setReadBufferSize@QAbstractSocket@@UAEX_J@Z 10052d50 f   qt5network:Qt5Network.dll
 0001:00051d56       ?setSocketDescriptor@QAbstractSocket@@UAE_NHW4SocketState@1@V?$QFlags@W4OpenModeFlag@QIODevice@@@@@Z 10052d56 f   qt5network:Qt5Network.dll
 0001:00051d5c       ?setSocketOption@QAbstractSocket@@UAEXW4SocketOption@1@ABVQVariant@@@Z 10052d5c f   qt5network:Qt5Network.dll
 0001:00051d62       ?socketDescriptor@QAbstractSocket@@UBEHXZ 10052d62 f   qt5network:Qt5Network.dll
 0001:00051d68       ?socketOption@QAbstractSocket@@UAE?AVQVariant@@W4SocketOption@1@@Z 10052d68 f   qt5network:Qt5Network.dll
 0001:00051d6e       ?waitForBytesWritten@QAbstractSocket@@UAE_NH@Z 10052d6e f   qt5network:Qt5Network.dll
 0001:00051d74       ?waitForConnected@QAbstractSocket@@UAE_NH@Z 10052d74 f   qt5network:Qt5Network.dll
 0001:00051d7a       ?waitForDisconnected@QAbstractSocket@@UAE_NH@Z 10052d7a f   qt5network:Qt5Network.dll
 0001:00051d80       ?waitForReadyRead@QAbstractSocket@@UAE_NH@Z 10052d80 f   qt5network:Qt5Network.dll
 0001:00051d86       ?writeData@QAbstractSocket@@MAE_JPBD_J@Z 10052d86 f   qt5network:Qt5Network.dll
 0001:00051d90       ??0qt_SS@RACERMATE@@QAE@XZ 10052d90 f   rmg:qt_ss.obj
 0001:000520a0       ??1qt_SS@RACERMATE@@QAE@XZ 100530a0 f   rmg:qt_ss.obj
 0001:000521d0       ?do_ten_hz_filter@qt_SS@RACERMATE@@QAEXXZ 100531d0 f   rmg:qt_ss.obj
 0001:000526f0       ?getRescale@qt_SS@RACERMATE@@QBE_NXZ 100536f0 f   rmg:qt_ss.obj
 0001:00052700       ?get_barinfo@qt_SS@RACERMATE@@QAEPAVBARINFO@12@H@Z 10053700 f   rmg:qt_ss.obj
 0001:00052710       ?getdata@qt_SS@RACERMATE@@QAEPAVSSD@12@XZ 10053710 f   rmg:qt_ss.obj
 0001:00052720       ?reset@SSD@qt_SS@RACERMATE@@QAEXXZ 10053720 f   rmg:qt_ss.obj
 0001:00052780       ?reset@qt_SS@RACERMATE@@QAEXXZ 10053780 f   rmg:qt_ss.obj
 0001:00052820       ?setraw@qt_SS@RACERMATE@@QAEXHM@Z 10053820 f   rmg:qt_ss.obj
 0001:00052850       ??0QT_DATA@RACERMATE@@QAE@XZ 10053850 f   rmg:qt_data.obj
 0001:00052870       ?reset@QT_DATA@RACERMATE@@QAEXXZ 10053870 f   rmg:qt_data.obj
 0001:000528e0       ?dmap@@YAFNNNNPAN0@Z       100538e0 f   rmg:comutils.obj
 0001:00052950       ?map@@YAFMMMMPAM0@Z        10053950 f   rmg:comutils.obj
 0001:000529c0       ??0twoPoleFilter@@QAE@H@Z  100539c0 f   rmg:twopolefilter.obj
 0001:000529f0       ??_GtwoPoleFilter@@UAEPAXI@Z 100539f0 f i rmg:twopolefilter.obj
 0001:000529f0       ??_EtwoPoleFilter@@UAEPAXI@Z 100539f0 f i rmg:twopolefilter.obj
 0001:00052a20       ?calc@twoPoleFilter@@QAENN@Z 10053a20 f   rmg:twopolefilter.obj
 0001:00052a90       ?reset@twoPoleFilter@@QAEXXZ 10053a90 f   rmg:twopolefilter.obj
 0001:00052a98       _IsProcessorFeaturePresent@4 10053a98 f   kernel32:KERNEL32.dll
 0001:00052a9e       __libm_sse2_cos_precise    10053a9e f   ucrt:api-ms-win-crt-math-l1-1-0.dll
 0001:00052aa4       __libm_sse2_sin_precise    10053aa4 f   ucrt:api-ms-win-crt-math-l1-1-0.dll
 0001:00052ab0       __aulldiv                  10053ab0 f   MSVCRT:ulldiv.obj
 0001:00052b20       __aullrem                  10053b20 f   MSVCRT:ullrem.obj
 0002:00000000       __imp__RegEnumValueA@32    10057000     advapi32:ADVAPI32.dll
 0002:00000004       __imp__RegOpenKeyExA@20    10057004     advapi32:ADVAPI32.dll
 0002:00000008       __imp__RegCloseKey@4       10057008     advapi32:ADVAPI32.dll
 0002:0000000c       \177ADVAPI32_NULL_THUNK_DATA 1005700c     advapi32:ADVAPI32.dll
 0002:00000010       __imp__InitCommonControlsEx@4 10057010     comctl32:COMCTL32.dll
 0002:00000014       \177COMCTL32_NULL_THUNK_DATA 10057014     comctl32:COMCTL32.dll
 0002:00000018       __imp__SetupComm@12        10057018     kernel32:KERNEL32.dll
 0002:0000001c       __imp__BuildCommDCBA@8     1005701c     kernel32:KERNEL32.dll
 0002:00000020       __imp__GetLastError@0      10057020     kernel32:KERNEL32.dll
 0002:00000024       __imp__WaitCommEvent@12    10057024     kernel32:KERNEL32.dll
 0002:00000028       __imp__ResetEvent@4        10057028     kernel32:KERNEL32.dll
 0002:0000002c       __imp__ClearCommError@12   1005702c     kernel32:KERNEL32.dll
 0002:00000030       __imp__GetOverlappedResult@16 10057030     kernel32:KERNEL32.dll
 0002:00000034       __imp__SetCommMask@8       10057034     kernel32:KERNEL32.dll
 0002:00000038       __imp__FormatMessageA@28   10057038     kernel32:KERNEL32.dll
 0002:0000003c       __imp__CreateEventA@16     1005703c     kernel32:KERNEL32.dll
 0002:00000040       __imp__SetCommTimeouts@8   10057040     kernel32:KERNEL32.dll
 0002:00000044       __imp__SetCommState@8      10057044     kernel32:KERNEL32.dll
 0002:00000048       __imp__OutputDebugStringA@4 10057048     kernel32:KERNEL32.dll
 0002:0000004c       __imp__DeleteFileA@4       1005704c     kernel32:KERNEL32.dll
 0002:00000050       __imp__SetCurrentDirectoryA@4 10057050     kernel32:KERNEL32.dll
 0002:00000054       __imp__GetCurrentDirectoryA@8 10057054     kernel32:KERNEL32.dll
 0002:00000058       __imp__CopyFileA@12        10057058     kernel32:KERNEL32.dll
 0002:0000005c       __imp__WritePrivateProfileStringA@16 1005705c     kernel32:KERNEL32.dll
 0002:00000060       __imp__DeleteCriticalSection@4 10057060     kernel32:KERNEL32.dll
 0002:00000064       __imp__InitializeCriticalSection@4 10057064     kernel32:KERNEL32.dll
 0002:00000068       __imp__Sleep@4             10057068     kernel32:KERNEL32.dll
 0002:0000006c       __imp__CreateDirectoryA@8  1005706c     kernel32:KERNEL32.dll
 0002:00000070       __imp__FindClose@4         10057070     kernel32:KERNEL32.dll
 0002:00000074       __imp__FindNextFileA@8     10057074     kernel32:KERNEL32.dll
 0002:00000078       __imp__FindFirstFileA@8    10057078     kernel32:KERNEL32.dll
 0002:0000007c       __imp__GetPrivateProfileStringA@24 1005707c     kernel32:KERNEL32.dll
 0002:00000080       __imp__LocalFree@4         10057080     kernel32:KERNEL32.dll
 0002:00000084       __imp__GetCommTimeouts@8   10057084     kernel32:KERNEL32.dll
 0002:00000088       __imp__WaitForSingleObject@8 10057088     kernel32:KERNEL32.dll
 0002:0000008c       __imp__WaitForMultipleObjects@16 1005708c     kernel32:KERNEL32.dll
 0002:00000090       __imp__PurgeComm@8         10057090     kernel32:KERNEL32.dll
 0002:00000094       __imp__WriteFile@20        10057094     kernel32:KERNEL32.dll
 0002:00000098       __imp__GetHandleInformation@8 10057098     kernel32:KERNEL32.dll
 0002:0000009c       __imp__ReadFile@20         1005709c     kernel32:KERNEL32.dll
 0002:000000a0       __imp__QueryPerformanceCounter@4 100570a0     kernel32:KERNEL32.dll
 0002:000000a4       __imp__QueryPerformanceFrequency@4 100570a4     kernel32:KERNEL32.dll
 0002:000000a8       __imp___lclose@4           100570a8     kernel32:KERNEL32.dll
 0002:000000ac       __imp__GetSystemTimeAsFileTime@4 100570ac     kernel32:KERNEL32.dll
 0002:000000b0       __imp__GetFileSize@8       100570b0     kernel32:KERNEL32.dll
 0002:000000b4       __imp__TerminateThread@8   100570b4     kernel32:KERNEL32.dll
 0002:000000b8       __imp__GetProcessAffinityMask@12 100570b8     kernel32:KERNEL32.dll
 0002:000000bc       __imp__SetThreadAffinityMask@8 100570bc     kernel32:KERNEL32.dll
 0002:000000c0       __imp__CreateSemaphoreA@16 100570c0     kernel32:KERNEL32.dll
 0002:000000c4       __imp__FreeLibrary@4       100570c4     kernel32:KERNEL32.dll
 0002:000000c8       __imp__VerSetConditionMask@16 100570c8     kernel32:KERNEL32.dll
 0002:000000cc       __imp__LoadLibraryA@4      100570cc     kernel32:KERNEL32.dll
 0002:000000d0       __imp__DeviceIoControl@32  100570d0     kernel32:KERNEL32.dll
 0002:000000d4       __imp__ReleaseSemaphore@12 100570d4     kernel32:KERNEL32.dll
 0002:000000d8       __imp__VerifyVersionInfoA@16 100570d8     kernel32:KERNEL32.dll
 0002:000000dc       __imp__GetProcAddress@8    100570dc     kernel32:KERNEL32.dll
 0002:000000e0       __imp__GetModuleHandleA@4  100570e0     kernel32:KERNEL32.dll
 0002:000000e4       __imp__DuplicateHandle@28  100570e4     kernel32:KERNEL32.dll
 0002:000000e8       __imp__CancelIo@4          100570e8     kernel32:KERNEL32.dll
 0002:000000ec       __imp__TlsFree@4           100570ec     kernel32:KERNEL32.dll
 0002:000000f0       __imp__TlsGetValue@4       100570f0     kernel32:KERNEL32.dll
 0002:000000f4       __imp__SleepEx@8           100570f4     kernel32:KERNEL32.dll
 0002:000000f8       __imp__EnterCriticalSection@4 100570f8     kernel32:KERNEL32.dll
 0002:000000fc       __imp__LeaveCriticalSection@4 100570fc     kernel32:KERNEL32.dll
 0002:00000100       __imp__TlsAlloc@0          10057100     kernel32:KERNEL32.dll
 0002:00000104       __imp__CreateEventW@16     10057104     kernel32:KERNEL32.dll
 0002:00000108       __imp__ReleaseMutex@4      10057108     kernel32:KERNEL32.dll
 0002:0000010c       __imp__CreateMutexW@12     1005710c     kernel32:KERNEL32.dll
 0002:00000110       __imp__TlsSetValue@8       10057110     kernel32:KERNEL32.dll
 0002:00000114       __imp__InitializeSListHead@4 10057114     kernel32:KERNEL32.dll
 0002:00000118       __imp__DisableThreadLibraryCalls@4 10057118     kernel32:KERNEL32.dll
 0002:0000011c       __imp__GetCurrentProcessId@0 1005711c     kernel32:KERNEL32.dll
 0002:00000120       __imp__IsDebuggerPresent@0 10057120     kernel32:KERNEL32.dll
 0002:00000124       __imp__IsProcessorFeaturePresent@4 10057124     kernel32:KERNEL32.dll
 0002:00000128       __imp__TerminateProcess@8  10057128     kernel32:KERNEL32.dll
 0002:0000012c       __imp__GetCurrentProcess@0 1005712c     kernel32:KERNEL32.dll
 0002:00000130       __imp__SetUnhandledExceptionFilter@4 10057130     kernel32:KERNEL32.dll
 0002:00000134       __imp__UnhandledExceptionFilter@4 10057134     kernel32:KERNEL32.dll
 0002:00000138       __imp__GetCurrentThreadId@0 10057138     kernel32:KERNEL32.dll
 0002:0000013c       __imp___lopen@8            1005713c     kernel32:KERNEL32.dll
 0002:00000140       __imp__GetFileAttributesA@4 10057140     kernel32:KERNEL32.dll
 0002:00000144       __imp__CreateFileA@28      10057144     kernel32:KERNEL32.dll
 0002:00000148       __imp__SetEvent@4          10057148     kernel32:KERNEL32.dll
 0002:0000014c       __imp__GetVersionExA@4     1005714c     kernel32:KERNEL32.dll
 0002:00000150       __imp__CloseHandle@4       10057150     kernel32:KERNEL32.dll
 0002:00000154       __imp__GetLocalTime@4      10057154     kernel32:KERNEL32.dll
 0002:00000158       \177KERNEL32_NULL_THUNK_DATA 10057158     kernel32:KERNEL32.dll
 0002:0000015c       __imp_?_Xbad_alloc@std@@YAXXZ 1005715c     msvcprt:MSVCP140.dll
 0002:00000160       __imp_?_Xout_of_range@std@@YAXPBD@Z 10057160     msvcprt:MSVCP140.dll
 0002:00000164       __imp_?_Xlength_error@std@@YAXPBD@Z 10057164     msvcprt:MSVCP140.dll
 0002:00000168       \177MSVCP140_NULL_THUNK_DATA 10057168     msvcprt:MSVCP140.dll
 0002:0000016c       __imp_?detach@QListData@@QAEPAUData@1@H@Z 1005716c     qt5core:Qt5Core.dll
 0002:00000170       __imp_?detach_grow@QListData@@QAEPAUData@1@PAHH@Z 10057170     qt5core:Qt5Core.dll
 0002:00000174       __imp_?realloc@QListData@@QAEXH@Z 10057174     qt5core:Qt5Core.dll
 0002:00000178       __imp_?dispose@QListData@@SAXPAUData@1@@Z 10057178     qt5core:Qt5Core.dll
 0002:0000017c       __imp_?append@QListData@@QAEPAPAXXZ 1005717c     qt5core:Qt5Core.dll
 0002:00000180       __imp_?begin@QListData@@QBEPAPAXXZ 10057180     qt5core:Qt5Core.dll
 0002:00000184       __imp_?end@QListData@@QBEPAPAXXZ 10057184     qt5core:Qt5Core.dll
 0002:00000188       __imp_??0QObject@@QAE@PAV0@@Z 10057188     qt5core:Qt5Core.dll
 0002:0000018c       __imp_??1QObject@@UAE@XZ   1005718c     qt5core:Qt5Core.dll
 0002:00000190       __imp_?moveToThread@QObject@@QAEXPAVQThread@@@Z 10057190     qt5core:Qt5Core.dll
 0002:00000194       __imp_?connect@QObject@@SA?AVConnection@QMetaObject@@PBV1@PBD01W4ConnectionType@Qt@@@Z 10057194     qt5core:Qt5Core.dll
 0002:00000198       __imp_?connect@QObject@@QBE?AVConnection@QMetaObject@@PBV1@PBD1W4ConnectionType@Qt@@@Z 10057198     qt5core:Qt5Core.dll
 0002:0000019c       __imp_?allocateNode@QHashData@@QAEPAXH@Z 1005719c     qt5core:Qt5Core.dll
 0002:000001a0       __imp_?detach_helper@QHashData@@QAEPAU1@P6AXPAUNode@1@PAX@ZP6AX0@ZHH@Z 100571a0     qt5core:Qt5Core.dll
 0002:000001a4       __imp_?rehash@QHashData@@QAEXH@Z 100571a4     qt5core:Qt5Core.dll
 0002:000001a8       __imp_?free_helper@QHashData@@QAEXP6AXPAUNode@1@@Z@Z 100571a8     qt5core:Qt5Core.dll
 0002:000001ac       __imp_?nextNode@QHashData@@SAPAUNode@1@PAU21@@Z 100571ac     qt5core:Qt5Core.dll
 0002:000001b0       __imp_??1QDateTime@@QAE@XZ 100571b0     qt5core:Qt5Core.dll
 0002:000001b4       __imp_?toString@QDateTime@@QBE?AVQString@@ABV2@@Z 100571b4     qt5core:Qt5Core.dll
 0002:000001b8       __imp_?currentDateTime@QDateTime@@SA?AV1@XZ 100571b8     qt5core:Qt5Core.dll
 0002:000001bc       __imp_??1QDebug@@QAE@XZ    100571bc     qt5core:Qt5Core.dll
 0002:000001c0       __imp_??6QDebug@@QAEAAV0@H@Z 100571c0     qt5core:Qt5Core.dll
 0002:000001c4       __imp_??6QDebug@@QAEAAV0@PBD@Z 100571c4     qt5core:Qt5Core.dll
 0002:000001c8       __imp_??6QDebug@@QAEAAV0@ABVQString@@@Z 100571c8     qt5core:Qt5Core.dll
 0002:000001cc       __imp_??0QEventLoop@@QAE@PAVQObject@@@Z 100571cc     qt5core:Qt5Core.dll
 0002:000001d0       __imp_??1QEventLoop@@UAE@XZ 100571d0     qt5core:Qt5Core.dll
 0002:000001d4       __imp_?exec@QEventLoop@@QAEHV?$QFlags@W4ProcessEventsFlag@QEventLoop@@@@@Z 100571d4     qt5core:Qt5Core.dll
 0002:000001d8       __imp_??0QCoreApplication@@QAE@AAHPAPADH@Z 100571d8     qt5core:Qt5Core.dll
 0002:000001dc       __imp_??1QCoreApplication@@UAE@XZ 100571dc     qt5core:Qt5Core.dll
 0002:000001e0       __imp_??0QMutex@@QAE@W4RecursionMode@0@@Z 100571e0     qt5core:Qt5Core.dll
 0002:000001e4       __imp_??1QMutex@@QAE@XZ    100571e4     qt5core:Qt5Core.dll
 0002:000001e8       __imp_?lock@QMutex@@QAEXXZ 100571e8     qt5core:Qt5Core.dll
 0002:000001ec       __imp_??1QMutexLocker@@QAE@XZ 100571ec     qt5core:Qt5Core.dll
 0002:000001f0       __imp_??0QThread@@QAE@PAVQObject@@@Z 100571f0     qt5core:Qt5Core.dll
 0002:000001f4       __imp_??1QThread@@UAE@XZ   100571f4     qt5core:Qt5Core.dll
 0002:000001f8       __imp_?start@QThread@@QAEXW4Priority@1@@Z 100571f8     qt5core:Qt5Core.dll
 0002:000001fc       __imp_?childEvent@QObject@@MAEXPAVQChildEvent@@@Z 100571fc     qt5core:Qt5Core.dll
 0002:00000200       __imp_?compressEvent@QCoreApplication@@MAE_NPAVQEvent@@PAVQObject@@PAVQPostEventList@@@Z 10057200     qt5core:Qt5Core.dll
 0002:00000204       __imp_?connectNotify@QObject@@MAEXABVQMetaMethod@@@Z 10057204     qt5core:Qt5Core.dll
 0002:00000208       __imp_?customEvent@QObject@@MAEXPAVQEvent@@@Z 10057208     qt5core:Qt5Core.dll
 0002:0000020c       __imp_?disconnectNotify@QObject@@MAEXABVQMetaMethod@@@Z 1005720c     qt5core:Qt5Core.dll
 0002:00000210       __imp_?event@QCoreApplication@@MAE_NPAVQEvent@@@Z 10057210     qt5core:Qt5Core.dll
 0002:00000214       __imp_?event@QObject@@UAE_NPAVQEvent@@@Z 10057214     qt5core:Qt5Core.dll
 0002:00000218       __imp_?event@QThread@@UAE_NPAVQEvent@@@Z 10057218     qt5core:Qt5Core.dll
 0002:0000021c       __imp_?eventFilter@QObject@@UAE_NPAV1@PAVQEvent@@@Z 1005721c     qt5core:Qt5Core.dll
 0002:00000220       __imp_?metaObject@QCoreApplication@@UBEPBUQMetaObject@@XZ 10057220     qt5core:Qt5Core.dll
 0002:00000224       __imp_?metaObject@QThread@@UBEPBUQMetaObject@@XZ 10057224     qt5core:Qt5Core.dll
 0002:00000228       __imp_?notify@QCoreApplication@@UAE_NPAVQObject@@PAVQEvent@@@Z 10057228     qt5core:Qt5Core.dll
 0002:0000022c       __imp_?qt_metacall@QCoreApplication@@UAEHW4Call@QMetaObject@@HPAPAX@Z 1005722c     qt5core:Qt5Core.dll
 0002:00000230       __imp_?qt_metacall@QThread@@UAEHW4Call@QMetaObject@@HPAPAX@Z 10057230     qt5core:Qt5Core.dll
 0002:00000234       __imp_?qt_metacast@QCoreApplication@@UAEPAXPBD@Z 10057234     qt5core:Qt5Core.dll
 0002:00000238       __imp_?qt_metacast@QThread@@UAEPAXPBD@Z 10057238     qt5core:Qt5Core.dll
 0002:0000023c       __imp_?run@QThread@@MAEXXZ 1005723c     qt5core:Qt5Core.dll
 0002:00000240       __imp_?timerEvent@QObject@@MAEXPAVQTimerEvent@@@Z 10057240     qt5core:Qt5Core.dll
 0002:00000244       __imp_?shared_null@QListData@@2UData@1@B 10057244     qt5core:Qt5Core.dll
 0002:00000248       __imp_?self@QCoreApplication@@0PAV1@A 10057248     qt5core:Qt5Core.dll
 0002:0000024c       __imp_?activate@QMetaObject@@SAXPAVQObject@@PBU1@HPAPAX@Z 1005724c     qt5core:Qt5Core.dll
 0002:00000250       __imp_?dynamicMetaObject@QObjectData@@QBEPAUQMetaObject@@XZ 10057250     qt5core:Qt5Core.dll
 0002:00000254       __imp_?qt_metacast@QObject@@UAEPAXPBD@Z 10057254     qt5core:Qt5Core.dll
 0002:00000258       __imp_?qt_metacall@QObject@@UAEHW4Call@QMetaObject@@HPAPAX@Z 10057258     qt5core:Qt5Core.dll
 0002:0000025c       __imp_?staticMetaObject@QObject@@2UQMetaObject@@B 1005725c     qt5core:Qt5Core.dll
 0002:00000260       __imp_?fromWCharArray@QString@@SA?AV1@PB_WH@Z 10057260     qt5core:Qt5Core.dll
 0002:00000264       __imp_??0QDir@@QAE@ABVQString@@@Z 10057264     qt5core:Qt5Core.dll
 0002:00000268       __imp_??1QDir@@QAE@XZ      10057268     qt5core:Qt5Core.dll
 0002:0000026c       __imp_?mkdir@QDir@@QBE_NABVQString@@@Z 1005726c     qt5core:Qt5Core.dll
 0002:00000270       __imp_?mkpath@QDir@@QBE_NABVQString@@@Z 10057270     qt5core:Qt5Core.dll
 0002:00000274       __imp_?fromUtf8@QString@@SA?AV1@PBDH@Z 10057274     qt5core:Qt5Core.dll
 0002:00000278       __imp_?asprintf@QString@@SA?AV1@PBDZZ 10057278     qt5core:Qt5Core.dll
 0002:0000027c       __imp_?toStdString@QString@@QBE?AV?$basic_string@DU?$char_traits@D@std@@V?$allocator@D@2@@std@@XZ 1005727c     qt5core:Qt5Core.dll
 0002:00000280       __imp_?currentThreadId@QThread@@SAPAXXZ 10057280     qt5core:Qt5Core.dll
 0002:00000284       __imp_??0QByteArray@@QAE@XZ 10057284     qt5core:Qt5Core.dll
 0002:00000288       __imp_??0QByteArray@@QAE@ABV0@@Z 10057288     qt5core:Qt5Core.dll
 0002:0000028c       __imp_??4QByteArray@@QAEAAV0@ABV0@@Z 1005728c     qt5core:Qt5Core.dll
 0002:00000290       __imp_?resize@QByteArray@@QAEXH@Z 10057290     qt5core:Qt5Core.dll
 0002:00000294       __imp_?data@QByteArray@@QAEPADXZ 10057294     qt5core:Qt5Core.dll
 0002:00000298       __imp_?clear@QByteArray@@QAEXXZ 10057298     qt5core:Qt5Core.dll
 0002:0000029c       __imp_?at@QByteArray@@QBEDH@Z 1005729c     qt5core:Qt5Core.dll
 0002:000002a0       __imp_??BQByteRef@@QBEDXZ  100572a0     qt5core:Qt5Core.dll
 0002:000002a4       __imp_??4QByteRef@@QAEAAV0@D@Z 100572a4     qt5core:Qt5Core.dll
 0002:000002a8       __imp_??8QByteRef@@QBE_ND@Z 100572a8     qt5core:Qt5Core.dll
 0002:000002ac       __imp_?clear@QString@@QAEXXZ 100572ac     qt5core:Qt5Core.dll
 0002:000002b0       __imp_?freeNode@QHashData@@QAEXPAX@Z 100572b0     qt5core:Qt5Core.dll
 0002:000002b4       __imp_?hasShrunk@QHashData@@QAEXXZ 100572b4     qt5core:Qt5Core.dll
 0002:000002b8       __imp_?invokeMethod@QMetaObject@@SA_NPAVQObject@@PBDW4ConnectionType@Qt@@VQGenericReturnArgument@@VQGenericArgument@@444444444@Z 100572b8     qt5core:Qt5Core.dll
 0002:000002bc       __imp_?thread@QObject@@QBEPAVQThread@@XZ 100572bc     qt5core:Qt5Core.dll
 0002:000002c0       __imp_?currentPath@QDir@@SA?AVQString@@XZ 100572c0     qt5core:Qt5Core.dll
 0002:000002c4       __imp_??0QTimer@@QAE@PAVQObject@@@Z 100572c4     qt5core:Qt5Core.dll
 0002:000002c8       __imp_??1QTimer@@UAE@XZ    100572c8     qt5core:Qt5Core.dll
 0002:000002cc       __imp_?setInterval@QTimer@@QAEXH@Z 100572cc     qt5core:Qt5Core.dll
 0002:000002d0       __imp_?start@QTimer@@QAEXXZ 100572d0     qt5core:Qt5Core.dll
 0002:000002d4       __imp_?stop@QTimer@@QAEXXZ 100572d4     qt5core:Qt5Core.dll
 0002:000002d8       __imp_?tryLock@QMutex@@QAE_NH@Z 100572d8     qt5core:Qt5Core.dll
 0002:000002dc       __imp_?unlock@QMutex@@QAEXXZ 100572dc     qt5core:Qt5Core.dll
 0002:000002e0       __imp_?currentThread@QThread@@SAPAV1@XZ 100572e0     qt5core:Qt5Core.dll
 0002:000002e4       __imp_?start@QElapsedTimer@@QAEXXZ 100572e4     qt5core:Qt5Core.dll
 0002:000002e8       __imp_?nsecsElapsed@QElapsedTimer@@QBE_JXZ 100572e8     qt5core:Qt5Core.dll
 0002:000002ec       __imp_?metaObject@QTimer@@UBEPBUQMetaObject@@XZ 100572ec     qt5core:Qt5Core.dll
 0002:000002f0       __imp_?open@QIODevice@@UAE_NV?$QFlags@W4OpenModeFlag@QIODevice@@@@@Z 100572f0     qt5core:Qt5Core.dll
 0002:000002f4       __imp_?pos@QIODevice@@UBE_JXZ 100572f4     qt5core:Qt5Core.dll
 0002:000002f8       __imp_?toUtf8@QString@@QGBE?AVQByteArray@@XZ 100572f8     qt5core:Qt5Core.dll
 0002:000002fc       __imp_?qt_metacast@QTimer@@UAEPAXPBD@Z 100572fc     qt5core:Qt5Core.dll
 0002:00000300       __imp_?reset@QIODevice@@UAE_NXZ 10057300     qt5core:Qt5Core.dll
 0002:00000304       __imp_?seek@QIODevice@@UAE_N_J@Z 10057304     qt5core:Qt5Core.dll
 0002:00000308       __imp_?size@QIODevice@@UBE_JXZ 10057308     qt5core:Qt5Core.dll
 0002:0000030c       __imp_?timerEvent@QTimer@@MAEXPAVQTimerEvent@@@Z 1005730c     qt5core:Qt5Core.dll
 0002:00000310       __imp_?shared_null@QHashData@@2U1@B 10057310     qt5core:Qt5Core.dll
 0002:00000314       __imp_?debug@QMessageLogger@@QBAXPBDZZ 10057314     qt5core:Qt5Core.dll
 0002:00000318       __imp_?toUtf8@QString@@QHAE?AVQByteArray@@XZ 10057318     qt5core:Qt5Core.dll
 0002:0000031c       __imp_?toLocal8Bit@QString@@QHAE?AVQByteArray@@XZ 1005731c     qt5core:Qt5Core.dll
 0002:00000320       __imp_?nextNode@QMapNodeBase@@QBEPBU1@XZ 10057320     qt5core:Qt5Core.dll
 0002:00000324       __imp_?freeNodeAndRebalance@QMapDataBase@@QAEXPAUQMapNodeBase@@@Z 10057324     qt5core:Qt5Core.dll
 0002:00000328       __imp_?recalcMostLeftNode@QMapDataBase@@QAEXXZ 10057328     qt5core:Qt5Core.dll
 0002:0000032c       __imp_?createNode@QMapDataBase@@QAEPAUQMapNodeBase@@HHPAU2@_N@Z 1005732c     qt5core:Qt5Core.dll
 0002:00000330       __imp_?freeTree@QMapDataBase@@QAEXPAUQMapNodeBase@@H@Z 10057330     qt5core:Qt5Core.dll
 0002:00000334       __imp_?createData@QMapDataBase@@SAPAU1@XZ 10057334     qt5core:Qt5Core.dll
 0002:00000338       __imp_?freeData@QMapDataBase@@SAXPAU1@@Z 10057338     qt5core:Qt5Core.dll
 0002:0000033c       __imp_?copy@QFile@@SA_NABVQString@@0@Z 1005733c     qt5core:Qt5Core.dll
 0002:00000340       __imp_?remove@QDir@@QAE_NABVQString@@@Z 10057340     qt5core:Qt5Core.dll
 0002:00000344       __imp_?exit@QThread@@QAEXH@Z 10057344     qt5core:Qt5Core.dll
 0002:00000348       __imp_?msleep@QThread@@SAXK@Z 10057348     qt5core:Qt5Core.dll
 0002:0000034c       __imp_?shared_null@QMapDataBase@@2U1@B 1005734c     qt5core:Qt5Core.dll
 0002:00000350       __imp_?isConnected_helper@Connection@QMetaObject@@ABE_NXZ 10057350     qt5core:Qt5Core.dll
 0002:00000354       __imp_?deleteLater@QObject@@QAEXXZ 10057354     qt5core:Qt5Core.dll
 0002:00000358       __imp_?append@QString@@QAEAAV1@ABV1@@Z 10057358     qt5core:Qt5Core.dll
 0002:0000035c       __imp_?trimmed@QString@@QGBE?AV1@XZ 1005735c     qt5core:Qt5Core.dll
 0002:00000360       __imp_?constData@QString@@QBEPBVQChar@@XZ 10057360     qt5core:Qt5Core.dll
 0002:00000364       __imp_??4QString@@QAEAAV0@$$QAV0@@Z 10057364     qt5core:Qt5Core.dll
 0002:00000368       __imp_??4QString@@QAEAAV0@ABV0@@Z 10057368     qt5core:Qt5Core.dll
 0002:0000036c       __imp_??1QString@@QAE@XZ   1005736c     qt5core:Qt5Core.dll
 0002:00000370       __imp_??0QString@@QAE@ABV0@@Z 10057370     qt5core:Qt5Core.dll
 0002:00000374       __imp_??0QString@@QAE@XZ   10057374     qt5core:Qt5Core.dll
 0002:00000378       __imp_?constData@QByteArray@@QBEPBDXZ 10057378     qt5core:Qt5Core.dll
 0002:0000037c       __imp_??1QByteArray@@QAE@XZ 1005737c     qt5core:Qt5Core.dll
 0002:00000380       __imp_??1Connection@QMetaObject@@QAE@XZ 10057380     qt5core:Qt5Core.dll
 0002:00000384       __imp_?debug@QMessageLogger@@QBE?AVQDebug@@XZ 10057384     qt5core:Qt5Core.dll
 0002:00000388       __imp_??0QMessageLogger@@QAE@PBDH0@Z 10057388     qt5core:Qt5Core.dll
 0002:0000038c       __imp_?currentMSecsSinceEpoch@QDateTime@@SA_JXZ 1005738c     qt5core:Qt5Core.dll
 0002:00000390       __imp_?compare_helper@QString@@CAHPBVQChar@@HPBDHW4CaseSensitivity@Qt@@@Z 10057390     qt5core:Qt5Core.dll
 0002:00000394       __imp_??8@YA_NABVQString@@0@Z 10057394     qt5core:Qt5Core.dll
 0002:00000398       __imp_?exists@QDir@@QBE_NXZ 10057398     qt5core:Qt5Core.dll
 0002:0000039c       __imp_?number@QString@@SA?AV1@HH@Z 1005739c     qt5core:Qt5Core.dll
 0002:000003a0       __imp_?tr@QMetaObject@@QBE?AVQString@@PBD0H@Z 100573a0     qt5core:Qt5Core.dll
 0002:000003a4       __imp_?fromAscii_helper@QString@@CAPAU?$QTypedArrayData@G@@PBDH@Z 100573a4     qt5core:Qt5Core.dll
 0002:000003a8       __imp_?qHash@@YAIABVQString@@I@Z 100573a8     qt5core:Qt5Core.dll
 0002:000003ac       __imp_?qt_metacall@QTimer@@UAEHW4Call@QMetaObject@@HPAPAX@Z 100573ac     qt5core:Qt5Core.dll
 0002:000003b0       \177Qt5Core_NULL_THUNK_DATA 100573b0     qt5core:Qt5Core.dll
 0002:000003b4       __imp_?name@QNetworkInterface@@QBE?AVQString@@XZ 100573b4     qt5network:Qt5Network.dll
 0002:000003b8       __imp_?flags@QNetworkInterface@@QBE?AV?$QFlags@W4InterfaceFlag@QNetworkInterface@@@@XZ 100573b8     qt5network:Qt5Network.dll
 0002:000003bc       __imp_?hardwareAddress@QNetworkInterface@@QBE?AVQString@@XZ 100573bc     qt5network:Qt5Network.dll
 0002:000003c0       __imp_?addressEntries@QNetworkInterface@@QBE?AV?$QList@VQNetworkAddressEntry@@@@XZ 100573c0     qt5network:Qt5Network.dll
 0002:000003c4       __imp_?allInterfaces@QNetworkInterface@@SA?AV?$QList@VQNetworkInterface@@@@XZ 100573c4     qt5network:Qt5Network.dll
 0002:000003c8       __imp_??0QUdpSocket@@QAE@PAVQObject@@@Z 100573c8     qt5network:Qt5Network.dll
 0002:000003cc       __imp_??1QUdpSocket@@UAE@XZ 100573cc     qt5network:Qt5Network.dll
 0002:000003d0       __imp_?hasPendingDatagrams@QUdpSocket@@QBE_NXZ 100573d0     qt5network:Qt5Network.dll
 0002:000003d4       __imp_?pendingDatagramSize@QUdpSocket@@QBE_JXZ 100573d4     qt5network:Qt5Network.dll
 0002:000003d8       __imp_?readDatagram@QUdpSocket@@QAE_JPAD_JPAVQHostAddress@@PAG@Z 100573d8     qt5network:Qt5Network.dll
 0002:000003dc       __imp_?writeDatagram@QUdpSocket@@QAE_JPBD_JABVQHostAddress@@G@Z 100573dc     qt5network:Qt5Network.dll
 0002:000003e0       __imp_?writeDatagram@QUdpSocket@@QAE_JABVQByteArray@@ABVQHostAddress@@G@Z 100573e0     qt5network:Qt5Network.dll
 0002:000003e4       __imp_?atEnd@QAbstractSocket@@UBE_NXZ 100573e4     qt5network:Qt5Network.dll
 0002:000003e8       __imp_?bytesAvailable@QAbstractSocket@@UBE_JXZ 100573e8     qt5network:Qt5Network.dll
 0002:000003ec       __imp_?bytesToWrite@QAbstractSocket@@UBE_JXZ 100573ec     qt5network:Qt5Network.dll
 0002:000003f0       __imp_?canReadLine@QAbstractSocket@@UBE_NXZ 100573f0     qt5network:Qt5Network.dll
 0002:000003f4       __imp_?close@QAbstractSocket@@UAEXXZ 100573f4     qt5network:Qt5Network.dll
 0002:000003f8       __imp_?connectToHost@QAbstractSocket@@UAEXABVQHostAddress@@GV?$QFlags@W4OpenModeFlag@QIODevice@@@@@Z 100573f8     qt5network:Qt5Network.dll
 0002:000003fc       __imp_?connectToHost@QAbstractSocket@@UAEXABVQString@@GV?$QFlags@W4OpenModeFlag@QIODevice@@@@W4NetworkLayerProtocol@1@@Z 100573fc     qt5network:Qt5Network.dll
 0002:00000400       __imp_?disconnectFromHost@QAbstractSocket@@UAEXXZ 10057400     qt5network:Qt5Network.dll
 0002:00000404       __imp_?isSequential@QAbstractSocket@@UBE_NXZ 10057404     qt5network:Qt5Network.dll
 0002:00000408       __imp_?metaObject@QUdpSocket@@UBEPBUQMetaObject@@XZ 10057408     qt5network:Qt5Network.dll
 0002:0000040c       __imp_?qt_metacall@QUdpSocket@@UAEHW4Call@QMetaObject@@HPAPAX@Z 1005740c     qt5network:Qt5Network.dll
 0002:00000410       __imp_?qt_metacast@QUdpSocket@@UAEPAXPBD@Z 10057410     qt5network:Qt5Network.dll
 0002:00000414       __imp_?readData@QAbstractSocket@@MAE_JPAD_J@Z 10057414     qt5network:Qt5Network.dll
 0002:00000418       __imp_?readLineData@QAbstractSocket@@MAE_JPAD_J@Z 10057418     qt5network:Qt5Network.dll
 0002:0000041c       __imp_?resume@QAbstractSocket@@UAEXXZ 1005741c     qt5network:Qt5Network.dll
 0002:00000420       __imp_?setReadBufferSize@QAbstractSocket@@UAEX_J@Z 10057420     qt5network:Qt5Network.dll
 0002:00000424       __imp_?setSocketDescriptor@QAbstractSocket@@UAE_NHW4SocketState@1@V?$QFlags@W4OpenModeFlag@QIODevice@@@@@Z 10057424     qt5network:Qt5Network.dll
 0002:00000428       __imp_?setSocketOption@QAbstractSocket@@UAEXW4SocketOption@1@ABVQVariant@@@Z 10057428     qt5network:Qt5Network.dll
 0002:0000042c       __imp_?socketDescriptor@QAbstractSocket@@UBEHXZ 1005742c     qt5network:Qt5Network.dll
 0002:00000430       __imp_?socketOption@QAbstractSocket@@UAE?AVQVariant@@W4SocketOption@1@@Z 10057430     qt5network:Qt5Network.dll
 0002:00000434       __imp_?waitForBytesWritten@QAbstractSocket@@UAE_NH@Z 10057434     qt5network:Qt5Network.dll
 0002:00000438       __imp_?waitForConnected@QAbstractSocket@@UAE_NH@Z 10057438     qt5network:Qt5Network.dll
 0002:0000043c       __imp_?waitForDisconnected@QAbstractSocket@@UAE_NH@Z 1005743c     qt5network:Qt5Network.dll
 0002:00000440       __imp_?waitForReadyRead@QAbstractSocket@@UAE_NH@Z 10057440     qt5network:Qt5Network.dll
 0002:00000444       __imp_?writeData@QAbstractSocket@@MAE_JPBD_J@Z 10057444     qt5network:Qt5Network.dll
 0002:00000448       __imp_??0QNetworkInterface@@QAE@ABV0@@Z 10057448     qt5network:Qt5Network.dll
 0002:0000044c       __imp_?broadcast@QNetworkAddressEntry@@QBE?AVQHostAddress@@XZ 1005744c     qt5network:Qt5Network.dll
 0002:00000450       __imp_?netmask@QNetworkAddressEntry@@QBE?AVQHostAddress@@XZ 10057450     qt5network:Qt5Network.dll
 0002:00000454       __imp_?setIp@QNetworkAddressEntry@@QAEXABVQHostAddress@@@Z 10057454     qt5network:Qt5Network.dll
 0002:00000458       __imp_?ip@QNetworkAddressEntry@@QBE?AVQHostAddress@@XZ 10057458     qt5network:Qt5Network.dll
 0002:0000045c       __imp_??1QNetworkAddressEntry@@QAE@XZ 1005745c     qt5network:Qt5Network.dll
 0002:00000460       __imp_??0QNetworkAddressEntry@@QAE@ABV0@@Z 10057460     qt5network:Qt5Network.dll
 0002:00000464       __imp_??0QNetworkAddressEntry@@QAE@XZ 10057464     qt5network:Qt5Network.dll
 0002:00000468       __imp_?isNull@QHostAddress@@QBE_NXZ 10057468     qt5network:Qt5Network.dll
 0002:0000046c       __imp_?toString@QHostAddress@@QBE?AVQString@@XZ 1005746c     qt5network:Qt5Network.dll
 0002:00000470       __imp_?toIPv4Address@QHostAddress@@QBEIXZ 10057470     qt5network:Qt5Network.dll
 0002:00000474       __imp_?protocol@QHostAddress@@QBE?AW4NetworkLayerProtocol@QAbstractSocket@@XZ 10057474     qt5network:Qt5Network.dll
 0002:00000478       __imp_??4QHostAddress@@QAEAAV0@ABV0@@Z 10057478     qt5network:Qt5Network.dll
 0002:0000047c       __imp_??4QHostAddress@@QAEAAV0@$$QAV0@@Z 1005747c     qt5network:Qt5Network.dll
 0002:00000480       __imp_??0QHostAddress@@QAE@W4SpecialAddress@0@@Z 10057480     qt5network:Qt5Network.dll
 0002:00000484       __imp_??0QHostAddress@@QAE@ABV0@@Z 10057484     qt5network:Qt5Network.dll
 0002:00000488       __imp_?error@QAbstractSocket@@QBE?AW4SocketError@1@XZ 10057488     qt5network:Qt5Network.dll
 0002:0000048c       __imp_?bind@QAbstractSocket@@QAE_NABVQHostAddress@@GV?$QFlags@W4BindFlag@QAbstractSocket@@@@@Z 1005748c     qt5network:Qt5Network.dll
 0002:00000490       __imp_?clear@QHostAddress@@QAEXXZ 10057490     qt5network:Qt5Network.dll
 0002:00000494       __imp_??4QHostAddress@@QAEAAV0@ABVQString@@@Z 10057494     qt5network:Qt5Network.dll
 0002:00000498       __imp_??1QHostAddress@@QAE@XZ 10057498     qt5network:Qt5Network.dll
 0002:0000049c       __imp_??0QHostAddress@@QAE@XZ 1005749c     qt5network:Qt5Network.dll
 0002:000004a0       __imp_??1QNetworkInterface@@QAE@XZ 100574a0     qt5network:Qt5Network.dll
 0002:000004a4       \177Qt5Network_NULL_THUNK_DATA 100574a4     qt5network:Qt5Network.dll
 0002:000004a8       __imp__SHGetFolderPathA@20 100574a8     shell32:SHELL32.dll
 0002:000004ac       __imp__SHGetFolderPathW@20 100574ac     shell32:SHELL32.dll
 0002:000004b0       \177SHELL32_NULL_THUNK_DATA 100574b0     shell32:SHELL32.dll
 0002:000004b4       __imp__GetActiveWindow@0   100574b4     user32:USER32.dll
 0002:000004b8       __imp__MessageBoxA@16      100574b8     user32:USER32.dll
 0002:000004bc       \177USER32_NULL_THUNK_DATA 100574bc     user32:USER32.dll
 0002:000004c0       __imp____std_type_info_destroy_list 100574c0     vcruntime:VCRUNTIME140.dll
 0002:000004c4       __imp____std_exception_destroy 100574c4     vcruntime:VCRUNTIME140.dll
 0002:000004c8       __imp____std_exception_copy 100574c8     vcruntime:VCRUNTIME140.dll
 0002:000004cc       __imp___except_handler4_common 100574cc     vcruntime:VCRUNTIME140.dll
 0002:000004d0       __imp__memset              100574d0     vcruntime:VCRUNTIME140.dll
 0002:000004d4       __imp__memcpy              100574d4     vcruntime:VCRUNTIME140.dll
 0002:000004d8       __imp____CxxFrameHandler3  100574d8     vcruntime:VCRUNTIME140.dll
 0002:000004dc       __imp___CxxThrowException@8 100574dc     vcruntime:VCRUNTIME140.dll
 0002:000004e0       __imp__strstr              100574e0     vcruntime:VCRUNTIME140.dll
 0002:000004e4       __imp__memmove             100574e4     vcruntime:VCRUNTIME140.dll
 0002:000004e8       __imp____std_terminate     100574e8     vcruntime:VCRUNTIME140.dll
 0002:000004ec       \177VCRUNTIME140_NULL_THUNK_DATA 100574ec     vcruntime:VCRUNTIME140.dll
 0002:000004f0       __imp__timeBeginPeriod@4   100574f0     winmm:WINMM.dll
 0002:000004f4       __imp__timeGetTime@0       100574f4     winmm:WINMM.dll
 0002:000004f8       __imp__timeKillEvent@4     100574f8     winmm:WINMM.dll
 0002:000004fc       __imp__timeSetEvent@20     100574fc     winmm:WINMM.dll
 0002:00000500       __imp__timeEndPeriod@4     10057500     winmm:WINMM.dll
 0002:00000504       \177WINMM_NULL_THUNK_DATA  10057504     winmm:WINMM.dll
 0002:00000508       __imp__WSACleanup@0        10057508     ws2_32:WS2_32.dll
 0002:0000050c       __imp__closesocket@4       1005750c     ws2_32:WS2_32.dll
 0002:00000510       __imp__gethostbyname@4     10057510     ws2_32:WS2_32.dll
 0002:00000514       __imp__WSAStartup@8        10057514     ws2_32:WS2_32.dll
 0002:00000518       __imp__inet_ntoa@4         10057518     ws2_32:WS2_32.dll
 0002:0000051c       \177WS2_32_NULL_THUNK_DATA 1005751c     ws2_32:WS2_32.dll
 0002:00000520       __imp__atoi                10057520     ucrt:api-ms-win-crt-convert-l1-1-0.dll
 0002:00000524       __imp__atof                10057524     ucrt:api-ms-win-crt-convert-l1-1-0.dll
 0002:00000528       \177api-ms-win-crt-convert-l1-1-0_NULL_THUNK_DATA 10057528     ucrt:api-ms-win-crt-convert-l1-1-0.dll
 0002:0000052c       __imp__getenv              1005752c     ucrt:api-ms-win-crt-environment-l1-1-0.dll
 0002:00000530       \177api-ms-win-crt-environment-l1-1-0_NULL_THUNK_DATA 10057530     ucrt:api-ms-win-crt-environment-l1-1-0.dll
 0002:00000534       __imp__unlink              10057534     ucrt:api-ms-win-crt-filesystem-l1-1-0.dll
 0002:00000534       __imp___unlink             10057534     ucrt:api-ms-win-crt-filesystem-l1-1-0.dll
 0002:00000538       \177api-ms-win-crt-filesystem-l1-1-0_NULL_THUNK_DATA 10057538     ucrt:api-ms-win-crt-filesystem-l1-1-0.dll
 0002:0000053c       __imp__free                1005753c     ucrt:api-ms-win-crt-heap-l1-1-0.dll
 0002:00000540       __imp__realloc             10057540     ucrt:api-ms-win-crt-heap-l1-1-0.dll
 0002:00000544       __imp__malloc              10057544     ucrt:api-ms-win-crt-heap-l1-1-0.dll
 0002:00000548       __imp___callnewh           10057548     ucrt:api-ms-win-crt-heap-l1-1-0.dll
 0002:0000054c       __imp__calloc              1005754c     ucrt:api-ms-win-crt-heap-l1-1-0.dll
 0002:00000550       \177api-ms-win-crt-heap-l1-1-0_NULL_THUNK_DATA 10057550     ucrt:api-ms-win-crt-heap-l1-1-0.dll
 0002:00000554       __imp___libm_sse2_sin_precise 10057554     ucrt:api-ms-win-crt-math-l1-1-0.dll
 0002:00000558       __imp___libm_sse2_sqrt_precise 10057558     ucrt:api-ms-win-crt-math-l1-1-0.dll
 0002:0000055c       __imp___libm_sse2_pow_precise 1005755c     ucrt:api-ms-win-crt-math-l1-1-0.dll
 0002:00000560       __imp___libm_sse2_cos_precise 10057560     ucrt:api-ms-win-crt-math-l1-1-0.dll
 0002:00000564       __imp___except1            10057564     ucrt:api-ms-win-crt-math-l1-1-0.dll
 0002:00000568       \177api-ms-win-crt-math-l1-1-0_NULL_THUNK_DATA 10057568     ucrt:api-ms-win-crt-math-l1-1-0.dll
 0002:0000056c       __imp___initialize_narrow_environment 1005756c     ucrt:api-ms-win-crt-runtime-l1-1-0.dll
 0002:00000570       __imp___configure_narrow_argv 10057570     ucrt:api-ms-win-crt-runtime-l1-1-0.dll
 0002:00000574       __imp___initterm           10057574     ucrt:api-ms-win-crt-runtime-l1-1-0.dll
 0002:00000578       __imp___initterm_e         10057578     ucrt:api-ms-win-crt-runtime-l1-1-0.dll
 0002:0000057c       __imp___initialize_onexit_table 1005757c     ucrt:api-ms-win-crt-runtime-l1-1-0.dll
 0002:00000580       __imp___wassert            10057580     ucrt:api-ms-win-crt-runtime-l1-1-0.dll
 0002:00000584       __imp___errno              10057584     ucrt:api-ms-win-crt-runtime-l1-1-0.dll
 0002:00000588       __imp___beginthread        10057588     ucrt:api-ms-win-crt-runtime-l1-1-0.dll
 0002:0000058c       __imp___endthread          1005758c     ucrt:api-ms-win-crt-runtime-l1-1-0.dll
 0002:00000590       __imp__system              10057590     ucrt:api-ms-win-crt-runtime-l1-1-0.dll
 0002:00000594       __imp___register_onexit_function 10057594     ucrt:api-ms-win-crt-runtime-l1-1-0.dll
 0002:00000598       __imp___execute_onexit_table 10057598     ucrt:api-ms-win-crt-runtime-l1-1-0.dll
 0002:0000059c       __imp___crt_atexit         1005759c     ucrt:api-ms-win-crt-runtime-l1-1-0.dll
 0002:000005a0       __imp___beginthreadex      100575a0     ucrt:api-ms-win-crt-runtime-l1-1-0.dll
 0002:000005a4       __imp__terminate           100575a4     ucrt:api-ms-win-crt-runtime-l1-1-0.dll
 0002:000005a8       __imp___invalid_parameter_noinfo_noreturn 100575a8     ucrt:api-ms-win-crt-runtime-l1-1-0.dll
 0002:000005ac       __imp___cexit              100575ac     ucrt:api-ms-win-crt-runtime-l1-1-0.dll
 0002:000005b0       __imp___seh_filter_dll     100575b0     ucrt:api-ms-win-crt-runtime-l1-1-0.dll
 0002:000005b4       \177api-ms-win-crt-runtime-l1-1-0_NULL_THUNK_DATA 100575b4     ucrt:api-ms-win-crt-runtime-l1-1-0.dll
 0002:000005b8       __imp____acrt_iob_func     100575b8     ucrt:api-ms-win-crt-stdio-l1-1-0.dll
 0002:000005bc       __imp__fseek               100575bc     ucrt:api-ms-win-crt-stdio-l1-1-0.dll
 0002:000005c0       __imp__ftell               100575c0     ucrt:api-ms-win-crt-stdio-l1-1-0.dll
 0002:000005c4       __imp__fputs               100575c4     ucrt:api-ms-win-crt-stdio-l1-1-0.dll
 0002:000005c8       __imp____stdio_common_vsprintf 100575c8     ucrt:api-ms-win-crt-stdio-l1-1-0.dll
 0002:000005cc       __imp____stdio_common_vsscanf 100575cc     ucrt:api-ms-win-crt-stdio-l1-1-0.dll
 0002:000005d0       __imp__fclose              100575d0     ucrt:api-ms-win-crt-stdio-l1-1-0.dll
 0002:000005d4       __imp__fopen               100575d4     ucrt:api-ms-win-crt-stdio-l1-1-0.dll
 0002:000005d8       __imp__fwrite              100575d8     ucrt:api-ms-win-crt-stdio-l1-1-0.dll
 0002:000005dc       __imp__fgets               100575dc     ucrt:api-ms-win-crt-stdio-l1-1-0.dll
 0002:000005e0       __imp____stdio_common_vfprintf 100575e0     ucrt:api-ms-win-crt-stdio-l1-1-0.dll
 0002:000005e4       __imp__fflush              100575e4     ucrt:api-ms-win-crt-stdio-l1-1-0.dll
 0002:000005e8       __imp__fread               100575e8     ucrt:api-ms-win-crt-stdio-l1-1-0.dll
 0002:000005ec       \177api-ms-win-crt-stdio-l1-1-0_NULL_THUNK_DATA 100575ec     ucrt:api-ms-win-crt-stdio-l1-1-0.dll
 0002:000005f0       __imp__strtok              100575f0     ucrt:api-ms-win-crt-string-l1-1-0.dll
 0002:000005f4       __imp__isdigit             100575f4     ucrt:api-ms-win-crt-string-l1-1-0.dll
 0002:000005f8       __imp__strupr              100575f8     ucrt:api-ms-win-crt-string-l1-1-0.dll
 0002:000005f8       __imp___strupr             100575f8     ucrt:api-ms-win-crt-string-l1-1-0.dll
 0002:000005fc       __imp__strncpy             100575fc     ucrt:api-ms-win-crt-string-l1-1-0.dll
 0002:00000600       __imp___stricmp            10057600     ucrt:api-ms-win-crt-string-l1-1-0.dll
 0002:00000604       __imp__strncmp             10057604     ucrt:api-ms-win-crt-string-l1-1-0.dll
 0002:00000608       __imp___strdup             10057608     ucrt:api-ms-win-crt-string-l1-1-0.dll
 0002:0000060c       __imp__strncat             1005760c     ucrt:api-ms-win-crt-string-l1-1-0.dll
 0002:00000610       __imp__toupper             10057610     ucrt:api-ms-win-crt-string-l1-1-0.dll
 0002:00000614       \177api-ms-win-crt-string-l1-1-0_NULL_THUNK_DATA 10057614     ucrt:api-ms-win-crt-string-l1-1-0.dll
 0002:00000618       __imp___time64             10057618     ucrt:api-ms-win-crt-time-l1-1-0.dll
 0002:0000061c       \177api-ms-win-crt-time-l1-1-0_NULL_THUNK_DATA 1005761c     ucrt:api-ms-win-crt-time-l1-1-0.dll
 0002:00000620       __imp__rand                10057620     ucrt:api-ms-win-crt-utility-l1-1-0.dll
 0002:00000624       __imp__qsort               10057624     ucrt:api-ms-win-crt-utility-l1-1-0.dll
 0002:00000628       __imp__srand               10057628     ucrt:api-ms-win-crt-utility-l1-1-0.dll
 0002:0000062c       \177api-ms-win-crt-utility-l1-1-0_NULL_THUNK_DATA 1005762c     ucrt:api-ms-win-crt-utility-l1-1-0.dll
 0002:00000630       __imp__CoInitialize@4      10057630     ole32:ole32.dll
 0002:00000634       \177ole32_NULL_THUNK_DATA  10057634     ole32:ole32.dll
 0002:00000638       ___guard_check_icall_fptr  10057638     MSVCRT:guard_support.obj
 0002:0000063c       ___xc_a                    1005763c     MSVCRT:initializers.obj
 0002:00000684       ___xc_z                    10057684     MSVCRT:initializers.obj
 0002:00000688       ___xi_a                    10057688     MSVCRT:initializers.obj
 0002:0000068c       ___xi_z                    1005768c     MSVCRT:initializers.obj
 0002:00000690       ___xp_a                    10057690     MSVCRT:initializers.obj
 0002:00000694       ___xp_z                    10057694     MSVCRT:initializers.obj
 0002:00000698       ___xt_a                    10057698     MSVCRT:initializers.obj
 0002:0000069c       ___xt_z                    1005769c     MSVCRT:initializers.obj
 0002:000006a8       ??_7fatalError@@6B@        100576a8     dll.obj
 0002:000006b0       ??_7Formula@@6B@           100576b0     dll.obj
 0002:000006b8       ??_7Monarch@@6B@           100576b8     dll.obj
 0002:000006c0       ??_7Physics@@6B@           100576c0     dll.obj
 0002:000006c8       ??_7qtFormula@@6B@         100576c8     dll.obj
 0002:000006cc       ??_C@_04PIPPFMJD@?2dll?$AA@ 100576cc     dll.obj
 0002:000006d4       ??_C@_04JBMOPDGM@UDP?9?$AA@ 100576d4     dll.obj
 0002:000006dc       ??_C@_03GJALCMIF@COM?$AA@  100576dc     dll.obj
 0002:000006e0       ??_C@_07NBPALPEJ@dll?4cpp?$AA@ 100576e0     dll.obj
 0002:000006e8       ??_C@_0L@FJJFAFOO@file_mode?6?$AA@ 100576e8     dll.obj
 0002:000006f4       ??_C@_06GCCOGAEK@slfp1?6?$AA@ 100576f4     dll.obj
 0002:000006fc       ??_C@_06GAGINOBD@slfp2?6?$AA@ 100576fc     dll.obj
 0002:00000704       ??_C@_08KIDBNBLB@slfp?5ok?6?$AA@ 10057704     dll.obj
 0002:00000710       ??_C@_0L@IOPNHENB@?$CFs?2log?4txt?$AA@ 10057710     dll.obj
 0002:0000071c       ??_C@_05EIFNHGAC@1?42?40?$AA@ 1005771c     dll.obj
 0002:00000724       ??_C@_08ONIKCGJB@13?351?334?$AA@ 10057724     dll.obj
 0002:00000730       ??_C@_0M@MKMAEPCJ@Sep?521?52017?$AA@ 10057730     dll.obj
 0002:0000073c       ??_C@_03JALODAI@?$CFld?$AA@ 1005773c     dll.obj
 0002:00000740       ??_C@_05JFIIEJDE@?$CFf?5?$CFs?$AA@ 10057740     dll.obj
 0002:00000748       ??_C@_0BO@HFKFGLCC@Hardware?2DeviceMap?2SerialComm?$AA@ 10057748     dll.obj
 0002:00000768       ??_C@_0P@GEBFEBFO@ncomports?5?$DN?515?$AA@ 10057768     dll.obj
 0002:00000778       ??_C@_0BB@MOGOBHAF@list?$DMT?$DO?5too?5long?$AA@ 10057778     dll.obj
 0002:0000078c       __real@bf800000            1005778c     dll.obj
 0002:00000790       ??_C@_0BD@GEFEHAPC@DEVICE_NOT_SCANNED?$AA@ 10057790     dll_globals.obj
 0002:000007a4       ??_C@_0BG@BGDIBJPI@DEVICE_DOES_NOT_EXIST?$AA@ 100577a4     dll_globals.obj
 0002:000007bc       ??_C@_0O@EFKINNKG@DEVICE_EXISTS?$AA@ 100577bc     dll_globals.obj
 0002:000007cc       ??_C@_0BE@HOCBHNDD@DEVICE_COMPUTRAINER?$AA@ 100577cc     dll_globals.obj
 0002:000007e0       ??_C@_0BA@PJGAIILE@DEVICE_VELOTRON?$AA@ 100577e0     dll_globals.obj
 0002:000007f0       ??_C@_0BB@FHOAEII@DEVICE_SIMULATOR?$AA@ 100577f0     dll_globals.obj
 0002:00000804       ??_C@_0L@IOCICBGP@DEVICE_RMP?$AA@ 10057804     dll_globals.obj
 0002:00000810       ??_C@_0BF@OCMAOBGF@DEVICE_ACCESS_DENIED?$AA@ 10057810     dll_globals.obj
 0002:00000828       ??_C@_0BC@HKNPLHAP@DEVICE_OPEN_ERROR?$AA@ 10057828     dll_globals.obj
 0002:0000083c       ??_C@_0BO@FENDOGCF@DEVICE_NO_URL_AND_OR_TCP_PORT?$AA@ 1005783c     dll_globals.obj
 0002:0000085c       ??_C@_0BK@KOFLPMFF@DEVICE_SERVER_NOT_RUNNING?$AA@ 1005785c     dll_globals.obj
 0002:00000878       ??_C@_0BD@CPMPMAAM@DEVICE_OTHER_ERROR?$AA@ 10057878     dll_globals.obj
 0002:0000088c       ??_C@_02GIPFHKNO@OK?$AA@   1005788c     errors.obj
 0002:00000890       ??_C@_0BD@FFJHEKGD@DEVICE?5NOT?5RUNNING?$AA@ 10057890     errors.obj
 0002:000008a4       ??_C@_0N@JDDIPFNF@WRONG?5DEVICE?$AA@ 100578a4     errors.obj
 0002:000008b4       ??_C@_0BJ@FIFNENLE@DIRECTORY?5DOES?5NOT?5EXIST?$AA@ 100578b4     errors.obj
 0002:000008d0       ??_C@_0BH@OHNPBOFD@DEVICE?5ALREADY?5RUNNING?$AA@ 100578d0     errors.obj
 0002:000008e8       ??_C@_0BF@JDGMKPCO@BAD?5FIRMWARE?5VERSION?$AA@ 100578e8     errors.obj
 0002:00000900       ??_C@_0BM@GPPFJFAN@VELOTRON?5PARAMETERS?5NOT?5SET?$AA@ 10057900     errors.obj
 0002:0000091c       ??_C@_0P@GODKGKAN@BAD?5GEAR?5COUNT?$AA@ 1005791c     errors.obj
 0002:0000092c       ??_C@_0BA@NDBEGMGN@BAD?5TEETH?5COUNT?$AA@ 1005792c     errors.obj
 0002:0000093c       ??_C@_0BE@DAGGLFFD@PORT?5DOES?5NOT?5EXIST?$AA@ 1005793c     errors.obj
 0002:00000950       ??_C@_0BA@EGALLMBN@PORT?5OPEN?5ERROR?$AA@ 10057950     errors.obj
 0002:00000960       ??_C@_0CB@FELHDPGC@PORT?5EXISTS?5BUT?5IS?5NOT?5A?5TRAINER@ 10057960     errors.obj
 0002:00000984       ??_C@_0P@ILIDPONO@DEVICE?5RUNNING?$AA@ 10057984     errors.obj
 0002:00000994       ??_C@_0BC@LNIMDAPL@BELOW?5UPPER?5SPEED?$AA@ 10057994     errors.obj
 0002:000009a8       ??_C@_07LGIIPPHI@ABORTED?$AA@ 100579a8     errors.obj
 0002:000009b0       ??_C@_07MOCABPOL@TIMEOUT?$AA@ 100579b0     errors.obj
 0002:000009b8       ??_C@_0BA@FLIPNBGE@BAD?5RIDER?5INDEX?$AA@ 100579b8     errors.obj
 0002:000009c8       ??_C@_0BH@OKNKPEFP@DEVICE_NOT_INITIALIZED?$AA@ 100579c8     errors.obj
 0002:000009e0       ??_C@_0BC@FCFFKKOJ@CAN_NOT_OPEN_FILE?$AA@ 100579e0     errors.obj
 0002:000009f4       ??_C@_0BG@FMCGDAPM@CAN_NOT_CREATE_SERVER?$AA@ 100579f4     errors.obj
 0002:00000a0c       ??_C@_0O@PMKJACDP@GENERIC?5ERROR?$AA@ 10057a0c     errors.obj
 0002:00000a1c       ??_C@_06PGOKJPLL@ds?4log?$AA@ 10057a1c     ev.obj
 0002:00000a24       ??_C@_06EKMKHFDB@ev?4cpp?$AA@ 10057a24     ev.obj
 0002:00000a2c       ??_C@_05JKONBDIM@?1dev?1?$AA@ 10057a2c     ev.obj
 0002:00000a34       ??_C@_04GEFJINEE@?$CF?42f?$AA@ 10057a34     ev.obj
 0002:00000a3c       ??_C@_02ODKHHMML@?5C?$AA@  10057a3c     ev.obj
 0002:00000a40       ??_C@_02PPDPMJBM@?5U?$AA@  10057a40     ev.obj
 0002:00000a44       ??_C@_0N@FFMNDLOM@Bad?5commtype?$AA@ 10057a44     ev.obj
 0002:00000a54       ??_C@_0BA@GEPBHDED@?$CFs?2slope_?$CFd?4txt?$AA@ 10057a54     ev.obj
 0002:00000a64       __real@3727c5ac            10057a64     ev.obj
 0002:00000a68       __real@3b800000            10057a68     ev.obj
 0002:00000a70       __real@3fe3e245d6aabf84    10057a70     ev.obj
 0002:00000a7c       ??_C@_03OACELNE@?$CFhd?$AA@ 10057a7c     internal.obj
 0002:00000a80       ??_C@_04GDFACFJI@?$CF?46f?$AA@ 10057a80     internal.obj
 0002:00000a88       ??_C@_05CNGEMGEC@com?$CFd?$AA@ 10057a88     internal.obj
 0002:00000a90       ??_C@_05KBEOJPB@?$CFd?4?$CFd?$AA@ 10057a90     internal.obj
 0002:00000a98       ??_C@_04PLJNDDBH@hd1?6?$AA@ 10057a98     internal.obj
 0002:00000aa0       ??_C@_04PJNLINEO@hd2?6?$AA@ 10057aa0     internal.obj
 0002:00000aa8       ??_C@_05CNLGMFAI@hd2b?6?$AA@ 10057aa8     internal.obj
 0002:00000ab0       ??_C@_0O@GBHIHAON@hd3?3?5?$CFs?5?5?5?$CFs?6?$AA@ 10057ab0     internal.obj
 0002:00000ac0       ??_C@_04PNFGPBPM@hd4?6?$AA@ 10057ac0     internal.obj
 0002:00000ac8       ??_C@_05INNJKNE@hd4b?6?$AA@ 10057ac8     internal.obj
 0002:00000ad0       ??_C@_0P@DONGMEEE@hd5?0?5dt?5?$DN?5?$CFld?6?$AA@ 10057ad0     internal.obj
 0002:00000ae0       ??_C@_05IICMLLFB@hd5B?6?$AA@ 10057ae0     internal.obj
 0002:00000ae8       ??_C@_0P@FMGIKCDF@hd6?0?5ul?5?$DN?5?$CFld?6?$AA@ 10057ae8     internal.obj
 0002:00000af8       ??_C@_04IENGIFFI@hdx?6?$AA@ 10057af8     internal.obj
 0002:00000b00       ??_C@_04IMENACAG@cd1?6?$AA@ 10057b00     internal.obj
 0002:00000b08       ??_C@_04IOALLMFP@cd2?6?$AA@ 10057b08     internal.obj
 0002:00000b10       ??_C@_04IPMJNGGI@cd3?6?$AA@ 10057b10     internal.obj
 0002:00000b18       ??_C@_04PDAGLEEJ@cdx?6?$AA@ 10057b18     internal.obj
 0002:00000b20       ??_C@_05BGPLLMFF@ssd1?6?$AA@ 10057b20     internal.obj
 0002:00000b28       ??_C@_05BELNACAM@ssd2?6?$AA@ 10057b28     internal.obj
 0002:00000b30       ??_C@_05BFHPGIDL@ssd3?6?$AA@ 10057b30     internal.obj
 0002:00000b38       ??_C@_05BADAHOLO@ssd4?6?$AA@ 10057b38     internal.obj
 0002:00000b40       ??_C@_05BBPCBEIJ@ssd5?6?$AA@ 10057b40     internal.obj
 0002:00000b48       ??_C@_05BDLEKKNA@ssd6?6?$AA@ 10057b48     internal.obj
 0002:00000b50       ??_C@_05BCHGMAOH@ssd7?6?$AA@ 10057b50     internal.obj
 0002:00000b58       ??_C@_05BJCKIHNK@ssd8?6?$AA@ 10057b58     internal.obj
 0002:00000b60       ??_C@_05BIOIONON@ssd9?6?$AA@ 10057b60     internal.obj
 0002:00000b68       ??_C@_05GJLAAKBK@ssdx?6?$AA@ 10057b68     internal.obj
 0002:00000b70       ??_C@_01HJOKEEBB@U?$AA@    10057b70     internal.obj
 0002:00000b74       ??_C@_0P@MMPFLDOJ@?$CFs?2trigger?4txt?$AA@ 10057b74     internal.obj
 0002:00000b84       ??_C@_0BL@CDNDLFDO@?5?5?5check_for_trainers?$CI?$CFs?$CJ?6?$AA@ 10057b84     internal.obj
 0002:00000ba0       ??_C@_0BC@ENOJBABG@commtype?$FL?$CFs?$FN?5?$DN?5?$CFd?$AA@ 10057ba0     internal.obj
 0002:00000bb4       ??_C@_0N@KENEDBBM@internal?4cpp?$AA@ 10057bb4     internal.obj
 0002:00000bc4       ??_C@_0O@GPOHBEAH@?5?5?5catch?$CI?$CFd?$CJ?6?$AA@ 10057bc4     internal.obj
 0002:00000bd4       ??_C@_0N@CMFDACBO@?5?5?5catch?4?4?4?6?$AA@ 10057bd4     internal.obj
 0002:00000be4       ??_C@_0CI@NPANBDFF@?5?5?5serial?5port?5opened?0?5checking?5@ 10057be4     internal.obj
 0002:00000c0c       ??_C@_0BK@FGLJGIBA@?5?5?5checking?5for?5Velotron?6?$AA@ 10057c0c     internal.obj
 0002:00000c28       __real@3fd0000000000000    10057c28     rmg:qtformula.obj
 0002:00000c30       __real@4010000000000000    10057c30     rmg:qtformula.obj
 0002:00000c38       __real@45610000            10057c38     rmg:qtformula.obj
 0002:00000c40       ??_7CRF@@6B@               10057c40     rmg:crf.obj
 0002:00000c48       ??_SQCoreApplication@@6B@  10057c48     ctsrv:ctsrv.obj
 0002:00000c80       ??_SQThread@@6B@           10057c80     ctsrv:ctsrv.obj
 0002:00000cb4       ??_7Ctsrv@RACERMATE@@6B@   10057cb4     ctsrv:ctsrv.obj
 0002:00000ce0       ??_C@_08JHKHLPGH@rmserver?$AA@ 10057ce0     ctsrv:ctsrv.obj
 0002:00000cec       ??_C@_0L@IJEOKBLK@server?4log?$AA@ 10057cec     ctsrv:ctsrv.obj
 0002:00000cf8       ??_C@_0BE@JBDBGKMO@yyyy?9MM?9dd?9hh?9mm?9ss?$AA@ 10057cf8     ctsrv:ctsrv.obj
 0002:00000d0c       ??_C@_0CG@DJIEDDKH@?$CFs?5starting?5at?5?$CFs?0?5debug_level?5?$DN@ 10057d0c     ctsrv:ctsrv.obj
 0002:00000d34       ??_C@_0N@HJEENBPL@caught?51?5?$CFs?6?$AA@ 10057d34     ctsrv:ctsrv.obj
 0002:00000d44       ??_C@_0N@OGLJBGKA@caught?52?5?$CFd?6?$AA@ 10057d44     ctsrv:ctsrv.obj
 0002:00000d54       ??_C@_09FDBJIHMH@caught?53?6?$AA@ 10057d54     ctsrv:ctsrv.obj
 0002:00000d60       ??_C@_08MMLLINKD@1start?$CI?$CJ?$AA@ 10057d60     ctsrv:ctsrv.obj
 0002:00000d6c       ??_C@_0L@DEMECOKG@2started?$CI?$CJ?$AA@ 10057d6c     ctsrv:ctsrv.obj
 0002:00000d78       ??_C@_0BI@NNGLNPLO@1handleResults?$CIQString?$CJ?$AA@ 10057d78     ctsrv:ctsrv.obj
 0002:00000d90       ??_C@_0BG@CCDEPHOP@2resultReady?$CIQString?$CJ?$AA@ 10057d90     ctsrv:ctsrv.obj
 0002:00000da8       ??_C@_07MACNJONM@1quit?$CI?$CJ?$AA@ 10057da8     ctsrv:ctsrv.obj
 0002:00000db0       ??_C@_0M@BMAHFEDH@2finished?$CI?$CJ?$AA@ 10057db0     ctsrv:ctsrv.obj
 0002:00000dbc       ??_C@_0BA@KDDANJPO@worker?5started?6?$AA@ 10057dbc     ctsrv:ctsrv.obj
 0002:00000dcc       ??_C@_08NOLGNEAI@serverx?6?$AA@ 10057dcc     ctsrv:ctsrv.obj
 0002:00000dd8       ??_C@_08CFLCJAIJ@close?51?6?$AA@ 10057dd8     ctsrv:ctsrv.obj
 0002:00000de4       ??_C@_08CGDGEEOH@close?53?6?$AA@ 10057de4     ctsrv:ctsrv.obj
 0002:00000df0       ??_C@_08CDHJFCGC@close?54?6?$AA@ 10057df0     ctsrv:ctsrv.obj
 0002:00000dfc       ??_C@_09BPLEALDE@close?54b?6?$AA@ 10057dfc     ctsrv:ctsrv.obj
 0002:00000e08       ??_C@_08CCLLDIFF@close?55?6?$AA@ 10057e08     ctsrv:ctsrv.obj
 0002:00000e14       ??_C@_08CAPNIGAM@close?56?6?$AA@ 10057e14     ctsrv:ctsrv.obj
 0002:00000e20       ??_C@_08FKPJCGMG@close?5x?6?$AA@ 10057e20     ctsrv:ctsrv.obj
 0002:00000e2c       ??_C@_0CA@IEOCHJEN@?$AN?6?$CIstring?5too?5long?5in?5logg?$CI?$CJ?$CJ?$AN?6?$AA@ 10057e2c     ctsrv:ctsrv.obj
 0002:00000e4c       ??_C@_0BK@EMDCAPAO@Doing?5some?5other?5stuff?4?4?4?$AA@ 10057e4c     ctsrv:ctsrv.obj
 0002:00000e68       ??_C@_0BD@LNLKCFCN@client?5not?5running?$AA@ 10057e68     ctsrv:ctsrv.obj
 0002:00000e7c       ??_C@_0CI@KBCIOCHK@Controller?5received?5result?5from?5@ 10057e7c     ctsrv:ctsrv.obj
 0002:00001298       ??_C@_09IHCOJJCO@Settings?2?$AA@ 10058298     ctsrv:sdirs.obj
 0002:000012a4       ??_C@_06GOGLFEHM@Debug?2?$AA@ 100582a4     ctsrv:sdirs.obj
 0002:000012b0       ??_7Rider2@@6B@            100582b0     ctsrv:udp_client.obj
 0002:000012bc       ??_7UDPClient@RACERMATE@@6B@ 100582bc     ctsrv:udp_client.obj
 0002:000012e8       ??_C@_0BA@DHJNEBOJ@client?5?$CFs?5done?6?$AA@ 100582e8     ctsrv:udp_client.obj
 0002:000012f8       ??_C@_07NAJBFKJA@done?5x?6?$AA@ 100582f8     ctsrv:udp_client.obj
 0002:00001300       ??_C@_04FPOLKAEB@?4log?$AA@ 10058300     ctsrv:udp_client.obj
 0002:00001308       ??_C@_03OCLLGKEH@udp?$AA@  10058308     ctsrv:udp_client.obj
 0002:0000130c       ??_C@_07LMOIAOBF@udpc?9?$CFs?$AA@ 1005830c     ctsrv:udp_client.obj
 0002:00001314       ??_C@_04BBNOPPFB@ok1?6?$AA@ 10058314     ctsrv:udp_client.obj
 0002:0000131c       ??_C@_04BDJIEBAI@ok2?6?$AA@ 1005831c     ctsrv:udp_client.obj
 0002:00001324       ??_C@_04BCFKCLDP@ok3?6?$AA@ 10058324     ctsrv:udp_client.obj
 0002:0000132c       ??_C@_0BD@CEINPHJD@client?5?$CFs?5created?6?$AA@ 1005832c     ctsrv:udp_client.obj
 0002:00001340       ??_C@_06NCOLDMGL@UDP?9?$CFd?$AA@ 10058340     ctsrv:udp_client.obj
 0002:00001348       ??_C@_04LOHLLPGA@RMCT?$AA@ 10058348     ctsrv:udp_client.obj
 0002:00001350       ??_C@_0BA@HKCCEBGA@?$CFs?2slope_?$CFs?4txt?$AA@ 10058350     ctsrv:udp_client.obj
 0002:00001360       __real@3bc49ba6            10058360     ctsrv:udp_client.obj
 0002:00001364       __real@3e000000            10058364     ctsrv:udp_client.obj
 0002:00001368       __real@43800000            10058368     ctsrv:udp_client.obj
 0002:0000136c       __real@47480000            1005836c     ctsrv:udp_client.obj
 0002:00001370       __xmm@405469700e7debe34039000000000000 10058370     ctsrv:udp_client.obj
 0002:00001384       ??_SQTimer@@6B@            10058384     ctsrv:ctsrvworker.obj
 0002:000013b4       ??_SQUdpSocket@@6B@        100583b4     ctsrv:ctsrvworker.obj
 0002:00001450       ??_7ctsrvWorker@RACERMATE@@6B@ 10058450     ctsrv:ctsrvworker.obj
 0002:0000147c       ??_C@_01ELNMCGJD@W?$AA@    1005847c     ctsrv:ctsrvworker.obj
 0002:00001480       ??_C@_0O@HLGIKLDD@sdirs?5error?51?$AA@ 10058480     ctsrv:ctsrvworker.obj
 0002:00001490       ??_C@_0O@FAEFPIPA@sdirs?5error?52?$AA@ 10058490     ctsrv:ctsrvworker.obj
 0002:000014a0       ??_C@_0O@EJFOMJLB@sdirs?5error?53?$AA@ 100584a0     ctsrv:ctsrvworker.obj
 0002:000014b0       ??_C@_0BA@FHFJIGBK@sdirs?5error?5101?$AA@ 100584b0     ctsrv:ctsrvworker.obj
 0002:000014c0       ??_C@_0BA@FFEPGBEN@ctsrvworker?4log?$AA@ 100584c0     ctsrv:ctsrvworker.obj
 0002:000014d0       ??_C@_0M@IODKEHDF@?$CFs?1main?4ini?$AA@ 100584d0     ctsrv:ctsrvworker.obj
 0002:000014dc       ??_C@_0BI@IJAGKHPB@creating?5server?5socket?6?$AA@ 100584dc     ctsrv:ctsrvworker.obj
 0002:000014f4       ??_C@_0N@LCKPLJNO@status?5?$DN?5?$CFd?6?$AA@ 100584f4     ctsrv:ctsrvworker.obj
 0002:00001504       ??_C@_0O@BGPHCII@1bc_timeout?$CI?$CJ?$AA@ 10058504     ctsrv:ctsrvworker.obj
 0002:00001514       ??_C@_0L@CHKJBFLD@2timeout?$CI?$CJ?$AA@ 10058514     ctsrv:ctsrvworker.obj
 0002:00001520       ??_C@_0L@LOELHDLC@1timeout?$CI?$CJ?$AA@ 10058520     ctsrv:ctsrvworker.obj
 0002:0000152c       ??_C@_0CE@BGCBDBDK@error?5creating?5ctsrvWorker?5socke@ 1005852c     ctsrv:ctsrvworker.obj
 0002:00001550       ??_C@_0BA@EDMEDFCC@1disconnected?$CI?$CJ?$AA@ 10058550     ctsrv:ctsrvworker.obj
 0002:00001560       ??_C@_0BA@GKAMIBNA@2disconnected?$CI?$CJ?$AA@ 10058560     ctsrv:ctsrvworker.obj
 0002:00001570       ??_C@_0N@FOJKBDEC@1hostFound?$CI?$CJ?$AA@ 10058570     ctsrv:ctsrvworker.obj
 0002:00001580       ??_C@_0N@ODFAHPIM@2hostFound?$CI?$CJ?$AA@ 10058580     ctsrv:ctsrvworker.obj
 0002:00001590       ??_C@_0BL@KHAKCJLD@1processPendingDatagrams?$CI?$CJ?$AA@ 10058590     ctsrv:ctsrvworker.obj
 0002:000015ac       ??_C@_0N@HMJECBDI@2readyRead?$CI?$CJ?$AA@ 100585ac     ctsrv:ctsrvworker.obj
 0002:000015bc       ??_C@_0CI@BNGFINGA@readDatagram?5error?0?5n?5?$DN?5?$CFd?0?5loop@ 100585bc     ctsrv:ctsrvworker.obj
 0002:000015e4       ??_C@_0BO@HKCIDDAO@trying?5to?5add?5client?0?5key?5?$CFs?6?$AA@ 100585e4     ctsrv:ctsrvworker.obj
 0002:00001604       ??_C@_0BE@LPBJHHFA@ppd?0?5adding?5client?6?$AA@ 10058604     ctsrv:ctsrvworker.obj
 0002:00001618       ??_C@_0CM@MJJDIMIK@ppd?0?5too?5many?5clients?0?5clients?4s@ 10058618     ctsrv:ctsrvworker.obj
 0002:00001644       ??_C@_0BF@MMONNGND@?6creating?5client?5?$CFs?6?$AA@ 10058644     ctsrv:ctsrvworker.obj
 0002:0000165c       ??_C@_0BA@NBLCLLDC@client?5created?6?$AA@ 1005865c     ctsrv:ctsrvworker.obj
 0002:0000166c       ??_C@_0L@IKKJJMC@connect?51?6?$AA@ 1005866c     ctsrv:ctsrvworker.obj
 0002:00001678       ??_C@_0CK@NGFBKGGD@1connected_to_trainer_slot?$CIQStri@ 10058678     ctsrv:ctsrvworker.obj
 0002:000016a4       ??_C@_0CM@DAIJNCCD@2connected_to_trainer_signal?$CIQSt@ 100586a4     ctsrv:ctsrvworker.obj
 0002:000016d0       ??_C@_0L@KOMCHJL@connect?52?6?$AA@ 100586d0     ctsrv:ctsrvworker.obj
 0002:000016dc       ??_C@_0L@LCOENKM@connect?53?6?$AA@ 100586dc     ctsrv:ctsrvworker.obj
 0002:000016e8       ??_C@_0BO@JFNKNOPC@1data_slot?$CIQString?0?5QT_DATA?$CK?$CJ?$AA@ 100586e8     ctsrv:ctsrvworker.obj
 0002:00001708       ??_C@_0CA@OBEOCGBM@2data_signal?$CIQString?0?5QT_DATA?$CK?$CJ?$AA@ 10058708     ctsrv:ctsrvworker.obj
 0002:00001728       ??_C@_0L@OGBFLCJ@connect?54?6?$AA@ 10058728     ctsrv:ctsrvworker.obj
 0002:00001734       ??_C@_0BP@EMCIEODB@1ss_slot?$CIQString?0?5qt_SS?3?3SSD?$CK?$CJ?$AA@ 10058734     ctsrv:ctsrvworker.obj
 0002:00001754       ??_C@_0CB@MKGKLDML@2ss_signal?$CIQString?0?5qt_SS?3?3SSD?$CK?$CJ@ 10058754     ctsrv:ctsrvworker.obj
 0002:00001778       ??_C@_0L@PKDDBBO@connect?55?6?$AA@ 10058778     ctsrv:ctsrvworker.obj
 0002:00001784       ??_C@_0BM@LAGKJJLO@1rescale_slot?$CIQString?0?5int?$CJ?$AA@ 10058784     ctsrv:ctsrvworker.obj
 0002:000017a0       ??_C@_0BO@MDNOEAGH@2rescale_signal?$CIQString?0?5int?$CJ?$AA@ 100587a0     ctsrv:ctsrvworker.obj
 0002:000017c0       ??_C@_0L@NOFIPEH@connect?56?6?$AA@ 100587c0     ctsrv:ctsrvworker.obj
 0002:000017cc       ??_C@_0CM@BDGKKJJB@1ctlmsg_slot?$CIQString?0?5unsigned?5c@ 100587cc     ctsrv:ctsrvworker.obj
 0002:000017f8       ??_C@_0CO@FFGDFFND@2ctlmsg_signal?$CIQString?0?5unsigned@ 100587f8     ctsrv:ctsrvworker.obj
 0002:00001828       ??_C@_0BM@CPJDGDGC@client?5?$CFs?5fully?5connected?6?6?$AA@ 10058828     ctsrv:ctsrvworker.obj
 0002:00001844       ??_C@_0BC@FHMMKHCP@failed?5Norm?5test?6?$AA@ 10058844     ctsrv:ctsrvworker.obj
 0002:00001858       ??_C@_0DJ@DCAMIKEL@ppd2?0?5clients?4size?$CI?$CJ?5?$DN?5?$CFd?0?5n?5?$DN?5?$CF@ 10058858     ctsrv:ctsrvworker.obj
 0002:00001894       ??_C@_05NDECMIJJ@ppd7?6?$AA@ 10058894     ctsrv:ctsrvworker.obj
 0002:0000189c       ??_C@_0BF@HAJLJKIC@no?5broadcast?5socket?6?$AA@ 1005889c     ctsrv:ctsrvworker.obj
 0002:000018b4       ??_C@_0CA@KBGCJDJF@no?5default?5broadcast?5addresses?6?$AA@ 100588b4     ctsrv:ctsrvworker.obj
 0002:000018d4       ??_C@_0BI@EOEKKNEC@no?5broadcast?5addresses?6?$AA@ 100588d4     ctsrv:ctsrvworker.obj
 0002:000018ec       ??_C@_0BJ@GJLNBKCF@broadcast?5write?5error?51?6?$AA@ 100588ec     ctsrv:ctsrvworker.obj
 0002:00001908       ??_C@_0BJ@GLPLKEHM@broadcast?5write?5error?52?6?$AA@ 10058908     ctsrv:ctsrvworker.obj
 0002:00001924       ??_C@_05FAGFPHJG@start?$AA@ 10058924     ctsrv:ctsrvworker.obj
 0002:0000192c       ??_C@_08LELCEDLL@stop?51a?6?$AA@ 1005892c     ctsrv:ctsrvworker.obj
 0002:00001938       ??_C@_08LGPEPNOC@stop?51b?6?$AA@ 10058938     ctsrv:ctsrvworker.obj
 0002:00001944       ??_C@_04PEGFANN@stop?$AA@  10058944     ctsrv:ctsrvworker.obj
 0002:0000194c       ??_C@_07NNGHGJNH@stop?52?6?$AA@ 1005894c     ctsrv:ctsrvworker.obj
 0002:00001954       ??_C@_07NMKFADOA@stop?53?6?$AA@ 10058954     ctsrv:ctsrvworker.obj
 0002:0000195c       ??_C@_08BMPNDFGJ@stop?53b?6?$AA@ 1005895c     ctsrv:ctsrvworker.obj
 0002:00001968       ??_C@_08BNDPFPFO@stop?53c?6?$AA@ 10058968     ctsrv:ctsrvworker.obj
 0002:00001974       ??_C@_07NJOKBFGF@stop?54?6?$AA@ 10058974     ctsrv:ctsrvworker.obj
 0002:0000197c       ??_C@_07NICIHPFC@stop?55?6?$AA@ 1005897c     ctsrv:ctsrvworker.obj
 0002:00001984       ??_C@_07NKGOMBAL@stop?56?6?$AA@ 10058984     ctsrv:ctsrvworker.obj
 0002:0000198c       ??_C@_07KAGKGBMB@stop?5x?6?$AA@ 1005898c     ctsrv:ctsrvworker.obj
 0002:00001994       ??_C@_09GIIACDJJ@cttts?$DP?$DP?$DP?6?$AA@ 10058994     ctsrv:ctsrvworker.obj
 0002:00002070       ??_7ANT@RACERMATE@@6B@     10059070     rmant:ant.obj
 0002:0000209c       ??_C@_02IDKLLEPC@UA?$AA@   1005909c     rmant:ant.obj
 0002:000020a0       ??_C@_08PDLIAAIE@closing?6?$AA@ 100590a0     rmant:ant.obj
 0002:000020ac       ??_C@_0L@EPCGIGIA@closing?51?6?$AA@ 100590ac     rmant:ant.obj
 0002:000020b8       ??_C@_0L@ENGADINJ@closing?52?6?$AA@ 100590b8     rmant:ant.obj
 0002:000020c4       ??_C@_0L@EMKCFCOO@closing?53?6?$AA@ 100590c4     rmant:ant.obj
 0002:000020d0       ??_C@_0L@EJONEEGL@closing?54?6?$AA@ 100590d0     rmant:ant.obj
 0002:000020dc       ??_C@_0L@EICPCOFM@closing?55?6?$AA@ 100590dc     rmant:ant.obj
 0002:000020e8       ??_C@_0L@EKGJJAAF@closing?56?6?$AA@ 100590e8     rmant:ant.obj
 0002:000020f4       ??_C@_0L@ELKLPKDC@closing?57?6?$AA@ 100590f4     rmant:ant.obj
 0002:00002100       ??_C@_0L@DAGNDAMP@closing?5x?6?$AA@ 10059100     rmant:ant.obj
 0002:0000210c       ??_C@_05ODPFILNE@rmant?$AA@ 1005910c     rmant:ant.obj
 0002:00002114       ??_C@_07KLJAFAHP@ant?4log?$AA@ 10059114     rmant:ant.obj
 0002:0000211c       ??_C@_0BC@MKNDGGJN@rmant?4log?5opened?6?$AA@ 1005911c     rmant:ant.obj
 0002:00002130       ??_C@_0BM@HCAOENCL@ANT?5libusb_init?5error?5?$DN?5?$CFd?6?$AA@ 10059130     rmant:ant.obj
 0002:0000214c       ??_C@_05PGNDJOGF@ANT1?6?$AA@ 1005914c     rmant:ant.obj
 0002:00002154       ??_C@_0CK@IJFEGMDI@?5?5?5qApp?5exists?0?5so?5m_application@ 10059154     rmant:ant.obj
 0002:00002180       ??_C@_0BF@KFKJAPNE@ANT?5creating?5worker?6?$AA@ 10059180     rmant:ant.obj
 0002:00002198       ??_C@_0BE@CDJOMHAB@ANT?5created?5worker?6?$AA@ 10059198     rmant:ant.obj
 0002:000021ac       ??_C@_0BB@KCECDBKL@ANT?5caught?51?5?$CFs?6?$AA@ 100591ac     rmant:ant.obj
 0002:000021c0       ??_C@_0BB@DNLPPGPA@ANT?5caught?52?5?$CFd?6?$AA@ 100591c0     rmant:ant.obj
 0002:000021d4       ??_C@_0O@EDBEPDEO@ANT?5caught?53?6?$AA@ 100591d4     rmant:ant.obj
 0002:000021e4       ??_C@_0BD@MBKONKCF@2worker_finished?$CI?$CJ?$AA@ 100591e4     rmant:ant.obj
 0002:000021f8       ??_C@_0BB@FEHCPAEB@starting?5worker?6?$AA@ 100591f8     rmant:ant.obj
 0002:0000220c       ??_C@_0BE@HIJBKBEM@ANT?5worker?5started?6?$AA@ 1005920c     rmant:ant.obj
 0002:00002220       ??_C@_03KFAFDAIE@x?4x?$AA@ 10059220     rmant:ant.obj
 0002:00002224       ??_C@_07MJGDIHDJ@rx0?4log?$AA@ 10059224     rmant:ant.obj
 0002:0000222c       ??_C@_0CD@CIHMKCKO@c?3?2cygwin64?2bin?2cat?5tx0?4log?5?$DO?$DO?5x@ 1005922c     rmant:ant.obj
 0002:00002250       ??_C@_0CB@DDLBCMCE@c?3?2cygwin64?2bin?2sort?5x?4x?5?$DO?5d?4txt@ 10059250     rmant:ant.obj
 0002:00002274       ??_C@_0BE@GFIENNOF@scan_for_devices?$CI?$CJ?6?$AA@ 10059274     rmant:ant.obj
 0002:00002288       ??_C@_0BD@FDLKONFM@sfd?5ndevices?5?$DN?5?$CFd?6?$AA@ 10059288     rmant:ant.obj
 0002:0000229c       ??_C@_06HCHIBPOO@sfd?51?6?$AA@ 1005929c     rmant:ant.obj
 0002:000022a4       ??_C@_0M@CMKGHKDK@sfd?5k?5?$DN?5?$CFd?6?$AA@ 100592a4     rmant:ant.obj
 0002:000022b0       ??_C@_06HADOKBLH@sfd?52?6?$AA@ 100592b0     rmant:ant.obj
 0002:000022b8       ??_C@_0BE@DOHBNABD@sfd?53?0?5status?5?$DN?5?$CFd?6?$AA@ 100592b8     rmant:ant.obj
 0002:000022cc       ??_C@_06HELDNNAF@sfd?54?6?$AA@ 100592cc     rmant:ant.obj
 0002:000022d4       ??_C@_0CO@NMNDOOON@?6sfd?5found?5stick?5?$CK?$CK?$CK?$CK?$CK?$CK?$CK?$CK?$CK?$CK?$CK?$CK?$CK?$CK?$CK@ 100592d4     rmant:ant.obj
 0002:00002304       ??_C@_06HFHBLHDC@sfd?55?6?$AA@ 10059304     rmant:ant.obj
 0002:0000230c       ??_C@_06HHDHAJGL@sfd?56?6?$AA@ 1005930c     rmant:ant.obj
 0002:00002314       ??_C@_0BE@OKEAJMJE@sfd?57?0?5status?5?$DN?5?$CFd?6?$AA@ 10059314     rmant:ant.obj
 0002:00002328       ??_C@_06HNKJCEGB@sfd?58?6?$AA@ 10059328     rmant:ant.obj
 0002:00002330       ??_C@_06HMGLEOFG@sfd?59?6?$AA@ 10059330     rmant:ant.obj
 0002:00002338       ??_C@_0DG@EOILHALB@sfd?5libusb_get_string_descriptor@ 10059338     rmant:ant.obj
 0002:00002370       ??_C@_0BJ@BBBDBPAP@ANT?3?3creating?5device?5?$CFd?6?$AA@ 10059370     rmant:ant.obj
 0002:0000238c       ??_C@_0BM@PLKNJCJF@?5?5?5ANT?3?3?5creating?5device?5?$CFd?$AA@ 1005938c     rmant:ant.obj
 0002:000023a8       ??_C@_0BL@DCMPKDPI@?5?5?5ANT?3?3?5created?5device?5?$CFd?$AA@ 100593a8     rmant:ant.obj
 0002:000023c4       ??_C@_07JHFHOLMC@sfd?512?6?$AA@ 100593c4     rmant:ant.obj
 0002:000023cc       ??_C@_0BF@LNFJPOKA@sfd?513?0?5status?5?$DN?5?$CFd?6?$AA@ 100593cc     rmant:ant.obj
 0002:000023e4       ??_C@_07JDNKJHHA@sfd?514?6?$AA@ 100593e4     rmant:ant.obj
 0002:000023ec       ??_C@_07JCBIPNEH@sfd?515?6?$AA@ 100593ec     rmant:ant.obj
 0002:000023f4       ??_C@_0CF@GIPNCBLM@sfd?516?0?5_nsticks?5?$DN?5?$CFd?0?5nsticks?5?$DN@ 100593f4     rmant:ant.obj
 0002:0000241c       ??_C@_07JBJMCJCJ@sfd?517?6?$AA@ 1005941c     rmant:ant.obj
 0002:00002424       ??_C@_0P@JLALANCL@sfd?5x?0?5rc?5?$DN?5?$CFd?$AA@ 10059424     rmant:ant.obj
 0002:00002434       ??_C@_07HBELPMHF@sfd?5x2?6?$AA@ 10059434     rmant:ant.obj
 0002:0000243c       ??_C@_0BI@LHJGOAAI@?6ant?5terminal?5?5ANTDEVS?3?$AA@ 1005943c     rmant:ant.obj
 0002:00002454       ??_C@_0BD@CNGMGEPN@?5?5?5?5ANt?3?3?5?5?$CFs?5?5?5?$CFs?$AA@ 10059454     rmant:ant.obj
 0002:00002468       ??_C@_0BB@ELNLLIND@start_listening?6?$AA@ 10059468     rmant:ant.obj
 0002:0000247c       ??_C@_0O@MOHIKPPA@found?5device?6?$AA@ 1005947c     rmant:ant.obj
 0002:0000248c       ??_C@_0BP@JPICIGBK@start_listening?5done?0?5rc?5?$DN?5?$CFd?6?$AA@ 1005948c     rmant:ant.obj
 0002:000024ac       ??_C@_09PLDIHLMC@?0?5?$CFs?5?5?5?$CFs?$AA@ 100594ac     rmant:ant.obj
 0002:000024b8       ??_C@_07KKAAKNCA@?$CFs?5?5?5?$CFs?$AA@ 100594b8     rmant:ant.obj
 0002:000024c0       ??_C@_08JLKMEPOE@?$CF7lld?5?$CFs?$AA@ 100594c0     rmant:ant.obj
 0002:00002528       ?USER_NETWORK_KEY@ANTDEV@@0QBEB 10059528     rmant:antdev.obj
 0002:00002534       ??_7ANTDEV@@6B@            10059534     rmant:antdev.obj
 0002:00002560       ??_C@_0O@IEOMNBCE@CHANNEL_EVENT?$AA@ 10059560     rmant:antdev.obj
 0002:00002570       ??_C@_0L@NNDLCDL@CHANNEL_ID?$AA@ 10059570     rmant:antdev.obj
 0002:0000257c       ??_C@_0P@CPDBHFGE@CHANNEL_STATUS?$AA@ 1005957c     rmant:antdev.obj
 0002:0000258c       ??_C@_0BA@JGDIMKG@SET_NETWORK_KEY?$AA@ 1005958c     rmant:antdev.obj
 0002:0000259c       ??_C@_0BF@BILOEMNE@MESG_STARTUP_MESG_ID?$AA@ 1005959c     rmant:antdev.obj
 0002:000025b4       ??_C@_0N@PDMOIHND@CAPABILITIES?$AA@ 100595b4     rmant:antdev.obj
 0002:000025c4       ??_C@_0O@EKMEDPAL@SERIAL_NUMBER?$AA@ 100595c4     rmant:antdev.obj
 0002:000025d4       ??_C@_07NCHCCDCP@VERSION?$AA@ 100595d4     rmant:antdev.obj
 0002:000025dc       ??_C@_0P@JKBNPNBF@BROADCAST_DATA?$AA@ 100595dc     rmant:antdev.obj
 0002:000025ec       ??_C@_08MANFJLED@ACK_DATA?$AA@ 100595ec     rmant:antdev.obj
 0002:000025f8       ??_C@_0L@OECCHAJL@BURST_DATA?$AA@ 100595f8     rmant:antdev.obj
 0002:00002604       ??_C@_0M@ICDJHGIC@REQ_MESSAGE?$AA@ 10059604     rmant:antdev.obj
 0002:00002610       ??_C@_0N@OHNBBOJA@SYSTEM_RESET?$AA@ 10059610     rmant:antdev.obj
 0002:00002620       ??_C@_0P@GJEAHABA@ASSIGN_CHANNEL?$AA@ 10059620     rmant:antdev.obj
 0002:00002630       ??_C@_0BB@MHDJJCBO@UNASSIGN_CHANNEL?$AA@ 10059630     rmant:antdev.obj
 0002:00002644       ??_C@_0BA@BOPJCMOL@ENABLE_EXT_MSGS?$AA@ 10059644     rmant:antdev.obj
 0002:00002654       ??_C@_0BC@ODEAHIAF@LP_SEARCH_TIMEOUT?$AA@ 10059654     rmant:antdev.obj
 0002:00002668       ??_C@_0N@HOONAKCL@OPEN_CHANNEL?$AA@ 10059668     rmant:antdev.obj
 0002:00002678       ??_C@_0O@OABPAMHI@CLOSE_CHANNEL?$AA@ 10059678     rmant:antdev.obj
 0002:00002688       ??_C@_0BC@KFGJGEIJ@CHANNEL_FREQUENCY?$AA@ 10059688     rmant:antdev.obj
 0002:0000269c       ??_C@_0P@EHFCHOOH@CHANNEL_PERIOD?$AA@ 1005969c     rmant:antdev.obj
 0002:000026ac       ??_C@_0P@PJFIOOBC@SEARCH_TIMEOUT?$AA@ 100596ac     rmant:antdev.obj
 0002:000026bc       ??_C@_0BA@MIMKENIH@MESG_LIB_CONFIG?$AA@ 100596bc     rmant:antdev.obj
 0002:000026cc       ??_C@_0BI@PBGGKEGM@EVENT_RX_SEARCH_TIMEOUT?$AA@ 100596cc     rmant:antdev.obj
 0002:000026e4       ??_C@_0BB@OFKOLBKL@CHANNEL_TX_POWER?$AA@ 100596e4     rmant:antdev.obj
 0002:000026f8       ??_C@_0BE@FKLGADOA@MESG_NETWORK_KEY_ID?$AA@ 100596f8     rmant:antdev.obj
 0002:0000270c       ??_C@_09ONBBMBDN@RESET_POR?$AA@ 1005970c     rmant:antdev.obj
 0002:00002718       ??_C@_0O@ODPLDLBH@RESET_SUSPEND?$AA@ 10059718     rmant:antdev.obj
 0002:00002728       ??_C@_0L@KEDPGJJB@RESET_SYNC?$AA@ 10059728     rmant:antdev.obj
 0002:00002734       ??_C@_09LAKBFIPF@RESET_CMD?$AA@ 10059734     rmant:antdev.obj
 0002:00002740       ??_C@_09CKMJLBOD@RESET_WDT?$AA@ 10059740     rmant:antdev.obj
 0002:0000274c       ??_C@_09EHOPECE@RESET_RST?$AA@ 1005974c     rmant:antdev.obj
 0002:00002758       ??_C@_0L@PPOANICK@Heart?5Rate?$AA@ 10059758     rmant:antdev.obj
 0002:00002764       ??_C@_0O@DEJMKJOD@Speed?9Cadence?$AA@ 10059764     rmant:antdev.obj
 0002:00002774       ??_C@_0BF@OAFFJAIL@?5?5?5?5?5?5ANTDEV?3?3init?$CI?$CJ?$AA@ 10059774     rmant:antdev.obj
 0002:0000278c       ??_C@_0L@FBCBCKIN@antdev?4log?$AA@ 1005978c     rmant:antdev.obj
 0002:00002798       ??_C@_0L@NOGNGIAA@?$CFs?5opened?6?$AA@ 10059798     rmant:antdev.obj
 0002:000027a4       ??_C@_08DMFMFIJO@antdev?$CFd?$AA@ 100597a4     rmant:antdev.obj
 0002:000027b0       ??_C@_0BH@PHNDIHIP@?5?5?5?5?5?5ANTDEV?3?3init?$CI?$CJ?5x?$AA@ 100597b0     rmant:antdev.obj
 0002:000027c8       ??_C@_0BG@PCMOPJKC@?5?5?5Standard?5Options?3?6?$AA@ 100597c8     rmant:antdev.obj
 0002:000027e0       ??_C@_0BP@NEMFBEP@?7?7CAPABILITIES_NO_RX_CHANNELS?6?$AA@ 100597e0     rmant:antdev.obj
 0002:00002800       ??_C@_0BP@KNKJIOJC@?7?7CAPABILITIES_NO_TX_CHANNELS?6?$AA@ 10059800     rmant:antdev.obj
 0002:00002820       ??_C@_0BP@CMMDODMM@?7?7CAPABILITIES_NO_RX_MESSAGES?6?$AA@ 10059820     rmant:antdev.obj
 0002:00002840       ??_C@_0BP@IMCGDMBB@?7?7CAPABILITIES_NO_TX_MESSAGES?6?$AA@ 10059840     rmant:antdev.obj
 0002:00002860       ??_C@_0CB@JFLGNIBB@?7?7CAPABILITIES_NO_ACKD_MESSAGES?6@ 10059860     rmant:antdev.obj
 0002:00002884       ??_C@_0CC@IGPJMOHJ@?7?7CAPABILITIES_NO_BURST_TRANSFER@ 10059884     rmant:antdev.obj
 0002:000028a8       ??_C@_0BG@ENKHADHE@?5?5?5Advanced?5Options?3?6?$AA@ 100598a8     rmant:antdev.obj
 0002:000028c0       ??_C@_0CA@PKLOJKNK@?7?7CAPABILITIES_OVERUN_UNDERRUN?6?$AA@ 100598c0     rmant:antdev.obj
 0002:000028e0       ??_C@_0CA@CDNIOJAJ@?7?7CAPABILITIES_NETWORK_ENABLED?6?$AA@ 100598e0     rmant:antdev.obj
 0002:00002900       ??_C@_0BO@MFGLMMIF@?7?7CAPABILITIES_AP1_VERSION_2?6?$AA@ 10059900     rmant:antdev.obj
 0002:00002920       ??_C@_0CG@FKIKKDKM@?7?7CAPABILITIES_SERIAL_NUMBER_ENA@ 10059920     rmant:antdev.obj
 0002:00002948       ??_C@_0CN@HNEDPGLH@?7?7CAPABILITIES_PER_CHANNEL_TX_PO@ 10059948     rmant:antdev.obj
 0002:00002978       ??_C@_0CM@CDDINPHL@?7?7CAPABILITIES_LOW_PRIORITY_SEAR@ 10059978     rmant:antdev.obj
 0002:000029a4       ??_C@_0BP@JLMLKAPF@?7?7CAPABILITIES_SCRIPT_ENABLED?6?$AA@ 100599a4     rmant:antdev.obj
 0002:000029c4       ??_C@_0CE@LAEIDEBC@?7?7CAPABILITIES_SEARCH_LIST_ENABL@ 100599c4     rmant:antdev.obj
 0002:000029e8       ??_C@_0BI@BIKEKPPG@?5?5?5Advanced?52?5Options?3?6?$AA@ 100599e8     rmant:antdev.obj
 0002:00002a00       ??_C@_0BM@ODPEGKFB@?7?7CAPABILITIES_LED_ENABLED?6?$AA@ 10059a00     rmant:antdev.obj
 0002:00002a1c       ??_C@_0CE@ICLNHCLP@?7?7CAPABILITIES_EXT_MESSAGE_ENABL@ 10059a1c     rmant:antdev.obj
 0002:00002a40       ??_C@_0CC@PDFDJFCM@?7?7CAPABILITIES_SCAN_MODE_ENABLED@ 10059a40     rmant:antdev.obj
 0002:00002a64       ??_C@_0BJ@BFPEDNEM@?7?7CAPABILITIES_RESERVED?6?$AA@ 10059a64     rmant:antdev.obj
 0002:00002a80       ??_C@_0CE@BNDELMNK@?7?7CAPABILITIES_PROX_SEARCH_ENABL@ 10059a80     rmant:antdev.obj
 0002:00002aa4       ??_C@_0CD@HBFGKCM@?7?7CAPABILITIES_EXT_ASSIGN_ENABLE@ 10059aa4     rmant:antdev.obj
 0002:00002ac8       ??_C@_0BH@JCKNHDFL@?7?7CAPABILITIES_FREE_1?6?$AA@ 10059ac8     rmant:antdev.obj
 0002:00002ae0       ??_C@_0BN@POEANED@?7?7CAPABILITIES_FIT1_ENABLED?6?$AA@ 10059ae0     rmant:antdev.obj
 0002:00002b00       ??_C@_0M@HKKBOAGB@len?5?$DN?5?$CFd?6?$CFs?$AA@ 10059b00     rmant:antdev.obj
 0002:00002b0c       ??_C@_05GBBPNMBD@?$CF04lx?$AA@ 10059b0c     rmant:antdev.obj
 0002:00002b14       ??_C@_0BC@GJHPLACP@version?5too?5long?6?$AA@ 10059b14     rmant:antdev.obj
 0002:00002b28       ??_C@_08OHOLBMEL@bad?5len?6?$AA@ 10059b28     rmant:antdev.obj
 0002:00002b34       ??_C@_0P@HJPDDFEL@maxbytes?5?$DN?5?$CFd?6?$AA@ 10059b34     rmant:antdev.obj
 0002:00002b44       ??_C@_0O@CHGCMBIN@bad?5checksum?3?$AA@ 10059b44     rmant:antdev.obj
 0002:00002b54       ??_C@_0BK@JNCONMOJ@rx?3?5?$CF?930s?5?$CF02x?5?$CF02x?5?$CF02x?5?$AA@ 10059b54     rmant:antdev.obj
 0002:00002b70       ??_C@_0CM@CIDJJMHH@WFR?0?5event?5?$DN?5?$CFs?4?4?4?5TIMED?5OUT?5aft@ 10059b70     rmant:antdev.obj
 0002:00002b9c       ??_C@_0DE@PACHKNHO@WFR?0?5unknown?5event?5?$DN?5?$CFd?4?4?4?5TIMED@ 10059b9c     rmant:antdev.obj
 0002:00002bd0       ??_C@_0BA@FCKMPGEL@WFR?5?$CFs?5?$CF?42f?5OK?6?$AA@ 10059bd0     rmant:antdev.obj
 0002:00002be0       ??_C@_0BM@HMDHFOFE@WFR?$CI?$CFd?$DP?$CJ?0?5OK?0?5dt?5?$DN?5?$CF?42f?5ms?6?$AA@ 10059be0     rmant:antdev.obj
 0002:00002bfc       ??_C@_0BE@FJNABONP@WFM?3?5?$CFs?5TIMED?5OUT?$CB?6?$AA@ 10059bfc     rmant:antdev.obj
 0002:00002c10       ??_C@_0BD@MGFJANDF@WFM?5?$CFd?5TIMED?5OUT?$CB?6?$AA@ 10059c10     rmant:antdev.obj
 0002:00002c24       ??_C@_0P@BFLGOIHB@WFM?3?5?$CFs?5?$CFd?5OK?6?$AA@ 10059c24     rmant:antdev.obj
 0002:00002c34       ??_C@_0P@NNBHMHMJ@WFM?3?5?$CFd?5?$CFd?5OK?6?$AA@ 10059c34     rmant:antdev.obj
 0002:00002c44       ??_C@_0O@EMCMKEDB@1writer?$CIvoid?$CJ?$AA@ 10059c44     rmant:antdev.obj
 0002:00002c54       ??_C@_0O@LEOOHDPM@1reader?$CIvoid?$CJ?$AA@ 10059c54     rmant:antdev.obj
 0002:00002c64       ??_C@_06IINFAHFO@?$CFs?5?$CFs?6?$AA@ 10059c64     rmant:antdev.obj
 0002:00002c6c       ??_C@_0BD@GLPGHMJP@ANT?5reset?5failed?51?$AA@ 10059c6c     rmant:antdev.obj
 0002:00002c80       ??_C@_0BD@EANLCPFM@ANT?5reset?5failed?52?$AA@ 10059c80     rmant:antdev.obj
 0002:00002c94       ??_C@_0BH@IADLGABE@SetNetworkKey?5failed?51?$AA@ 10059c94     rmant:antdev.obj
 0002:00002cac       ??_C@_0BH@KLBGDDNH@SetNetworkKey?5failed?52?$AA@ 10059cac     rmant:antdev.obj
 0002:00002cc4       ??_C@_09EHKIBBCB@start?5ok?6?$AA@ 10059cc4     rmant:antdev.obj
 0002:00002cd0       ??_C@_0BO@IBFLHCBC@ANTDEV?3?3reader?$CI?$CJ?5status?5?$DN?5?$CFd?6?$AA@ 10059cd0     rmant:antdev.obj
 0002:00002cf0       ??_C@_0BB@MMPHJCIB@getcaps?5failed?51?$AA@ 10059cf0     rmant:antdev.obj
 0002:00002d04       ??_C@_0BB@OHNKMBEC@getcaps?5failed?52?$AA@ 10059d04     rmant:antdev.obj
 0002:00002d18       ??_C@_0BI@NMHOPPCA@assign?5channel?5failed?51?$AA@ 10059d18     rmant:antdev.obj
 0002:00002d30       ??_C@_0BI@PHFDKMOD@assign?5channel?5failed?52?$AA@ 10059d30     rmant:antdev.obj
 0002:00002d48       ??_C@_0BI@HHFKGJHO@set?5channel?5ID?5failed?51?$AA@ 10059d48     rmant:antdev.obj
 0002:00002d60       ??_C@_0BI@FMHHDKLN@set?5channel?5ID?5failed?52?$AA@ 10059d60     rmant:antdev.obj
 0002:00002d78       ??_C@_0CD@EGLMLJOD@setting?5extended?5messages?5failed@ 10059d78     rmant:antdev.obj
 0002:00002d9c       ??_C@_0CD@GNJBOKCA@setting?5extended?5messages?5failed@ 10059d9c     rmant:antdev.obj
 0002:00002dc0       ??_C@_0BL@ICDHAEJ@setting?5LP?5search?5timout?51?$AA@ 10059dc0     rmant:antdev.obj
 0002:00002ddc       ??_C@_0BL@CDAOCDIK@setting?5LP?5search?5timout?52?$AA@ 10059ddc     rmant:antdev.obj
 0002:00002df8       ??_C@_0BI@FOEBPPNP@setting?5search?5timout?51?$AA@ 10059df8     rmant:antdev.obj
 0002:00002e10       ??_C@_0BI@HFGMKMBM@setting?5search?5timout?52?$AA@ 10059e10     rmant:antdev.obj
 0002:00002e28       ??_C@_0BP@MDFHCMJP@set?5channel?5frequency?5failed?51?$AA@ 10059e28     rmant:antdev.obj
 0002:00002e48       ??_C@_0BP@OIHKHPFM@set?5channel?5frequency?5failed?52?$AA@ 10059e48     rmant:antdev.obj
 0002:00002e68       ??_C@_0BM@FCBDGFBG@get?5channel?5status?5failed?51?$AA@ 10059e68     rmant:antdev.obj
 0002:00002e84       ??_C@_0BM@HJDODGNF@get?5channel?5status?5failed?52?$AA@ 10059e84     rmant:antdev.obj
 0002:00002ea0       ??_C@_09IJANKDPF@?6?$CF7lld?5?$CFs?$AA@ 10059ea0     rmant:antdev.obj
 0002:00002eac       ??_C@_0BG@IJBGFOBI@open?5channel?5failed?51?$AA@ 10059eac     rmant:antdev.obj
 0002:00002ec4       ??_C@_0BG@KCDLANNL@open?5channel?5failed?52?$AA@ 10059ec4     rmant:antdev.obj
 0002:00002edc       ??_C@_05OKMLJOMC@?$CFd?5?$CFd?$AA@ 10059edc     rmant:antdev.obj
 0002:00002ee4       ??_C@_07EKKIHKGC@?$CFd?5?$CFd?0?5?$AA@ 10059ee4     rmant:antdev.obj
 0002:00002eec       ??_C@_0BH@NCMOHKHH@close?5channel?5failed?51?$AA@ 10059eec     rmant:antdev.obj
 0002:00002f04       ??_C@_0CB@OGPFCBKD@wait?5for?5search?5timeout?5failed?52@ 10059f04     rmant:antdev.obj
 0002:00002f28       ??_C@_0BE@IJONHNDJ@no?5listener?5channel?$AA@ 10059f28     rmant:antdev.obj
 0002:00002f3c       ??_C@_0BP@EBPFJHCG@candence?5sensors?5not?5supported?$AA@ 10059f3c     rmant:antdev.obj
 0002:00002f5c       ??_C@_0BJ@JJGPLKCO@devtype?5?$CFd?5not?5supported?$AA@ 10059f5c     rmant:antdev.obj
 0002:00002f78       ??_C@_0BL@HCLACDNH@No?5more?5channels?5available?$AA@ 10059f78     rmant:antdev.obj
 0002:00002f94       ??_C@_0CA@MNKHNIDF@sensor?5not?5in?5listening?5channel?$AA@ 10059f94     rmant:antdev.obj
 0002:00002fb4       ??_C@_0BM@BDNALLCB@set?5channel?5period?5failed?51?$AA@ 10059fb4     rmant:antdev.obj
 0002:00002fd0       ??_C@_0BM@DIPNOIOC@set?5channel?5period?5failed?52?$AA@ 10059fd0     rmant:antdev.obj
 0002:00002fec       ??_C@_0BK@LAFEBNKF@unassign?5channel?5failed?51?$AA@ 10059fec     rmant:antdev.obj
 0002:00003008       ??_C@_0BK@JLHJEOGG@unassign?5channel?5failed?52?$AA@ 1005a008     rmant:antdev.obj
 0002:00003024       ??_C@_0BK@ICGCHPCH@unassign?5channel?5failed?53?$AA@ 1005a024     rmant:antdev.obj
 0002:00003040       ??_C@_07PPGHLPFD@?6?$CF4d?5?$CFs?$AA@ 1005a040     rmant:antdev.obj
 0002:00003048       ??_C@_05HDBKIDE@state?$AA@ 1005a048     rmant:antdev.obj
 0002:00003050       ??_C@_03PFIJHFJD@O?1C?$AA@ 1005a050     rmant:antdev.obj
 0002:00003054       ??_C@_04GPMDFGEJ@type?$AA@ 1005a054     rmant:antdev.obj
 0002:0000305c       ??_C@_04KLLGDNKN@chan?$AA@ 1005a05c     rmant:antdev.obj
 0002:00003064       ??_C@_0BH@FLDOKJM@?5?5?5?$CF?94s?5?$CF?94s?5?$CF?96s?5?$CF?95s?$AA@ 1005a064     rmant:antdev.obj
 0002:0000307c       ??_C@_04PMOCAHAA@open?$AA@ 1005a07c     rmant:antdev.obj
 0002:00003084       ??_C@_06IKJOPBFO@closed?$AA@ 1005a084     rmant:antdev.obj
 0002:0000308c       ??_C@_0BH@EPHDIPEP@?5?5?5?$CF?94d?5?$CF?94d?5?$CF?96s?5?$CF?95d?$AA@ 1005a08c     rmant:antdev.obj
 0002:000030a4       ??_C@_0BE@OJHHPCLA@?5?5?5?5?5?5?$CF?95d?5?$CF?916s?5?$CFd?$AA@ 1005a0a4     rmant:antdev.obj
 0002:000030b8       __real@44800000            1005a0b8     rmant:antdev.obj
 0002:000030c0       ??_7antWorker@RACERMATE@@6B@ 1005a0c0     rmant:antworker.obj
 0002:000030ec       ??_C@_0O@LBLMKMBK@antworker?4log?$AA@ 1005a0ec     rmant:antworker.obj
 0002:000030fc       ??_C@_0M@JAPJMDA@connecting?6?$AA@ 1005a0fc     rmant:antworker.obj
 0002:00003108       ??_C@_0BA@MGCFALKE@1timeout_slot?$CI?$CJ?$AA@ 1005a108     rmant:antworker.obj
 0002:00003118       ??_C@_0BG@JEPFOBIM@constructor?5finished?6?$AA@ 1005a118     rmant:antworker.obj
 0002:00003130       ??_C@_08DHEODEIL@start?$CI?$CJ?6?$AA@ 1005a130     rmant:antworker.obj
 0002:0000313c       ??_C@_0BA@FHCDEJAD@starting?5timer?6?$AA@ 1005a13c     rmant:antworker.obj
 0002:0000314c       ??_C@_08JPIEFIOD@start?5x?6?$AA@ 1005a14c     rmant:antworker.obj
 0002:00003360       ??_7type_info@@6B@         1005a360     MSVCRT:std_type_info_static.obj
 0002:00003364       __pRawDllMain              1005a364     MSVCRT:dll_dllmain.obj
 0002:00003364       __pDefaultRawDllMain       1005a364     MSVCRT:dll_dllmain.obj
 0002:00003400       ??_7exception@std@@6B@     1005a400     MSVCRT:throw_bad_alloc.obj
 0002:00003408       ??_C@_0BC@EOODALEL@Unknown?5exception?$AA@ 1005a408     MSVCRT:throw_bad_alloc.obj
 0002:00003420       ??_7bad_alloc@std@@6B@     1005a420     MSVCRT:throw_bad_alloc.obj
 0002:00003428       ??_C@_0P@GHFPNOJB@bad?5allocation?$AA@ 1005a428     MSVCRT:throw_bad_alloc.obj
 0002:0000343c       ??_7bad_array_new_length@std@@6B@ 1005a43c     MSVCRT:throw_bad_alloc.obj
 0002:00003444       ??_C@_0BF@KINCDENJ@bad?5array?5new?5length?$AA@ 1005a444     MSVCRT:throw_bad_alloc.obj
 0002:0000345c       __real@42652ee1            1005a45c     rmg:qt_ss.obj
 0002:00003464       ??_7twoPoleFilter@@6B@     1005a464     rmg:twopolefilter.obj
 0002:00003468       __real@3fb0000000000000    1005a468     rmg:twopolefilter.obj
 0002:00003470       __real@3fd147ae147ae148    1005a470     rmg:twopolefilter.obj
 0002:00003478       ??_C@_00CNPNBAHC@?$AA@     1005a478     common:person.obj
 0002:0000347c       ??_C@_04EDGDKJNK@Male?$AA@ 1005a47c     common:person.obj
 0002:00003484       ??_C@_06KGAOHABH@Female?$AA@ 1005a484     common:person.obj
 0002:0000348c       ??_C@_07NBCGADJA@Unknown?$AA@ 1005a48c     common:person.obj
 0002:00003494       ??_C@_05DNIIFBMG@?$CFs?5?$CFs?$AA@ 1005a494     common:person.obj
 0002:0000349c       ??_C@_08EPEHIMMI@?$CFs?5?$CFs?5?$CFs?$AA@ 1005a49c     common:person.obj
 0002:000034a8       ??_C@_02BKFDOEMK@wt?$AA@   1005a4a8     common:person.obj
 0002:000034ac       ??_C@_0L@OJKKGOAK@?7Name?3?5?$CFs?6?$AA@ 1005a4ac     common:person.obj
 0002:000034b8       ??_C@_0BJ@DBLICLMI@?7Weight?3?5?$CF?42f?5kilograms?6?$AA@ 1005a4b8     common:person.obj
 0002:000034d4       ??_C@_0BG@KFJFCBAA@?7Weight?3?5?$CF?42f?5pounds?6?$AA@ 1005a4d4     common:person.obj
 0002:000034ec       ??_C@_0BC@CEKIKOJF@?7Height?3?5?$CF?42f?5cm?6?$AA@ 1005a4ec     common:person.obj
 0002:00003500       ??_C@_0BG@IFJEOODF@?7Height?3?5?$CF?42f?5inches?6?$AA@ 1005a500     common:person.obj
 0002:00003518       ??_C@_0N@GAKPDGGG@?7Gender?3?5?$CFs?6?$AA@ 1005a518     common:person.obj
 0002:00003528       ??_C@_0BE@GLFAJPFN@?7Date?5Of?5Birth?3?5?$CFs?6?$AA@ 1005a528     common:person.obj
 0002:0000353c       ??_C@_0BD@OFEKDLBP@?7Phone?5Number?3?5?$CFs?6?$AA@ 1005a53c     common:person.obj
 0002:00003550       ??_C@_0O@GPNDCEFA@?7Address?3?5?$CFs?6?$AA@ 1005a550     common:person.obj
 0002:00003564       ??_7Person@@6B@            1005a564     common:person.obj
 0002:0000356c       ??_C@_01KICIPPFI@?2?$AA@   1005a56c     glib:logger.obj
 0002:00003570       ??_C@_0BF@LMAIOBMJ@?$CF02d?$CF02d?$CF02d?$CF02d?4log?$AA@ 1005a570     glib:logger.obj
 0002:00003588       ??_C@_03CCGKKFHG@a?$CLt?$AA@ 1005a588     glib:logger.obj
 0002:0000358c       ??_C@_09NADIIIHK@?$CFs?$CFs?$CK?4log?$AA@ 1005a58c     glib:logger.obj
 0002:00003598       ??_C@_05CNDJFPDP@?$CF02x?5?$AA@ 1005a598     glib:logger.obj
 0002:000035a0       ??_C@_04PFOHOKJK@?5?5?5?5?$AA@ 1005a5a0     glib:logger.obj
 0002:000035a8       ??_C@_01LFCBOECM@?4?$AA@   1005a5a8     glib:logger.obj
 0002:000035ac       ??_C@_02HAOIJKIC@?$CFc?$AA@ 1005a5ac     glib:logger.obj
 0002:000035b0       ??_C@_01EEMJAFIK@?6?$AA@   1005a5b0     glib:logger.obj
 0002:000035b4       ??_C@_03NDEAONJP@?5?5?5?$AA@ 1005a5b4     glib:logger.obj
 0002:000035b8       ??_C@_0BK@CJECPMNJ@Error?3?5format?5?$DN?5NULL?$CB?$CB?$CB?$CB?6?$AA@ 1005a5b8     glib:logger.obj
 0002:000035d4       ??_C@_0BG@PHKDMECF@log?3?5printdepth?5?$DN?5?$CFd?6?$AA@ 1005a5d4     glib:logger.obj
 0002:000035ec       ??_C@_02DKCKIIND@?$CFs?$AA@ 1005a5ec     glib:logger.obj
 0002:000035f0       ??_C@_0CG@OJOMDELO@?6?$CIstring?5to?5long?5in?5Logger?3?3writ@ 1005a5f0     glib:logger.obj
 0002:00003618       ??_C@_03OFAPEBGM@?$CFs?6?$AA@ 1005a618     glib:logger.obj
 0002:00003620       ??_7Logger@@6B@            1005a620     glib:logger.obj
 0002:00003624       ??_C@_07FOPBDDAL@options?$AA@ 1005a624     glib:win_utils.obj
 0002:0000362c       ??_C@_02DPKJAMEF@?$CFd?$AA@ 1005a62c     glib:win_utils.obj
 0002:00003630       ??_C@_02KEGNBOHH@NT?$AA@   1005a630     glib:win_utils.obj
 0002:00003634       ??_C@_02JDPG@rb?$AA@       1005a634     glib:utils.obj
 0002:00003638       ??_C@_02GMLFBBN@wb?$AA@    1005a638     glib:utils.obj
 0002:0000363c       ??_C@_01CLKCMJKC@?5?$AA@   1005a63c     glib:utils.obj
 0002:00003640       ??_C@_0BD@OLBABOEK@vector?$DMT?$DO?5too?5long?$AA@ 1005a640     glib:utils.obj
 0002:00003654       ??_C@_0BA@JFNIOLAK@string?5too?5long?$AA@ 1005a654     glib:utils.obj
 0002:00003664       ??_C@_0BI@CFPLBAOH@invalid?5string?5position?$AA@ 1005a664     glib:utils.obj
 0002:0000367c       ??_C@_0CC@HDHMILD@?$AN?6Error?5in?5?$CFs?5at?5line?5?$CFd?3?$AN?6?$CFs?$AN?6?$AN@ 1005a67c     glib:fatalerror.obj
 0002:000036a0       ??_C@_0BN@EKBKNHF@?$AN?6Error?5in?5?$CFs?5at?5line?5?$CFd?$AN?6?$AN?6?$AA@ 1005a6a0     glib:fatalerror.obj
 0002:000036c0       ??_C@_0O@MNFEGLE@?$CFs?$CFsfatal?4log?$AA@ 1005a6c0     glib:fatalerror.obj
 0002:000036d0       ??_C@_04LLEBNMDN@?$CFs?$AN?6?$AA@ 1005a6d0     glib:fatalerror.obj
 0002:000036d8       ??_C@_0EM@OJMECABL@?$CFs?3?5Average?5dt?5?$DN?5?$CF?46f?5millisecon@ 1005a6d8     glib:fasttimer.obj
 0002:00003724       ??_C@_0CA@GDBJHEJI@Average?5dt?5?$DN?5?$CF?46f?5milliseconds?6?$AA@ 1005a724     glib:fasttimer.obj
 0002:00003748       ??_7fastTimer@@6B@         1005a748     glib:fasttimer.obj
 0002:0000374c       ??_C@_01NANMIPIL@N?$AA@    1005a74c     glib:serial.obj
 0002:00003750       ??_C@_07IDLJIJNJ@?5?5?5ok1?6?$AA@ 1005a750     glib:serial.obj
 0002:00003758       ??_C@_0BF@PGFIJJBO@?5?5?5ok2?0?5status?5?$DN?5?$CFd?6?$AA@ 1005a758     glib:serial.obj
 0002:00003770       ??_C@_04GBDIODIA@?2?2?4?2?$AA@ 1005a770     glib:serial.obj
 0002:00003778       ??_C@_0M@DKJNDPIF@?$CFs?0?$CFs?0?$CFd?0?$CFd?$AA@ 1005a778     glib:serial.obj
 0002:00003784       ??_C@_0BI@BMBCJGPM@?5?5?5CreateFile?5error?5?$CFd?6?$AA@ 1005a784     glib:serial.obj
 0002:0000379c       ??_C@_0BB@CEDEENOC@setupcomm?5error?6?$AA@ 1005a79c     glib:serial.obj
 0002:000037b0       ??_C@_0BH@MMAOEKNN@setcommtimeouts?5error?6?$AA@ 1005a7b0     glib:serial.obj
 0002:000037c8       ??_C@_0BM@EELPGNHM@?5?5?5buildcommdcb?5error?5?$DN?5?$CFd?6?$AA@ 1005a7c8     glib:serial.obj
 0002:000037e4       ??_C@_0BM@DCAIEBPN@?5?5?5setcommstate?5error?5?$DN?5?$CFd?6?$AA@ 1005a7e4     glib:serial.obj
 0002:00003800       ??_C@_0BI@KIOCFMHA@Open?$CI?$CJ?3?5returning?5TRUE?6?$AA@ 1005a800     glib:serial.obj
 0002:00003818       ??_C@_0CH@PFBALDNI@error?3?5couldn?8t?5create?5txControl@ 1005a818     glib:serial.obj
 0002:00003840       ??_C@_0CF@GACCPLDN@error?3?5couldn?8t?5create?5rxExitlEv@ 1005a840     glib:serial.obj
 0002:00003868       ??_C@_0BF@HOFLJMGE@?5?5?5starting?5close?$CI?$CJ?6?$AA@ 1005a868     glib:serial.obj
 0002:00003880       ??_C@_0CN@PIENBFMI@?6serial?5port?5destructor?5closing?5@ 1005a880     glib:serial.obj
 0002:000038b0       ??_C@_0BJ@FECJHBHL@serial?5port?5max?5in?5?$DN?5?$CFd?6?$AA@ 1005a8b0     glib:serial.obj
 0002:000038cc       ??_C@_08CHPECONA@close?52?6?$AA@ 1005a8cc     glib:serial.obj
 0002:000038d8       ??_C@_0CD@EBKBAKB@GetHandleInformation?$CI?$CJ?5failed?3?5?$CF@ 1005a8d8     glib:serial.obj
 0002:000038fc       ??_C@_0CK@PAEJMEIC@GetHandleInformation?$CI?$CJ?5OK?0?5flags@ 1005a8fc     glib:serial.obj
 0002:00003928       ??_C@_0CN@GKJABIAA@setting?5txControlEvent?0?5shutdown@ 1005a928     glib:serial.obj
 0002:00003958       ??_C@_0BG@HHCFNEGN@back?5from?5setevent?$CI?$CJ?6?$AA@ 1005a958     glib:serial.obj
 0002:00003970       ??_C@_0BL@HOGHBFIC@setting?5rxThreadExitEvent?6?$AA@ 1005a970     glib:serial.obj
 0002:0000398c       ??_C@_0DM@HGGECAJJ@back?5from?5SetEvent?$CIrxThreadExitE@ 1005a98c     glib:serial.obj
 0002:000039c8       ??_C@_0M@JEJKPOCD@count?5?$DN?510?6?$AA@ 1005a9c8     glib:serial.obj
 0002:000039d4       ??_C@_0M@CAFELIIH@count?5?$DN?5?$CFd?6?$AA@ 1005a9d4     glib:serial.obj
 0002:000039e0       ??_C@_0BD@JLAKIKG@?5?5?5closing?5handle?6?$AA@ 1005a9e0     glib:serial.obj
 0002:000039f4       ??_C@_0BP@IMALELDJ@close?55?5?$CI?$CK?$CK?$CK?$CK?$CK?$CK?5ERROR?5?$CK?$CK?$CK?$CK?$CK?$CK?$CJ?6?$AA@ 1005a9f4     glib:serial.obj
 0002:00003a14       ??_C@_0BF@PFLKHEDF@?5?5?5finished?5close?$CI?$CJ?6?$AA@ 1005aa14     glib:serial.obj
 0002:00003a2c       ??_C@_0P@GDACEMPM@Unknown?5error?4?$AA@ 1005aa2c     glib:serial.obj
 0002:00003a3c       ??_C@_0BC@LCLEHAKM@Serial?5Port?5Error?$AA@ 1005aa3c     glib:serial.obj
 0002:00003a50       ??_C@_0CD@IKLICDPJ@error?3?5couldn?8t?5create?5writeEven@ 1005aa50     glib:serial.obj
 0002:00003a74       ??_C@_0CI@JOPKNFOI@?6txthread?5awakened?5by?5Close?$CI?$CJ?0?5e@ 1005aa74     glib:serial.obj
 0002:00003a9c       ??_C@_0BJ@BKAMHFKN@ResetEvent?5error?$CI2?$CJ?5?$CFld?6?$AA@ 1005aa9c     glib:serial.obj
 0002:00003ab8       ??_C@_0BA@IHBOJNIF@WAIT_TIMEOUT?52?6?$AA@ 1005aab8     glib:serial.obj
 0002:00003ac8       ??_C@_0BC@IOGIJBHA@wait_abandoned?52?6?$AA@ 1005aac8     glib:serial.obj
 0002:00003adc       ??_C@_0L@KLNMLFEI@serial?4cpp?$AA@ 1005aadc     glib:serial.obj
 0002:00003ae8       ??_C@_0BL@HOCBCDLB@unknown?5error?5at?5?$CFd?5in?5?$CFs?6?$AA@ 1005aae8     glib:serial.obj
 0002:00003b04       ??_C@_0CK@DKFMMOPE@GetOverlappedResult?3?5ERROR_IO_IN@ 1005ab04     glib:serial.obj
 0002:00003b30       ??_C@_0BK@PABAPGOP@GetOverlappedResult?3?5?$CFld?6?$AA@ 1005ab30     glib:serial.obj
 0002:00003b4c       ??_C@_0O@PFCEEJHN@WAIT_TIMEOUT?6?$AA@ 1005ab4c     glib:serial.obj
 0002:00003b5c       ??_C@_0BA@PJGOIAC@wait_abandoned?6?$AA@ 1005ab5c     glib:serial.obj
 0002:00003b6c       ??_C@_0BG@MHBOGNJH@ResetEvent?5error?5?$CFld?6?$AA@ 1005ab6c     glib:serial.obj
 0002:00003b84       ??_C@_0BI@GOPEGJJK@tx?5WriteFile?5error?5?$CFld?6?$AA@ 1005ab84     glib:serial.obj
 0002:00003b9c       ??_C@_0CJ@DBGBGHAJ@turned?5off?5further?5WriteFile?5err@ 1005ab9c     glib:serial.obj
 0002:00003bc8       ??_C@_08FFOHNFNP@txfin?51?6?$AA@ 1005abc8     glib:serial.obj
 0002:00003bd4       ??_C@_08FHKBGLIG@txfin?52?6?$AA@ 1005abd4     glib:serial.obj
 0002:00003be0       ??_C@_08FGGDABLB@txfin?53?6?$AA@ 1005abe0     glib:serial.obj
 0002:00003bec       ??_C@_08CKKMGDJA@txfin?5x?6?$AA@ 1005abec     glib:serial.obj
 0002:00003bf8       ??_C@_0BL@NNHECGJA@?6starting?5receiver?5thread?6?$AA@ 1005abf8     glib:serial.obj
 0002:00003c14       ??_C@_0BH@MCAGEKOM@GetCommTimeouts?5error?6?$AA@ 1005ac14     glib:serial.obj
 0002:00003c2c       ??_C@_0BN@IILJPPFH@ReadIntervalTimeout?5?$DN?7?7?7?$CFld?6?$AA@ 1005ac2c     glib:serial.obj
 0002:00003c4c       ??_C@_0CC@MAGLOAGD@ReadTotalTimeoutMultiplier?5?$DN?7?$CFld@ 1005ac4c     glib:serial.obj
 0002:00003c70       ??_C@_0CB@PHDOPJGE@ReadTotalTimeoutConstant?5?$DN?7?7?$CFld?6@ 1005ac70     glib:serial.obj
 0002:00003c94       ??_C@_0CD@GPMHNJPG@WriteTotalTimeoutMultiplier?5?$DN?5?$CFl@ 1005ac94     glib:serial.obj
 0002:00003cb8       ??_C@_0CB@OIIPDMLI@WriteTotalTimeoutConstant?5?$DN?7?$CFld?6@ 1005acb8     glib:serial.obj
 0002:00003cdc       ??_C@_0CC@NFPKICCA@error?3?5couldn?8t?5create?5ReadEvent@ 1005acdc     glib:serial.obj
 0002:00003d00       ??_C@_0BD@HIJPNFKA@SetCommMask?5error?6?$AA@ 1005ad00     glib:serial.obj
 0002:00003d14       ??_C@_0CE@NPDDAPJH@error?3?5RX?5GetOverlappedResult?3?5?$CF@ 1005ad14     glib:serial.obj
 0002:00003d38       ??_C@_0CI@KIABAAED@rxthread?5awakened?5by?5rxThreadExi@ 1005ad38     glib:serial.obj
 0002:00003d60       ??_C@_0BB@EANEMEPM@RX?5WAIT_TIMEOUT?6?$AA@ 1005ad60     glib:serial.obj
 0002:00003d74       ??_C@_0BD@MFMFMFEB@rx?5wait_abandoned?6?$AA@ 1005ad74     glib:serial.obj
 0002:00003d88       ??_C@_0CB@EFGJLOPN@error?3?5WAIT_FAILED?5?$CIerror?3?5?$CFld?$CJ?6@ 1005ad88     glib:serial.obj
 0002:00003dac       ??_C@_0BN@DBJEEOLP@ending?5serial?5port?5rxThread?6?$AA@ 1005adac     glib:serial.obj
 0002:00003dcc       ??_C@_0BG@KNKPGKDF@calling?5_endthread?$CI?$CJ?6?$AA@ 1005adcc     glib:serial.obj
 0002:00003de4       ??_C@_0BI@MBKGPGNC@back?5from?5_endthread?$CI?$CJ?6?$AA@ 1005ade4     glib:serial.obj
 0002:00003e00       ??_C@_0EB@GCIGPNPO@serial?5Receive?$CI?$CJ?5error?5?$DN?5?$CFlu?0?5tu@ 1005ae00     glib:serial.obj
 0002:00003e44       ??_C@_0BH@BJPKPKCD@?5?5?5Com?$CFd?5destructor?51?6?$AA@ 1005ae44     glib:serial.obj
 0002:00003e5c       ??_C@_0BH@BLLMEEHK@?5?5?5Com?$CFd?5destructor?52?6?$AA@ 1005ae5c     glib:serial.obj
 0002:00003e74       ??_C@_0BH@BKHOCOEN@?5?5?5Com?$CFd?5destructor?53?6?$AA@ 1005ae74     glib:serial.obj
 0002:00003e90       ??_7Serial@@6B@            1005ae90     glib:serial.obj
 0002:00003e94       ??_C@_05LAPONLG@false?$AA@ 1005ae94     glib:ini.obj
 0002:00003e9c       ??_C@_04LOAJBDKD@true?$AA@ 1005ae9c     glib:ini.obj
 0002:00003ea4       ??_C@_02NJPGOMH@?$CFf?$AA@ 1005aea4     glib:ini.obj
 0002:00003ea8       ??_C@_04HCDDPBNL@TRUE?$AA@ 1005aea8     glib:ini.obj
 0002:00003eb0       ??_C@_05MAJJAKPI@FALSE?$AA@ 1005aeb0     glib:ini.obj
 0002:00003eb8       ??_C@_03FKNCMABI@?$CFlu?$AA@ 1005aeb8     glib:ini.obj
 0002:00003ebc       ??_C@_05CLMJGDKL@?$CF08lx?$AA@ 1005aebc     glib:ini.obj
 0002:00003ec4       ??_C@_07OJNGNPHD@lkj?4lkj?$AA@ 1005aec4     glib:ini.obj
 0002:00003ecc       ??_C@_03OPHMLOFF@?$CFlx?$AA@ 1005aecc     glib:ini.obj
 0002:00003ed4       ??_7Ini@@6B@               1005aed4     glib:ini.obj
 0002:00003edc       ??_7Err@@6B@               1005aedc     glib:err.obj
 0002:00003ee0       ??_C@_0BC@KBDMBKEH@deque?$DMT?$DO?5too?5long?$AA@ 1005aee0     tlib:formula.obj
 0002:00003ef4       ??_C@_08CNDMIKD@WINDLOAD?$AA@ 1005aef4     tlib:physics.obj
 0002:00003f00       ??_C@_0BA@EABMAALJ@CONSTANT_TORQUE?$AA@ 1005af00     tlib:physics.obj
 0002:00003f10       ??_C@_0P@IJODJMIL@CONSTANT_WATTS?$AA@ 1005af10     tlib:physics.obj
 0002:00003f20       ??_C@_0BB@MCBGLGGE@CONSTANT_CURRENT?$AA@ 1005af20     tlib:physics.obj
 0002:00003f34       ??_C@_06BBCANMND@NOMODE?$AA@ 1005af34     tlib:physics.obj
 0002:00003f3c       ??_C@_0M@LPOABDPE@physics?4ini?$AA@ 1005af3c     tlib:physics.obj
 0002:00003f48       ??_C@_0BC@OJIKILB@?$CFs?$CFsphysics?$CFd?4log?$AA@ 1005af48     tlib:physics.obj
 0002:00003f5c       ??_C@_0BP@OKNEHFMG@monarch?5radius?5?$DN?5?$CF?43lf?5meters?6?$AA@ 1005af5c     tlib:physics.obj
 0002:00003f7c       ??_C@_0BE@KCBHOOKI@fish?5scale?5?$DN?5?$CF?42lf?6?$AA@ 1005af7c     tlib:physics.obj
 0002:00003f90       ??_C@_04BBAGFKEA@zzz1?$AA@ 1005af90     tlib:physics.obj
 0002:00003f98       ??_C@_04DKCLAJID@zzz2?$AA@ 1005af98     tlib:physics.obj
 0002:00003fa0       ??_C@_08DHDIDALD@?40000237?$AA@ 1005afa0     tlib:physics.obj
 0002:00003fac       ??_C@_02ICGBAFJO@k1?$AA@   1005afac     tlib:physics.obj
 0002:00003fb0       ??_C@_03BMIBKDHK@?465?$AA@ 1005afb0     tlib:physics.obj
 0002:00003fb4       ??_C@_04CNCNIFFP@gain?$AA@ 1005afb4     tlib:physics.obj
 0002:00003fbc       ??_C@_02PONMODAL@70?$AA@   1005afbc     tlib:physics.obj
 0002:00003fc0       ??_C@_0BH@FPLLOPII@acceleration?5filtering?$AA@ 1005afc0     tlib:physics.obj
 0002:00003fd8       ??_C@_02JAFMIPLB@?45?$AA@  1005afd8     tlib:physics.obj
 0002:00003fdc       ??_C@_05FBOPNOCA@pgain?$AA@ 1005afdc     tlib:physics.obj
 0002:00003fe4       ??_C@_07BECGJCFH@physics?$AA@ 1005afe4     tlib:physics.obj
 0002:00003fec       ??_C@_03EOFGHIEO@?403?$AA@ 1005afec     tlib:physics.obj
 0002:00003ff0       ??_C@_05HFDGINHD@igain?$AA@ 1005aff0     tlib:physics.obj
 0002:00003ff8       ??_C@_03HPLEMDKK@200?$AA@  1005aff8     tlib:physics.obj
 0002:00003ffc       ??_C@_0O@OJHKODOE@rpm?5filtering?$AA@ 1005affc     tlib:physics.obj
 0002:0000400c       ??_C@_0O@EBPPBMGO@mph?5filtering?$AA@ 1005b00c     tlib:physics.obj
 0002:0000401c       ??_C@_02PKFBJPLJ@10?$AA@   1005b01c     tlib:physics.obj
 0002:00004020       ??_C@_0BA@NAHCBLND@watts?5filtering?$AA@ 1005b020     tlib:physics.obj
 0002:00004030       ??_C@_07KIBFCABI@degauss?$AA@ 1005b030     tlib:physics.obj
 0002:00004038       ??_C@_0L@NHKHIDHE@cc?5degauss?$AA@ 1005b038     tlib:physics.obj
 0002:00004044       ??_C@_03MHAIKEMP@300?$AA@  1005b044     tlib:physics.obj
 0002:00004048       ??_C@_0CO@KKPJGLGH@ergo?5degauss?5full?5swing?5amplitud@ 1005b048     tlib:physics.obj
 0002:00004078       ??_C@_03FGNPCODA@233?$AA@  1005b078     tlib:physics.obj
 0002:0000407c       ??_C@_0CI@LOGEIODA@ergo?5degauss?5half?5period?5?$CImillis@ 1005b07c     tlib:physics.obj
 0002:000040a4       ??_C@_03GNABGMEE@100?$AA@  1005b0a4     tlib:physics.obj
 0002:000040a8       ??_C@_0CO@OCPGCLCM@wind?5degauss?5full?5swing?5amplitud@ 1005b0a8     tlib:physics.obj
 0002:000040d8       ??_C@_03LJIMMBII@179?$AA@  1005b0d8     tlib:physics.obj
 0002:000040dc       ??_C@_0CI@IKKDNOAN@wind?5degauss?5half?5period?5?$CImillis@ 1005b0dc     tlib:physics.obj
 0002:00004104       ??_C@_0BB@HCFKBIMB@Bad?5Physics?5Mode?$AA@ 1005b104     tlib:physics.obj
 0002:00004118       ??_C@_0M@FNOFNEPC@physics?4cpp?$AA@ 1005b118     tlib:physics.obj
 0002:00004124       ??_C@_0BB@CDELIALK@Error?5Reading?5PS?$AA@ 1005b124     tlib:physics.obj
 0002:00004138       ??_C@_02IEKCLPJC@35?$AA@   1005b138     tlib:physics.obj
 0002:0000413c       ??_C@_0BP@KHIJAKMI@wingate?5acceleration?5filtering?$AA@ 1005b13c     tlib:physics.obj
 0002:00004898       _usbi_backend              1005b898     libusb-1.0:core.obj
 0002:00004928       _INVALID_WINFD             1005b928     libusb-1.0:poll_windows.obj
 0002:00004a68       _epoch_time                1005ba68     libusb-1.0:windows_nt_common.obj
 0002:00005840       ?front_defaults@Bike@@2PAHA 1005c840     tlib:bike.obj
 0002:00005860       ?rear_defaults@Bike@@2PAHA 1005c860     tlib:bike.obj
 0002:000058b0       ?mphs@simDecoder@@2PANA    1005c8b0     tlib:simdecoder.obj
 0002:00005900       _windows_backend           1005c900     libusb-1.0:windows_winusb.obj
 0002:00005990       _usb_api_backend           1005c990     libusb-1.0:windows_winusb.obj
 0002:00005b20       _GUID_DEVINTERFACE_LIBUSB0_FILTER 1005cb20     libusb-1.0:windows_winusb.obj
 0002:00005b30       _GUID_DEVINTERFACE_USB_HOST_CONTROLLER 1005cb30     libusb-1.0:windows_winusb.obj
 0002:00005b40       _GUID_DEVINTERFACE_USB_HUB 1005cb40     libusb-1.0:windows_winusb.obj
 0002:00005b50       _GUID_DEVINTERFACE_USB_DEVICE 1005cb50     libusb-1.0:windows_winusb.obj
 0002:00005b60       ??_C@_0P@PDEEADEA@?$CFs?$CFsbike?$CFd?4log?$AA@ 1005cb60     tlib:bike.obj
 0002:00005b70       ??_C@_0BA@PAMKPKKM@?$CFs?$CFsgears?$CFd?4log?$AA@ 1005cb70     tlib:bike.obj
 0002:00005b80       ??_C@_0BI@OACLIALB@?$CF2d?5?$CF6?42f?7?7?7?$CF5d?5?1?5?$CF?94d?6?$AA@ 1005cb80     tlib:bike.obj
 0002:00005b98       ??_C@_0BA@PCICEKNG@?6?6Front?5Gears?6?6?$AA@ 1005cb98     tlib:bike.obj
 0002:00005ba8       ??_C@_09MKGKNONM@?$CF2d?5?5?5?$CFd?6?$AA@ 1005cba8     tlib:bike.obj
 0002:00005bb4       ??_C@_0P@JBLKPJIB@?6?6Rear?5Gears?6?6?$AA@ 1005cbb4     tlib:bike.obj
 0002:00005bc8       ??_7Bike@@6B@              1005cbc8     tlib:bike.obj
 0002:00005bcc       ??_C@_07JMNHGAEA@Decoder?$AA@ 1005cbcc     tlib:decoder.obj
 0002:00005bd4       ??_C@_02PPNCLIJD@SS?$AA@   1005cbd4     tlib:decoder.obj
 0002:00005bd8       ??_C@_0BC@DOCHNKIN@?$CFs?$CFsdecoder?$CFd?4log?$AA@ 1005cbd8     tlib:decoder.obj
 0002:00005bec       ??_C@_0BK@MMOECHJH@decoder?3?5started?5logging?6?$AA@ 1005cbec     tlib:decoder.obj
 0002:00005c08       ??_C@_0M@GINHKMGG@decoder?3?51?6?$AA@ 1005cc08     tlib:decoder.obj
 0002:00005c14       ??_C@_06OGCODMJI@exists?$AA@ 1005cc14     tlib:decoder.obj
 0002:00005c1c       ??_C@_04MLLLIHIP@null?$AA@ 1005cc1c     tlib:decoder.obj
 0002:00005c24       ??_C@_0BG@BCAPHINF@decoder?3?5course?5?$DN?5?$CFs?6?$AA@ 1005cc24     tlib:decoder.obj
 0002:00005c3c       ??_C@_0BG@MANHOBKB@decoder?3?51a?0?5id?5?$DN?5?$CFd?6?$AA@ 1005cc3c     tlib:decoder.obj
 0002:00005c54       ??_C@_0N@BIJCGBND@decoder?3?51b?6?$AA@ 1005cc54     tlib:decoder.obj
 0002:00005c64       ??_C@_0M@BHJMBKCJ@decoder?3?5x?6?$AA@ 1005cc64     tlib:decoder.obj
 0002:00005c74       ??_7Decoder@@6B@           1005cc74     tlib:decoder.obj
 0002:00005cd4       ??_C@_0L@LCNOFFIN@dataSource?$AA@ 1005ccd4     tlib:datasource.obj
 0002:00005ce4       ??_7dataSource@@6B@        1005cce4     tlib:datasource.obj
 0002:00005e08       ??_7Computrainer@@6B@      1005ce08     tlib:computrainer.obj
 0002:00005f3c       ??_C@_0BB@NDEHLPHF@computrainer?3?51?6?$AA@ 1005cf3c     tlib:computrainer.obj
 0002:00005f50       ??_C@_0BB@NBABABCM@computrainer?3?52?6?$AA@ 1005cf50     tlib:computrainer.obj
 0002:00005f64       ??_C@_0BC@JPJDDJFG@computrainer?3?52x?6?$AA@ 1005cf64     tlib:computrainer.obj
 0002:00005f78       ??_C@_0BB@KMAMAJDK@computrainer?3?5x?6?$AA@ 1005cf78     tlib:computrainer.obj
 0002:00005f8c       ??_C@_0CD@DBDKNNPE@computrainer?3?5rtd?5not?5initialize@ 1005cf8c     tlib:computrainer.obj
 0002:00005fb0       ??_C@_0BB@NAMDGLBL@computrainer?3?53?6?$AA@ 1005cfb0     tlib:computrainer.obj
 0002:00005fc4       ??_C@_0BP@KLNJDBDF@computrainer?3?5not?5initialized?6?$AA@ 1005cfc4     tlib:computrainer.obj
 0002:00005fe4       ??_C@_0BH@PHKLJKIB@computrainer?3?3init?3?51?6?$AA@ 1005cfe4     tlib:computrainer.obj
 0002:00005ffc       ??_C@_0BH@IIOACMMO@computrainer?3?3init?3?5x?6?$AA@ 1005cffc     tlib:computrainer.obj
 0002:00006014       ??_C@_0M@NJFPGLEG@?$CF10ld?5?$CF?43f?6?$AA@ 1005d014     tlib:computrainer.obj
 0002:00006020       ??_C@_0BM@DAFDJKHJ@?$CFd?9?$CF02d?9?$CF02d?5?$CF02d?3?$CF02d?3?$CF02d?$AA@ 1005d020     tlib:computrainer.obj
 0002:00006040       ??_7Simulator@@6B@         1005d040     tlib:simulator.obj
 0002:00006164       ??_7Performance@@6B@       1005d164     tlib:performance.obj
 0002:00006288       ??_C@_0CI@IGJPJEFJ@Velotron?5constructor?0?5initialize@ 1005d288     tlib:velotron.obj
 0002:000062b0       ??_C@_0CN@IJPBOABC@Velotron?5constructor?5exit?0?5initi@ 1005d2b0     tlib:velotron.obj
 0002:000062e0       ??_C@_07FKMKGBH@init?$CI?$CJ?6?$AA@ 1005d2e0     tlib:velotron.obj
 0002:000062e8       ??_C@_07EGMHHDMN@init2b?6?$AA@ 1005d2e8     tlib:velotron.obj
 0002:000062f0       ??_C@_07EHAFBJPK@init2c?6?$AA@ 1005d2f0     tlib:velotron.obj
 0002:000062f8       ??_C@_07ECEKAPHP@init2d?6?$AA@ 1005d2f8     tlib:velotron.obj
 0002:00006300       ??_C@_07EDIIGFEI@init2e?6?$AA@ 1005d300     tlib:velotron.obj
 0002:00006308       ??_C@_06OCPONGCJ@init3?6?$AA@ 1005d308     tlib:velotron.obj
 0002:00006310       ??_C@_06OHLBMAKM@init4?6?$AA@ 1005d310     tlib:velotron.obj
 0002:00006318       ??_C@_06OGHDKKJL@init5?6?$AA@ 1005d318     tlib:velotron.obj
 0002:00006320       ??_C@_06FEKLLEED@no?5ss?6?$AA@ 1005d320     tlib:velotron.obj
 0002:00006328       ??_C@_06OEDFBEMC@init6?6?$AA@ 1005d328     tlib:velotron.obj
 0002:00006330       ??_C@_06JODBLEAI@initx?6?$AA@ 1005d330     tlib:velotron.obj
 0002:0000633c       ??_7Velotron@@6B@          1005d33c     tlib:velotron.obj
 0002:00006484       ??_C@_05NJOGGEIN@38400?$AA@ 1005d484     tlib:nvram.obj
 0002:00006490       ??_7NVRAM@@6B@             1005d490     tlib:nvram.obj
 0002:00006494       ??_C@_0DG@FFDIAPDD@?5?5?5destructor?$CI?$CJ?0?5instances?5?$DN?5?$CFd?0@ 1005d494     tlib:client.obj
 0002:000064cc       ??_C@_0L@NDFCBDDI@client?4log?$AA@ 1005d4cc     tlib:client.obj
 0002:000064d8       ??_C@_0BF@OJHJDHBC@?6Client?5constructor?6?$AA@ 1005d4d8     tlib:client.obj
 0002:000064f0       ??_C@_0BH@OBLNDLHE@?5?5?5created?5client?4log?6?$AA@ 1005d4f0     tlib:client.obj
 0002:00006508       ??_C@_0BD@PMEJDCCO@?5?5?5instances?5?$DN?5?$CFd?6?$AA@ 1005d508     tlib:client.obj
 0002:00006520       ??_C@_0ED@CFOAMMGC@?5?5?5dummy?5?$DN?5?$CFd?3?5created?5by?5check_@ 1005d520     tlib:client.obj
 0002:00006564       ??_C@_0CB@DMMMOMHC@?5?5?5dummy?5?$DN?5?$CFd?3?5created?5by?5rtd?$CI?$CJ?6@ 1005d564     tlib:client.obj
 0002:00006588       ??_C@_0BP@NLKJOBOF@?5?5?5dummy?5?$DN?5?$CFd?3?5created?5by?5?$DP?$DP?$DP?6?$AA@ 1005d588     tlib:client.obj
 0002:000065a8       ??_C@_0M@GFPOCBEA@?5?5?5id?5?$DN?5?$CFd?6?$AA@ 1005d5a8     tlib:client.obj
 0002:000065b4       ??_C@_0N@KKMHHKON@?5?5?5cwd?5?$DN?5?$CFs?6?$AA@ 1005d5b4     tlib:client.obj
 0002:000065c4       ??_C@_0N@BJAFNFLI@?5?5?5url?5?$DN?5?$CFs?6?$AA@ 1005d5c4     tlib:client.obj
 0002:000065d4       ??_C@_0BC@MIHNMCGH@?5?5?5tcp_port?5?$DN?5?$CFd?6?$AA@ 1005d5d4     tlib:client.obj
 0002:000065e8       ??_C@_0BB@DEIEDNFE@?5?5?5time?5?$DN?5?$CF10ld?6?$AA@ 1005d5e8     tlib:client.obj
 0002:000065fc       ??_C@_05NAOIJFC@Error?$AA@ 1005d5fc     tlib:client.obj
 0002:00006604       ??_C@_0CI@FKOAAFBD@client?5CoInitialize?5error?0?5E_INV@ 1005d604     tlib:client.obj
 0002:0000662c       ??_C@_0CJ@JCPNECKA@client?5CoInitialize?5error?0?5E_OUT@ 1005d62c     tlib:client.obj
 0002:00006658       ??_C@_0CI@DIKKKMOB@client?5CoInitialize?5error?0?5E_UNE@ 1005d658     tlib:client.obj
 0002:00006680       ??_C@_0BK@KNCILCEM@client?5CoInitialize?5error?$AA@ 1005d680     tlib:client.obj
 0002:0000669c       ??_C@_0BE@HPOLEFA@?5?5?5coin?5ok?5?$CI?$CF10ld?$CJ?6?$AA@ 1005d69c     tlib:client.obj
 0002:000066b0       ??_C@_0BO@IKCHPNAB@?5?5?5error?3?5icc?5failed?5?$CI?$CF10ld?$CJ?6?$AA@ 1005d6b0     tlib:client.obj
 0002:000066d0       ??_C@_0CF@HHGKJOIJ@?5?5?5calling?5gethostbyname?$CI?$CJ?5at?5?$CF1@ 1005d6d0     tlib:client.obj
 0002:000066f8       ??_C@_07IBPPDHIA@?5?5?5ok2?6?$AA@ 1005d6f8     tlib:client.obj
 0002:00006700       ??_C@_0BI@MLLKNALI@?5?5?5sending?5?$CCRacermate?$CC?6?$AA@ 1005d700     tlib:client.obj
 0002:00006718       ??_C@_09EDAHGPDL@RacerMate?$AA@ 1005d718     tlib:client.obj
 0002:00006724       ??_C@_0BF@FKIJNLLH@?5?5?5calling?5expect?$CI?$CJ?6?$AA@ 1005d724     tlib:client.obj
 0002:0000673c       ??_C@_06EBKOENJN@LinkUp?$AA@ 1005d73c     tlib:client.obj
 0002:00006744       ??_C@_0BH@FONFALCN@?5?5?5initx?0?5status?5?$DN?5?$CFd?6?$AA@ 1005d744     tlib:client.obj
 0002:0000675c       ??_C@_0O@KAPKMIBO@?5?5?5destroy?$CI?$CJ?6?$AA@ 1005d75c     tlib:client.obj
 0002:0000676c       ??_C@_0BN@HPHPOFP@?5?5?5close?$CI?$CJ?3?5stopping?5thread?6?$AA@ 1005d76c     tlib:client.obj
 0002:0000678c       ??_C@_0BJ@DCKDFOKL@?5?5?5couldn?8t?5stop?5thread?6?$AA@ 1005d78c     tlib:client.obj
 0002:000067a8       ??_C@_0BK@DLCNDLHK@?5?5?5join?5ok?0?5thrd?5deleted?6?$AA@ 1005d7a8     tlib:client.obj
 0002:000067c4       ??_C@_0BM@GMJOPODH@?5?5?5calling?5closesocket?$CI?$CFd?$CJ?6?$AA@ 1005d7c4     tlib:client.obj
 0002:000067e0       ??_C@_0N@MIHKIKPD@?5?5?5sleeping?6?$AA@ 1005d7e0     tlib:client.obj
 0002:000067f0       ??_C@_0BD@CIAOGEAA@Client?5destructor?6?$AA@ 1005d7f0     tlib:client.obj
 0002:00006804       ??_C@_0CI@BNHFKCPI@?5?5?5?$CF10ld?3?5expect?51?0?5str?5?$DN?5?$CFs?0?5to@ 1005d804     tlib:client.obj
 0002:0000682c       ??_C@_0L@JJMIGDLF@client?4cpp?$AA@ 1005d82c     tlib:client.obj
 0002:00006838       ??_C@_0CL@KGIMILDI@?5?5?5?$CF10ld?3?5expect?$CI?$CJ?5timed?5out?5aft@ 1005d838     tlib:client.obj
 0002:00006864       ??_C@_0CC@OLGKNNM@?5?5?5connect?5error?5WSAECONNREFUSED@ 1005d864     tlib:client.obj
 0002:00006888       ??_C@_0BP@ODDDPOPI@?5?5?5connect?5error?5WSAETIMEDOUT?6?$AA@ 1005d888     tlib:client.obj
 0002:000068a8       ??_C@_0CN@HMJKHLHA@?5?5?5connect?5error?5WSAEADDRNOTAVAI@ 1005d8a8     tlib:client.obj
 0002:000068d8       ??_C@_0CC@FHHKOCMC@?5?5?5connect?5error?5WSAEAFNOSUPPORT@ 1005d8d8     tlib:client.obj
 0002:000068fc       ??_C@_0BO@GHOOIKGM@?5?5?5connect?5error?5WSAENOTSOCK?6?$AA@ 1005d8fc     tlib:client.obj
 0002:0000691c       ??_C@_0BN@JLGLHEPE@?5?5?5connect?5error?5WSAEISCONN?6?$AA@ 1005d91c     tlib:client.obj
 0002:0000693c       ??_C@_0BF@NOJONFFK@?5?5?5connect?5error?5?$CFd?6?$AA@ 1005d93c     tlib:client.obj
 0002:00006954       ??_C@_0CN@DAIOFBFI@?5?5?5i?5?$DN?5buflen?0?5calling?5close?$CI?$CJ?5a@ 1005d954     tlib:client.obj
 0002:00006984       ??_C@_0CF@IDMLGHCE@?5?5?5expect?5x?0?5received?5string?4?5GO@ 1005d984     tlib:client.obj
 0002:000069ac       ??_C@_0DH@BPJKAFFG@?5?5?5expect?5x?0?5failed?5to?5receive?5s@ 1005d9ac     tlib:client.obj
 0002:000069e4       ??_C@_0BO@NIOGHDNC@?6?$CIstring?5too?5long?5in?5logg?$CI?$CJ?$CJ?6?$AA@ 1005d9e4     tlib:client.obj
 0002:00006a04       ??_C@_0M@BIGGOICK@bad?5fprintf?$AA@ 1005da04     tlib:client.obj
 0002:00006a10       ??_C@_0L@JHGHNEIG@bad?5fflush?$AA@ 1005da10     tlib:client.obj
 0002:00006a1c       ??_C@_0BD@ILEHCING@?$CFs?$CFsmaincourse?4log?$AA@ 1005da1c     tlib:course.obj
 0002:00006a30       ??_C@_0N@OJIFCMKI@Main?5course?6?$AA@ 1005da30     tlib:course.obj
 0002:00006a40       ??_C@_0L@BAPEDHCL@name?5?$DN?5?$CFs?6?$AA@ 1005da40     tlib:course.obj
 0002:00006a4c       ??_C@_0O@HGFCJNCJ@npoints?5?$DN?5?$CFd?6?$AA@ 1005da4c     tlib:course.obj
 0002:00006a5c       ??_C@_0BF@KPHEONLC@minel_meters?5?$DN?5?$CF?42f?6?$AA@ 1005da5c     tlib:course.obj
 0002:00006a74       ??_C@_0BF@LMDBALBJ@maxel_meters?5?$DN?5?$CF?42f?6?$AA@ 1005da74     tlib:course.obj
 0002:00006a8c       ??_C@_0M@DHEOLPNF@?$CF?42f?0?5?$CF?42f?6?$AA@ 1005da8c     tlib:course.obj
 0002:00006a98       ??_C@_0CC@HOIFBCAI@?5?5?5I?5?5?5?5?5?5?5?5?5?5?5?5?5X?5?5?5?5?5?5?5?5?5?5?5?5Y?6@ 1005da98     tlib:course.obj
 0002:00006abc       ??_C@_04EMHCCEIN@gtm?6?$AA@ 1005dabc     tlib:course.obj
 0002:00006ac8       ??_7Course@@6B@            1005dac8     tlib:course.obj
 0002:00006acc       ??_C@_05ELDLEDEO@COM?$CFd?$AA@ 1005dacc     tlib:rtd.obj
 0002:00006ad4       ??_C@_0N@KMDNLKJO@?$CFs?$CFsds?$CFd?4log?$AA@ 1005dad4     tlib:rtd.obj
 0002:00006ae4       ??_C@_0BH@KEBKFMD@rtd1?3?5logging?5started?6?$AA@ 1005dae4     tlib:rtd.obj
 0002:00006afc       ??_C@_07GLAPGHDL@rtd?3?51?6?$AA@ 1005dafc     tlib:rtd.obj
 0002:00006b04       ??_C@_07GJEJNJGC@rtd?3?52?6?$AA@ 1005db04     tlib:rtd.obj
 0002:00006b0c       ??_C@_07NDEGNHCB@rtd?4cpp?$AA@ 1005db0c     tlib:rtd.obj
 0002:00006b14       ??_C@_0L@FCGHLFCB@?$CFs?$CFs?$CFd?4dat?$AA@ 1005db14     tlib:rtd.obj
 0002:00006b20       ??_C@_0L@GGBKIFNF@?$CFs?$CFs?$CFd?43dp?$AA@ 1005db20     tlib:rtd.obj
 0002:00006b2c       ??_C@_0DH@MCEBOGMB@?$CF4d?9?$CF02d?9?$CF02d?$EA?$CF02d?9?$CF02d?9?$CF02d_?$CFd?9@ 1005db2c     tlib:rtd.obj
 0002:00006b64       ??_C@_0L@FELALDCB@?$CFs?$CFs?$CFs?4rmp?$AA@ 1005db64     tlib:rtd.obj
 0002:00006b70       ??_C@_0BJ@DFEOIMMD@rtd?3?53?0?5comportnum?5?$DN?5?$CFd?6?$AA@ 1005db70     tlib:rtd.obj
 0002:00006b8c       ??_C@_0BP@MAMJBGLC@rtd?3?5calling?5Client?$CI?$CC?$CFs?$CC?0?5?$CFd?$CJ?6?$AA@ 1005db8c     tlib:rtd.obj
 0002:00006bac       ??_C@_0BJ@FGHMADIE@rtd?3?5error?0?5status?5?$DN?5?$CFd?6?$AA@ 1005dbac     tlib:rtd.obj
 0002:00006bc8       ??_C@_0BP@IOPPHOMF@Server?5socket?5TIME_WAIT?5error?6?$AA@ 1005dbc8     tlib:rtd.obj
 0002:00006be8       ??_C@_0BF@MCHLNMKM@Server?5Socket?5Error?6?$AA@ 1005dbe8     tlib:rtd.obj
 0002:00006c00       ??_C@_0BM@IABOEDD@Serial?5Port?5Does?5Not?5Exist?6?$AA@ 1005dc00     tlib:rtd.obj
 0002:00006c20       ??_C@_0HB@FLKLJJBG@Serial?5Port?5Error?6A?5selected?5ser@ 1005dc20     tlib:rtd.obj
 0002:00006c94       ??_C@_0BL@OKNCCNBO@Serial?5Port?5Access?5Denied?6?$AA@ 1005dc94     tlib:rtd.obj
 0002:00006cb0       ??_C@_0HE@FIINFOOF@Serial?5Port?5Error?6Serial?5Port?5Ac@ 1005dcb0     tlib:rtd.obj
 0002:00006d24       ??_C@_0BK@OHLPMOJK@Serial?5Port?5Access?5Denied?$AA@ 1005dd24     tlib:rtd.obj
 0002:00006d40       ??_C@_0BH@DEJMFJPA@Serial?5Port?5DCB?5Error?6?$AA@ 1005dd40     tlib:rtd.obj
 0002:00006d58       ??_C@_0HA@PMMGAGJM@Serial?5Port?5Error?6Serial?5Port?5DC@ 1005dd58     tlib:rtd.obj
 0002:00006dc8       ??_C@_0BG@BCFFOFHH@Serial?5Port?5DCB?5Error?$AA@ 1005ddc8     tlib:rtd.obj
 0002:00006de0       ??_C@_0BN@FDBMOBBP@Serial?5Port?5Commstate?5Error?6?$AA@ 1005dde0     tlib:rtd.obj
 0002:00006e00       ??_C@_0HG@IFDFONFC@Serial?5Port?5Error?6Serial?5Port?5Co@ 1005de00     tlib:rtd.obj
 0002:00006e78       ??_C@_0BM@EPKHMGOM@Serial?5Port?5Commstate?5Error?$AA@ 1005de78     tlib:rtd.obj
 0002:00006e94       ??_C@_0BL@MFCOEEFE@Serial?5Port?5Event?5Error?51?6?$AA@ 1005de94     tlib:rtd.obj
 0002:00006eb0       ??_C@_0HE@PDHFNPBN@Serial?5Port?5Error?6Serial?5Port?5Ev@ 1005deb0     tlib:rtd.obj
 0002:00006f24       ??_C@_0BK@HEKKADKG@Serial?5Port?5Event?5Error?51?$AA@ 1005df24     tlib:rtd.obj
 0002:00006f40       ??_C@_0BL@MHGIPKAN@Serial?5Port?5Event?5Error?52?6?$AA@ 1005df40     tlib:rtd.obj
 0002:00006f60       ??_C@_0HE@BNEPKLB@Serial?5Port?5Error?6Serial?5Port?5Ev@ 1005df60     tlib:rtd.obj
 0002:00006fd4       ??_C@_0BK@FPIHFAGF@Serial?5Port?5Event?5Error?52?$AA@ 1005dfd4     tlib:rtd.obj
 0002:00006ff0       ??_C@_0BL@IMNODCOB@Serial?5Port?5Unknown?5Error?6?$AA@ 1005dff0     tlib:rtd.obj
 0002:00007010       ??_C@_0HG@OACHIEDG@Serial?5Port?5Error?6Serial?5Port?5Un@ 1005e010     tlib:rtd.obj
 0002:00007088       ??_C@_0BK@ONJLPLEA@Serial?5Port?5Unknown?5Error?$AA@ 1005e088     tlib:rtd.obj
 0002:000070a4       ??_C@_0BN@EMIKGEAL@rtd?3?5created?5client?5or?5port?6?$AA@ 1005e0a4     tlib:rtd.obj
 0002:000070c4       ??_C@_07GMAGMPOH@rtd?3?55?6?$AA@ 1005e0c4     tlib:rtd.obj
 0002:000070cc       ??_C@_04JCAELNHE@raw?6?$AA@ 1005e0cc     tlib:rtd.obj
 0002:000070d4       ??_C@_05NPBFDCMB@3d?51?6?$AA@ 1005e0d4     tlib:rtd.obj
 0002:000070dc       ??_C@_05NNFDIMJI@3d?52?6?$AA@ 1005e0dc     tlib:rtd.obj
 0002:000070e4       ??_C@_04KMMFPDLO@rm1?6?$AA@ 1005e0e4     tlib:rtd.obj
 0002:000070ec       ??_C@_04KOIDENOH@rm2?6?$AA@ 1005e0ec     tlib:rtd.obj
 0002:000070f4       ??_C@_07GOEAHBLO@rtd?3?56?6?$AA@ 1005e0f4     tlib:rtd.obj
 0002:000070fc       ??_C@_07BEEENBHE@rtd?3?5x?6?$AA@ 1005e0fc     tlib:rtd.obj
 0002:00007104       ??_C@_0BG@PMKCODCK@rtd?3?5logging?5started?6?$AA@ 1005e104     tlib:rtd.obj
 0002:0000711c       ??_C@_06OFFKABIF@rtd?5x?6?$AA@ 1005e11c     tlib:rtd.obj
 0002:00007128       ??_7RTD@@6B@               1005e128     tlib:rtd.obj
 0002:00007254       ??_C@_0BI@BFKPLACG@computrainerDecoder?3?51?6?$AA@ 1005e254     tlib:computrainer_decoder.obj
 0002:0000726c       ??_C@_0BI@BHOJAOHP@computrainerDecoder?3?52?6?$AA@ 1005e26c     tlib:computrainer_decoder.obj
 0002:00007284       ??_C@_0BI@GKOEAGGJ@computrainerDecoder?3?5x?6?$AA@ 1005e284     tlib:computrainer_decoder.obj
 0002:000072a0       ??_7computrainerDecoder@@6B@ 1005e2a0     tlib:computrainer_decoder.obj
 0002:00007304       ??_7simDecoder@@6B@        1005e304     tlib:simdecoder.obj
 0002:00007368       ??_7performanceDecoder@@6B@ 1005e368     tlib:performance_decoder.obj
 0002:000073c8       ??_C@_0M@DCJLNLHK@decoder?4ini?$AA@ 1005e3c8     tlib:velotron_decoder.obj
 0002:000073d4       ??_C@_05GFCDIDHO@debug?$AA@ 1005e3d4     tlib:velotron_decoder.obj
 0002:000073dc       ??_C@_03PENLHFGJ@5?40?$AA@ 1005e3dc     tlib:velotron_decoder.obj
 0002:000073e0       ??_C@_03HOJCLNMC@Vdd?$AA@  1005e3e0     tlib:velotron_decoder.obj
 0002:000073e4       ??_C@_07HAFPJOBC@logging?$AA@ 1005e3e4     tlib:velotron_decoder.obj
 0002:000073ec       ??_C@_02PNFIDHGF@50?$AA@   1005e3ec     tlib:velotron_decoder.obj
 0002:000073f0       ??_C@_0N@JHPMNHD@volts?5filter?$AA@ 1005e3f0     tlib:velotron_decoder.obj
 0002:00007400       ??_C@_0N@LHCPAMJD@constructor?6?$AA@ 1005e400     tlib:velotron_decoder.obj
 0002:00007410       ??_C@_0BF@JKLAGHKP@velotron_decoder?4cpp?$AA@ 1005e410     tlib:velotron_decoder.obj
 0002:00007428       ??_C@_0BN@IBMCOBME@error?3?5packet?5format?5?$DN?5?$CF02x?6?$AA@ 1005e428     tlib:velotron_decoder.obj
 0002:0000744c       ??_7velotronDecoder@@6B@   1005e44c     tlib:velotron_decoder.obj
 0002:000074b0       ??_C@_06FCIJJBOB@hr?4ini?$AA@ 1005e4b0     tlib:heartrate.obj
 0002:000074b8       ??_C@_06PKBGCGGK@hr?4log?$AA@ 1005e4b8     tlib:heartrate.obj
 0002:000074c0       ??_C@_0BA@KFKJEJHP@?$CF10ld?3?5started?6?$AA@ 1005e4c0     tlib:heartrate.obj
 0002:000074d0       ??_C@_0BE@KAKOJNCM@avgfsig?5?$CFd?5?$DN?5?$CF?42lf?6?$AA@ 1005e4d0     tlib:heartrate.obj
 0002:000074e4       ??_C@_0DF@GKDCIBBK@?6?$CF10ld?3?5NOISEFLAG?5after?58?5second@ 1005e4e4     tlib:heartrate.obj
 0002:0000751c       ??_C@_0BG@NMJMLJJ@?9?9?9?9?9?9?9?9?9?9?9?9?9?9?9?9?9?9?9?9?6?$AA@ 1005e51c     tlib:heartrate.obj
 0002:00007534       ??_C@_03PMGGPEJJ@?$CFd?6?$AA@ 1005e534     tlib:heartrate.obj
 0002:00007538       ??_C@_09PNJMMGIC@?$CI?$CF6?42lf?$CJ?5?$AA@ 1005e538     tlib:heartrate.obj
 0002:00007544       ??_C@_07KOJBIIOH@?$CF6?42lf?5?$AA@ 1005e544     tlib:heartrate.obj
 0002:0000754c       ??_C@_0CH@NJHNJABJ@?$CF10ld?3?5noise?3?5rawppm?5?$DO?5250?5?4?4?4?5?$CF@ 1005e54c     tlib:heartrate.obj
 0002:00007574       ??_C@_0CG@EKHIBLAA@?$CF10ld?3?5noise?3?5rawppm?5?$DM?540?5?4?4?4?5?$CF?4@ 1005e574     tlib:heartrate.obj
 0002:0000759c       ??_C@_0DM@JAILFLLO@?$CF10ld?5?5noise?5?$CIdiff?$CJ?3?5rawppm?5?$DN?5?$CF?4@ 1005e59c     tlib:heartrate.obj
 0002:000075d8       ??_C@_0BK@CJAAAKCI@?$CF10ld?5?5?$CF6?42lf?5?$CI?$CF?42lf?$CJ?5?9?$DO?5?$AA@ 1005e5d8     tlib:heartrate.obj
 0002:000075f4       ??_C@_04HPEAJLAJ@?9rc3?$AA@ 1005e5f4     libusb-1.0:core.obj
 0002:000075fc       ??_C@_0BD@GCMFAHAH@http?3?1?1libusb?4info?$AA@ 1005e5fc     libusb-1.0:core.obj
 0002:00007610       ??_C@_0BK@MCKNDLHA@need?5to?5increase?5capacity?$AA@ 1005e610     libusb-1.0:core.obj
 0002:0000762c       ??_C@_0BH@GLOJKKCD@discovered_devs_append?$AA@ 1005e62c     libusb-1.0:core.obj
 0002:00007644       ??_C@_0BI@NJMIAPGA@too?5many?5configurations?$AA@ 1005e644     libusb-1.0:core.obj
 0002:0000765c       ??_C@_0BF@GHLFCDB@usbi_sanitize_device?$AA@ 1005e65c     libusb-1.0:core.obj
 0002:00007674       ??_C@_0DC@FBICHMP@zero?5configurations?0?5maybe?5an?5un@ 1005e674     libusb-1.0:core.obj
 0002:000076a8       ??_C@_0BH@KENKLPKK@libusb_get_device_list?$AA@ 1005e6a8     libusb-1.0:core.obj
 0002:000076c0       ??_C@_0BF@FLDLJCHC@destroy?5device?5?$CFd?4?$CFd?$AA@ 1005e6c0     libusb-1.0:core.obj
 0002:000076d8       ??_C@_0BE@LHHLFPBK@libusb_unref_device?$AA@ 1005e6d8     libusb-1.0:core.obj
 0002:000076ec       ??_C@_0CB@EJNEFMLO@internal?5signalling?5write?5failed@ 1005e6ec     libusb-1.0:core.obj
 0002:00007710       ??_C@_0BC@EPOGELGA@usbi_signal_event?$AA@ 1005e710     libusb-1.0:core.obj
 0002:00007724       ??_C@_0CA@BNHKPPDF@internal?5signalling?5read?5failed?$AA@ 1005e724     libusb-1.0:core.obj
 0002:00007744       ??_C@_0BB@NPBIHEAB@usbi_clear_event?$AA@ 1005e744     libusb-1.0:core.obj
 0002:00007758       ??_C@_0L@PJBMFBCG@open?5?$CFd?4?$CFd?$AA@ 1005e758     libusb-1.0:core.obj
 0002:00007764       ??_C@_0M@OLNMJMAM@libusb_open?$AA@ 1005e764     libusb-1.0:core.obj
 0002:00007770       ??_C@_0BG@DKDPFEJE@open?5?$CFd?4?$CFd?5returns?5?$CFd?$AA@ 1005e770     libusb-1.0:core.obj
 0002:00007788       ??_C@_0HD@HKCJFNMF@Device?5handle?5closed?5while?5trans@ 1005e788     libusb-1.0:core.obj
 0002:000077fc       ??_C@_08DLPFFJLG@do_close?$AA@ 1005e7fc     libusb-1.0:core.obj
 0002:00007808       ??_C@_0FI@HOBMCGML@A?5cancellation?5for?5an?5in?9flight?5@ 1005e808     libusb-1.0:core.obj
 0002:00007860       ??_C@_0FK@OKLNMFJD@A?5cancellation?5hasn?8t?5even?5been?5@ 1005e860     libusb-1.0:core.obj
 0002:000078c0       ??_C@_0EM@BBDLPIJB@Removed?5transfer?5?$CFp?5from?5the?5in?9@ 1005e8c0     libusb-1.0:core.obj
 0002:0000790c       ??_C@_0N@LIEGGFOK@libusb_close?$AA@ 1005e90c     libusb-1.0:core.obj
 0002:0000791c       ??_C@_0N@GEDMDNPJ@interface?5?$CFd?$AA@ 1005e91c     libusb-1.0:core.obj
 0002:0000792c       ??_C@_0BH@KLALIEOA@libusb_claim_interface?$AA@ 1005e92c     libusb-1.0:core.obj
 0002:00007944       ??_C@_0BJ@IANFCFCP@libusb_release_interface?$AA@ 1005e944     libusb-1.0:core.obj
 0002:00007960       ??_C@_0BM@EEBMGADI@libusb_kernel_driver_active?$AA@ 1005e960     libusb-1.0:core.obj
 0002:0000797c       ??_C@_0BM@JDKJCJNF@libusb_detach_kernel_driver?$AA@ 1005e97c     libusb-1.0:core.obj
 0002:00007998       ??_C@_0N@LOBNOKHP@LIBUSB_DEBUG?$AA@ 1005e998     libusb-1.0:core.obj
 0002:000079a8       ??_C@_0BI@ONKPNAMP@reusing?5default?5context?$AA@ 1005e9a8     libusb-1.0:core.obj
 0002:000079c0       ??_C@_0M@GNGNEKLP@libusb_init?$AA@ 1005e9c0     libusb-1.0:core.obj
 0002:000079cc       ??_C@_0BI@HEBLGGCB@created?5default?5context?$AA@ 1005e9cc     libusb-1.0:core.obj
 0002:000079e4       ??_C@_0BG@NCHELFKH@libusb?5v?$CFu?4?$CFu?4?$CFu?4?$CFu?$CFs?$AA@ 1005e9e4     libusb-1.0:core.obj
 0002:000079fc       ??_C@_0M@NNOPKPPN@libusb_exit?$AA@ 1005e9fc     libusb-1.0:core.obj
 0002:00007a08       ??_C@_0BP@OKMJCFEP@not?5destroying?5default?5context?$AA@ 1005ea08     libusb-1.0:core.obj
 0002:00007a28       ??_C@_0BL@PDEEJMBN@destroying?5default?5context?$AA@ 1005ea28     libusb-1.0:core.obj
 0002:00007a44       ??_C@_0CA@CBJPICMK@some?5libusb_devices?5were?5leaked?$AA@ 1005ea44     libusb-1.0:core.obj
 0002:00007a64       ??_C@_0CD@JEIOOPM@application?5left?5some?5devices?5op@ 1005ea64     libusb-1.0:core.obj
 0002:00007a88       ??_C@_0EB@NKANGJKP@?$FLtimestamp?$FN?5?$FLthreadID?$FN?5facility?5@ 1005ea88     libusb-1.0:core.obj
 0002:00007ad0       ??_C@_0FC@MOLDIHLM@?9?9?9?9?9?9?9?9?9?9?9?9?9?9?9?9?9?9?9?9?9?9?9?9?9?9?9?9?9?9?9?9@ 1005ead0     libusb-1.0:core.obj
 0002:00007b24       ??_C@_04NIDJFNBE@info?$AA@ 1005eb24     libusb-1.0:core.obj
 0002:00007b2c       ??_C@_07FPLKDJGL@warning?$AA@ 1005eb2c     libusb-1.0:core.obj
 0002:00007b34       ??_C@_05KKCIMGE@error?$AA@ 1005eb34     libusb-1.0:core.obj
 0002:00007b3c       ??_C@_07CIFAGBMG@unknown?$AA@ 1005eb3c     libusb-1.0:core.obj
 0002:00007b44       ??_C@_0CD@MOLNDELD@?$FL?$CF2d?4?$CF06d?$FN?5?$FL?$CF08x?$FN?5libusb?3?5?$CFs?5?$FL?$CFs@ 1005eb44     libusb-1.0:core.obj
 0002:00007b68       ??_C@_0BB@DEGKMPPL@libusb?3?5?$CFs?5?$FL?$CFs?$FN?5?$AA@ 1005eb68     libusb-1.0:core.obj
 0002:00007b7c       ??_C@_0BA@PGICLKN@LIBUSB_ERROR_IO?$AA@ 1005eb7c     libusb-1.0:core.obj
 0002:00007b8c       ??_C@_0BL@BILCLBJN@LIBUSB_ERROR_INVALID_PARAM?$AA@ 1005eb8c     libusb-1.0:core.obj
 0002:00007ba8       ??_C@_0BE@LOFKAOBD@LIBUSB_ERROR_ACCESS?$AA@ 1005eba8     libusb-1.0:core.obj
 0002:00007bbc       ??_C@_0BH@JFKAPOCC@LIBUSB_ERROR_NO_DEVICE?$AA@ 1005ebbc     libusb-1.0:core.obj
 0002:00007bd4       ??_C@_0BH@ENHLOHCI@LIBUSB_ERROR_NOT_FOUND?$AA@ 1005ebd4     libusb-1.0:core.obj
 0002:00007bec       ??_C@_0BC@PKOCMEJC@LIBUSB_ERROR_BUSY?$AA@ 1005ebec     libusb-1.0:core.obj
 0002:00007c00       ??_C@_0BF@OOLEBGGE@LIBUSB_ERROR_TIMEOUT?$AA@ 1005ec00     libusb-1.0:core.obj
 0002:00007c18       ??_C@_0BG@CJILGPFO@LIBUSB_ERROR_OVERFLOW?$AA@ 1005ec18     libusb-1.0:core.obj
 0002:00007c30       ??_C@_0BC@BODMALFD@LIBUSB_ERROR_PIPE?$AA@ 1005ec30     libusb-1.0:core.obj
 0002:00007c44       ??_C@_0BJ@HMLOBDCD@LIBUSB_ERROR_INTERRUPTED?$AA@ 1005ec44     libusb-1.0:core.obj
 0002:00007c60       ??_C@_0BE@JDJOAMPA@LIBUSB_ERROR_NO_MEM?$AA@ 1005ec60     libusb-1.0:core.obj
 0002:00007c74       ??_C@_0BL@ENKIGOH@LIBUSB_ERROR_NOT_SUPPORTED?$AA@ 1005ec74     libusb-1.0:core.obj
 0002:00007c90       ??_C@_0BD@IFKMJPJO@LIBUSB_ERROR_OTHER?$AA@ 1005ec90     libusb-1.0:core.obj
 0002:00007ca4       ??_C@_0BG@MIIHEIAM@LIBUSB_TRANSFER_ERROR?$AA@ 1005eca4     libusb-1.0:core.obj
 0002:00007cbc       ??_C@_0BK@CKCLOIIB@LIBUSB_TRANSFER_TIMED_OUT?$AA@ 1005ecbc     libusb-1.0:core.obj
 0002:00007cd8       ??_C@_0BK@BBJDMCOJ@LIBUSB_TRANSFER_CANCELLED?$AA@ 1005ecd8     libusb-1.0:core.obj
 0002:00007cf4       ??_C@_0BG@GODCFNN@LIBUSB_TRANSFER_STALL?$AA@ 1005ecf4     libusb-1.0:core.obj
 0002:00007d0c       ??_C@_0BK@FJABKPBC@LIBUSB_TRANSFER_NO_DEVICE?$AA@ 1005ed0c     libusb-1.0:core.obj
 0002:00007d28       ??_C@_0BJ@IEKNMKOK@LIBUSB_TRANSFER_OVERFLOW?$AA@ 1005ed28     libusb-1.0:core.obj
 0002:00007d44       ??_C@_0CL@NGJAAHCE@LIBUSB_SUCCESS?5?1?5LIBUSB_TRANSFER@ 1005ed44     libusb-1.0:core.obj
 0002:00007d70       ??_C@_0M@GOPGBDCO@?$CK?$CKUNKNOWN?$CK?$CK?$AA@ 1005ed70     libusb-1.0:core.obj
 0002:00007d7c       ??_C@_0CF@GJHGPBKO@short?5endpoint?5descriptor?5read?5?$CF@ 1005ed7c     libusb-1.0:descriptor.obj
 0002:00007da4       ??_C@_0P@CMFKCEAH@parse_endpoint?$AA@ 1005eda4     libusb-1.0:descriptor.obj
 0002:00007db4       ??_C@_02BMCGDAIG@bb?$AA@   1005edb4     libusb-1.0:descriptor.obj
 0002:00007db8       ??_C@_0CH@DFJIBHNK@unexpected?5descriptor?5?$CFx?5?$CIexpect@ 1005edb8     libusb-1.0:descriptor.obj
 0002:00007de0       ??_C@_08GGPNADBE@bbbbwbbb?$AA@ 1005ede0     libusb-1.0:descriptor.obj
 0002:00007dec       ??_C@_06EPCOLPEJ@bbbbwb?$AA@ 1005edec     libusb-1.0:descriptor.obj
 0002:00007df4       ??_C@_0BO@CBJPMHAC@invalid?5endpoint?5bLength?5?$CI?$CFd?$CJ?$AA@ 1005edf4     libusb-1.0:descriptor.obj
 0002:00007e14       ??_C@_0BP@IPDLMMF@invalid?5extra?5ep?5desc?5len?5?$CI?$CFd?$CJ?$AA@ 1005ee14     libusb-1.0:descriptor.obj
 0002:00007e34       ??_C@_0BP@BINMIKJI@short?5extra?5ep?5desc?5read?5?$CFd?1?$CFd?$AA@ 1005ee34     libusb-1.0:descriptor.obj
 0002:00007e54       ??_C@_0BH@JJNCHMPL@skipping?5descriptor?5?$CFx?$AA@ 1005ee54     libusb-1.0:descriptor.obj
 0002:00007e6c       ??_C@_09BOGMLDHD@bbbbbbbbb?$AA@ 1005ee6c     libusb-1.0:descriptor.obj
 0002:00007e78       ??_C@_0BA@KJLBBBJO@parse_interface?$AA@ 1005ee78     libusb-1.0:descriptor.obj
 0002:00007e88       ??_C@_0BP@OJGFOKNB@invalid?5interface?5bLength?5?$CI?$CFd?$CJ?$AA@ 1005ee88     libusb-1.0:descriptor.obj
 0002:00007ea8       ??_C@_0CB@NCLBAJNC@short?5intf?5descriptor?5read?5?$CFd?1?$CFd@ 1005eea8     libusb-1.0:descriptor.obj
 0002:00007ecc       ??_C@_0BI@BKGGAFKL@too?5many?5endpoints?5?$CI?$CFd?$CJ?$AA@ 1005eecc     libusb-1.0:descriptor.obj
 0002:00007ee4       ??_C@_0CB@DBKILMN@invalid?5extra?5intf?5desc?5len?5?$CI?$CFd?$CJ@ 1005eee4     libusb-1.0:descriptor.obj
 0002:00007f08       ??_C@_0CB@DBIHAOAG@short?5extra?5intf?5desc?5read?5?$CFd?1?$CFd@ 1005ef08     libusb-1.0:descriptor.obj
 0002:00007f2c       ??_C@_0CD@DCMKILDH@short?5config?5descriptor?5read?5?$CFd?1@ 1005ef2c     libusb-1.0:descriptor.obj
 0002:00007f50       ??_C@_0BE@PKLGALLE@parse_configuration?$AA@ 1005ef50     libusb-1.0:descriptor.obj
 0002:00007f64       ??_C@_08PLBLKIIP@bbwbbbbb?$AA@ 1005ef64     libusb-1.0:descriptor.obj
 0002:00007f70       ??_C@_0BM@ELDIBEBL@invalid?5config?5bLength?5?$CI?$CFd?$CJ?$AA@ 1005ef70     libusb-1.0:descriptor.obj
 0002:00007f8c       ??_C@_0BJ@LCMFLJJD@too?5many?5interfaces?5?$CI?$CFd?$CJ?$AA@ 1005ef8c     libusb-1.0:descriptor.obj
 0002:00007fa8       ??_C@_0CD@MFLIEJBI@invalid?5extra?5config?5desc?5len?5?$CI?$CF@ 1005efa8     libusb-1.0:descriptor.obj
 0002:00007fcc       ??_C@_0CD@EBELNJED@short?5extra?5config?5desc?5read?5?$CFd?1@ 1005efcc     libusb-1.0:descriptor.obj
 0002:00007ff0       ??_C@_0BJ@NPJLPDLE@skipping?5descriptor?50x?$CFx?$AA@ 1005eff0     libusb-1.0:descriptor.obj
 0002:0000800c       ??_C@_0CJ@JAFDMFDI@parse_configuration?5failed?5with?5@ 1005f00c     libusb-1.0:descriptor.obj
 0002:00008038       ??_C@_0BD@LGHOLJCC@raw_desc_to_config?$AA@ 1005f038     libusb-1.0:descriptor.obj
 0002:0000804c       ??_C@_0CH@NAMOIEMB@still?5?$CFd?5bytes?5of?5descriptor?5dat@ 1005f04c     libusb-1.0:descriptor.obj
 0002:00008074       ??_C@_0BN@HMAIOHAI@libusb_get_device_descriptor?$AA@ 1005f074     libusb-1.0:descriptor.obj
 0002:00008094       ??_C@_0CE@LNIGJPBA@libusb_get_active_config_descrip@ 1005f094     libusb-1.0:descriptor.obj
 0002:000080b8       ??_C@_03GELJOPBE@bbw?$AA@  1005f0b8     libusb-1.0:descriptor.obj
 0002:000080bc       ??_C@_08FNBALGKA@index?5?$CFd?$AA@ 1005f0bc     libusb-1.0:descriptor.obj
 0002:000080c8       ??_C@_0BN@NMNNDPKJ@libusb_get_config_descriptor?$AA@ 1005f0c8     libusb-1.0:descriptor.obj
 0002:000080e8       ??_C@_0BB@HHLFFLFF@actual_length?$DN?$CFd?$AA@ 1005f0e8     libusb-1.0:sync.obj
 0002:000080fc       ??_C@_0BB@MGAIPGNB@sync_transfer_cb?$AA@ 1005f0fc     libusb-1.0:sync.obj
 0002:00008110       ??_C@_0EC@JACIJMNO@libusb_handle_events?5failed?3?5?$CFs?0@ 1005f110     libusb-1.0:sync.obj
 0002:00008154       ??_C@_0CC@DBMGHGJC@sync_transfer_wait_for_completio@ 1005f154     libusb-1.0:sync.obj
 0002:00008178       ??_C@_0BM@PJOOMGGO@unrecognised?5status?5code?5?$CFd?$AA@ 1005f178     libusb-1.0:sync.obj
 0002:00008194       ??_C@_0BI@IBHNMBKD@libusb_control_transfer?$AA@ 1005f194     libusb-1.0:sync.obj
 0002:000081ac       ??_C@_0BG@KOGEIOGF@do_sync_bulk_transfer?$AA@ 1005f1ac     libusb-1.0:sync.obj
 0002:000081c4       ??_C@_08CPNIBGIE@KERNEL32?$AA@ 1005f1c4     libusb-1.0:poll_windows.obj
 0002:000081d0       ??_C@_0L@COJLGOAG@CancelIoEx?$AA@ 1005f1d0     libusb-1.0:poll_windows.obj
 0002:000081dc       ??_C@_02JBAJJKDI@Ex?$AA@   1005f1dc     libusb-1.0:poll_windows.obj
 0002:000081e0       ??_C@_0CJ@HGIJIOCG@Will?5use?5CancelIo?$CFs?5for?5I?1O?5canc@ 1005f1e0     libusb-1.0:poll_windows.obj
 0002:0000820c       ??_C@_0BA@DDEGEBAF@setup_cancel_io?$AA@ 1005f20c     libusb-1.0:poll_windows.obj
 0002:0000821c       ??_C@_0DK@MIDKNMBB@Unable?5to?5cancel?5I?1O?5that?5was?5st@ 1005f21c     libusb-1.0:poll_windows.obj
 0002:00008258       ??_C@_09CAHEMFHK@cancel_io?$AA@ 1005f258     libusb-1.0:poll_windows.obj
 0002:00008268       ??_C@_0IF@KJEIEJBB@only?5one?5of?5RW_READ?5or?5RW_WRITE?5@ 1005f268     libusb-1.0:poll_windows.obj
 0002:000082f0       ??_C@_0P@PFGABCEO@usbi_create_fd?$AA@ 1005f2f0     libusb-1.0:poll_windows.obj
 0002:00008300       ??_C@_0DN@JIFFPAJL@could?5not?5duplicate?5handle?5for?5C@ 1005f300     libusb-1.0:poll_windows.obj
 0002:00008340       ??_C@_0BK@OFPIGMCK@unsupported?5set?5of?5events?$AA@ 1005f340     libusb-1.0:poll_windows.obj
 0002:0000835c       ??_C@_09KGBBCDOC@usbi_poll?$AA@ 1005f35c     libusb-1.0:poll_windows.obj
 0002:00008368       ??_C@_0L@NJBNHJG@invalid?5fd?$AA@ 1005f368     libusb-1.0:poll_windows.obj
 0002:00008374       ??_C@_0CL@GOIAELAI@attempted?5POLLIN?5on?5fd?5without?5R@ 1005f374     libusb-1.0:poll_windows.obj
 0002:000083a0       ??_C@_0CN@GBPFLAEF@attempted?5POLLOUT?5on?5fd?5without?5@ 1005f3a0     libusb-1.0:poll_windows.obj
 0002:000083d0       ??_C@_09HDGNIJLN@usbi_read?$AA@ 1005f3d0     libusb-1.0:poll_windows.obj
 0002:000083dc       ??_C@_0BN@JGNGOKNJ@waiting?5for?5event?5failed?3?5?$CFu?$AA@ 1005f3dc     libusb-1.0:poll_windows.obj
 0002:000083fc       ??_C@_0CB@COFGPHPI@error?5allocating?5hotplug?5message@ 1005f3fc     libusb-1.0:hotplug.obj
 0002:00008420       ??_C@_0BK@DIFNNHMA@usbi_hotplug_notification?$AA@ 1005f420     libusb-1.0:hotplug.obj
 0002:0000843c       ??_C@_0CJ@MOBPENON@failed?5to?5read?5monotonic?5clock?0?5@ 1005f43c     libusb-1.0:io.obj
 0002:00008468       ??_C@_0BC@JIMGLFOJ@calculate_timeout?$AA@ 1005f468     libusb-1.0:io.obj
 0002:0000847c       ??_C@_0M@PLFMNHI@transfer?5?$CFp?$AA@ 1005f47c     libusb-1.0:io.obj
 0002:00008488       ??_C@_0BG@PFIKBDGF@libusb_alloc_transfer?$AA@ 1005f488     libusb-1.0:io.obj
 0002:000084a0       ??_C@_0BF@IEOAMNGA@libusb_free_transfer?$AA@ 1005f4a0     libusb-1.0:io.obj
 0002:000084b8       ??_C@_0BH@ELLBEDHE@libusb_submit_transfer?$AA@ 1005f4b8     libusb-1.0:io.obj
 0002:000084d0       ??_C@_0BH@KCKEHCFE@libusb_cancel_transfer?$AA@ 1005f4d0     libusb-1.0:io.obj
 0002:000084e8       ??_C@_0CA@JHHAHIKF@cancel?5transfer?5failed?5error?5?$CFd?$AA@ 1005f4e8     libusb-1.0:io.obj
 0002:00008508       ??_C@_0CA@JBOEDEHB@usbi_handle_transfer_completion?$AA@ 1005f508     libusb-1.0:io.obj
 0002:00008528       ??_C@_0CF@GFPMGCLN@interpreting?5short?5transfer?5as?5e@ 1005f528     libusb-1.0:io.obj
 0002:00008550       ??_C@_0BM@DECJEOHC@transfer?5?$CFp?5has?5callback?5?$CFp?$AA@ 1005f550     libusb-1.0:io.obj
 0002:0000856c       ??_C@_0BO@KNJPGLLN@detected?5timeout?5cancellation?$AA@ 1005f56c     libusb-1.0:io.obj
 0002:0000858c       ??_C@_0CC@JCEGALLI@usbi_handle_transfer_cancellatio@ 1005f58c     libusb-1.0:io.obj
 0002:000085b0       ??_C@_0CB@NLADCEFJ@someone?5else?5is?5closing?5a?5device@ 1005f5b0     libusb-1.0:io.obj
 0002:000085d4       ??_C@_0BH@CAHGFBNO@libusb_try_lock_events?$AA@ 1005f5d4     libusb-1.0:io.obj
 0002:000085ec       ??_C@_0BM@OGKJNLCP@libusb_event_handler_active?$AA@ 1005f5ec     libusb-1.0:io.obj
 0002:00008608       ??_C@_0CA@FMFFFBFF@async?5cancel?5failed?5?$CFd?5errno?$DN?$CFd?$AA@ 1005f608     libusb-1.0:io.obj
 0002:00008628       ??_C@_0P@CEDFMCP@handle_timeout?$AA@ 1005f628     libusb-1.0:io.obj
 0002:00008638       ??_C@_0CA@BICGPKNN@poll?5fds?5modified?0?5reallocating?$AA@ 1005f638     libusb-1.0:io.obj
 0002:00008658       ??_C@_0O@OLNGJAAF@handle_events?$AA@ 1005f658     libusb-1.0:io.obj
 0002:00008668       ??_C@_1BO@FFANPDHA@?$AA?4?$AA?4?$AA?2?$AAl?$AAi?$AAb?$AAu?$AAs?$AAb?$AA?2?$AAi?$AAo?$AA?4?$AAc?$AA?$AA@ 1005f668     libusb-1.0:io.obj
 0002:00008688       ??_C@_1EE@KNGEKLDK@?$AAc?$AAt?$AAx?$AA?9?$AA?$DO?$AAp?$AAo?$AAl?$AAl?$AAf?$AAd?$AAs?$AA_?$AAc?$AAn?$AAt?$AA?5?$AA?$DO?$AA?$DN?$AA?5?$AAi?$AAn?$AAt?$AAe?$AAr?$AAn?$AAa?$AAl?$AA_?$AAn?$AAf?$AAd@ 1005f688     libusb-1.0:io.obj
 0002:000086cc       ??_C@_0CD@OLBPHAEN@poll?$CI?$CJ?5?$CFd?5fds?5with?5timeout?5in?5?$CFd@ 1005f6cc     libusb-1.0:io.obj
 0002:000086f0       ??_C@_0BD@JBCFEJDE@poll?$CI?$CJ?5returned?5?$CFd?$AA@ 1005f6f0     libusb-1.0:io.obj
 0002:00008704       ??_C@_0BG@KGNIKACM@poll?5failed?5?$CFd?5err?$DN?$CFd?$AA@ 1005f704     libusb-1.0:io.obj
 0002:0000871c       ??_C@_0CA@PAGNDLOG@caught?5a?5fish?5on?5the?5event?5pipe?$AA@ 1005f71c     libusb-1.0:io.obj
 0002:0000873c       ??_C@_0BN@OCDEGMEG@someone?5updated?5the?5poll?5fds?$AA@ 1005f73c     libusb-1.0:io.obj
 0002:0000875c       ??_C@_0BO@FCFABBIG@someone?5purposely?5interrupted?$AA@ 1005f75c     libusb-1.0:io.obj
 0002:0000877c       ??_C@_0BM@BMOGDDJA@someone?5is?5closing?5a?5device?$AA@ 1005f77c     libusb-1.0:io.obj
 0002:00008798       ??_C@_0BJ@FIEBMLGL@hotplug?5message?5received?$AA@ 1005f798     libusb-1.0:io.obj
 0002:000087b4       ??_C@_0DI@LPPDCPPP@backend?5handle_transfer_completi@ 1005f7b4     libusb-1.0:io.obj
 0002:000087ec       ??_C@_0CL@CMJPEJMP@backend?5handle_events?5failed?5wit@ 1005f7ec     libusb-1.0:io.obj
 0002:00008818       ??_C@_0BN@KKBHNNHN@doing?5our?5own?5event?5handling?$AA@ 1005f818     libusb-1.0:io.obj
 0002:00008838       ??_C@_0CH@OHDLONKD@libusb_handle_events_timeout_com@ 1005f838     libusb-1.0:io.obj
 0002:00008860       ??_C@_0DB@DKIFLIIP@event?5handler?5was?5active?5but?5wen@ 1005f860     libusb-1.0:io.obj
 0002:00008894       ??_C@_0CH@PAHEHJMH@another?5thread?5is?5doing?5event?5ha@ 1005f894     libusb-1.0:io.obj
 0002:000088bc       ??_C@_0BF@HKKIGJLI@no?5URBs?0?5no?5timeout?$CB?$AA@ 1005f8bc     libusb-1.0:io.obj
 0002:000088d4       ??_C@_0BI@GBILEFGM@libusb_get_next_timeout?$AA@ 1005f8d4     libusb-1.0:io.obj
 0002:000088ec       ??_C@_0DG@HCDBNEMH@no?5URB?5with?5timeout?5or?5all?5handl@ 1005f8ec     libusb-1.0:io.obj
 0002:00008924       ??_C@_0BO@NJODDAFE@first?5timeout?5already?5expired?$AA@ 1005f924     libusb-1.0:io.obj
 0002:00008944       ??_C@_0BJ@LKOKEKII@next?5timeout?5in?5?$CFd?4?$CF06ds?$AA@ 1005f944     libusb-1.0:io.obj
 0002:00008960       ??_C@_0BE@NABDDFHE@add?5fd?5?$CFd?5events?5?$CFd?$AA@ 1005f960     libusb-1.0:io.obj
 0002:00008974       ??_C@_0BA@LKIMEOGN@usbi_add_pollfd?$AA@ 1005f974     libusb-1.0:io.obj
 0002:00008984       ??_C@_0N@NIELHKCI@remove?5fd?5?$CFd?$AA@ 1005f984     libusb-1.0:io.obj
 0002:00008994       ??_C@_0BD@KADFFHII@usbi_remove_pollfd?$AA@ 1005f994     libusb-1.0:io.obj
 0002:000089a8       ??_C@_0BO@NHOHDOIK@couldn?8t?5find?5fd?5?$CFd?5to?5remove?$AA@ 1005f9a8     libusb-1.0:io.obj
 0002:000089c8       ??_C@_07FGONNLEI@libusbK?$AA@ 1005f9c8     libusb-1.0:windows_winusb.obj
 0002:000089d0       ??_C@_07JKCGHLHF@libusb0?$AA@ 1005f9d0     libusb-1.0:windows_winusb.obj
 0002:000089d8       ??_C@_06NNHOCCPI@WinUSB?$AA@ 1005f9d8     libusb-1.0:windows_winusb.obj
 0002:000089e0       ??_C@_0DD@KLACBBLO@?$HL?$CF08X?9?$CF04X?9?$CF04X?9?$CF02X?$CF02X?9?$CF02X?$CF02@ 1005f9e0     libusb-1.0:windows_winusb.obj
 0002:00008a14       ??_C@_08DDGPNPLC@Cfgmgr32?$AA@ 1005fa14     libusb-1.0:windows_winusb.obj
 0002:00008a20       ??_C@_0O@CIKLALFP@CM_Get_Parent?$AA@ 1005fa20     libusb-1.0:windows_winusb.obj
 0002:00008a30       ??_C@_0P@BCJOJJCK@CM_Get_ParentA?$AA@ 1005fa30     libusb-1.0:windows_winusb.obj
 0002:00008a40       ??_C@_0P@OAGCMPN@CM_Get_ParentW?$AA@ 1005fa40     libusb-1.0:windows_winusb.obj
 0002:00008a50       ??_C@_0N@EKPGFMC@CM_Get_Child?$AA@ 1005fa50     libusb-1.0:windows_winusb.obj
 0002:00008a60       ??_C@_0O@JMAMHCLN@CM_Get_ChildA?$AA@ 1005fa60     libusb-1.0:windows_winusb.obj
 0002:00008a70       ??_C@_0O@IAJEMHGK@CM_Get_ChildW?$AA@ 1005fa70     libusb-1.0:windows_winusb.obj
 0002:00008a80       ??_C@_0P@OOIACNHP@CM_Get_Sibling?$AA@ 1005fa80     libusb-1.0:windows_winusb.obj
 0002:00008a90       ??_C@_0BA@CJDGJCME@CM_Get_SiblingA?$AA@ 1005fa90     libusb-1.0:windows_winusb.obj
 0002:00008aa0       ??_C@_0BA@DFKOCHBD@CM_Get_SiblingW?$AA@ 1005faa0     libusb-1.0:windows_winusb.obj
 0002:00008ab0       ??_C@_0BC@JBAJMKLG@CM_Get_Device_IDA?$AA@ 1005fab0     libusb-1.0:windows_winusb.obj
 0002:00008ac4       ??_C@_0BD@MLPBGBDH@CM_Get_Device_IDAA?$AA@ 1005fac4     libusb-1.0:windows_winusb.obj
 0002:00008ad8       ??_C@_0BD@NHGJNEOA@CM_Get_Device_IDAW?$AA@ 1005fad8     libusb-1.0:windows_winusb.obj
 0002:00008aec       ??_C@_08NKFALJEI@AdvAPI32?$AA@ 1005faec     libusb-1.0:windows_winusb.obj
 0002:00008af8       ??_C@_0BB@GLNAEDBD@RegQueryValueExW?$AA@ 1005faf8     libusb-1.0:windows_winusb.obj
 0002:00008b0c       ??_C@_0BC@GNLHOPNJ@RegQueryValueExWA?$AA@ 1005fb0c     libusb-1.0:windows_winusb.obj
 0002:00008b20       ??_C@_0BC@HBCPFKAO@RegQueryValueExWW?$AA@ 1005fb20     libusb-1.0:windows_winusb.obj
 0002:00008b34       ??_C@_0M@HLOHPNFA@RegCloseKey?$AA@ 1005fb34     libusb-1.0:windows_winusb.obj
 0002:00008b40       ??_C@_0N@ICHCMIEN@RegCloseKeyA?$AA@ 1005fb40     libusb-1.0:windows_winusb.obj
 0002:00008b50       ??_C@_0N@JOOKHNJK@RegCloseKeyW?$AA@ 1005fb50     libusb-1.0:windows_winusb.obj
 0002:00008b60       ??_C@_08HPEMMIEC@Kernel32?$AA@ 1005fb60     libusb-1.0:windows_winusb.obj
 0002:00008b6c       ??_C@_0P@LKABJJMO@IsWow64Process?$AA@ 1005fb6c     libusb-1.0:windows_winusb.obj
 0002:00008b7c       ??_C@_0BA@JFAEJAGK@IsWow64ProcessA?$AA@ 1005fb7c     libusb-1.0:windows_winusb.obj
 0002:00008b8c       ??_C@_0BA@IJJMCFLN@IsWow64ProcessW?$AA@ 1005fb8c     libusb-1.0:windows_winusb.obj
 0002:00008b9c       ??_C@_05EKKHPEBK@OLE32?$AA@ 1005fb9c     libusb-1.0:windows_winusb.obj
 0002:00008ba4       ??_C@_0BA@OCNJAMDG@CLSIDFromString?$AA@ 1005fba4     libusb-1.0:windows_winusb.obj
 0002:00008bb4       ??_C@_0BB@CGDKDCNB@CLSIDFromStringA?$AA@ 1005fbb4     libusb-1.0:windows_winusb.obj
 0002:00008bc8       ??_C@_0BB@DKKCIHAG@CLSIDFromStringW?$AA@ 1005fbc8     libusb-1.0:windows_winusb.obj
 0002:00008bdc       ??_C@_08BOJHFFBM@SetupAPI?$AA@ 1005fbdc     libusb-1.0:windows_winusb.obj
 0002:00008be8       ??_C@_0BF@HMKFIDPO@SetupDiGetClassDevsA?$AA@ 1005fbe8     libusb-1.0:windows_winusb.obj
 0002:00008c00       ??_C@_0BG@LDBLAENM@SetupDiGetClassDevsAA?$AA@ 1005fc00     libusb-1.0:windows_winusb.obj
 0002:00008c18       ??_C@_0BG@KPIDLBAL@SetupDiGetClassDevsAW?$AA@ 1005fc18     libusb-1.0:windows_winusb.obj
 0002:00008c30       ??_C@_0BG@FHHGAHMJ@SetupDiEnumDeviceInfo?$AA@ 1005fc30     libusb-1.0:windows_winusb.obj
 0002:00008c48       ??_C@_0BH@LINHCFH@SetupDiEnumDeviceInfoA?$AA@ 1005fc48     libusb-1.0:windows_winusb.obj
 0002:00008c60       ??_C@_0BH@BHBFMHIA@SetupDiEnumDeviceInfoW?$AA@ 1005fc60     libusb-1.0:windows_winusb.obj
 0002:00008c78       ??_C@_0BM@NCADCKIN@SetupDiEnumDeviceInterfaces?$AA@ 1005fc78     libusb-1.0:windows_winusb.obj
 0002:00008c94       ??_C@_0BN@HKLJICPD@SetupDiEnumDeviceInterfacesA?$AA@ 1005fc94     libusb-1.0:windows_winusb.obj
 0002:00008cb4       ??_C@_0BN@GGCBDHCE@SetupDiEnumDeviceInterfacesW?$AA@ 1005fcb4     libusb-1.0:windows_winusb.obj
 0002:00008cd4       ??_C@_0CB@JJMLJEMI@SetupDiGetDeviceInterfaceDetailA@ 1005fcd4     libusb-1.0:windows_winusb.obj
 0002:00008cf8       ??_C@_0CC@HMEEPPFC@SetupDiGetDeviceInterfaceDetailA@ 1005fcf8     libusb-1.0:windows_winusb.obj
 0002:00008d1c       ??_C@_0CC@GANMEKIF@SetupDiGetDeviceInterfaceDetailA@ 1005fd1c     libusb-1.0:windows_winusb.obj
 0002:00008d40       ??_C@_0BN@PLKAPGAL@SetupDiDestroyDeviceInfoList?$AA@ 1005fd40     libusb-1.0:windows_winusb.obj
 0002:00008d60       ??_C@_0BO@HOELAHDK@SetupDiDestroyDeviceInfoListA?$AA@ 1005fd60     libusb-1.0:windows_winusb.obj
 0002:00008d80       ??_C@_0BO@GCNDLCON@SetupDiDestroyDeviceInfoListW?$AA@ 1005fd80     libusb-1.0:windows_winusb.obj
 0002:00008da0       ??_C@_0BF@KHGIADJA@SetupDiOpenDevRegKey?$AA@ 1005fda0     libusb-1.0:windows_winusb.obj
 0002:00008db8       ??_C@_0BG@BJMKIFAD@SetupDiOpenDevRegKeyA?$AA@ 1005fdb8     libusb-1.0:windows_winusb.obj
 0002:00008dd0       ??_C@_0BG@FFCDANE@SetupDiOpenDevRegKeyW?$AA@ 1005fdd0     libusb-1.0:windows_winusb.obj
 0002:00008de8       ??_C@_0CC@GLCBFBDA@SetupDiGetDeviceRegistryProperty@ 1005fde8     libusb-1.0:windows_winusb.obj
 0002:00008e0c       ??_C@_0CD@MPNAGPLJ@SetupDiGetDeviceRegistryProperty@ 1005fe0c     libusb-1.0:windows_winusb.obj
 0002:00008e30       ??_C@_0CD@NDEINKGO@SetupDiGetDeviceRegistryProperty@ 1005fe30     libusb-1.0:windows_winusb.obj
 0002:00008e54       ??_C@_0CB@IHIOMJMF@SetupDiOpenDeviceInterfaceRegKey@ 1005fe54     libusb-1.0:windows_winusb.obj
 0002:00008e78       ??_C@_0CC@COLMGLC@SetupDiOpenDeviceInterfaceRegKey@ 1005fe78     libusb-1.0:windows_winusb.obj
 0002:00008e9c       ??_C@_0CC@BOHDHDGF@SetupDiOpenDeviceInterfaceRegKey@ 1005fe9c     libusb-1.0:windows_winusb.obj
 0002:00008ec0       ??_C@_0DD@EJLPNLBF@Could?5not?5obtain?5device?5info?5dat@ 1005fec0     libusb-1.0:windows_winusb.obj
 0002:00008ef4       ??_C@_0BB@FMCLAHEN@get_devinfo_data?$AA@ 1005fef4     libusb-1.0:windows_winusb.obj
 0002:00008f08       ??_C@_0BG@KKAFDLHO@get_interface_details?$AA@ 1005ff08     libusb-1.0:windows_winusb.obj
 0002:00008f20       ??_C@_0DB@KMCJHCB@Could?5not?5obtain?5interface?5data?5@ 1005ff20     libusb-1.0:windows_winusb.obj
 0002:00008f54       ??_C@_0DJ@PALJCAOK@could?5not?5access?5interface?5data?5@ 1005ff54     libusb-1.0:windows_winusb.obj
 0002:00008f90       ??_C@_0FL@DIMAIBPC@program?5assertion?5failed?5?9?5http?3@ 1005ff90     libusb-1.0:windows_winusb.obj
 0002:00008fec       ??_C@_0DA@JPDEMMCK@could?5not?5allocate?5interface?5dat@ 1005ffec     libusb-1.0:windows_winusb.obj
 0002:0000901c       ??_C@_0DK@KPDIBJAB@could?5not?5access?5interface?5data?5@ 1006001c     libusb-1.0:windows_winusb.obj
 0002:00009058       ??_C@_0BN@JIMNFDBG@get_interface_details_filter?$AA@ 10060058     libusb-1.0:windows_winusb.obj
 0002:00009078       ??_C@_1M@HJLGEOGO@?$AAL?$AAU?$AAs?$AAb?$AA0?$AA?$AA@ 10060078     libusb-1.0:windows_winusb.obj
 0002:00009084       ??_C@_0BB@BHNHNKDC@?2?2?4?2libusb0?9?$CF04u?$AA@ 10060084     libusb-1.0:windows_winusb.obj
 0002:00009098       ??_C@_0CC@IECABNCJ@assigned?5libusb0?5symbolic?5link?5?$CF@ 10060098     libusb-1.0:windows_winusb.obj
 0002:000090bc       ??_C@_0CE@FLPBJDMG@found?5endpoint?5?$CF02X?5on?5interface@ 100600bc     libusb-1.0:windows_winusb.obj
 0002:000090e0       ??_C@_0BK@KCMCAOLH@get_interface_by_endpoint?$AA@ 100600e0     libusb-1.0:windows_winusb.obj
 0002:000090fc       ??_C@_0CJ@GAOMPDP@endpoint?5?$CF02X?5not?5found?5on?5any?5i@ 100600fc     libusb-1.0:windows_winusb.obj
 0002:00009128       ??_C@_0CL@OCAJOBLO@could?5not?5read?5config?5descriptor@ 10060128     libusb-1.0:windows_winusb.obj
 0002:00009154       ??_C@_0BJ@NINOCJKM@windows_assign_endpoints?$AA@ 10060154     libusb-1.0:windows_winusb.obj
 0002:00009170       ??_C@_0CE@MAHJHPBP@no?5endpoints?5found?5for?5interface@ 10060170     libusb-1.0:windows_winusb.obj
 0002:00009194       ??_C@_0CL@DHAKLFFE@?$CIre?$CJassigned?5endpoint?5?$CF02X?5to?5in@ 10060194     libusb-1.0:windows_winusb.obj
 0002:000091c0       ??_C@_06CBHGEMFM@?$DMNULL?$DO?$AA@ 100601c0     libusb-1.0:windows_winusb.obj
 0002:000091c8       ??_C@_0CO@NKOKOACK@auto?9claimed?5interface?5?$CFd?5for?5co@ 100601c8     libusb-1.0:windows_winusb.obj
 0002:000091f8       ??_C@_0L@KCDGGCDM@auto_claim?$AA@ 100601f8     libusb-1.0:windows_winusb.obj
 0002:00009204       ??_C@_0DH@LELFNJCP@program?5assertion?5failed?5?9?5autoc@ 10060204     libusb-1.0:windows_winusb.obj
 0002:0000923c       ??_C@_0CD@MGJDIKLC@could?5not?5auto?9claim?5any?5interfa@ 1006023c     libusb-1.0:windows_winusb.obj
 0002:00009260       ??_C@_0BL@NMCECEOM@auto?9released?5interface?5?$CFd?$AA@ 10060260     libusb-1.0:windows_winusb.obj
 0002:0000927c       ??_C@_0N@IIEDKHFH@auto_release?$AA@ 1006027c     libusb-1.0:windows_winusb.obj
 0002:0000928c       ??_C@_0CJ@HDEJEPCF@failed?5to?5auto?9release?5interface@ 1006028c     libusb-1.0:windows_winusb.obj
 0002:000092b8       ??_C@_06OOBBGFDJ@32?5bit?$AA@ 100602b8     libusb-1.0:windows_winusb.obj
 0002:000092c0       ??_C@_04OJDKMIMG@2000?$AA@ 100602c0     libusb-1.0:windows_winusb.obj
 0002:000092c8       ??_C@_02NIKKAELB@XP?$AA@   100602c8     libusb-1.0:windows_winusb.obj
 0002:000092cc       ??_C@_04MCBHJLAF@2003?$AA@ 100602cc     libusb-1.0:windows_winusb.obj
 0002:000092d4       ??_C@_05FGFMDFJC@Vista?$AA@ 100602d4     libusb-1.0:windows_winusb.obj
 0002:000092dc       ??_C@_04CBODECMO@2008?$AA@ 100602dc     libusb-1.0:windows_winusb.obj
 0002:000092e4       ??_C@_01COCBENDE@7?$AA@    100602e4     libusb-1.0:windows_winusb.obj
 0002:000092e8       ??_C@_07HBFLJEHF@2008_R2?$AA@ 100602e8     libusb-1.0:windows_winusb.obj
 0002:000092f0       ??_C@_01KJLJFBPL@8?$AA@    100602f0     libusb-1.0:windows_winusb.obj
 0002:000092f4       ??_C@_04NKMOMAHD@2012?$AA@ 100602f4     libusb-1.0:windows_winusb.obj
 0002:000092fc       ??_C@_03BPKKJMPF@8?41?$AA@ 100602fc     libusb-1.0:windows_winusb.obj
 0002:00009300       ??_C@_07PALHFPHB@2012_R2?$AA@ 10060300     libusb-1.0:windows_winusb.obj
 0002:00009308       ??_C@_04JFIPFGLE@2015?$AA@ 10060308     libusb-1.0:windows_winusb.obj
 0002:00009310       ??_C@_0M@GDCBIBFL@11?5or?5later?$AA@ 10060310     libusb-1.0:windows_winusb.obj
 0002:0000931c       ??_C@_06JCOAGNDC@64?9bit?$AA@ 1006031c     libusb-1.0:windows_winusb.obj
 0002:00009324       ??_C@_02HHFHKOHM@?$DP?$DP?$AA@ 10060324     libusb-1.0:windows_winusb.obj
 0002:00009328       ??_C@_0M@GDIEECLJ@?$CFs?5?$CFu?4?$CFu?5?$CFs?$AA@ 10060328     libusb-1.0:windows_winusb.obj
 0002:00009334       ??_C@_0O@GPGFIGLB@?$CFs?5SP?$CFu?4?$CFu?5?$CFs?$AA@ 10060334     libusb-1.0:windows_winusb.obj
 0002:00009344       ??_C@_0L@PILFDGBG@?$CFs?5SP?$CFu?5?$CFs?$AA@ 10060344     libusb-1.0:windows_winusb.obj
 0002:00009350       ??_C@_0BA@HKFMGFHE@libusb_init?$CF08X?$AA@ 10060350     libusb-1.0:windows_winusb.obj
 0002:00009360       ??_C@_0BP@MGLDCAPO@could?5not?5create?5semaphore?3?5?$CFs?$AA@ 10060360     libusb-1.0:windows_winusb.obj
 0002:00009380       ??_C@_0N@BOMAPDDF@windows_init?$AA@ 10060380     libusb-1.0:windows_winusb.obj
 0002:00009390       ??_C@_0CA@IPBDNDEI@failure?5to?5access?5semaphore?3?5?$CFs?$AA@ 10060390     libusb-1.0:windows_winusb.obj
 0002:000093b0       ??_C@_0CJ@PAMBHEBA@This?5version?5of?5Windows?5is?5NOT?5s@ 100603b0     libusb-1.0:windows_winusb.obj
 0002:000093dc       ??_C@_0CA@KLMJHFKH@could?5not?5resolve?5DLL?5functions?$AA@ 100603dc     libusb-1.0:windows_winusb.obj
 0002:000093fc       ??_C@_0DB@MDCEDFBF@program?5assertion?5failed?5?9?5HCD?5h@ 100603fc     libusb-1.0:windows_winusb.obj
 0002:00009430       ??_C@_0BM@BBILLAIB@force_hcd_device_descriptor?$AA@ 10060430     libusb-1.0:windows_winusb.obj
 0002:0000944c       ??_C@_0BN@MOCOHALB@?2?2?4?2PCI?$CDVEN_?$CF04x?$CGDEV_?$CF04x?$CF?$CKs?$AA@ 1006044c     libusb-1.0:windows_winusb.obj
 0002:0000946c       ??_C@_0CN@OKPKFFL@could?5not?5infer?5VID?1PID?5of?5HCD?5h@ 1006046c     libusb-1.0:windows_winusb.obj
 0002:0000949c       ??_C@_0DP@MEOALHBB@could?5not?5access?5configuration?5d@ 1006049c     libusb-1.0:windows_winusb.obj
 0002:000094dc       ??_C@_0BJ@HLJFDJKK@cache_config_descriptors?$AA@ 100604dc     libusb-1.0:windows_winusb.obj
 0002:000094f8       ??_C@_0DL@OANDBNCO@unexpected?5configuration?5descrip@ 100604f8     libusb-1.0:windows_winusb.obj
 0002:00009534       ??_C@_0DN@BEFNPDMP@could?5not?5allocate?5configuration@ 10060534     libusb-1.0:windows_winusb.obj
 0002:00009578       ??_C@_0EA@GOMCODBC@could?5not?5access?5configuration?5d@ 10060578     libusb-1.0:windows_winusb.obj
 0002:000095b8       ??_C@_0DM@KHBPGOPI@unexpected?5configuration?5descrip@ 100605b8     libusb-1.0:windows_winusb.obj
 0002:000095f4       ??_C@_0CI@BMNMCMHC@not?5a?5configuration?5descriptor?5f@ 100605f4     libusb-1.0:windows_winusb.obj
 0002:0000961c       ??_C@_0DP@IJHNDFMP@cached?5config?5descriptor?5?$CFd?5?$CIbCo@ 1006061c     libusb-1.0:windows_winusb.obj
 0002:0000965c       ??_C@_0CE@BKOGIHKE@parent?5for?5device?5?8?$CFs?8?5is?5not?5a?5@ 1006065c     libusb-1.0:windows_winusb.obj
 0002:00009680       ??_C@_0M@HKKPDPFM@init_device?$AA@ 10060680     libusb-1.0:windows_winusb.obj
 0002:0000968c       ??_C@_0CB@EDONMADB@got?5bus?5number?5from?5ancestor?5?$CD?$CFu@ 1006068c     libusb-1.0:windows_winusb.obj
 0002:000096b0       ??_C@_0EG@HMOLCNPJ@program?5assertion?5failed?3?5unable@ 100606b0     libusb-1.0:windows_winusb.obj
 0002:000096f8       ??_C@_0BK@HGJCJBAP@could?5not?5open?5hub?5?$CFs?3?5?$CFs?$AA@ 100606f8     libusb-1.0:windows_winusb.obj
 0002:00009714       ??_C@_0DO@HBGLCLEH@could?5not?5get?5node?5connection?5in@ 10060714     libusb-1.0:windows_winusb.obj
 0002:00009754       ??_C@_0CE@POMMIHCP@device?5?8?$CFs?8?5is?5no?5longer?5connect@ 10060754     libusb-1.0:windows_winusb.obj
 0002:00009778       ??_C@_0CK@ELHJNBMD@found?5?$CFu?5configurations?5?$CIactive?5@ 10060778     libusb-1.0:windows_winusb.obj
 0002:000097a8       ??_C@_0ED@EEPPGHMI@could?5not?5get?5node?5connection?5in@ 100607a8     libusb-1.0:windows_winusb.obj
 0002:000097ec       ??_C@_0DC@KGGFOFJI@program?5assertion?5failed?3?5device@ 100607ec     libusb-1.0:windows_winusb.obj
 0002:00009820       ??_C@_0EB@BLEPIIGO@program?5assertion?5failed?3?5device@ 10060820     libusb-1.0:windows_winusb.obj
 0002:00009864       ??_C@_0BM@HHKIMMMA@Got?5unknown?5device?5speed?5?$CFu?$AA@ 10060864     libusb-1.0:windows_winusb.obj
 0002:00009880       ??_C@_0CP@NGGGGCOC@?$CIbus?3?5?$CFu?0?5addr?3?5?$CFu?0?5depth?3?5?$CFu?0?5p@ 10060880     libusb-1.0:windows_winusb.obj
 0002:000098b0       ??_C@_02LOCGON@?$AA?$AA?$AA@ 100608b0     libusb-1.0:windows_winusb.obj
 0002:000098b4       ??_C@_06NCODBMHO@driver?$AA@ 100608b4     libusb-1.0:windows_winusb.obj
 0002:000098bc       ??_C@_0BE@MMMLKHFC@upper?5filter?5driver?$AA@ 100608bc     libusb-1.0:windows_winusb.obj
 0002:000098d0       ??_C@_0BE@GFECEGCD@lower?5filter?5driver?$AA@ 100608d0     libusb-1.0:windows_winusb.obj
 0002:000098e4       ??_C@_09NKKIOGIB@?$CFs?$CIs?$CJ?3?5?$CFs?$AA@ 100608e4     libusb-1.0:windows_winusb.obj
 0002:000098f0       ??_C@_0N@GHLOGLBP@get_api_type?$AA@ 100608f0     libusb-1.0:windows_winusb.obj
 0002:00009900       ??_C@_0BI@EGHABKMI@could?5not?5access?5?$CFs?3?5?$CFs?$AA@ 10060900     libusb-1.0:windows_winusb.obj
 0002:00009918       ??_C@_0BL@PGFEOBDM@matched?5?$CFs?5name?5against?5?$CFs?$AA@ 10060918     libusb-1.0:windows_winusb.obj
 0002:00009934       ??_C@_0DA@KKILKGIL@program?5assertion?5failed?3?5?8?$CFs?8?5i@ 10060934     libusb-1.0:windows_winusb.obj
 0002:00009964       ??_C@_0BI@MJJJKKOG@set_composite_interface?$AA@ 10060964     libusb-1.0:windows_winusb.obj
 0002:00009980       ??_C@_0EA@OPONOKFL@failure?5to?5read?5interface?5number@ 10060980     libusb-1.0:windows_winusb.obj
 0002:000099c0       ??_C@_0DI@LKOKMMDM@interface?$FL?$CFd?$FN?5already?5set?5?9?5igno@ 100609c0     libusb-1.0:windows_winusb.obj
 0002:000099f8       ??_C@_0BD@BGBPJOBK@interface?$FL?$CFd?$FN?5?$DN?5?$CFs?$AA@ 100609f8     libusb-1.0:windows_winusb.obj
 0002:00009a0c       ??_C@_0CM@NLFCFLJL@program?5assertion?5failed?3?5parent@ 10060a0c     libusb-1.0:windows_winusb.obj
 0002:00009a38       ??_C@_0BC@NCCJPIGJ@set_hid_interface?$AA@ 10060a38     libusb-1.0:windows_winusb.obj
 0002:00009a50       ??_C@_0EE@DPAKBKFE@program?5assertion?5failed?3?5max?5US@ 10060a50     libusb-1.0:windows_winusb.obj
 0002:00009a94       ??_C@_0CA@BCAEGLMP@interface?$FL?$CFd?$FN?5already?5set?5to?5?$CFs?$AA@ 10060a94     libusb-1.0:windows_winusb.obj
 0002:00009ab4       ??_C@_0BD@KGAOKPKP@interface?$FL?$CFu?$FN?5?$DN?5?$CFs?$AA@ 10060ab4     libusb-1.0:windows_winusb.obj
 0002:00009ac8       ??_C@_03IONNGCBN@USB?$AA@  10060ac8     libusb-1.0:windows_winusb.obj
 0002:00009acc       ??_C@_05NFFBOJCJ@NUSB3?$AA@ 10060acc     libusb-1.0:windows_winusb.obj
 0002:00009ad4       ??_C@_05MIFENJJB@IUSB3?$AA@ 10060ad4     libusb-1.0:windows_winusb.obj
 0002:00009adc       ??_C@_07KBALPCAI@IARUSB3?$AA@ 10060adc     libusb-1.0:windows_winusb.obj
 0002:00009ae8       ??_C@_0EI@LIKOOHE@program?5assertion?5failed?5?9?5found@ 10060ae8     libusb-1.0:windows_winusb.obj
 0002:00009b30       ??_C@_0BI@HEEDIBIK@windows_get_device_list?$AA@ 10060b30     libusb-1.0:windows_winusb.obj
 0002:00009b48       ??_C@_0DC@KAJDEJFK@could?5not?5sanitize?5device?5interf@ 10060b48     libusb-1.0:windows_winusb.obj
 0002:00009b7c       ??_C@_0DL@EEOBPENL@could?5not?5read?5the?5device?5id?5pat@ 10060b7c     libusb-1.0:windows_winusb.obj
 0002:00009bb8       ??_C@_0DL@MINJKIPB@could?5not?5sanitize?5device?5id?5pat@ 10060bb8     libusb-1.0:windows_winusb.obj
 0002:00009bf4       ??_C@_0DN@EOEAIFEO@could?5not?5retrieve?5port?5number?5f@ 10060bf4     libusb-1.0:windows_winusb.obj
 0002:00009c34       ??_C@_0CJ@JBJEMCHE@The?5following?5device?5has?5no?5driv@ 10060c34     libusb-1.0:windows_winusb.obj
 0002:00009c60       ??_C@_0CG@OKAFNCAA@libusb?5will?5not?5be?5able?5to?5acces@ 10060c60     libusb-1.0:windows_winusb.obj
 0002:00009c88       ??_C@_1CK@JOLAJLE@?$AAD?$AAe?$AAv?$AAi?$AAc?$AAe?$AAI?$AAn?$AAt?$AAe?$AAr?$AAf?$AAa?$AAc?$AAe?$AAG?$AAU?$AAI?$AAD?$AAs?$AA?$AA@ 10060c88     libusb-1.0:windows_winusb.obj
 0002:00009cb4       ??_C@_0CJ@INOBGEDE@program?5assertion?5failed?3?5too?5ma@ 10060cb4     libusb-1.0:windows_winusb.obj
 0002:00009ce0       ??_C@_0DA@LDNHJHHC@could?5not?5calloc?5for?5if_guid?3?5no@ 10060ce0     libusb-1.0:windows_winusb.obj
 0002:00009d10       ??_C@_0P@HPMAKDMJ@extra?5GUID?3?5?$CFs?$AA@ 10060d10     libusb-1.0:windows_winusb.obj
 0002:00009d20       ??_C@_0DL@NEICJCJG@could?5not?5detect?5installation?5st@ 10060d20     libusb-1.0:windows_winusb.obj
 0002:00009d60       ??_C@_0ED@KJFMILHF@driver?5for?5device?5?8?$CFs?8?5is?5report@ 10060d60     libusb-1.0:windows_winusb.obj
 0002:00009da8       ??_C@_0EL@IPCPMOMA@unlisted?5ancestor?5for?5?8?$CFs?8?5?$CInon?5@ 10060da8     libusb-1.0:windows_winusb.obj
 0002:00009df8       ??_C@_0EJ@NONFELNI@?8?$CFs?8?5was?5only?5detected?5in?5late?5p@ 10060df8     libusb-1.0:windows_winusb.obj
 0002:00009e44       ??_C@_0CI@LJCOPJNH@allocating?5new?5device?5for?5sessio@ 10060e44     libusb-1.0:windows_winusb.obj
 0002:00009e6c       ??_C@_0DA@EMMHOBA@found?5existing?5device?5for?5sessio@ 10060e6c     libusb-1.0:windows_winusb.obj
 0002:00009e9c       ??_C@_0DP@KKBFFHJP@program?5assertion?5failed?5?9?5exist@ 10060e9c     libusb-1.0:windows_winusb.obj
 0002:00009edc       ??_C@_0CN@OADDDHBK@could?5not?5realloc?5list?5for?5unref@ 10060edc     libusb-1.0:windows_winusb.obj
 0002:00009f0c       ??_C@_0CI@MDGEMIME@could?5not?5duplicate?5interface?5pa@ 10060f0c     libusb-1.0:windows_winusb.obj
 0002:00009f34       ??_C@_0CB@LLDHJCJB@setting?5HID?5interface?5for?5?$FL?$CFlX?$FN?3@ 10060f34     libusb-1.0:windows_winusb.obj
 0002:00009f58       ??_C@_0CH@CKLBFNKD@setting?5composite?5interface?5for?5@ 10060f58     libusb-1.0:windows_winusb.obj
 0002:00009f80       ??_C@_0DF@KGBLDDL@program?5assertion?5failed?5?9?5devic@ 10060f80     libusb-1.0:windows_winusb.obj
 0002:00009fb8       ??_C@_0N@JIHBCFIG@windows_open?$AA@ 10060fb8     libusb-1.0:windows_winusb.obj
 0002:00009fc8       ??_C@_0BJ@DBCGFFPA@unknown?5endpoint?5type?5?$CFd?$AA@ 10060fc8     libusb-1.0:windows_winusb.obj
 0002:00009fe4       ??_C@_0BI@JLCIHNFE@windows_submit_transfer?$AA@ 10060fe4     libusb-1.0:windows_winusb.obj
 0002:00009ffc       ??_C@_0BI@HCDNEMHE@windows_cancel_transfer?$AA@ 10060ffc     libusb-1.0:windows_winusb.obj
 0002:0000a014       ??_C@_07LDLFNPGN@Windows?$AA@ 10061014     libusb-1.0:windows_winusb.obj
 0002:0000a01c       ??_C@_0DN@FCHBAJOL@unsupported?5API?5call?5for?5?8open?8?5@ 1006101c     libusb-1.0:windows_winusb.obj
 0002:0000a05c       ??_C@_0BB@BLFABBHH@unsupported_open?$AA@ 1006105c     libusb-1.0:windows_winusb.obj
 0002:0000a070       ??_C@_0CB@LGEGDAPP@unsupported?5API?5call?5for?5?8close?8@ 10061070     libusb-1.0:windows_winusb.obj
 0002:0000a094       ??_C@_0BC@HPGBEBND@unsupported_close?$AA@ 10061094     libusb-1.0:windows_winusb.obj
 0002:0000a0a8       ??_C@_0EM@BGDHDGMA@unsupported?5API?5call?5for?5?8config@ 100610a8     libusb-1.0:windows_winusb.obj
 0002:0000a0f4       ??_C@_0CA@KCCPBMBP@unsupported_configure_endpoints?$AA@ 100610f4     libusb-1.0:windows_winusb.obj
 0002:0000a118       ??_C@_0EI@FOOIFCBF@unsupported?5API?5call?5for?5?8claim_@ 10061118     libusb-1.0:windows_winusb.obj
 0002:0000a160       ??_C@_0BM@BKPJDEPH@unsupported_claim_interface?$AA@ 10061160     libusb-1.0:windows_winusb.obj
 0002:0000a180       ??_C@_0FB@CLDIDJEE@unsupported?5API?5call?5for?5?8set_in@ 10061180     libusb-1.0:windows_winusb.obj
 0002:0000a1d4       ??_C@_0CF@CHKGFDGI@unsupported_set_interface_altset@ 100611d4     libusb-1.0:windows_winusb.obj
 0002:0000a200       ??_C@_0EK@JMLFCCI@unsupported?5API?5call?5for?5?8releas@ 10061200     libusb-1.0:windows_winusb.obj
 0002:0000a24c       ??_C@_0BO@EODHKDMH@unsupported_release_interface?$AA@ 1006124c     libusb-1.0:windows_winusb.obj
 0002:0000a270       ??_C@_0ED@MBKJCELE@unsupported?5API?5call?5for?5?8clear_@ 10061270     libusb-1.0:windows_winusb.obj
 0002:0000a2b4       ??_C@_0BH@NIBIHIAJ@unsupported_clear_halt?$AA@ 100612b4     libusb-1.0:windows_winusb.obj
 0002:0000a2d0       ??_C@_0EF@NEMBLMIN@unsupported?5API?5call?5for?5?8reset_@ 100612d0     libusb-1.0:windows_winusb.obj
 0002:0000a318       ??_C@_0BJ@MBJPMKHB@unsupported_reset_device?$AA@ 10061318     libusb-1.0:windows_winusb.obj
 0002:0000a338       ??_C@_0EN@MNPKEGCB@unsupported?5API?5call?5for?5?8submit@ 10061338     libusb-1.0:windows_winusb.obj
 0002:0000a388       ??_C@_0CB@OMPOCLMJ@unsupported_submit_bulk_transfer@ 10061388     libusb-1.0:windows_winusb.obj
 0002:0000a3b0       ??_C@_0EM@JCFOJPKJ@unsupported?5API?5call?5for?5?8submit@ 100613b0     libusb-1.0:windows_winusb.obj
 0002:0000a3fc       ??_C@_0CA@EKAFEOPP@unsupported_submit_iso_transfer?$AA@ 100613fc     libusb-1.0:windows_winusb.obj
 0002:0000a420       ??_C@_0FA@PCFHOMBD@unsupported?5API?5call?5for?5?8submit@ 10061420     libusb-1.0:windows_winusb.obj
 0002:0000a470       ??_C@_0CE@JGOHFDHI@unsupported_submit_control_trans@ 10061470     libusb-1.0:windows_winusb.obj
 0002:0000a498       ??_C@_0EG@JEJBEADM@unsupported?5API?5call?5for?5?8abort_@ 10061498     libusb-1.0:windows_winusb.obj
 0002:0000a4e0       ??_C@_0BK@DLIGKEKP@unsupported_abort_control?$AA@ 100614e0     libusb-1.0:windows_winusb.obj
 0002:0000a500       ??_C@_0EI@FKAMAAFF@unsupported?5API?5call?5for?5?8abort_@ 10061500     libusb-1.0:windows_winusb.obj
 0002:0000a548       ??_C@_0BM@JCHEHKJP@unsupported_abort_transfers?$AA@ 10061548     libusb-1.0:windows_winusb.obj
 0002:0000a568       ??_C@_0EL@LFEMLDFB@unsupported?5API?5call?5for?5?8copy_t@ 10061568     libusb-1.0:windows_winusb.obj
 0002:0000a5b4       ??_C@_0BP@DJJBKDPI@unsupported_copy_transfer_data?$AA@ 100615b4     libusb-1.0:windows_winusb.obj
 0002:0000a5d4       ??_C@_06ENMPCGOP@USBHUB?$AA@ 100615d4     libusb-1.0:windows_winusb.obj
 0002:0000a5dc       ??_C@_07MEJDFFPP@USBHUB3?$AA@ 100615dc     libusb-1.0:windows_winusb.obj
 0002:0000a5e4       ??_C@_07MHKPPGCB@USB3HUB?$AA@ 100615e4     libusb-1.0:windows_winusb.obj
 0002:0000a5ec       ??_C@_08FCNEOFHD@NUSB3HUB?$AA@ 100615ec     libusb-1.0:windows_winusb.obj
 0002:0000a5f8       ??_C@_08BICAFEBG@RUSB3HUB?$AA@ 100615f8     libusb-1.0:windows_winusb.obj
 0002:0000a604       ??_C@_07LAJAOJHC@FLXHCIH?$AA@ 10061604     libusb-1.0:windows_winusb.obj
 0002:0000a60c       ??_C@_06IOHLGGAH@TIHUB3?$AA@ 1006160c     libusb-1.0:windows_winusb.obj
 0002:0000a614       ??_C@_09MIGPABKG@ETRONHUB3?$AA@ 10061614     libusb-1.0:windows_winusb.obj
 0002:0000a620       ??_C@_07PCGODDC@VIAHUB3?$AA@ 10061620     libusb-1.0:windows_winusb.obj
 0002:0000a628       ??_C@_08KKFAIGOO@ASMTHUB3?$AA@ 10061628     libusb-1.0:windows_winusb.obj
 0002:0000a634       ??_C@_08DGLFIILK@IUSB3HUB?$AA@ 10061634     libusb-1.0:windows_winusb.obj
 0002:0000a640       ??_C@_08EFMMAFBK@VUSB3HUB?$AA@ 10061640     libusb-1.0:windows_winusb.obj
 0002:0000a64c       ??_C@_08JENEPHF@AMDHUB30?$AA@ 1006164c     libusb-1.0:windows_winusb.obj
 0002:0000a658       ??_C@_05KPBBHDA@VHHUB?$AA@ 10061658     libusb-1.0:windows_winusb.obj
 0002:0000a660       ??_C@_08INGNCKKC@AUSB3HUB?$AA@ 10061660     libusb-1.0:windows_winusb.obj
 0002:0000a66c       ??_C@_07IOCKJGCC@USBCCGP?$AA@ 1006166c     libusb-1.0:windows_winusb.obj
 0002:0000a674       ??_C@_06MADFPMEM@HIDUSB?$AA@ 10061674     libusb-1.0:windows_winusb.obj
 0002:0000a67c       ??_C@_06PMEMIAKG@MOUHID?$AA@ 1006167c     libusb-1.0:windows_winusb.obj
 0002:0000a684       ??_C@_06HOICBIHA@KBDHID?$AA@ 10061684     libusb-1.0:windows_winusb.obj
 0002:0000a68c       ??_C@_0BA@NGJCLJCK@Unsupported?5API?$AA@ 1006168c     libusb-1.0:windows_winusb.obj
 0002:0000a69c       ??_C@_07PMLGFOBJ@HUB?5API?$AA@ 1006169c     libusb-1.0:windows_winusb.obj
 0002:0000a6a4       ??_C@_0O@LLNGNPGA@Composite?5API?$AA@ 100616a4     libusb-1.0:windows_winusb.obj
 0002:0000a6b4       ??_C@_0BB@CMCFKOAG@WinUSB?9like?5APIs?$AA@ 100616b4     libusb-1.0:windows_winusb.obj
 0002:0000a6c8       ??_C@_07IKJBELLO@HID?5API?$AA@ 100616c8     libusb-1.0:windows_winusb.obj
 0002:0000a6d0       ??_C@_0DF@EDAGHBOP@libusbK?5DLL?5is?5not?5available?0?5wi@ 100616d0     libusb-1.0:windows_winusb.obj
 0002:0000a708       ??_C@_0N@KKAEMDDD@winusbx_init?$AA@ 10061708     libusb-1.0:windows_winusb.obj
 0002:0000a718       ??_C@_0GC@HMPMPAIG@WinUSB?5DLL?5is?5not?5available?5eith@ 10061718     libusb-1.0:windows_winusb.obj
 0002:0000a77c       ??_C@_0CH@NNCGJCOB@using?5libusbK?5DLL?5for?5universal?5@ 1006177c     libusb-1.0:windows_winusb.obj
 0002:0000a7a4       ??_C@_0BA@PODKOPAP@LibK_GetVersion?$AA@ 100617a4     libusb-1.0:windows_winusb.obj
 0002:0000a7b4       ??_C@_0BN@MKHCKCLD@libusbK?5version?3?5?$CFd?4?$CFd?4?$CFd?4?$CFd?$AA@ 100617b4     libusb-1.0:windows_winusb.obj
 0002:0000a7d4       ??_C@_0BE@MHFBPMPF@LibK_GetProcAddress?$AA@ 100617d4     libusb-1.0:windows_winusb.obj
 0002:0000a7e8       ??_C@_0CP@DHKCNFPP@LibK_GetProcAddress?$CI?$CJ?5not?5found?5@ 100617e8     libusb-1.0:windows_winusb.obj
 0002:0000a818       ??_C@_0BB@EPHPEHAO@WinUsb_AbortPipe?$AA@ 10061818     libusb-1.0:windows_winusb.obj
 0002:0000a82c       ??_C@_0BH@CJPHMFDN@WinUsb_ControlTransfer?$AA@ 1006182c     libusb-1.0:windows_winusb.obj
 0002:0000a844       ??_C@_0BB@FKHJGDFC@WinUsb_FlushPipe?$AA@ 10061844     libusb-1.0:windows_winusb.obj
 0002:0000a858       ??_C@_0M@JDIGDABO@WinUsb_Free?$AA@ 10061858     libusb-1.0:windows_winusb.obj
 0002:0000a864       ??_C@_0BO@BJMOOJKI@WinUsb_GetAssociatedInterface?$AA@ 10061864     libusb-1.0:windows_winusb.obj
 0002:0000a884       ??_C@_0CC@GKGBKKLF@WinUsb_GetCurrentAlternateSettin@ 10061884     libusb-1.0:windows_winusb.obj
 0002:0000a8a8       ??_C@_0BF@KCKKIJEK@WinUsb_GetDescriptor?$AA@ 100618a8     libusb-1.0:windows_winusb.obj
 0002:0000a8c0       ??_C@_0BL@GHNNGPPL@WinUsb_GetOverlappedResult?$AA@ 100618c0     libusb-1.0:windows_winusb.obj
 0002:0000a8dc       ??_C@_0BF@DKKNPFAJ@WinUsb_GetPipePolicy?$AA@ 100618dc     libusb-1.0:windows_winusb.obj
 0002:0000a8f4       ??_C@_0BG@FIHCINFI@WinUsb_GetPowerPolicy?$AA@ 100618f4     libusb-1.0:windows_winusb.obj
 0002:0000a90c       ??_C@_0BC@NBFDOGEK@WinUsb_Initialize?$AA@ 1006190c     libusb-1.0:windows_winusb.obj
 0002:0000a920       ??_C@_0BO@HFOHLMG@WinUsb_QueryDeviceInformation?$AA@ 10061920     libusb-1.0:windows_winusb.obj
 0002:0000a940       ??_C@_0BO@BADNNBIJ@WinUsb_QueryInterfaceSettings?$AA@ 10061940     libusb-1.0:windows_winusb.obj
 0002:0000a960       ??_C@_0BB@INCOOGEI@WinUsb_QueryPipe?$AA@ 10061960     libusb-1.0:windows_winusb.obj
 0002:0000a974       ??_C@_0BA@BKHFGEAG@WinUsb_ReadPipe?$AA@ 10061974     libusb-1.0:windows_winusb.obj
 0002:0000a984       ??_C@_0BB@GOOKJGAI@WinUsb_ResetPipe?$AA@ 10061984     libusb-1.0:windows_winusb.obj
 0002:0000a998       ??_C@_0CC@FFFEGKKF@WinUsb_SetCurrentAlternateSettin@ 10061998     libusb-1.0:windows_winusb.obj
 0002:0000a9bc       ??_C@_0BF@EFLDEGHO@WinUsb_SetPipePolicy?$AA@ 100619bc     libusb-1.0:windows_winusb.obj
 0002:0000a9d4       ??_C@_0BG@JGGMHHHE@WinUsb_SetPowerPolicy?$AA@ 100619d4     libusb-1.0:windows_winusb.obj
 0002:0000a9ec       ??_C@_0BB@KEDKBJFD@WinUsb_WritePipe?$AA@ 100619ec     libusb-1.0:windows_winusb.obj
 0002:0000aa00       ??_C@_0BG@CFGIHLFO@initalized?5sub?5API?5?$CFs?$AA@ 10061a00     libusb-1.0:windows_winusb.obj
 0002:0000aa18       ??_C@_0BP@JIMPCDIE@Failed?5to?5initalize?5sub?5API?5?$CFs?$AA@ 10061a18     libusb-1.0:windows_winusb.obj
 0002:0000aa38       ??_C@_0CM@GIOFLGPM@could?5not?5open?5device?5?$CFs?5?$CIinterf@ 10061a38     libusb-1.0:windows_winusb.obj
 0002:0000aa64       ??_C@_0N@CMLFBFIA@winusbx_open?$AA@ 10061a64     libusb-1.0:windows_winusb.obj
 0002:0000aa74       ??_C@_0DO@MHONCMEE@failed?5to?5set?5PIPE_TRANSFER_TIME@ 10061a74     libusb-1.0:windows_winusb.obj
 0002:0000aab4       ??_C@_0BM@LLFOCFNI@winusbx_configure_endpoints?$AA@ 10061ab4     libusb-1.0:windows_winusb.obj
 0002:0000aad0       ??_C@_0DL@LBMIDJMC@failed?5to?5disable?5SHORT_PACKET_T@ 10061ad0     libusb-1.0:windows_winusb.obj
 0002:0000ab0c       ??_C@_0DJ@JKGGAFEC@failed?5to?5disable?5IGNORE_SHORT_P@ 10061b0c     libusb-1.0:windows_winusb.obj
 0002:0000ab48       ??_C@_0DH@PALGOJMJ@failed?5to?5enable?5ALLOW_PARTIAL_R@ 10061b48     libusb-1.0:windows_winusb.obj
 0002:0000ab80       ??_C@_0DE@NAJMCPPF@failed?5to?5enable?5AUTO_CLEAR_STAL@ 10061b80     libusb-1.0:windows_winusb.obj
 0002:0000abb4       ??_C@_0BB@DFNANBFM@?2?2?4?2libusb0?90000?$AA@ 10061bb4     libusb-1.0:windows_winusb.obj
 0002:0000abc8       ??_C@_0CC@MHDBNNDM@could?5not?5access?5interface?5?$CFd?3?5?$CF@ 10061bc8     libusb-1.0:windows_winusb.obj
 0002:0000abec       ??_C@_0BI@EMEDHIKC@winusbx_claim_interface?$AA@ 10061bec     libusb-1.0:windows_winusb.obj
 0002:0000ac04       ??_C@_01HCONENDN@?$HL?$AA@ 10061c04     libusb-1.0:windows_winusb.obj
 0002:0000ac08       ??_C@_0BN@KHEBFGOM@could?5not?5open?5device?5?$CFs?3?5?$CFs?$AA@ 10061c08     libusb-1.0:windows_winusb.obj
 0002:0000ac28       ??_C@_0CK@KHNECDAK@could?5not?5initialize?5filter?5driv@ 10061c28     libusb-1.0:windows_winusb.obj
 0002:0000ac54       ??_C@_0DM@BMLOIDNN@auto?9claimed?5interface?50?5?$CIrequir@ 10061c54     libusb-1.0:windows_winusb.obj
 0002:0000ac90       ??_C@_0EI@MKPABBCD@failed?5to?5auto?9claim?5interface?50@ 10061c90     libusb-1.0:windows_winusb.obj
 0002:0000acd8       ??_C@_0CB@PEJLKLOB@could?5not?5claim?5interface?5?$CFd?3?5?$CFs@ 10061cd8     libusb-1.0:windows_winusb.obj
 0002:0000acfc       ??_C@_0BF@EKIKKPMA@claimed?5interface?5?$CFd?$AA@ 10061cfc     libusb-1.0:windows_winusb.obj
 0002:0000ad14       ??_C@_0BG@GEMHLEGG@will?5use?5interface?5?$CFd?$AA@ 10061d14     libusb-1.0:windows_winusb.obj
 0002:0000ad2c       ??_C@_0CA@EIILLKP@winusbx_submit_control_transfer?$AA@ 10061d2c     libusb-1.0:windows_winusb.obj
 0002:0000ad4c       ??_C@_0DE@LOCONHB@cannot?5set?5configuration?5other?5t@ 10061d4c     libusb-1.0:windows_winusb.obj
 0002:0000ad80       ??_C@_0BL@KKCBCELM@ControlTransfer?5failed?3?5?$CFs?$AA@ 10061d80     libusb-1.0:windows_winusb.obj
 0002:0000ad9c       ??_C@_0CA@FJMDJECH@interface?5must?5be?5claimed?5first?$AA@ 10061d9c     libusb-1.0:windows_winusb.obj
 0002:0000adbc       ??_C@_0CB@DPIDHLPH@winusbx_set_interface_altsetting@ 10061dbc     libusb-1.0:windows_winusb.obj
 0002:0000ade0       ??_C@_0CG@GMHJCFHE@SetCurrentAlternateSetting?5faile@ 10061de0     libusb-1.0:windows_winusb.obj
 0002:0000ae08       ??_C@_0EE@IDKKGBGK@unable?5to?5match?5endpoint?5to?5an?5o@ 10061e08     libusb-1.0:windows_winusb.obj
 0002:0000ae4c       ??_C@_0BN@OJOHANOD@winusbx_submit_bulk_transfer?$AA@ 10061e4c     libusb-1.0:windows_winusb.obj
 0002:0000ae6c       ??_C@_0CI@OONMDALI@matched?5endpoint?5?$CF02X?5with?5inter@ 10061e6c     libusb-1.0:windows_winusb.obj
 0002:0000ae94       ??_C@_0BB@JJFEBJHO@reading?5?$CFd?5bytes?$AA@ 10061e94     libusb-1.0:windows_winusb.obj
 0002:0000aea8       ??_C@_0BB@NPBPMDPC@writing?5?$CFd?5bytes?$AA@ 10061ea8     libusb-1.0:windows_winusb.obj
 0002:0000aebc       ??_C@_0BO@CJBPDAPF@ReadPipe?1WritePipe?5failed?3?5?$CFs?$AA@ 10061ebc     libusb-1.0:windows_winusb.obj
 0002:0000aedc       ??_C@_0DN@LBFJHJLC@unable?5to?5match?5endpoint?5to?5an?5o@ 10061edc     libusb-1.0:windows_winusb.obj
 0002:0000af1c       ??_C@_0BD@OFIKLFHH@winusbx_clear_halt?$AA@ 10061f1c     libusb-1.0:windows_winusb.obj
 0002:0000af30       ??_C@_0BF@PJCKIGIN@ResetPipe?5failed?3?5?$CFs?$AA@ 10061f30     libusb-1.0:windows_winusb.obj
 0002:0000af48       ??_C@_0DD@DIHOJDEE@program?5assertion?5failed?3?5invali@ 10061f48     libusb-1.0:windows_winusb.obj
 0002:0000af7c       ??_C@_0BI@MEMODGMK@winusbx_abort_transfers?$AA@ 10061f7c     libusb-1.0:windows_winusb.obj
 0002:0000af94       ??_C@_0BF@BEJCMNAA@AbortPipe?5failed?3?5?$CFs?$AA@ 10061f94     libusb-1.0:windows_winusb.obj
 0002:0000afac       ??_C@_0BC@EFBBBIM@resetting?5ep?5?$CF02X?$AA@ 10061fac     libusb-1.0:windows_winusb.obj
 0002:0000afc0       ??_C@_0BF@JFPGBNJG@winusbx_reset_device?$AA@ 10061fc0     libusb-1.0:windows_winusb.obj
 0002:0000afd8       ??_C@_0CJ@GEGNNCJI@AbortPipe?5?$CIpipe?5address?5?$CF02X?$CJ?5fa@ 10061fd8     libusb-1.0:windows_winusb.obj
 0002:0000b004       ??_C@_0CJ@FEKMHOIC@FlushPipe?5?$CIpipe?5address?5?$CF02X?$CJ?5fa@ 10062004     libusb-1.0:windows_winusb.obj
 0002:0000b030       ??_C@_0CJ@EPDKHAEM@ResetPipe?5?$CIpipe?5address?5?$CF02X?$CJ?5fa@ 10062030     libusb-1.0:windows_winusb.obj
 0002:0000b05c       ??_C@_0BB@DKGFPGJH@LIBUSB_DT_DEVICE?$AA@ 1006205c     libusb-1.0:windows_winusb.obj
 0002:0000b070       ??_C@_0BE@NAFLECBC@_hid_get_descriptor?$AA@ 10062070     libusb-1.0:windows_winusb.obj
 0002:0000b084       ??_C@_0BB@GJALMADO@LIBUSB_DT_CONFIG?$AA@ 10062084     libusb-1.0:windows_winusb.obj
 0002:0000b098       ??_C@_0BB@JPPINCPI@LIBUSB_DT_STRING?$AA@ 10062098     libusb-1.0:windows_winusb.obj
 0002:0000b0ac       ??_C@_0O@KMAGNLAD@LIBUSB_DT_HID?$AA@ 100620ac     libusb-1.0:windows_winusb.obj
 0002:0000b0bc       ??_C@_0BB@NKHNBPEI@LIBUSB_DT_REPORT?$AA@ 100620bc     libusb-1.0:windows_winusb.obj
 0002:0000b0d0       ??_C@_0BD@BGLNIGKK@LIBUSB_DT_PHYSICAL?$AA@ 100620d0     libusb-1.0:windows_winusb.obj
 0002:0000b0e4       ??_C@_0M@MHDBFHD@unsupported?$AA@ 100620e4     libusb-1.0:windows_winusb.obj
 0002:0000b0f0       ??_C@_0DB@BKKCPAME@program?5assertion?5failed?3?5hid_bu@ 100620f0     libusb-1.0:windows_winusb.obj
 0002:0000b124       ??_C@_0BA@LAHJPAMN@_hid_get_report?$AA@ 10062124     libusb-1.0:windows_winusb.obj
 0002:0000b134       ??_C@_0BC@DOHEPBKC@invalid?5size?5?$CI?$CFu?$CJ?$AA@ 10062134     libusb-1.0:windows_winusb.obj
 0002:0000b148       ??_C@_0BL@EAHJJKAD@unknown?5HID?5report?5type?5?$CFd?$AA@ 10062148     libusb-1.0:windows_winusb.obj
 0002:0000b164       ??_C@_0BC@OIBGMHLN@report?5ID?3?50x?$CF02X?$AA@ 10062164     libusb-1.0:windows_winusb.obj
 0002:0000b178       ??_C@_0BO@GODDHKCB@Failed?5to?5Read?5HID?5Report?3?5?$CFs?$AA@ 10062178     libusb-1.0:windows_winusb.obj
 0002:0000b198       ??_C@_0EO@DAHAGCEN@program?5assertion?5failed?5?9?5read?5@ 10062198     libusb-1.0:windows_winusb.obj
 0002:0000b1e8       ??_C@_0DH@BLFOPPE@mismatched?5report?5ID?5?$CIdata?5is?5?$CF0@ 100621e8     libusb-1.0:windows_winusb.obj
 0002:0000b220       ??_C@_09MFKCPOML@OVERFLOW?$CB?$AA@ 10062220     libusb-1.0:windows_winusb.obj
 0002:0000b22c       ??_C@_0BA@KOFGEHIE@_hid_set_report?$AA@ 1006222c     libusb-1.0:windows_winusb.obj
 0002:0000b23c       ??_C@_0CG@KPBHBPLK@Failed?5to?5Write?5HID?5Output?5Repor@ 1006223c     libusb-1.0:windows_winusb.obj
 0002:0000b268       ??_C@_0FC@JLMOPCEP@program?5assertion?5failed?5?9?5write@ 10062268     libusb-1.0:windows_winusb.obj
 0002:0000b2bc       ??_C@_03GGLOKBAD@hid?$AA@  100622bc     libusb-1.0:windows_winusb.obj
 0002:0000b2c0       ??_C@_0BD@CBOMEPHA@HidD_GetAttributes?$AA@ 100622c0     libusb-1.0:windows_winusb.obj
 0002:0000b2d4       ??_C@_0BE@LJEGODDH@HidD_GetAttributesA?$AA@ 100622d4     libusb-1.0:windows_winusb.obj
 0002:0000b2e8       ??_C@_0BE@KFNOFGOA@HidD_GetAttributesW?$AA@ 100622e8     libusb-1.0:windows_winusb.obj
 0002:0000b2fc       ??_C@_0BA@DOKLPHLJ@HidD_GetHidGuid?$AA@ 100622fc     libusb-1.0:windows_winusb.obj
 0002:0000b30c       ??_C@_0BB@FLOBNOJL@HidD_GetHidGuidA?$AA@ 1006230c     libusb-1.0:windows_winusb.obj
 0002:0000b320       ??_C@_0BB@EHHJGLEM@HidD_GetHidGuidW?$AA@ 10062320     libusb-1.0:windows_winusb.obj
 0002:0000b334       ??_C@_0BG@NCCNKODK@HidD_GetPreparsedData?$AA@ 10062334     libusb-1.0:windows_winusb.obj
 0002:0000b34c       ??_C@_0BH@CPLMIKFI@HidD_GetPreparsedDataA?$AA@ 1006234c     libusb-1.0:windows_winusb.obj
 0002:0000b364       ??_C@_0BH@DDCEDPIP@HidD_GetPreparsedDataW?$AA@ 10062364     libusb-1.0:windows_winusb.obj
 0002:0000b37c       ??_C@_0BH@HPJNKOKM@HidD_FreePreparsedData?$AA@ 1006237c     libusb-1.0:windows_winusb.obj
 0002:0000b394       ??_C@_0BI@DGHNAMCJ@HidD_FreePreparsedDataA?$AA@ 10062394     libusb-1.0:windows_winusb.obj
 0002:0000b3ac       ??_C@_0BI@CKOFLJPO@HidD_FreePreparsedDataW?$AA@ 100623ac     libusb-1.0:windows_winusb.obj
 0002:0000b3c4       ??_C@_0BL@NLNJBEKH@HidD_GetManufacturerString?$AA@ 100623c4     libusb-1.0:windows_winusb.obj
 0002:0000b3e0       ??_C@_0BM@KBALJBBL@HidD_GetManufacturerStringA?$AA@ 100623e0     libusb-1.0:windows_winusb.obj
 0002:0000b3fc       ??_C@_0BM@LNJDCEMM@HidD_GetManufacturerStringW?$AA@ 100623fc     libusb-1.0:windows_winusb.obj
 0002:0000b418       ??_C@_0BG@NNFFPJLB@HidD_GetProductString?$AA@ 10062418     libusb-1.0:windows_winusb.obj
 0002:0000b430       ??_C@_0BH@FFNJKIKH@HidD_GetProductStringA?$AA@ 10062430     libusb-1.0:windows_winusb.obj
 0002:0000b448       ??_C@_0BH@EJEBBNHA@HidD_GetProductStringW?$AA@ 10062448     libusb-1.0:windows_winusb.obj
 0002:0000b460       ??_C@_0BL@OEJFEOIE@HidD_GetSerialNumberString?$AA@ 10062460     libusb-1.0:windows_winusb.obj
 0002:0000b47c       ??_C@_0BM@DFDKMDD@HidD_GetSerialNumberStringA?$AA@ 1006247c     libusb-1.0:windows_winusb.obj
 0002:0000b498       ??_C@_0BM@BPMLBJOE@HidD_GetSerialNumberStringW?$AA@ 10062498     libusb-1.0:windows_winusb.obj
 0002:0000b4b4       ??_C@_0N@PAEDFHIM@HidP_GetCaps?$AA@ 100624b4     libusb-1.0:windows_winusb.obj
 0002:0000b4c4       ??_C@_0O@NJMPCBI@HidP_GetCapsA?$AA@ 100624c4     libusb-1.0:windows_winusb.obj
 0002:0000b4d4       ??_C@_0O@BBAEEHMP@HidP_GetCapsW?$AA@ 100624d4     libusb-1.0:windows_winusb.obj
 0002:0000b4e4       ??_C@_0BI@HGIMLKHJ@HidD_SetNumInputBuffers?$AA@ 100624e4     libusb-1.0:windows_winusb.obj
 0002:0000b4fc       ??_C@_0BJ@MAMNDLGG@HidD_SetNumInputBuffersA?$AA@ 100624fc     libusb-1.0:windows_winusb.obj
 0002:0000b518       ??_C@_0BJ@NMFFIOLB@HidD_SetNumInputBuffersW?$AA@ 10062518     libusb-1.0:windows_winusb.obj
 0002:0000b534       ??_C@_0BA@ENIKBGID@HidD_SetFeature?$AA@ 10062534     libusb-1.0:windows_winusb.obj
 0002:0000b544       ??_C@_0BB@JNJOCGMI@HidD_SetFeatureA?$AA@ 10062544     libusb-1.0:windows_winusb.obj
 0002:0000b558       ??_C@_0BB@IBAGJDBP@HidD_SetFeatureW?$AA@ 10062558     libusb-1.0:windows_winusb.obj
 0002:0000b56c       ??_C@_0BA@FDKFKBMK@HidD_GetFeature?$AA@ 1006256c     libusb-1.0:windows_winusb.obj
 0002:0000b57c       ??_C@_0BB@JCIAPAEL@HidD_GetFeatureA?$AA@ 1006257c     libusb-1.0:windows_winusb.obj
 0002:0000b590       ??_C@_0BB@IOBIEFJM@HidD_GetFeatureW?$AA@ 10062590     libusb-1.0:windows_winusb.obj
 0002:0000b5a4       ??_C@_0BL@MHFEHFLL@HidD_GetPhysicalDescriptor?$AA@ 100625a4     libusb-1.0:windows_winusb.obj
 0002:0000b5c0       ??_C@_0BM@LFBGEADF@HidD_GetPhysicalDescriptorA?$AA@ 100625c0     libusb-1.0:windows_winusb.obj
 0002:0000b5dc       ??_C@_0BM@KJIOPFOC@HidD_GetPhysicalDescriptorW?$AA@ 100625dc     libusb-1.0:windows_winusb.obj
 0002:0000b5f8       ??_C@_0BE@OLFMKJCD@HidD_GetInputReport?$AA@ 100625f8     libusb-1.0:windows_winusb.obj
 0002:0000b60c       ??_C@_0BF@ELOOFDJP@HidD_GetInputReportA?$AA@ 1006260c     libusb-1.0:windows_winusb.obj
 0002:0000b624       ??_C@_0BF@FHHGOGEI@HidD_GetInputReportW?$AA@ 10062624     libusb-1.0:windows_winusb.obj
 0002:0000b63c       ??_C@_0BF@CKFEJBM@HidD_SetOutputReport?$AA@ 1006263c     libusb-1.0:windows_winusb.obj
 0002:0000b654       ??_C@_0BG@PNGBIHEC@HidD_SetOutputReportA?$AA@ 10062654     libusb-1.0:windows_winusb.obj
 0002:0000b66c       ??_C@_0BG@OBPJDCJF@HidD_SetOutputReportW?$AA@ 1006266c     libusb-1.0:windows_winusb.obj
 0002:0000b684       ??_C@_0BA@LJPDBCFN@HidD_FlushQueue?$AA@ 10062684     libusb-1.0:windows_winusb.obj
 0002:0000b694       ??_C@_0BB@PMABKABP@HidD_FlushQueueA?$AA@ 10062694     libusb-1.0:windows_winusb.obj
 0002:0000b6a8       ??_C@_0BB@OAJJBFMI@HidD_FlushQueueW?$AA@ 100626a8     libusb-1.0:windows_winusb.obj
 0002:0000b6bc       ??_C@_0BC@FJPMINCN@HidP_GetValueCaps?$AA@ 100626bc     libusb-1.0:windows_winusb.obj
 0002:0000b6d0       ??_C@_0BD@KMOENOLM@HidP_GetValueCapsA?$AA@ 100626d0     libusb-1.0:windows_winusb.obj
 0002:0000b6e4       ??_C@_0BD@LAHMGLGL@HidP_GetValueCapsW?$AA@ 100626e4     libusb-1.0:windows_winusb.obj
 0002:0000b6f8       ??_C@_05DFJCHPDH@input?$AA@ 100626f8     libusb-1.0:windows_winusb.obj
 0002:0000b700       ??_C@_06DKIGHACF@output?$AA@ 10062700     libusb-1.0:windows_winusb.obj
 0002:0000b708       ??_C@_07IJDDADGK@feature?$AA@ 10062708     libusb-1.0:windows_winusb.obj
 0002:0000b710       ??_C@_0EA@OJCPKGIL@program?5assertion?5failed?5?9?5priva@ 10062710     libusb-1.0:windows_winusb.obj
 0002:0000b750       ??_C@_08HGPHKOEL@hid_open?$AA@ 10062750     libusb-1.0:windows_winusb.obj
 0002:0000b760       ??_C@_0EM@JBKJKIJP@could?5not?5open?5HID?5device?5in?5R?1W@ 10062760     libusb-1.0:windows_winusb.obj
 0002:0000b7b0       ??_C@_0EB@LMOPKHMB@could?5not?5gain?5access?5to?5HID?5top@ 100627b0     libusb-1.0:windows_winusb.obj
 0002:0000b7f4       ??_C@_0CE@NJPICEPE@set?5maximum?5input?5buffer?5size?5to@ 100627f4     libusb-1.0:windows_winusb.obj
 0002:0000b818       ??_C@_0DK@NCFKPDHG@could?5not?5read?5HID?5preparsed?5dat@ 10062818     libusb-1.0:windows_winusb.obj
 0002:0000b854       ??_C@_0DA@OLCBNOGH@could?5not?5parse?5HID?5capabilities@ 10062854     libusb-1.0:windows_winusb.obj
 0002:0000b884       ??_C@_0CA@NCPDKBHC@?$CFu?5HID?5?$CFs?5report?5value?$CIs?$CJ?5found?$AA@ 10062884     libusb-1.0:windows_winusb.obj
 0002:0000b8a4       ??_C@_0BE@OBOGANFC@?5?5Report?5ID?3?50x?$CF02X?$AA@ 100628a4     libusb-1.0:windows_winusb.obj
 0002:0000b8b8       ??_C@_0EC@KGHMBGFJ@program?5assertion?5failed?3?5zero?5a@ 100628b8     libusb-1.0:windows_winusb.obj
 0002:0000b8fc       ??_C@_0CC@MDNKHFKI@?5?5could?5not?5process?5?$CFs?5report?5ID@ 100628fc     libusb-1.0:windows_winusb.obj
 0002:0000b920       ??_C@_0BE@IMFPGHNH@hid_claim_interface?$AA@ 10062920     libusb-1.0:windows_winusb.obj
 0002:0000b934       ??_C@_0DJ@KGMIHKMJ@set?5interface?5altsetting?5not?5sup@ 10062934     libusb-1.0:windows_winusb.obj
 0002:0000b970       ??_C@_0BN@JBLKDGOE@hid_set_interface_altsetting?$AA@ 10062970     libusb-1.0:windows_winusb.obj
 0002:0000b990       ??_C@_0BM@OMKPOCEH@hid_submit_control_transfer?$AA@ 10062990     libusb-1.0:windows_winusb.obj
 0002:0000b9ac       ??_C@_0CA@GGJLHHOK@unsupported?5HID?5control?5request?$AA@ 100629ac     libusb-1.0:windows_winusb.obj
 0002:0000b9cc       ??_C@_0BJ@OGJKIMP@hid_submit_bulk_transfer?$AA@ 100629cc     libusb-1.0:windows_winusb.obj
 0002:0000b9e8       ??_C@_0CD@JJIMDCMF@reading?5?$CFd?5bytes?5?$CIreport?5ID?3?50x0@ 100629e8     libusb-1.0:windows_winusb.obj
 0002:0000ba0c       ??_C@_0CF@DABBPAGB@writing?5?$CFd?5bytes?5?$CIreport?5ID?3?50x?$CF@ 10062a0c     libusb-1.0:windows_winusb.obj
 0002:0000ba34       ??_C@_0BI@BGFEELBI@HID?5transfer?5failed?3?5?$CFs?$AA@ 10062a34     libusb-1.0:windows_winusb.obj
 0002:0000ba4c       ??_C@_0DD@IMFOFEKA@program?5assertion?5failed?5?9?5no?5da@ 10062a4c     libusb-1.0:windows_winusb.obj
 0002:0000ba80       ??_C@_0P@KJIEFJNF@hid_clear_halt?$AA@ 10062a80     libusb-1.0:windows_winusb.obj
 0002:0000ba90       ??_C@_0CB@BPHEHBIP@Flushing?5of?5HID?5queue?5failed?3?5?$CFs@ 10062a90     libusb-1.0:windows_winusb.obj
 0002:0000bab4       ??_C@_0BH@KPPPONME@hid_copy_transfer_data?$AA@ 10062ab4     libusb-1.0:windows_winusb.obj
 0002:0000bacc       ??_C@_0DF@PCPIGINA@attempting?5control?5transfer?5targ@ 10062acc     libusb-1.0:windows_winusb.obj
 0002:0000bb04       ??_C@_0CC@IALLGALK@composite_submit_control_transfe@ 10062b04     libusb-1.0:windows_winusb.obj
 0002:0000bb28       ??_C@_0EB@ECKDFOK@trying?5to?5skip?5restricted?5interf@ 10062b28     libusb-1.0:windows_winusb.obj
 0002:0000bb6c       ??_C@_0BD@MLCBENGM@using?5interface?5?$CFd?$AA@ 10062b6c     libusb-1.0:windows_winusb.obj
 0002:0000bb80       ??_C@_0DD@ICEHKHMM@no?5libusb?5supported?5interfaces?5t@ 10062b80     libusb-1.0:windows_winusb.obj
 0002:0000bbb4       ??_C@_0BP@PNIPIJCP@composite_submit_bulk_transfer?$AA@ 10062bb4     libusb-1.0:windows_winusb.obj
 0002:0000bbd4       ??_C@_0BO@DKKMPECE@composite_submit_iso_transfer?$AA@ 10062bd4     libusb-1.0:windows_winusb.obj
 0002:0000bbf4       ??_C@_0BF@BHNMEGGO@composite_clear_halt?$AA@ 10062bf4     libusb-1.0:windows_winusb.obj
 0002:0000bc0c       ??_C@_05IMFEMPPD@?$FL?$CFu?$FN?5?$AA@ 10062c0c     libusb-1.0:windows_nt_common.obj
 0002:0000bc14       ??_C@_0DE@FBDNMKI@Windows?5error?5code?5?$CFu?5?$CIFormatMes@ 10062c14     libusb-1.0:windows_nt_common.obj
 0002:0000bc48       ??_C@_0BG@GNAEMCAG@Unknown?5error?5code?5?$CFu?$AA@ 10062c48     libusb-1.0:windows_nt_common.obj
 0002:0000bc60       ??_C@_0BN@GNLFLLBD@hash?5table?5already?5allocated?$AA@ 10062c60     libusb-1.0:windows_nt_common.obj
 0002:0000bc80       ??_C@_0M@EBLHOIJG@htab_create?$AA@ 10062c80     libusb-1.0:windows_nt_common.obj
 0002:0000bc8c       ??_C@_0BN@GHEJBONI@using?5?$CFlu?5entries?5hash?5table?$AA@ 10062c8c     libusb-1.0:windows_nt_common.obj
 0002:0000bcac       ??_C@_0CI@EGJHNPKG@could?5not?5allocate?5space?5for?5has@ 10062cac     libusb-1.0:windows_nt_common.obj
 0002:0000bcd4       ??_C@_0BO@POHOIFJK@hash?5collision?5?$CI?8?$CFs?8?5vs?5?8?$CFs?8?$CJ?$AA@ 10062cd4     libusb-1.0:windows_nt_common.obj
 0002:0000bcf4       ??_C@_09FPPBJNFD@htab_hash?$AA@ 10062cf4     libusb-1.0:windows_nt_common.obj
 0002:0000bd00       ??_C@_0CA@KLPGILOD@hash?5table?5is?5full?5?$CI?$CFd?5entries?$CJ?$AA@ 10062d00     libusb-1.0:windows_nt_common.obj
 0002:0000bd20       ??_C@_0CK@OIPNMJGO@could?5not?5duplicate?5string?5for?5h@ 10062d20     libusb-1.0:windows_nt_common.obj
 0002:0000bd4c       ??_C@_06MFHBAGGM@User32?$AA@ 10062d4c     libusb-1.0:windows_nt_common.obj
 0002:0000bd54       ??_C@_0M@FMMNGBOJ@GetMessageA?$AA@ 10062d54     libusb-1.0:windows_nt_common.obj
 0002:0000bd60       ??_C@_0N@DAOIOJPJ@GetMessageAA?$AA@ 10062d60     libusb-1.0:windows_nt_common.obj
 0002:0000bd70       ??_C@_0N@CMHAFMCO@GetMessageAW?$AA@ 10062d70     libusb-1.0:windows_nt_common.obj
 0002:0000bd80       ??_C@_0N@DEJEJHH@PeekMessageA?$AA@ 10062d80     libusb-1.0:windows_nt_common.obj
 0002:0000bd90       ??_C@_0O@CHAANDJC@PeekMessageAA?$AA@ 10062d90     libusb-1.0:windows_nt_common.obj
 0002:0000bda0       ??_C@_0O@DLJIGGEF@PeekMessageAW?$AA@ 10062da0     libusb-1.0:windows_nt_common.obj
 0002:0000bdb0       ??_C@_0BD@IMCDNBBG@PostThreadMessageA?$AA@ 10062db0     libusb-1.0:windows_nt_common.obj
 0002:0000bdc4       ??_C@_0BE@BNDKOIME@PostThreadMessageAA?$AA@ 10062dc4     libusb-1.0:windows_nt_common.obj
 0002:0000bdd8       ??_C@_0BE@BKCFNBD@PostThreadMessageAW?$AA@ 10062dd8     libusb-1.0:windows_nt_common.obj
 0002:0000bdec       ??_C@_0BD@JDDEICEJ@windows_init_clock?$AA@ 10062dec     libusb-1.0:windows_nt_common.obj
 0002:0000be00       ??_C@_0CM@HPIFEGEN@hires?5timer?5available?5?$CIFrequency@ 10062e00     libusb-1.0:windows_nt_common.obj
 0002:0000be2c       ??_C@_0CD@HNPKFIGB@could?5not?5get?5process?5affinity?3?5@ 10062e2c     libusb-1.0:windows_nt_common.obj
 0002:0000be50       ??_C@_0CC@KJJBDFGN@timer?5thread?5will?5run?5on?5core?5?$CD?$CF@ 10062e50     libusb-1.0:windows_nt_common.obj
 0002:0000be74       ??_C@_0BL@CGPCLPH@could?5not?5create?5event?3?5?$CFs?$AA@ 10062e74     libusb-1.0:windows_nt_common.obj
 0002:0000be90       ??_C@_0CJ@DLDHELFO@unable?5to?5create?5timer?5thread?5?9?5@ 10062e90     libusb-1.0:windows_nt_common.obj
 0002:0000bec0       ??_C@_0ED@KDPBHBOM@unable?5to?5set?5timer?5thread?5affin@ 10062ec0     libusb-1.0:windows_nt_common.obj
 0002:0000bf04       ??_C@_0DL@NILFAGIP@failed?5to?5wait?5for?5timer?5thread?5@ 10062f04     libusb-1.0:windows_nt_common.obj
 0002:0000bf40       ??_C@_0CK@PIOPGCOL@no?5hires?5timer?5available?5on?5this@ 10062f40     libusb-1.0:windows_nt_common.obj
 0002:0000bf6c       ??_C@_0CI@NOCPDLBH@could?5not?5wait?5for?5timer?5thread?5@ 10062f6c     libusb-1.0:windows_nt_common.obj
 0002:0000bf94       ??_C@_0BG@DMAEGPPM@windows_destroy_clock?$AA@ 10062f94     libusb-1.0:windows_nt_common.obj
 0002:0000bfac       ??_C@_0CJ@HHOHGAKK@SetEvent?5failed?5for?5timer?5init?5e@ 10062fac     libusb-1.0:windows_nt_common.obj
 0002:0000bfd8       ??_C@_0BP@LNFKNCIM@windows_clock_gettime_threaded?$AA@ 10062fd8     libusb-1.0:windows_nt_common.obj
 0002:0000bff8       ??_C@_0CH@GEKFHMBC@GetMessage?5failed?5for?5timer?5thre@ 10062ff8     libusb-1.0:windows_nt_common.obj
 0002:0000c020       ??_C@_0CG@FDBOJJPP@SetEvent?5failed?5for?5timer?5reques@ 10063020     libusb-1.0:windows_nt_common.obj
 0002:0000c048       ??_C@_0BG@DKPKKNIB@timer?5thread?5quitting?$AA@ 10063048     libusb-1.0:windows_nt_common.obj
 0002:0000c060       ??_C@_0CO@CIEPKCDE@PostThreadMessage?5failed?5for?5tim@ 10063060     libusb-1.0:windows_nt_common.obj
 0002:0000c090       ??_C@_0BG@DPBOLMCM@windows_clock_gettime?$AA@ 10063090     libusb-1.0:windows_nt_common.obj
 0002:0000c0a8       ??_C@_0EM@FAMGOIAF@could?5not?5obtain?5a?5timer?5value?5w@ 100630a8     libusb-1.0:windows_nt_common.obj
 0002:0000c0f4       ??_C@_0BP@BCJIKCAP@WaitForSingleObject?5failed?3?5?$CFs?$AA@ 100630f4     libusb-1.0:windows_nt_common.obj
 0002:0000c114       ??_C@_0DB@LAJBBHNJ@handling?5I?1O?5completion?5with?5err@ 10063114     libusb-1.0:windows_nt_common.obj
 0002:0000c148       ??_C@_0BK@DOHDNJGC@windows_transfer_callback?$AA@ 10063148     libusb-1.0:windows_nt_common.obj
 0002:0000c164       ??_C@_0BI@OGILNLHB@detected?5endpoint?5stall?$AA@ 10063164     libusb-1.0:windows_nt_common.obj
 0002:0000c17c       ??_C@_0BL@NKEBJCMI@detected?5semaphore?5timeout?$AA@ 1006317c     libusb-1.0:windows_nt_common.obj
 0002:0000c198       ??_C@_0DF@EKOINGMD@Failed?5to?5copy?5partial?5data?5in?5a@ 10063198     libusb-1.0:windows_nt_common.obj
 0002:0000c1d0       ??_C@_0BL@PCPPFNCB@detected?5operation?5aborted?$AA@ 100631d0     libusb-1.0:windows_nt_common.obj
 0002:0000c1ec       ??_C@_0BK@JHCIIEBB@detected?5I?1O?5error?5?$CFu?3?5?$CFs?$AA@ 100631ec     libusb-1.0:windows_nt_common.obj
 0002:0000c208       ??_C@_0DN@HOGMPFP@bulk?5stream?5transfers?5are?5not?5ye@ 10063208     libusb-1.0:windows_nt_common.obj
 0002:0000c248       ??_C@_0BI@PKCBOPBP@windows_handle_callback?$AA@ 10063248     libusb-1.0:windows_nt_common.obj
 0002:0000c260       ??_C@_0CD@JIPENCCG@checking?5fd?5?$CFd?5with?5revents?5?$DN?5?$CF0@ 10063260     libusb-1.0:windows_nt_common.obj
 0002:0000c284       ??_C@_0BG@IIPKNAG@windows_handle_events?$AA@ 10063284     libusb-1.0:windows_nt_common.obj
 0002:0000c29c       ??_C@_0CN@NAONBKGK@could?5not?5find?5a?5matching?5transf@ 1006329c     libusb-1.0:windows_nt_common.obj
 0002:0000c2cc       ??_C@_07MCAEODGB@Default?$AA@ 100632cc     glib:averagetimer.obj
 0002:0000c2d8       ??_7AverageTimer@@6B@      100632d8     glib:averagetimer.obj
 0002:0000c2e0       ??_7LPFilter@@6B@          100632e0     glib:lpfilter.obj
 0002:0000c2e8       ??_7Timeout@@6B@           100632e8     glib:timeout.obj
 0002:0000c2f0       ??_7signalStrengthMeter@@6B@ 100632f0     glib:signalstrengthmeter.obj
 0002:0000c2f4       __real@00000000            100632f4     tlib:simdecoder.obj
 0002:0000c2f8       __real@0000000000000000    100632f8     glib:lpfilter.obj
 0002:0000c300       __real@358637bd            10063300     tlib:ss.obj
 0002:0000c304       __real@3a22e384            10063304     tlib:decoder.obj
 0002:0000c308       __real@3b000000            10063308     tlib:computrainer_decoder.obj
 0002:0000c30c       __real@3c23d70a            1006330c     tlib:performance_decoder.obj
 0002:0000c310       __real@3dcccccd            10063310     tlib:computrainer_decoder.obj
 0002:0000c314       __real@3e4ccccd            10063314     tlib:performance_decoder.obj
 0002:0000c318       __real@3eb74d3b7ba75828    10063318     tlib:physics.obj
 0002:0000c320       __real@3ec234361b8b7d41    10063320     tlib:bike.obj
 0002:0000c328       __real@3ef8d9eb9940ae46    10063328     tlib:physics.obj
 0002:0000c330       __real@3f000000            10063330     tlib:ss.obj
 0002:0000c338       __real@3f1a36e2eb1c432d    10063338     common:person.obj
 0002:0000c340       __real@3f445c707983d68b    10063340     tlib:physics.obj
 0002:0000c348       __real@3f70ec481a676a61    10063348     tlib:physics.obj
 0002:0000c350       __real@3f747ae147ae147b    10063350     tlib:physics.obj
 0002:0000c358       __real@3f789374bc6a7efa    10063358     tlib:decoder.obj
 0002:0000c360       __real@3f800000            10063360     tlib:performance_decoder.obj
 0002:0000c368       __real@3f847ae147ae147b    10063368     tlib:physics.obj
 0002:0000c370       __real@3f91df46a2529d39    10063370     tlib:ss.obj
 0002:0000c378       __real@3f9a1cac083126e9    10063378     tlib:physics.obj
 0002:0000c380       __real@3f9eb851eb851eb8    10063380     tlib:physics.obj
 0002:0000c388       __real@3f9fd36f7e3d1cc1    10063388     tlib:physics.obj
 0002:0000c390       __real@3fa42850a1428509    10063390     tlib:bike.obj
 0002:0000c398       __real@3fa999999999999a    10063398     tlib:physics.obj
 0002:0000c3a0       __real@3fb999999999999a    100633a0     tlib:physics.obj
 0002:0000c3a8       __real@3fb99999a0000000    100633a8     tlib:monarch.obj
 0002:0000c3b0       __real@3fbfa9cdc4def649    100633b0     tlib:bike.obj
 0002:0000c3b8       __real@3fc10624e0000000    100633b8     tlib:monarch.obj
 0002:0000c3c0       __real@3fc90fdb            100633c0     tlib:ss.obj
 0002:0000c3c8       __real@3fd0a3d70a3d70a4    100633c8     tlib:computrainer_decoder.obj
 0002:0000c3d0       __real@3fd93264c993264c    100633d0     common:person.obj
 0002:0000c3d8       __real@3fdc9c4da9003eea    100633d8     tlib:computrainer_decoder.obj
 0002:0000c3e0       __real@3fdc9c4da9003eeb    100633e0     tlib:decoder.obj
 0002:0000c3e8       __real@3fdd07bbd05810e8    100633e8     tlib:decoder.obj
 0002:0000c3f0       __real@3fe0000000000000    100633f0     tlib:performance.obj
 0002:0000c3f8       __real@3fe4cccccccccccd    100633f8     tlib:physics.obj
 0002:0000c400       __real@3fe5d1745d1745d1    10063400     tlib:physics.obj
 0002:0000c408       __real@3ff0000000000000    10063408     tlib:heartrate.obj
 0002:0000c410       __real@3ff145a1cac08313    10063410     tlib:physics.obj
 0002:0000c418       __real@3ff5b3aa5b3aa5b4    10063418     tlib:physics.obj
 0002:0000c420       __real@3ff8000000000000    10063420     tlib:physics.obj
 0002:0000c428       __real@3ff921fb54442d18    10063428     tlib:ss.obj
 0002:0000c430       __real@3ff9bfdf7e8038a0    10063430     tlib:decoder.obj
 0002:0000c438       __real@4000000000000000    10063438     tlib:physics.obj
 0002:0000c440       __real@4001a305532617c2    10063440     common:person.obj
 0002:0000c448       __real@40055c28f5c28f5c    10063448     tlib:physics.obj
 0002:0000c450       __real@4008000000000000    10063450     tlib:physics.obj
 0002:0000c458       __real@400921fb54442d18    10063458     tlib:monarch.obj
 0002:0000c460       __real@400db6db6db6db6e    10063460     tlib:physics.obj
 0002:0000c468       __real@401224d562370a91    10063468     tlib:physics.obj
 0002:0000c470       __real@4014000000000000    10063470     tlib:physics.obj
 0002:0000c478       __real@4017f5c28f5c28f6    10063478     tlib:velotron_decoder.obj
 0002:0000c480       __real@4018000000000000    10063480     tlib:monarch.obj
 0002:0000c488       __real@401921fb54442d18    10063488     tlib:physics.obj
 0002:0000c490       __real@401e000000000000    10063490     tlib:velotron_decoder.obj
 0002:0000c498       __real@4020000000000000    10063498     tlib:decoder.obj
 0002:0000c4a0       __real@4020aaaaaaaaaaab    100634a0     tlib:ss.obj
 0002:0000c4a8       __real@402399999999999a    100634a8     tlib:physics.obj
 0002:0000c4b0       __real@4024000000000000    100634b0     tlib:ss.obj
 0002:0000c4b8       __real@4028000000000000    100634b8     tlib:bike.obj
 0002:0000c4c0       __real@402c000000000000    100634c0     tlib:physics.obj
 0002:0000c4c8       __real@402e000000000000    100634c8     tlib:ss.obj
 0002:0000c4d0       __real@403427ef9db22d0e    100634d0     tlib:physics.obj
 0002:0000c4d8       __real@4036e66666666666    100634d8     tlib:physics.obj
 0002:0000c4e0       __real@4037566960887304    100634e0     tlib:physics.obj
 0002:0000c4e8       __real@4038000000000000    100634e8     tlib:ss.obj
 0002:0000c4f0       __real@4039000000000000    100634f0     tlib:physics.obj
 0002:0000c4f8       __real@403e000000000000    100634f8     tlib:ss.obj
 0002:0000c500       __real@4040000000000000    10063500     tlib:physics.obj
 0002:0000c508       __real@404011d495182a99    10063508     tlib:physics.obj
 0002:0000c510       __real@4044000000000000    10063510     tlib:heartrate.obj
 0002:0000c518       __real@4049000000000000    10063518     tlib:velotron_decoder.obj
 0002:0000c520       __real@404ca5dc1a63c1f8    10063520     tlib:ss.obj
 0002:0000c528       __real@404e000000000000    10063528     tlib:bike.obj
 0002:0000c530       __real@404f000000000000    10063530     tlib:physics.obj
 0002:0000c538       __real@4051f948            10063538     tlib:decoder.obj
 0002:0000c540       __real@4054000000000000    10063540     tlib:heartrate.obj
 0002:0000c548       __real@4057400000000000    10063548     tlib:physics.obj
 0002:0000c550       __real@4059000000000000    10063550     tlib:physics.obj
 0002:0000c558       __real@4060000000000000    10063558     tlib:heartrate.obj
 0002:0000c560       __real@4064600000000000    10063560     tlib:monarch.obj
 0002:0000c568       __real@4066800000000000    10063568     tlib:ss.obj
 0002:0000c570       __real@4069000000000000    10063570     tlib:physics.obj
 0002:0000c578       __real@406ccccc            10063578     tlib:performance_decoder.obj
 0002:0000c580       __real@406f400000000000    10063580     tlib:heartrate.obj
 0002:0000c588       __real@406fe00000000000    10063588     tlib:heartrate.obj
 0002:0000c590       __real@4070000000000000    10063590     tlib:computrainer.obj
 0002:0000c598       __real@4075500000000000    10063598     tlib:physics.obj
 0002:0000c5a0       __real@4081300000000000    100635a0     tlib:physics.obj
 0002:0000c5a8       __real@4086800000000000    100635a8     tlib:physics.obj
 0002:0000c5b0       __real@4087500000000000    100635b0     tlib:physics.obj
 0002:0000c5b8       __real@408e000000000000    100635b8     tlib:velotron_decoder.obj
 0002:0000c5c0       __real@408f400000000000    100635c0     tlib:computrainer_decoder.obj
 0002:0000c5c8       __real@408ff80000000000    100635c8     tlib:physics.obj
 0002:0000c5d0       __real@4092c00000000000    100635d0     tlib:physics.obj
 0002:0000c5d8       __real@4096cbe4            100635d8     tlib:ss.obj
 0002:0000c5e0       __real@409925604189374c    100635e0     tlib:computrainer_decoder.obj
 0002:0000c5e8       __real@409f860000000000    100635e8     tlib:physics.obj
 0002:0000c5f0       __real@409fc80000000000    100635f0     tlib:monarch.obj
 0002:0000c5f8       __real@40ac200000000000    100635f8     tlib:computrainer_decoder.obj
 0002:0000c600       __real@40b05a0000000000    10063600     tlib:computrainer_decoder.obj
 0002:0000c608       __real@40b4a00000000000    10063608     tlib:computrainer_decoder.obj
 0002:0000c610       __real@40c66668            10063610     tlib:performance_decoder.obj
 0002:0000c618       __real@40ed4c0000000000    10063618     tlib:velotron_decoder.obj
 0002:0000c620       __real@40eef00000000000    10063620     tlib:bike.obj
 0002:0000c628       __real@41000000            10063628     tlib:computrainer_decoder.obj
 0002:0000c62c       __real@41200000            1006362c     tlib:computrainer_decoder.obj
 0002:0000c630       __real@41299998            10063630     tlib:performance_decoder.obj
 0002:0000c634       __real@41380000            10063634     tlib:performance_decoder.obj
 0002:0000c638       __real@413e366000000000    10063638     tlib:physics.obj
 0002:0000c640       __real@41a00000            10063640     tlib:velotron_decoder.obj
 0002:0000c644       __real@41a3fffc            10063644     tlib:performance_decoder.obj
 0002:0000c648       __real@41c73330            10063648     tlib:performance_decoder.obj
 0002:0000c64c       __real@41e80000            1006364c     tlib:performance_decoder.obj
 0002:0000c650       __real@4201999c            10063650     tlib:performance_decoder.obj
 0002:0000c654       __real@42480000            10063654     tlib:ss.obj
 0002:0000c658       __real@42700000            10063658     tlib:decoder.obj
 0002:0000c65c       __real@42a13333            1006365c     tlib:performance_decoder.obj
 0002:0000c660       __real@42b4999a            10063660     tlib:performance_decoder.obj
 0002:0000c664       __real@42c60000            10063664     tlib:computrainer_decoder.obj
 0002:0000c668       __real@42c7ff7d            10063668     tlib:decoder.obj
 0002:0000c66c       __real@42c80000            1006366c     tlib:ss.obj
 0002:0000c670       __real@42f9cccd            10063670     tlib:performance_decoder.obj
 0002:0000c674       __real@430d999a            10063674     tlib:performance_decoder.obj
 0002:0000c678       __real@4311e666            10063678     tlib:performance_decoder.obj
 0002:0000c67c       __real@43340000            1006367c     tlib:ss.obj
 0002:0000c680       __real@43480000            10063680     tlib:velotron_decoder.obj
 0002:0000c684       __real@43930ccd            10063684     tlib:performance_decoder.obj
 0002:0000c688       __real@44378000            10063688     tlib:decoder.obj
 0002:0000c68c       __real@453b8000            1006368c     tlib:computrainer_decoder.obj
 0002:0000c690       __real@45fa0000            10063690     tlib:computrainer_decoder.obj
 0002:0000c694       __real@46fffe00            10063694     glib:utils.obj
 0002:0000c698       __real@476a6000            10063698     tlib:decoder.obj
 0002:0000c6a0       __real@47efffffe0000000    100636a0     glib:signalstrengthmeter.obj
 0002:0000c6a8       __real@bfe0000000000000    100636a8     tlib:computrainer.obj
 0002:0000c6b0       __real@c024000000000000    100636b0     tlib:physics.obj
 0002:0000c6b8       __real@c1200000            100636b8     tlib:computrainer_decoder.obj
 0002:0000c6c0       __real@c7efffffe0000000    100636c0     glib:signalstrengthmeter.obj
 0002:0000c6c8       __real@ff7fffff            100636c8     tlib:ss.obj
 0002:0000c6d0       __xmm@3f50624dd2f1a9fc3ff5b3aa5b3aa5b4 100636d0     tlib:physics.obj
 0002:0000c6e0       __xmm@3ff00000000000003fc10624e0000000 100636e0     tlib:monarch.obj
 0002:0000c6f0       __xmm@3ff7777777777777406e400000000000 100636f0     tlib:physics.obj
 0002:0000c700       __xmm@3ff8e442c0ab8a903fecd013a92a3055 10063700     tlib:physics.obj
 0002:0000c710       __xmm@40000000000000003ff3333333333333 10063710     tlib:physics.obj
 0002:0000c720       __xmm@40340000000000003f9fd36f7e3d1cc1 10063720     tlib:physics.obj
 0002:0000c730       __xmm@405102880c1399e84039000000000000 10063730     tlib:decoder.obj
 0002:0000c740       __xmm@41f00000000000000000000000000000 10063740     glib:averagetimer.obj
 0002:0000c750       __xmm@7fffffffffffffff7fffffffffffffff 10063750     tlib:heartrate.obj
 0002:0000c760       __xmm@80000000000000008000000000000000 10063760     tlib:physics.obj
 0002:0000c770       __xmm@c7efffffe000000047efffffe0000000 10063770     glib:signalstrengthmeter.obj
 0002:0000c7a0       __load_config_used         100637a0     MSVCRT:loadcfg.obj
 0002:0000c7fc       ??_R4qtFormula@@6B@        100637fc     dll.obj
 0002:0000c810       ??_R3qtFormula@@8          10063810     dll.obj
 0002:0000c820       ??_R2qtFormula@@8          10063820     dll.obj
 0002:0000c828       ??_R1A@?0A@EA@qtFormula@@8 10063828     dll.obj
 0002:0000c844       ??_R4CRF@@6B@              10063844     rmg:crf.obj
 0002:0000c858       ??_R3CRF@@8                10063858     rmg:crf.obj
 0002:0000c868       ??_R2CRF@@8                10063868     rmg:crf.obj
 0002:0000c870       ??_R1A@?0A@EA@CRF@@8       10063870     rmg:crf.obj
 0002:0000c88c       ??_R4QThread@@6B@          1006388c     ctsrv:ctsrv.obj
 0002:0000c8a0       ??_R3QThread@@8            100638a0     ctsrv:ctsrv.obj
 0002:0000c8b0       ??_R2QThread@@8            100638b0     ctsrv:ctsrv.obj
 0002:0000c8bc       ??_R1A@?0A@EA@QThread@@8   100638bc     ctsrv:ctsrv.obj
 0002:0000c8d8       ??_R1A@?0A@EA@QObject@@8   100638d8     ctsrv:ctsrv.obj
 0002:0000c8f4       ??_R3QObject@@8            100638f4     ctsrv:ctsrv.obj
 0002:0000c904       ??_R2QObject@@8            10063904     ctsrv:ctsrv.obj
 0002:0000c90c       ??_R4QCoreApplication@@6B@ 1006390c     ctsrv:ctsrv.obj
 0002:0000c920       ??_R3QCoreApplication@@8   10063920     ctsrv:ctsrv.obj
 0002:0000c930       ??_R2QCoreApplication@@8   10063930     ctsrv:ctsrv.obj
 0002:0000c93c       ??_R1A@?0A@EA@QCoreApplication@@8 1006393c     ctsrv:ctsrv.obj
 0002:0000c958       ??_R4Ctsrv@RACERMATE@@6B@  10063958     ctsrv:ctsrv.obj
 0002:0000c96c       ??_R3Ctsrv@RACERMATE@@8    1006396c     ctsrv:ctsrv.obj
 0002:0000c97c       ??_R2Ctsrv@RACERMATE@@8    1006397c     ctsrv:ctsrv.obj
 0002:0000c988       ??_R1A@?0A@EA@Ctsrv@RACERMATE@@8 10063988     ctsrv:ctsrv.obj
 0002:0000c9a4       ??_R4Rider2@@6B@           100639a4     ctsrv:udp_client.obj
 0002:0000c9b8       ??_R3Rider2@@8             100639b8     ctsrv:udp_client.obj
 0002:0000c9c8       ??_R2Rider2@@8             100639c8     ctsrv:udp_client.obj
 0002:0000c9d4       ??_R1A@?0A@EA@Rider2@@8    100639d4     ctsrv:udp_client.obj
 0002:0000c9f0       ??_R4UDPClient@RACERMATE@@6B@ 100639f0     ctsrv:udp_client.obj
 0002:0000ca04       ??_R3UDPClient@RACERMATE@@8 10063a04     ctsrv:udp_client.obj
 0002:0000ca14       ??_R2UDPClient@RACERMATE@@8 10063a14     ctsrv:udp_client.obj
 0002:0000ca20       ??_R1A@?0A@EA@UDPClient@RACERMATE@@8 10063a20     ctsrv:udp_client.obj
 0002:0000ca3c       ??_R4QTimer@@6B@           10063a3c     ctsrv:ctsrvworker.obj
 0002:0000ca50       ??_R3QTimer@@8             10063a50     ctsrv:ctsrvworker.obj
 0002:0000ca60       ??_R2QTimer@@8             10063a60     ctsrv:ctsrvworker.obj
 0002:0000ca6c       ??_R1A@?0A@EA@QTimer@@8    10063a6c     ctsrv:ctsrvworker.obj
 0002:0000ca88       ??_R4QUdpSocket@@6B@       10063a88     ctsrv:ctsrvworker.obj
 0002:0000ca9c       ??_R3QUdpSocket@@8         10063a9c     ctsrv:ctsrvworker.obj
 0002:0000caac       ??_R2QUdpSocket@@8         10063aac     ctsrv:ctsrvworker.obj
 0002:0000cac0       ??_R1A@?0A@EA@QUdpSocket@@8 10063ac0     ctsrv:ctsrvworker.obj
 0002:0000cadc       ??_R1A@?0A@EA@QAbstractSocket@@8 10063adc     ctsrv:ctsrvworker.obj
 0002:0000caf8       ??_R3QAbstractSocket@@8    10063af8     ctsrv:ctsrvworker.obj
 0002:0000cb08       ??_R2QAbstractSocket@@8    10063b08     ctsrv:ctsrvworker.obj
 0002:0000cb18       ??_R1A@?0A@EA@QIODevice@@8 10063b18     ctsrv:ctsrvworker.obj
 0002:0000cb34       ??_R3QIODevice@@8          10063b34     ctsrv:ctsrvworker.obj
 0002:0000cb44       ??_R2QIODevice@@8          10063b44     ctsrv:ctsrvworker.obj
 0002:0000cb50       ??_R4ctsrvWorker@RACERMATE@@6B@ 10063b50     ctsrv:ctsrvworker.obj
 0002:0000cb64       ??_R3ctsrvWorker@RACERMATE@@8 10063b64     ctsrv:ctsrvworker.obj
 0002:0000cb74       ??_R2ctsrvWorker@RACERMATE@@8 10063b74     ctsrv:ctsrvworker.obj
 0002:0000cb80       ??_R1A@?0A@EA@ctsrvWorker@RACERMATE@@8 10063b80     ctsrv:ctsrvworker.obj
 0002:0000cb9c       ??_R4ANT@RACERMATE@@6B@    10063b9c     rmant:ant.obj
 0002:0000cbb0       ??_R3ANT@RACERMATE@@8      10063bb0     rmant:ant.obj
 0002:0000cbc0       ??_R2ANT@RACERMATE@@8      10063bc0     rmant:ant.obj
 0002:0000cbcc       ??_R1A@?0A@EA@ANT@RACERMATE@@8 10063bcc     rmant:ant.obj
 0002:0000cbe8       ??_R4ANTDEV@@6B@           10063be8     rmant:antdev.obj
 0002:0000cbfc       ??_R3ANTDEV@@8             10063bfc     rmant:antdev.obj
 0002:0000cc0c       ??_R2ANTDEV@@8             10063c0c     rmant:antdev.obj
 0002:0000cc18       ??_R1A@?0A@EA@ANTDEV@@8    10063c18     rmant:antdev.obj
 0002:0000cc34       ??_R4antWorker@RACERMATE@@6B@ 10063c34     rmant:antworker.obj
 0002:0000cc48       ??_R3antWorker@RACERMATE@@8 10063c48     rmant:antworker.obj
 0002:0000cc58       ??_R2antWorker@RACERMATE@@8 10063c58     rmant:antworker.obj
 0002:0000cc64       ??_R1A@?0A@EA@antWorker@RACERMATE@@8 10063c64     rmant:antworker.obj
 0002:0000cc80       ??_R4type_info@@6B@        10063c80     MSVCRT:std_type_info_static.obj
 0002:0000cc94       ??_R3type_info@@8          10063c94     MSVCRT:std_type_info_static.obj
 0002:0000cca4       ??_R2type_info@@8          10063ca4     MSVCRT:std_type_info_static.obj
 0002:0000ccac       ??_R1A@?0A@EA@type_info@@8 10063cac     MSVCRT:std_type_info_static.obj
 0002:0000ccc8       ??_R4exception@std@@6B@    10063cc8     MSVCRT:throw_bad_alloc.obj
 0002:0000ccdc       ??_R3exception@std@@8      10063cdc     MSVCRT:throw_bad_alloc.obj
 0002:0000ccec       ??_R2exception@std@@8      10063cec     MSVCRT:throw_bad_alloc.obj
 0002:0000ccf4       ??_R1A@?0A@EA@exception@std@@8 10063cf4     MSVCRT:throw_bad_alloc.obj
 0002:0000cd10       ??_R4bad_alloc@std@@6B@    10063d10     MSVCRT:throw_bad_alloc.obj
 0002:0000cd24       ??_R3bad_alloc@std@@8      10063d24     MSVCRT:throw_bad_alloc.obj
 0002:0000cd34       ??_R2bad_alloc@std@@8      10063d34     MSVCRT:throw_bad_alloc.obj
 0002:0000cd40       ??_R1A@?0A@EA@bad_alloc@std@@8 10063d40     MSVCRT:throw_bad_alloc.obj
 0002:0000cd5c       ??_R4bad_array_new_length@std@@6B@ 10063d5c     MSVCRT:throw_bad_alloc.obj
 0002:0000cd70       ??_R3bad_array_new_length@std@@8 10063d70     MSVCRT:throw_bad_alloc.obj
 0002:0000cd80       ??_R2bad_array_new_length@std@@8 10063d80     MSVCRT:throw_bad_alloc.obj
 0002:0000cd90       ??_R1A@?0A@EA@bad_array_new_length@std@@8 10063d90     MSVCRT:throw_bad_alloc.obj
 0002:0000cdac       ??_R4twoPoleFilter@@6B@    10063dac     rmg:twopolefilter.obj
 0002:0000cdc0       ??_R3twoPoleFilter@@8      10063dc0     rmg:twopolefilter.obj
 0002:0000cdd0       ??_R2twoPoleFilter@@8      10063dd0     rmg:twopolefilter.obj
 0002:0000cdd8       ??_R1A@?0A@EA@twoPoleFilter@@8 10063dd8     rmg:twopolefilter.obj
 0002:0000cdf4       ??_R4Person@@6B@           10063df4     common:person.obj
 0002:0000ce08       ??_R1A@?0A@EA@Person@@8    10063e08     common:person.obj
 0002:0000ce24       ??_R2Person@@8             10063e24     common:person.obj
 0002:0000ce2c       ??_R3Person@@8             10063e2c     common:person.obj
 0002:0000ce3c       ??_R4Logger@@6B@           10063e3c     glib:logger.obj
 0002:0000ce50       ??_R2Logger@@8             10063e50     glib:logger.obj
 0002:0000ce58       ??_R1A@?0A@EA@Logger@@8    10063e58     glib:logger.obj
 0002:0000ce74       ??_R3Logger@@8             10063e74     glib:logger.obj
 0002:0000ce84       ??_R1A@?0A@EA@fatalError@@8 10063e84     glib:win_utils.obj
 0002:0000cea0       ??_R4fatalError@@6B@       10063ea0     glib:win_utils.obj
 0002:0000ceb4       ??_R3fatalError@@8         10063eb4     glib:win_utils.obj
 0002:0000cec4       ??_R2fatalError@@8         10063ec4     glib:win_utils.obj
 0002:0000cecc       ??_R1A@?0A@EA@fastTimer@@8 10063ecc     glib:fasttimer.obj
 0002:0000cee8       ??_R2fastTimer@@8          10063ee8     glib:fasttimer.obj
 0002:0000cef0       ??_R4fastTimer@@6B@        10063ef0     glib:fasttimer.obj
 0002:0000cf04       ??_R3fastTimer@@8          10063f04     glib:fasttimer.obj
 0002:0000cf14       ??_R4Serial@@6B@           10063f14     glib:serial.obj
 0002:0000cf28       ??_R1A@?0A@EA@Serial@@8    10063f28     glib:serial.obj
 0002:0000cf44       ??_R3Serial@@8             10063f44     glib:serial.obj
 0002:0000cf54       ??_R2Serial@@8             10063f54     glib:serial.obj
 0002:0000cf5c       ??_R2Ini@@8                10063f5c     glib:ini.obj
 0002:0000cf64       ??_R4Ini@@6B@              10063f64     glib:ini.obj
 0002:0000cf78       ??_R3Ini@@8                10063f78     glib:ini.obj
 0002:0000cf88       ??_R1A@?0A@EA@Ini@@8       10063f88     glib:ini.obj
 0002:0000cfa4       ??_R3Err@@8                10063fa4     glib:err.obj
 0002:0000cfb4       ??_R4Err@@6B@              10063fb4     glib:err.obj
 0002:0000cfc8       ??_R2Err@@8                10063fc8     glib:err.obj
 0002:0000cfd0       ??_R1A@?0A@EA@Err@@8       10063fd0     glib:err.obj
 0002:0000cfec       ??_R4Formula@@6B@          10063fec     tlib:formula.obj
 0002:0000d000       ??_R3Formula@@8            10064000     tlib:formula.obj
 0002:0000d010       ??_R1A@?0A@EA@Formula@@8   10064010     tlib:formula.obj
 0002:0000d02c       ??_R2Formula@@8            1006402c     tlib:formula.obj
 0002:0000d034       ??_R1A@?0A@EA@Monarch@@8   10064034     tlib:monarch.obj
 0002:0000d050       ??_R3Monarch@@8            10064050     tlib:monarch.obj
 0002:0000d060       ??_R2Monarch@@8            10064060     tlib:monarch.obj
 0002:0000d068       ??_R4Monarch@@6B@          10064068     tlib:monarch.obj
 0002:0000d07c       ??_R2Physics@@8            1006407c     tlib:physics.obj
 0002:0000d084       ??_R3Physics@@8            10064084     tlib:physics.obj
 0002:0000d094       ??_R1A@?0A@EA@Physics@@8   10064094     tlib:physics.obj
 0002:0000d0b0       ??_R4Physics@@6B@          100640b0     tlib:physics.obj
 0002:0000d0c4       ??_R3Bike@@8               100640c4     tlib:bike.obj
 0002:0000d0d4       ??_R2Bike@@8               100640d4     tlib:bike.obj
 0002:0000d0dc       ??_R4Bike@@6B@             100640dc     tlib:bike.obj
 0002:0000d0f0       ??_R1A@?0A@EA@Bike@@8      100640f0     tlib:bike.obj
 0002:0000d10c       ??_R3Decoder@@8            1006410c     tlib:decoder.obj
 0002:0000d11c       ??_R4Decoder@@6B@          1006411c     tlib:decoder.obj
 0002:0000d130       ??_R2Decoder@@8            10064130     tlib:decoder.obj
 0002:0000d138       ??_R1A@?0A@EA@Decoder@@8   10064138     tlib:decoder.obj
 0002:0000d154       ??_R4dataSource@@6B@       10064154     tlib:datasource.obj
 0002:0000d168       ??_R2dataSource@@8         10064168     tlib:datasource.obj
 0002:0000d170       ??_R1A@?0A@EA@dataSource@@8 10064170     tlib:datasource.obj
 0002:0000d18c       ??_R3dataSource@@8         1006418c     tlib:datasource.obj
 0002:0000d19c       ??_R4Computrainer@@6B@     1006419c     tlib:computrainer.obj
 0002:0000d1b0       ??_R2Computrainer@@8       100641b0     tlib:computrainer.obj
 0002:0000d1c0       ??_R1A@?0A@EA@RTD@@8       100641c0     tlib:computrainer.obj
 0002:0000d1dc       ??_R2RTD@@8                100641dc     tlib:computrainer.obj
 0002:0000d1e8       ??_R1A@?0A@EA@Computrainer@@8 100641e8     tlib:computrainer.obj
 0002:0000d204       ??_R3Computrainer@@8       10064204     tlib:computrainer.obj
 0002:0000d214       ??_R3RTD@@8                10064214     tlib:computrainer.obj
 0002:0000d224       ??_R2Simulator@@8          10064224     tlib:simulator.obj
 0002:0000d230       ??_R1A@?0A@EA@Simulator@@8 10064230     tlib:simulator.obj
 0002:0000d24c       ??_R3Simulator@@8          1006424c     tlib:simulator.obj
 0002:0000d25c       ??_R4Simulator@@6B@        1006425c     tlib:simulator.obj
 0002:0000d270       ??_R3Performance@@8        10064270     tlib:performance.obj
 0002:0000d280       ??_R2Performance@@8        10064280     tlib:performance.obj
 0002:0000d28c       ??_R4Performance@@6B@      1006428c     tlib:performance.obj
 0002:0000d2a0       ??_R1A@?0A@EA@Performance@@8 100642a0     tlib:performance.obj
 0002:0000d2bc       ??_R2Velotron@@8           100642bc     tlib:velotron.obj
 0002:0000d2cc       ??_R1A@?0A@EA@Velotron@@8  100642cc     tlib:velotron.obj
 0002:0000d2e8       ??_R4Velotron@@6B@         100642e8     tlib:velotron.obj
 0002:0000d2fc       ??_R3Velotron@@8           100642fc     tlib:velotron.obj
 0002:0000d30c       ??_R3NVRAM@@8              1006430c     tlib:nvram.obj
 0002:0000d31c       ??_R1A@?0A@EA@NVRAM@@8     1006431c     tlib:nvram.obj
 0002:0000d338       ??_R2NVRAM@@8              10064338     tlib:nvram.obj
 0002:0000d340       ??_R4NVRAM@@6B@            10064340     tlib:nvram.obj
 0002:0000d354       ??_R3Course@@8             10064354     tlib:course.obj
 0002:0000d364       ??_R4Course@@6B@           10064364     tlib:course.obj
 0002:0000d378       ??_R2Course@@8             10064378     tlib:course.obj
 0002:0000d380       ??_R1A@?0A@EA@Course@@8    10064380     tlib:course.obj
 0002:0000d39c       ??_R4RTD@@6B@              1006439c     tlib:rtd.obj
 0002:0000d3b0       ??_R2computrainerDecoder@@8 100643b0     tlib:computrainer_decoder.obj
 0002:0000d3bc       ??_R4computrainerDecoder@@6B@ 100643bc     tlib:computrainer_decoder.obj
 0002:0000d3d0       ??_R1A@?0A@EA@computrainerDecoder@@8 100643d0     tlib:computrainer_decoder.obj
 0002:0000d3ec       ??_R3computrainerDecoder@@8 100643ec     tlib:computrainer_decoder.obj
 0002:0000d3fc       ??_R1A@?0A@EA@simDecoder@@8 100643fc     tlib:simdecoder.obj
 0002:0000d418       ??_R2simDecoder@@8         10064418     tlib:simdecoder.obj
 0002:0000d424       ??_R3simDecoder@@8         10064424     tlib:simdecoder.obj
 0002:0000d434       ??_R4simDecoder@@6B@       10064434     tlib:simdecoder.obj
 0002:0000d448       ??_R2performanceDecoder@@8 10064448     tlib:performance_decoder.obj
 0002:0000d454       ??_R3performanceDecoder@@8 10064454     tlib:performance_decoder.obj
 0002:0000d464       ??_R4performanceDecoder@@6B@ 10064464     tlib:performance_decoder.obj
 0002:0000d478       ??_R1A@?0A@EA@performanceDecoder@@8 10064478     tlib:performance_decoder.obj
 0002:0000d494       ??_R3velotronDecoder@@8    10064494     tlib:velotron_decoder.obj
 0002:0000d4a4       ??_R2velotronDecoder@@8    100644a4     tlib:velotron_decoder.obj
 0002:0000d4b0       ??_R1A@?0A@EA@velotronDecoder@@8 100644b0     tlib:velotron_decoder.obj
 0002:0000d4cc       ??_R4velotronDecoder@@6B@  100644cc     tlib:velotron_decoder.obj
 0002:0000d4e0       ??_R1A@?0A@EA@AverageTimer@@8 100644e0     glib:averagetimer.obj
 0002:0000d4fc       ??_R4AverageTimer@@6B@     100644fc     glib:averagetimer.obj
 0002:0000d510       ??_R2AverageTimer@@8       10064510     glib:averagetimer.obj
 0002:0000d518       ??_R3AverageTimer@@8       10064518     glib:averagetimer.obj
 0002:0000d528       ??_R1A@?0A@EA@LPFilter@@8  10064528     glib:lpfilter.obj
 0002:0000d544       ??_R2LPFilter@@8           10064544     glib:lpfilter.obj
 0002:0000d54c       ??_R4LPFilter@@6B@         1006454c     glib:lpfilter.obj
 0002:0000d560       ??_R3LPFilter@@8           10064560     glib:lpfilter.obj
 0002:0000d570       ??_R3Timeout@@8            10064570     glib:timeout.obj
 0002:0000d580       ??_R2Timeout@@8            10064580     glib:timeout.obj
 0002:0000d588       ??_R4Timeout@@6B@          10064588     glib:timeout.obj
 0002:0000d59c       ??_R1A@?0A@EA@Timeout@@8   1006459c     glib:timeout.obj
 0002:0000d5b8       ??_R2signalStrengthMeter@@8 100645b8     glib:signalstrengthmeter.obj
 0002:0000d5c0       ??_R1A@?0A@EA@signalStrengthMeter@@8 100645c0     glib:signalstrengthmeter.obj
 0002:0000d5dc       ??_R3signalStrengthMeter@@8 100645dc     glib:signalstrengthmeter.obj
 0002:0000d5ec       ??_R4signalStrengthMeter@@6B@ 100645ec     glib:signalstrengthmeter.obj
 0002:0000d600       ___safe_se_handler_table   10064600     <linker-defined>
 0002:0000db50       ___rtc_iaa                 10064b50     MSVCRT:_initsect_.obj
 0002:0000db54       ___rtc_izz                 10064b54     MSVCRT:_initsect_.obj
 0002:0000db58       ___rtc_taa                 10064b58     MSVCRT:_initsect_.obj
 0002:0000db5c       ___rtc_tzz                 10064b5c     MSVCRT:_initsect_.obj
 0002:000110dc       __TI2?AVbad_alloc@std@@    100680dc     MSVCRT:throw_bad_alloc.obj
 0002:000110ec       __CTA2?AVbad_alloc@std@@   100680ec     MSVCRT:throw_bad_alloc.obj
 0002:000110f8       __CT??_R0?AVbad_alloc@std@@@8??0bad_alloc@std@@QAE@ABV01@@Z12 100680f8     MSVCRT:throw_bad_alloc.obj
 0002:00011114       __CT??_R0?AVexception@std@@@8??0exception@std@@QAE@ABV01@@Z12 10068114     MSVCRT:throw_bad_alloc.obj
 0002:00011130       __TI3?AVbad_array_new_length@std@@ 10068130     MSVCRT:throw_bad_alloc.obj
 0002:00011140       __CTA3?AVbad_array_new_length@std@@ 10068140     MSVCRT:throw_bad_alloc.obj
 0002:00011150       __CT??_R0?AVbad_array_new_length@std@@@8??0bad_array_new_length@std@@QAE@ABV01@@Z12 10068150     MSVCRT:throw_bad_alloc.obj
 0002:000111a8       __CTA1H                    100681a8     glib:serial.obj
 0002:000111b0       __CT??_R0H@84              100681b0     glib:serial.obj
 0002:000111cc       __TI1H                     100681cc     glib:serial.obj
 0002:000111dc       __TI1?AVfatalError@@       100681dc     glib:bmp.obj
 0002:000111ec       __CT??_R0?AVfatalError@@@8??0fatalError@@QAE@ABV0@@Z268 100681ec     glib:bmp.obj
 0002:00011208       __CTA1?AVfatalError@@      10068208     glib:bmp.obj
 0002:00011210       __CT??_R0PAX@84            10068210     tlib:physics.obj
 0002:0001122c       __TI2PAD                   1006822c     tlib:physics.obj
 0002:0001123c       __CT??_R0PAD@84            1006823c     tlib:physics.obj
 0002:00011258       __CTA2PAD                  10068258     tlib:physics.obj
 0002:00014b74       __IMPORT_DESCRIPTOR_WINMM  1006bb74     winmm:WINMM.dll
 0002:00014b88       __IMPORT_DESCRIPTOR_Qt5Core 1006bb88     qt5core:Qt5Core.dll
 0002:00014b9c       __IMPORT_DESCRIPTOR_KERNEL32 1006bb9c     kernel32:KERNEL32.dll
 0002:00014bb0       __IMPORT_DESCRIPTOR_ADVAPI32 1006bbb0     advapi32:ADVAPI32.dll
 0002:00014bc4       __IMPORT_DESCRIPTOR_SHELL32 1006bbc4     shell32:SHELL32.dll
 0002:00014bd8       __IMPORT_DESCRIPTOR_MSVCP140 1006bbd8     msvcprt:MSVCP140.dll
 0002:00014bec       __IMPORT_DESCRIPTOR_VCRUNTIME140 1006bbec     vcruntime:VCRUNTIME140.dll
 0002:00014c00       __IMPORT_DESCRIPTOR_api-ms-win-crt-runtime-l1-1-0 1006bc00     ucrt:api-ms-win-crt-runtime-l1-1-0.dll
 0002:00014c14       __IMPORT_DESCRIPTOR_api-ms-win-crt-convert-l1-1-0 1006bc14     ucrt:api-ms-win-crt-convert-l1-1-0.dll
 0002:00014c28       __IMPORT_DESCRIPTOR_api-ms-win-crt-stdio-l1-1-0 1006bc28     ucrt:api-ms-win-crt-stdio-l1-1-0.dll
 0002:00014c3c       __IMPORT_DESCRIPTOR_api-ms-win-crt-string-l1-1-0 1006bc3c     ucrt:api-ms-win-crt-string-l1-1-0.dll
 0002:00014c50       __IMPORT_DESCRIPTOR_api-ms-win-crt-math-l1-1-0 1006bc50     ucrt:api-ms-win-crt-math-l1-1-0.dll
 0002:00014c64       __IMPORT_DESCRIPTOR_api-ms-win-crt-utility-l1-1-0 1006bc64     ucrt:api-ms-win-crt-utility-l1-1-0.dll
 0002:00014c78       __IMPORT_DESCRIPTOR_api-ms-win-crt-time-l1-1-0 1006bc78     ucrt:api-ms-win-crt-time-l1-1-0.dll
 0002:00014c8c       __IMPORT_DESCRIPTOR_api-ms-win-crt-heap-l1-1-0 1006bc8c     ucrt:api-ms-win-crt-heap-l1-1-0.dll
 0002:00014ca0       __IMPORT_DESCRIPTOR_api-ms-win-crt-filesystem-l1-1-0 1006bca0     ucrt:api-ms-win-crt-filesystem-l1-1-0.dll
 0002:00014cb4       __IMPORT_DESCRIPTOR_COMCTL32 1006bcb4     comctl32:COMCTL32.dll
 0002:00014cc8       __IMPORT_DESCRIPTOR_WS2_32 1006bcc8     ws2_32:WS2_32.dll
 0002:00014cdc       __IMPORT_DESCRIPTOR_Qt5Network 1006bcdc     qt5network:Qt5Network.dll
 0002:00014cf0       __IMPORT_DESCRIPTOR_USER32 1006bcf0     user32:USER32.dll
 0002:00014d04       __IMPORT_DESCRIPTOR_ole32  1006bd04     ole32:ole32.dll
 0002:00014d18       __IMPORT_DESCRIPTOR_api-ms-win-crt-environment-l1-1-0 1006bd18     ucrt:api-ms-win-crt-environment-l1-1-0.dll
 0002:00014d2c       __NULL_IMPORT_DESCRIPTOR   1006bd2c     winmm:WINMM.dll
 0003:00000000       ?devstrs@@3PAPBDA          10070000     dll_globals.obj
 0003:00000030       ?bluetooth_delay@@3_NA     10070030     dll_globals.obj
 0003:00000034       ?ctmask@@3PAHA             10070034     dll_globals.obj
 0003:0000004c       ?vtmask@@3PAHA             1007004c     dll_globals.obj
 0003:00000064       ?DEVICE_TIMEOUT_MS@@3KA    10070064     dll_globals.obj
 0003:00000068       ?err_strs@@3PAPBDA         10070068     errors.obj
 0003:000000bc       ?staticMetaObject@Ctsrv@RACERMATE@@2UQMetaObject@@B 100700bc     ctsrv:moc_ctsrv.obj
 0003:000000d4       ?staticMetaObject@UDPClient@RACERMATE@@2UQMetaObject@@B 100700d4     ctsrv:moc_udp_client.obj
 0003:000000ec       ?staticMetaObject@ctsrvWorker@RACERMATE@@2UQMetaObject@@B 100700ec     ctsrv:moc_ctsrvworker.obj
 0003:00000104       ?staticMetaObject@ANT@RACERMATE@@2UQMetaObject@@B 10070104     rmant:moc_ant.obj
 0003:00000120       ?statestr@ANTCHAN@@2PAY0CA@DA 10070120     rmant:antchan.obj
 0003:000001a0       ?reset@ANTDEV@@0PAEA       100701a0     rmant:antdev.obj
 0003:000001a8       ?set_network_key@ANTDEV@@0PAEA 100701a8     rmant:antdev.obj
 0003:000001b8       ?assign_channel_extended@ANTDEV@@0PAEA 100701b8     rmant:antdev.obj
 0003:000001c0       ?assign_channel@ANTDEV@@0PAEA 100701c0     rmant:antdev.obj
 0003:000001c8       ?unassign_channel@ANTDEV@@0PAEA 100701c8     rmant:antdev.obj
 0003:000001d0       ?set_channel_id@ANTDEV@@0PAEA 100701d0     rmant:antdev.obj
 0003:000001dc       ?set_extended_messages@ANTDEV@@0PAEA 100701dc     rmant:antdev.obj
 0003:000001e4       ?lp_search_timeout@ANTDEV@@0PAEA 100701e4     rmant:antdev.obj
 0003:000001ec       ?search_timeout@ANTDEV@@0PAEA 100701ec     rmant:antdev.obj
 0003:000001f4       ?open_channel@ANTDEV@@0PAEA 100701f4     rmant:antdev.obj
 0003:000001fc       ?close_channel@ANTDEV@@0PAEA 100701fc     rmant:antdev.obj
 0003:00000204       ?get_caps@ANTDEV@@0PAEA    10070204     rmant:antdev.obj
 0003:0000020c       ?get_channel_status@ANTDEV@@0PAEA 1007020c     rmant:antdev.obj
 0003:00000214       ?channel_period@ANTDEV@@0PAEA 10070214     rmant:antdev.obj
 0003:0000021c       ?set_channel_freq@ANTDEV@@0PAEA 1007021c     rmant:antdev.obj
 0003:00000224       ?lib_config@ANTDEV@@0PAEA  10070224     rmant:antdev.obj
 0003:0000022c       ?staticMetaObject@ANTDEV@@2UQMetaObject@@B 1007022c     rmant:moc_antdev.obj
 0003:00000244       ?staticMetaObject@antWorker@RACERMATE@@2UQMetaObject@@B 10070244     rmant:moc_antworker.obj
 0003:0000025c       ___security_cookie_complement 1007025c     MSVCRT:gs_cookie.obj
 0003:00000260       ___security_cookie         10070260     MSVCRT:gs_cookie.obj
 0003:00000264       __fltused                  10070264     MSVCRT:fltused.obj
 0003:00000268       ___scrt_native_dllmain_reason 10070268     MSVCRT:utility.obj
 0003:00000270       ___isa_enabled             10070270     MSVCRT:_cpu_disp_.obj
 0003:00000274       ___scrt_ucrt_dll_is_in_use 10070274     MSVCRT:ucrt_stubs.obj
 0003:00000280       ?modestrs@Physics@@2PAPBDA 10070280     tlib:physics.obj
 0003:00000324       _windows_version           10070324     libusb-1.0:windows_winusb.obj
 0003:00000380       ??_R0?AVqtFormula@@@8      10070380     dll.obj
 0003:00000398       ??_R0?AVCRF@@@8            10070398     rmg:crf.obj
 0003:000003ac       ??_R0?AVQThread@@@8        100703ac     ctsrv:ctsrv.obj
 0003:000003c4       ??_R0?AVQObject@@@8        100703c4     ctsrv:ctsrv.obj
 0003:000003dc       ??_R0?AVQCoreApplication@@@8 100703dc     ctsrv:ctsrv.obj
 0003:000003fc       ??_R0?AVCtsrv@RACERMATE@@@8 100703fc     ctsrv:ctsrv.obj
 0003:0000041c       ??_R0?AVRider2@@@8         1007041c     ctsrv:udp_client.obj
 0003:00000434       ??_R0?AVUDPClient@RACERMATE@@@8 10070434     ctsrv:udp_client.obj
 0003:00000458       ??_R0?AVQTimer@@@8         10070458     ctsrv:ctsrvworker.obj
 0003:00000470       ??_R0?AVQUdpSocket@@@8     10070470     ctsrv:ctsrvworker.obj
 0003:0000048c       ??_R0?AVQAbstractSocket@@@8 1007048c     ctsrv:ctsrvworker.obj
 0003:000004ac       ??_R0?AVQIODevice@@@8      100704ac     ctsrv:ctsrvworker.obj
 0003:000004c4       ??_R0?AVctsrvWorker@RACERMATE@@@8 100704c4     ctsrv:ctsrvworker.obj
 0003:000004e8       ??_R0?AVANT@RACERMATE@@@8  100704e8     rmant:ant.obj
 0003:00000504       ??_R0?AVANTDEV@@@8         10070504     rmant:antdev.obj
 0003:0000051c       ??_R0?AVantWorker@RACERMATE@@@8 1007051c     rmant:antworker.obj
 0003:00000540       ??_R0?AVtype_info@@@8      10070540     MSVCRT:std_type_info_static.obj
 0003:00000558       ??_R0?AVbad_alloc@std@@@8  10070558     MSVCRT:throw_bad_alloc.obj
 0003:00000574       ??_R0?AVexception@std@@@8  10070574     MSVCRT:throw_bad_alloc.obj
 0003:00000590       ??_R0?AVbad_array_new_length@std@@@8 10070590     MSVCRT:throw_bad_alloc.obj
 0003:000005b8       ??_R0?AVtwoPoleFilter@@@8  100705b8     rmg:twopolefilter.obj
 0003:000005d4       ??_R0?AVPerson@@@8         100705d4     common:person.obj
 0003:000005ec       ??_R0?AVLogger@@@8         100705ec     glib:logger.obj
 0003:00000604       ??_R0?AVfatalError@@@8     10070604     glib:win_utils.obj
 0003:00000620       ??_R0?AVfastTimer@@@8      10070620     glib:fasttimer.obj
 0003:00000638       ??_R0H@8                   10070638     glib:serial.obj
 0003:00000644       ??_R0?AVSerial@@@8         10070644     glib:serial.obj
 0003:0000065c       ??_R0?AVIni@@@8            1007065c     glib:ini.obj
 0003:00000670       ??_R0?AVErr@@@8            10070670     glib:err.obj
 0003:00000684       ??_R0?AVFormula@@@8        10070684     tlib:formula.obj
 0003:0000069c       ??_R0?AVMonarch@@@8        1007069c     tlib:monarch.obj
 0003:000006b4       ??_R0PAX@8                 100706b4     tlib:physics.obj
 0003:000006c4       ??_R0?AVPhysics@@@8        100706c4     tlib:physics.obj
 0003:000006dc       ??_R0PAD@8                 100706dc     tlib:physics.obj
 0003:000006ec       ??_R0?AVBike@@@8           100706ec     tlib:bike.obj
 0003:00000700       ??_R0?AVDecoder@@@8        10070700     tlib:decoder.obj
 0003:00000718       ??_R0?AVdataSource@@@8     10070718     tlib:datasource.obj
 0003:00000734       ??_R0?AVRTD@@@8            10070734     tlib:computrainer.obj
 0003:00000748       ??_R0?AVComputrainer@@@8   10070748     tlib:computrainer.obj
 0003:00000764       ??_R0?AVSimulator@@@8      10070764     tlib:simulator.obj
 0003:0000077c       ??_R0?AVPerformance@@@8    1007077c     tlib:performance.obj
 0003:00000798       ??_R0?AVVelotron@@@8       10070798     tlib:velotron.obj
 0003:000007b0       ??_R0?AVNVRAM@@@8          100707b0     tlib:nvram.obj
 0003:000007c4       ??_R0?AVCourse@@@8         100707c4     tlib:course.obj
 0003:000007dc       ??_R0?AVcomputrainerDecoder@@@8 100707dc     tlib:computrainer_decoder.obj
 0003:00000800       ??_R0?AVsimDecoder@@@8     10070800     tlib:simdecoder.obj
 0003:0000081c       ??_R0?AVperformanceDecoder@@@8 1007081c     tlib:performance_decoder.obj
 0003:00000840       ??_R0?AVvelotronDecoder@@@8 10070840     tlib:velotron_decoder.obj
 0003:00000860       ??_R0?AVAverageTimer@@@8   10070860     glib:averagetimer.obj
 0003:0000087c       ??_R0?AVLPFilter@@@8       1007087c     glib:lpfilter.obj
 0003:00000894       ??_R0?AVTimeout@@@8        10070894     glib:timeout.obj
 0003:000008ac       ??_R0?AVsignalStrengthMeter@@@8 100708ac     glib:signalstrengthmeter.obj
 0003:00000be8       ?last_port_time@@3KA       10070be8     dll_globals.obj
 0003:00000bec       ?glisten_port@@3HA         10070bec     dll_globals.obj
 0003:00000bf0       ?gbroadcast_port@@3HA      10070bf0     dll_globals.obj
 0003:00000bf4       ?dll_ant_timer_event@@3HA  10070bf4     dll_globals.obj
 0003:00000bf8       ?personal_path@@3PADA      10070bf8     dll_globals.obj
 0003:00000cfc       ?dll_tick@@3HA             10070cfc     dll_globals.obj
 0003:00000d00       ?DLL_LOGFILE@@3PADA        10070d00     dll_globals.obj
 0003:00000e04       ?timer_calls@@3KA          10070e04     dll_globals.obj
 0003:00000e08       ?buildDate@@3PADA          10070e08     dll_globals.obj
 0003:00000e28       ?udp_client_app_key_list@@3PADA 10070e28     dll_globals.obj
 0003:00000f28       ?lastsynctime@@3KA         10070f28     dll_globals.obj
 0003:00000f2c       ?ip_discover@@3_NA         10070f2c     dll_globals.obj
 0003:00000f2d       ?udp@@3_NA                 10070f2d     dll_globals.obj
 0003:00000f2e       ?gfile_mode@@3_NA          10070f2e     dll_globals.obj
 0003:00000f2f       ?calibrating@@3_NA         10070f2f     dll_globals.obj
 0003:00000f30       ?server@@3PAVCtsrv@RACERMATE@@A 10070f30     dll_globals.obj
 0003:00000f34       ?ant@@3PAVANT@RACERMATE@@A 10070f34     dll_globals.obj
 0003:00000f38       ?gstring@@3PADA            10070f38     dll_globals.obj
 0003:00001738       ?glog@@3PAVLogger@@A       10071738     dll_globals.obj
 0003:0000173c       ?instances@@3HA            1007173c     dll_globals.obj
 0003:00001740       ?connected@@3_NA           10071740     dll_globals.obj
 0003:00001748       ?nobars@@3PAMA             10071748     dll_globals.obj
 0003:000017a8       ?cryptor@@3VCRF@@A         100717a8     dll_globals.obj
 0003:000018bc       ?dllstarttime@@3KA         100718bc     dll_globals.obj
 0003:000018c0       ?assgot@@3V?$_List_const_iterator@V?$_List_val@U?$_List_simple_types@U?$pair@$$CBV?$basic_string@DU?$char_traits@D@std@@V?$allocator@D@2@@std@@G@std@@@std@@@std@@@std@@A 100718c0     dll_globals.obj
 0003:000018c4       ?devices@@3V?$unordered_map@V?$basic_string@DU?$char_traits@D@std@@V?$allocator@D@2@@std@@VDEVICE@@U?$hash@V?$basic_string@DU?$char_traits@D@std@@V?$allocator@D@2@@std@@@2@U?$equal_to@V?$basic_string@DU?$char_traits@D@std@@V?$allocator@D@2@@std@@@2@V?$allocator@U?$pair@$$CBV?$basic_string@DU?$char_traits@D@std@@V?$allocator@D@2@@std@@VDEVICE@@@std@@@2@@std@@A 100718c4     dll_globals.obj
 0003:000018e4       ?associations@@3V?$unordered_map@V?$basic_string@DU?$char_traits@D@std@@V?$allocator@D@2@@std@@GU?$hash@V?$basic_string@DU?$char_traits@D@std@@V?$allocator@D@2@@std@@@2@U?$equal_to@V?$basic_string@DU?$char_traits@D@std@@V?$allocator@D@2@@std@@@2@V?$allocator@U?$pair@$$CBV?$basic_string@DU?$char_traits@D@std@@V?$allocator@D@2@@std@@G@std@@@2@@std@@A 100718e4     dll_globals.obj
 0003:00001984       ?dirs@@3V?$vector@V?$basic_string@DU?$char_traits@D@std@@V?$allocator@D@2@@std@@V?$allocator@V?$basic_string@DU?$char_traits@D@std@@V?$allocator@D@2@@std@@@2@@std@@A 10071984     rmg:comglobs.obj
 0003:00001990       ?rc4stack@@3V?$stack@UTCRF@@V?$deque@UTCRF@@V?$allocator@UTCRF@@@std@@@std@@@std@@A 10071990     rmg:crf.obj
 0003:000019a4       ?m_instance@Ctsrv@RACERMATE@@0PAV12@A 100719a4     ctsrv:ctsrv.obj
 0003:000019ac       ?m_instance@ANT@RACERMATE@@0PAV12@A 100719ac     rmant:ant.obj
 0003:000019b0       ?instances@ANTDEV@@0HA     100719b0     rmant:antdev.obj
 0003:000019b4       ?types@ANTDEV@@0V?$QMap@HVQString@@@@A 100719b4     rmant:antdev.obj
 0003:000019b8       ?event_strings@ANTDEV@@0V?$QMap@HVQString@@@@A 100719b8     rmant:antdev.obj
 0003:000019bc       ?startup_strings@ANTDEV@@0V?$QMap@HVQString@@@@A 100719bc     rmant:antdev.obj
 0003:000019c0       ?msg_strings@ANTDEV@@0V?$QMap@HVQString@@@@A 100719c0     rmant:antdev.obj
 0003:000019d0       ___scrt_current_native_startup_state 100719d0     MSVCRT:utility.obj
 0003:000019d4       ___scrt_native_startup_lock 100719d4     MSVCRT:utility.obj
 0003:00001d14       ___isa_available           10071d14     MSVCRT:_cpu_disp_.obj
 0003:00001d18       ___favor                   10071d18     MSVCRT:_cpu_disp_.obj
 0003:00001d1c       ___scrt_debugger_hook_flag 10071d1c     MSVCRT:utility_desktop.obj
 0003:00001d20       ?__type_info_root_node@@3U__type_info_node@@A 10071d20     MSVCRT:tncleanup.obj
 0003:00001d28       ?nbars@BARINFO@qt_SS@RACERMATE@@0HA 10071d28     rmg:qt_ss.obj
 0003:00001d30       ?degperseg@BARINFO@qt_SS@RACERMATE@@0NA 10071d30     rmg:qt_ss.obj
 0003:00001d38       ?_OptionsStorage@?1??__local_stdio_printf_options@@9@4_KA 10071d38     common:person.obj
 0003:00001d40       ?gMachineCaps@@3U_MACHINE_CAPS@@A 10071d40     glib:win_utils.obj
 0003:00001d54       ?gblog@Physics@@2_NA       10071d54     tlib:physics.obj
 0003:00001d55       ?bini@Physics@@2_NA        10071d55     tlib:physics.obj
 0003:00001d56       ?gbgearslog@Bike@@2_NA     10071d56     tlib:bike.obj
 0003:00001d57       ?gblog@Bike@@2_NA          10071d57     tlib:bike.obj
 0003:00001d58       ?mode@Physics@@2W4MODE@1@A 10071d58     tlib:physics.obj
 0003:00001d5c       ?instances@Decoder@@1HA    10071d5c     tlib:decoder.obj
 0003:00001d60       ?bini@Decoder@@2_NA        10071d60     tlib:decoder.obj
 0003:00001d61       ?decoderlog@Decoder@@2_NA  10071d61     tlib:decoder.obj
 0003:00001d62       ?gblog@dataSource@@2_NA    10071d62     tlib:datasource.obj
 0003:00001d63       ?bini@Heartrate@@2_NA      10071d63     tlib:heartrate.obj
 0003:00001d64       ?abs_tick@Decoder@@1HA     10071d64     tlib:decoder.obj
 0003:00001d68       ?instances@Client@@0HA     10071d68     tlib:client.obj
 0003:00001d6c       ?n_sim_decoders@simDecoder@@0HA 10071d6c     tlib:simdecoder.obj
 0003:00001d80       _active_contexts_lock      10071d80     libusb-1.0:core.obj
 0003:00001d88       _usbi_default_context      10071d88     libusb-1.0:core.obj
 0003:00001d8c       _is_polling_set            10071d8c     libusb-1.0:poll_windows.obj
 0003:00001e54       ?hdrstrings@@3V?$vector@V?$basic_string@DU?$char_traits@D@std@@V?$allocator@D@2@@std@@V?$allocator@V?$basic_string@DU?$char_traits@D@std@@V?$allocator@D@2@@std@@@2@@std@@A 10071e54     tlib:physics.obj
 0003:000020b0       ?_OptionsStorage@?1??__local_stdio_scanf_options@@9@4_KA 100720b0     glib:utils.obj
 0003:000020dc       ___dyn_tls_init_callback   100720dc     <common>
 0003:000020e0       __poll_fd                  100720e0     <common>
 0003:000040e0       _poll_fd                   100740e0     <common>
 0003:000058e0       _active_contexts_list      100758e0     <common>

 entry point at        0001:00050f8b

 Static symbols

 0002:fffa9000       .idata$6                   10000000     shlwapi:SHLWAPI.dll
 0002:fffa9000       .idata$6                   10000000     comdlg32:COMDLG32.dll
 0002:fffa9000       .idata$6                   10000000     gdi32:GDI32.dll
 0002:fffa9000       .idata$6                   10000000     ucrt:api-ms-win-crt-conio-l1-1-0.dll
 0001:00000000       ??__Ehdrstrings@@YAXXZ     10001000 f   tlib:physics.obj
 0001:00000040       ??__Eassociations@@YAXXZ   10001040 f   dll_globals.obj
 0001:00000110       ??__Ecryptor@@YAXXZ        10001110 f   dll_globals.obj
 0001:00000130       ??__Edevices@@YAXXZ        10001130 f   dll_globals.obj
 0001:00000200       ??__Edllstarttime@@YAXXZ   10001200 f   dll_globals.obj
 0001:00000210       ??__Edirs@@YAXXZ           10001210 f   rmg:comglobs.obj
 0001:00000250       ??__Erc4stack@@YAXXZ       10001250 f   rmg:crf.obj
 0001:000002e0       ??__E?staticMetaObject@Ctsrv@RACERMATE@@2UQMetaObject@@B@@YAXXZ 100012e0 f   ctsrv:moc_ctsrv.obj
 0001:000002f0       ??__E?staticMetaObject@UDPClient@RACERMATE@@2UQMetaObject@@B@@YAXXZ 100012f0 f   ctsrv:moc_udp_client.obj
 0001:00000300       ??__E?staticMetaObject@ctsrvWorker@RACERMATE@@2UQMetaObject@@B@@YAXXZ 10001300 f   ctsrv:moc_ctsrvworker.obj
 0001:00000310       ??__E?staticMetaObject@ANT@RACERMATE@@2UQMetaObject@@B@@YAXXZ 10001310 f   rmant:moc_ant.obj
 0001:00000320       ??__E?event_strings@ANTDEV@@0V?$QMap@HVQString@@@@A@@YAXXZ 10001320 f   rmant:antdev.obj
 0001:00000540       ??__E?msg_strings@ANTDEV@@0V?$QMap@HVQString@@@@A@@YAXXZ 10001540 f   rmant:antdev.obj
 0001:00000820       ??__E?startup_strings@ANTDEV@@0V?$QMap@HVQString@@@@A@@YAXXZ 10001820 f   rmant:antdev.obj
 0001:00000940       ??__E?types@ANTDEV@@0V?$QMap@HVQString@@@@A@@YAXXZ 10001940 f   rmant:antdev.obj
 0001:000009f0       ??__E?staticMetaObject@ANTDEV@@2UQMetaObject@@B@@YAXXZ 100019f0 f   rmant:moc_antdev.obj
 0001:00000a00       ??__E?staticMetaObject@antWorker@RACERMATE@@2UQMetaObject@@B@@YAXXZ 10001a00 f   rmant:moc_antworker.obj
 0001:000024cf       __catch$?_Copy@?$basic_string@DU?$char_traits@D@std@@V?$allocator@D@2@@std@@QAEXII@Z$0 100034cf f i glib:utils.obj
 0001:00002575       __catch$?_Copy@?$basic_string@DU?$char_traits@D@std@@V?$allocator@D@2@@std@@QAEXII@Z$1 10003575 f i glib:utils.obj
 0001:00005a0a       __catch$?wrapper_function@thread@tthread@@CGIPAX@Z$0 10006a0a f   tinythread++:tinythread.obj
 0001:00006b9f       __catch$??$insert@V?$_Deque_const_iterator@V?$_Deque_val@U?$_Deque_simple_types@UFORMULA_PAIR@@@std@@@std@@@std@@@?$deque@UFORMULA_PAIR@@V?$allocator@UFORMULA_PAIR@@@std@@@std@@QAE?AV?$_Deque_iterator@V?$_Deque_val@U?$_Deque_simple_types@UFORMULA_PAIR@@@std@@@std@@@1@V?$_Deque_const_iterator@V?$_Deque_val@U?$_Deque_simple_types@UFORMULA_PAIR@@@std@@@std@@@1@00@Z$0 10007b9f f i tlib:formula.obj
 0001:00006c87       __catch$??$insert@V?$_Deque_const_iterator@V?$_Deque_val@U?$_Deque_simple_types@UFORMULA_PAIR@@@std@@@std@@@std@@@?$deque@UFORMULA_PAIR@@V?$allocator@UFORMULA_PAIR@@@std@@@std@@QAE?AV?$_Deque_iterator@V?$_Deque_val@U?$_Deque_simple_types@UFORMULA_PAIR@@@std@@@std@@@1@V?$_Deque_const_iterator@V?$_Deque_val@U?$_Deque_simple_types@UFORMULA_PAIR@@@std@@@std@@@1@00@Z$2 10007c87 f i tlib:formula.obj
 0001:00006da9       __catch$??$_Construct@V?$_Deque_const_iterator@V?$_Deque_val@U?$_Deque_simple_types@UFORMULA_PAIR@@@std@@@std@@@std@@@?$deque@UFORMULA_PAIR@@V?$allocator@UFORMULA_PAIR@@@std@@@std@@QAEXV?$_Deque_const_iterator@V?$_Deque_val@U?$_Deque_simple_types@UFORMULA_PAIR@@@std@@@std@@@1@0@Z$0 10007da9 f i tlib:formula.obj
 0001:00009fd0       $LN18                      1000afd0     tlib:physics.obj
 0001:0000eb40       _common_configure_endpoints 1000fb40 f i libusb-1.0:windows_winusb.obj
 0001:0000eb40       _composite_init            1000fb40 f i libusb-1.0:windows_winusb.obj
 0001:0000eb40       _unsupported_init          1000fb40 f i libusb-1.0:windows_winusb.obj
 0001:0000eb40       _composite_exit            1000fb40 f i libusb-1.0:windows_winusb.obj
 0001:0000eb40       _winusbx_abort_control     1000fb40 f i libusb-1.0:windows_winusb.obj
 0001:0000eb40       _unsupported_exit          1000fb40 f i libusb-1.0:windows_winusb.obj
 0001:00011ab0       $LN74                      10012ab0     tlib:computrainer.obj
 0001:00011ad4       $LN69                      10012ad4     tlib:computrainer.obj
 0001:0001201c       $LN13                      1001301c     tlib:computrainer.obj
 0001:0001202c       $LN11                      1001302c     tlib:computrainer.obj
 0001:000154df       __catch$??$insert@V?$_Deque_const_iterator@V?$_Deque_val@U?$_Deque_simple_types@N@std@@@std@@@std@@@?$deque@NV?$allocator@N@std@@@std@@QAE?AV?$_Deque_iterator@V?$_Deque_val@U?$_Deque_simple_types@N@std@@@std@@@1@V?$_Deque_const_iterator@V?$_Deque_val@U?$_Deque_simple_types@N@std@@@std@@@1@00@Z$0 100164df f i tlib:velotron.obj
 0001:000155c7       __catch$??$insert@V?$_Deque_const_iterator@V?$_Deque_val@U?$_Deque_simple_types@N@std@@@std@@@std@@@?$deque@NV?$allocator@N@std@@@std@@QAE?AV?$_Deque_iterator@V?$_Deque_val@U?$_Deque_simple_types@N@std@@@std@@@1@V?$_Deque_const_iterator@V?$_Deque_val@U?$_Deque_simple_types@N@std@@@std@@@1@00@Z$2 100165c7 f i tlib:velotron.obj
 0001:0001576c       __catch$??$_Construct@V?$_Deque_const_iterator@V?$_Deque_val@U?$_Deque_simple_types@N@std@@@std@@@std@@@?$deque@NV?$allocator@N@std@@@std@@QAEXV?$_Deque_const_iterator@V?$_Deque_val@U?$_Deque_simple_types@N@std@@@std@@@1@0@Z$0 1001676c f i tlib:velotron.obj
 0001:00016061       __catch$?connect@NVRAM@@QAEXXZ$0 10017061 f   tlib:nvram.obj
 0001:00017094       $LN114                     10018094     tlib:client.obj
 0001:000170b0       $LN106                     100180b0     tlib:client.obj
 0001:00018481       __catch$??0RTD@@QAE@PBDHAAVRIDER_DATA@@PAVCourse@@PAVBike@@_NW4LoggingType@@0H@Z$0 10019481 f   tlib:rtd.obj
 0001:00018a4c       $LN517                     10019a4c     tlib:rtd.obj
 0001:00018a70       $LN507                     10019a70     tlib:rtd.obj
 0001:00019ebc       $LN154                     1001aebc     tlib:computrainer_decoder.obj
 0001:00019ef0       $LN150                     1001aef0     tlib:computrainer_decoder.obj
 0001:0001a3e0       $LN30                      1001b3e0     tlib:computrainer_decoder.obj
 0001:0001a400       $LN25                      1001b400     tlib:computrainer_decoder.obj
 0001:0001a444       $LN31                      1001b444     tlib:computrainer_decoder.obj
 0001:0001a464       $LN26                      1001b464     tlib:computrainer_decoder.obj
 0001:0001d078       $LN30                      1001e078     tlib:velotron_decoder.obj
 0001:0001d098       $LN25                      1001e098     tlib:velotron_decoder.obj
 0001:0001d0dc       $LN31                      1001e0dc     tlib:velotron_decoder.obj
 0001:0001d0fc       $LN26                      1001e0fc     tlib:velotron_decoder.obj
 0001:0001f010       _discovered_devs_free      10020010 f   libusb-1.0:core.obj
 0001:0001f8e0       _do_close                  100208e0 f   libusb-1.0:core.obj
 0001:00020690       $LN71                      10021690     libusb-1.0:core.obj
 0001:00020768       $LN28                      10021768     libusb-1.0:core.obj
 0001:000207bc       $LN26                      100217bc     libusb-1.0:core.obj
 0001:00020920       $LN22                      10021920     libusb-1.0:descriptor.obj
 0001:00020934       $LN20                      10021934     libusb-1.0:descriptor.obj
 0001:00020950       _parse_endpoint            10021950 f   libusb-1.0:descriptor.obj
 0001:00020b40       _clear_interface           10021b40 f   libusb-1.0:descriptor.obj
 0001:00020be0       _parse_interface           10021be0 f   libusb-1.0:descriptor.obj
 0001:00020eb0       _clear_configuration       10021eb0 f   libusb-1.0:descriptor.obj
 0001:00020fa0       _parse_configuration       10021fa0 f   libusb-1.0:descriptor.obj
 0001:00021240       _raw_desc_to_config        10022240 f   libusb-1.0:descriptor.obj
 0001:00021750       _libusb_fill_control_setup 10022750 f   libusb-1.0:sync.obj
 0001:000217b0       _libusb_fill_control_transfer 100227b0 f   libusb-1.0:sync.obj
 0001:00021800       _sync_transfer_cb@4        10022800 f   libusb-1.0:sync.obj
 0001:00021830       _sync_transfer_wait_for_completion 10022830 f   libusb-1.0:sync.obj
 0001:00021a70       $LN26                      10022a70     libusb-1.0:sync.obj
 0001:00021a90       _do_sync_bulk_transfer     10022a90 f   libusb-1.0:sync.obj
 0001:00021be8       $LN22                      10022be8     libusb-1.0:sync.obj
 0001:00021dc0       _usbi_cond_intwait         10022dc0 f   libusb-1.0:threads_windows.obj
 0001:00021f30       _setup_cancel_io           10022f30 f   libusb-1.0:poll_windows.obj
 0001:00021f90       _cancel_io                 10022f90 f   libusb-1.0:poll_windows.obj
 0001:000220e0       __fd_to_index_and_lock     100230e0 f   libusb-1.0:poll_windows.obj
 0001:00022150       _create_overlapped         10023150 f   libusb-1.0:poll_windows.obj
 0001:000225a0       __free_index               100235a0 f   libusb-1.0:poll_windows.obj
 0001:00023230       _calculate_timeout         10024230 f   libusb-1.0:io.obj
 0001:000233f0       _add_to_flying_list        100243f0 f   libusb-1.0:io.obj
 0001:000234a0       _remove_from_flying_list   100244a0 f   libusb-1.0:io.obj
 0001:00023900       _handle_timeout            10024900 f   libusb-1.0:io.obj
 0001:00023950       _handle_timeouts_locked    10024950 f   libusb-1.0:io.obj
 0001:000239f0       _handle_timeouts           100249f0 f   libusb-1.0:io.obj
 0001:00023a30       _handle_events             10024a30 f   libusb-1.0:io.obj
 0001:00024370       _usbi_fd_notification      10025370 f   libusb-1.0:io.obj
 0001:000245d0       _windows_device_priv_init  100255d0 f   libusb-1.0:windows_winusb.obj
 0001:00024660       _windows_device_priv_release 10025660 f   libusb-1.0:windows_winusb.obj
 0001:00024740       _guid_to_string            10025740 f   libusb-1.0:windows_winusb.obj
 0001:000247a0       _sanitize_path             100257a0 f   libusb-1.0:windows_winusb.obj
 0001:000248f0       _init_dlls                 100258f0 f   libusb-1.0:windows_winusb.obj
 0001:00024d30       _exit_dlls                 10025d30 f   libusb-1.0:windows_winusb.obj
 0001:00024db0       _get_interface_details     10025db0 f   libusb-1.0:windows_winusb.obj
 0001:00024f70       _get_interface_details_filter 10025f70 f   libusb-1.0:windows_winusb.obj
 0001:000251c0       _get_ancestor_session_id   100261c0 f   libusb-1.0:windows_winusb.obj
 0001:00025270       _get_interface_by_endpoint 10026270 f   libusb-1.0:windows_winusb.obj
 0001:00025330       _windows_assign_endpoints  10026330 f   libusb-1.0:windows_winusb.obj
 0001:000254a0       _get_sub_api               100264a0 f   libusb-1.0:windows_winusb.obj
 0001:00025590       _auto_claim                10026590 f   libusb-1.0:windows_winusb.obj
 0001:000256a0       _auto_release              100266a0 f   libusb-1.0:windows_winusb.obj
 0001:00025750       _get_windows_version       10026750 f   libusb-1.0:windows_winusb.obj
 0001:00025a98       $LN71                      10026a98     libusb-1.0:windows_winusb.obj
 0001:00025abc       $LN64                      10026abc     libusb-1.0:windows_winusb.obj
 0001:00025ae0       _windows_init              10026ae0 f   libusb-1.0:windows_winusb.obj
 0001:00025cf0       _force_hcd_device_descriptor 10026cf0 f   libusb-1.0:windows_winusb.obj
 0001:00025db0       _cache_config_descriptors  10026db0 f   libusb-1.0:windows_winusb.obj
 0001:000260c0       _init_device               100270c0 f   libusb-1.0:windows_winusb.obj
 0001:000264c4       $LN62                      100274c4     libusb-1.0:windows_winusb.obj
 0001:000264e0       _get_api_type              100274e0 f   libusb-1.0:windows_winusb.obj
 0001:00026770       _set_composite_interface   10027770 f   libusb-1.0:windows_winusb.obj
 0001:000268e0       _set_hid_interface         100278e0 f   libusb-1.0:windows_winusb.obj
 0001:00026a10       _windows_get_device_list   10027a10 f   libusb-1.0:windows_winusb.obj
 0001:000274d0       $LN193                     100284d0     libusb-1.0:windows_winusb.obj
 0001:000274e0       _windows_exit              100284e0 f   libusb-1.0:windows_winusb.obj
 0001:000275d0       _windows_get_device_descriptor 100285d0 f   libusb-1.0:windows_winusb.obj
 0001:00027600       _windows_get_config_descriptor 10028600 f   libusb-1.0:windows_winusb.obj
 0001:00027660       _windows_get_config_descriptor_by_value 10028660 f   libusb-1.0:windows_winusb.obj
 0001:000276d0       _windows_get_active_config_descriptor 100286d0 f   libusb-1.0:windows_winusb.obj
 0001:00027720       _windows_open              10028720 f   libusb-1.0:windows_winusb.obj
 0001:00027760       _windows_close             10028760 f   libusb-1.0:windows_winusb.obj
 0001:00027780       _windows_get_configuration 10028780 f   libusb-1.0:windows_winusb.obj
 0001:000277b0       _windows_set_configuration 100287b0 f   libusb-1.0:windows_winusb.obj
 0001:000277f0       _windows_claim_interface   100287f0 f   libusb-1.0:windows_winusb.obj
 0001:00027850       _windows_set_interface_altsetting 10028850 f   libusb-1.0:windows_winusb.obj
 0001:000278b0       _windows_release_interface 100288b0 f   libusb-1.0:windows_winusb.obj
 0001:000278d0       _windows_clear_halt        100288d0 f   libusb-1.0:windows_winusb.obj
 0001:000278f0       _windows_reset_device      100288f0 f   libusb-1.0:windows_winusb.obj
 0001:00027910       _windows_kernel_driver_active 10028910 f   libusb-1.0:windows_winusb.obj
 0001:00027910       _windows_attach_kernel_driver 10028910 f   libusb-1.0:windows_winusb.obj
 0001:00027910       _windows_detach_kernel_driver 10028910 f   libusb-1.0:windows_winusb.obj
 0001:00027920       _windows_destroy_device    10028920 f   libusb-1.0:windows_winusb.obj
 0001:000279b0       _submit_bulk_transfer      100289b0 f   libusb-1.0:windows_winusb.obj
 0001:00027a10       _submit_iso_transfer       10028a10 f   libusb-1.0:windows_winusb.obj
 0001:00027a70       _submit_control_transfer   10028a70 f   libusb-1.0:windows_winusb.obj
 0001:00027ab0       _windows_submit_transfer   10028ab0 f   libusb-1.0:windows_winusb.obj
 0001:00027b18       $LN14                      10028b18     libusb-1.0:windows_winusb.obj
 0001:00027b30       _windows_cancel_transfer   10028b30 f   libusb-1.0:windows_winusb.obj
 0001:00027ba0       $LN18                      10028ba0     libusb-1.0:windows_winusb.obj
 0001:00027bc0       _unsupported_open          10028bc0 f   libusb-1.0:windows_winusb.obj
 0001:00027be0       _unsupported_close         10028be0 f   libusb-1.0:windows_winusb.obj
 0001:00027c00       _unsupported_configure_endpoints 10028c00 f   libusb-1.0:windows_winusb.obj
 0001:00027c20       _unsupported_claim_interface 10028c20 f   libusb-1.0:windows_winusb.obj
 0001:00027c40       _unsupported_set_interface_altsetting 10028c40 f   libusb-1.0:windows_winusb.obj
 0001:00027c60       _unsupported_release_interface 10028c60 f   libusb-1.0:windows_winusb.obj
 0001:00027c80       _unsupported_clear_halt    10028c80 f   libusb-1.0:windows_winusb.obj
 0001:00027ca0       _unsupported_reset_device  10028ca0 f   libusb-1.0:windows_winusb.obj
 0001:00027cc0       _unsupported_submit_bulk_transfer 10028cc0 f   libusb-1.0:windows_winusb.obj
 0001:00027ce0       _unsupported_submit_iso_transfer 10028ce0 f   libusb-1.0:windows_winusb.obj
 0001:00027d00       _unsupported_submit_control_transfer 10028d00 f   libusb-1.0:windows_winusb.obj
 0001:00027d20       _unsupported_abort_control 10028d20 f   libusb-1.0:windows_winusb.obj
 0001:00027d40       _unsupported_abort_transfers 10028d40 f   libusb-1.0:windows_winusb.obj
 0001:00027d60       _unsupported_copy_transfer_data 10028d60 f   libusb-1.0:windows_winusb.obj
 0001:00027d80       _winusbx_init              10028d80 f   libusb-1.0:windows_winusb.obj
 0001:00028140       _winusbx_exit              10029140 f   libusb-1.0:windows_winusb.obj
 0001:00028180       _winusbx_open              10029180 f   libusb-1.0:windows_winusb.obj
 0001:00028270       _winusbx_close             10029270 f   libusb-1.0:windows_winusb.obj
 0001:00028350       _winusbx_configure_endpoints 10029350 f   libusb-1.0:windows_winusb.obj
 0001:00028510       _winusbx_claim_interface   10029510 f   libusb-1.0:windows_winusb.obj
 0001:00028930       _winusbx_release_interface 10029930 f   libusb-1.0:windows_winusb.obj
 0001:00028990       _get_valid_interface       10029990 f   libusb-1.0:windows_winusb.obj
 0001:000289e0       _interface_by_endpoint     100299e0 f   libusb-1.0:windows_winusb.obj
 0001:00028a40       _winusbx_submit_control_transfer 10029a40 f   libusb-1.0:windows_winusb.obj
 0001:00028c90       _winusbx_set_interface_altsetting 10029c90 f   libusb-1.0:windows_winusb.obj
 0001:00028d40       _winusbx_submit_bulk_transfer 10029d40 f   libusb-1.0:windows_winusb.obj
 0001:00028f90       _winusbx_clear_halt        10029f90 f   libusb-1.0:windows_winusb.obj
 0001:00029070       _winusbx_abort_transfers   1002a070 f   libusb-1.0:windows_winusb.obj
 0001:00029150       _winusbx_reset_device      1002a150 f   libusb-1.0:windows_winusb.obj
 0001:00029440       _winusbx_copy_transfer_data 1002a440 f   libusb-1.0:windows_winusb.obj
 0001:00029450       __hid_get_device_descriptor 1002a450 f   libusb-1.0:windows_winusb.obj
 0001:000294d0       __hid_get_config_descriptor 1002a4d0 f   libusb-1.0:windows_winusb.obj
 0001:00029610       __hid_get_string_descriptor 1002a610 f   libusb-1.0:windows_winusb.obj
 0001:000296f0       __hid_get_hid_descriptor   1002a6f0 f   libusb-1.0:windows_winusb.obj
 0001:00029790       __hid_get_report_descriptor 1002a790 f   libusb-1.0:windows_winusb.obj
 0001:000298d0       __hid_get_descriptor       1002a8d0 f   libusb-1.0:windows_winusb.obj
 0001:00029a28       $LN21                      1002aa28     libusb-1.0:windows_winusb.obj
 0001:00029a44       $LN19                      1002aa44     libusb-1.0:windows_winusb.obj
 0001:00029a70       __hid_get_report           1002aa70 f   libusb-1.0:windows_winusb.obj
 0001:00029c90       __hid_set_report           1002ac90 f   libusb-1.0:windows_winusb.obj
 0001:00029e50       __hid_class_request        1002ae50 f   libusb-1.0:windows_winusb.obj
 0001:00029ed0       _hid_init                  1002aed0 f   libusb-1.0:windows_winusb.obj
 0001:0002a2c0       _hid_exit                  1002b2c0 f   libusb-1.0:windows_winusb.obj
 0001:0002a2e0       _hid_open                  1002b2e0 f   libusb-1.0:windows_winusb.obj
 0001:0002a800       _hid_close                 1002b800 f   libusb-1.0:windows_winusb.obj
 0001:0002a850       _hid_claim_interface       1002b850 f   libusb-1.0:windows_winusb.obj
 0001:0002a8c0       _hid_release_interface     1002b8c0 f   libusb-1.0:windows_winusb.obj
 0001:0002a910       _hid_set_interface_altsetting 1002b910 f   libusb-1.0:windows_winusb.obj
 0001:0002a960       _hid_submit_control_transfer 1002b960 f   libusb-1.0:windows_winusb.obj
 0001:0002ac38       $LN68                      1002bc38     libusb-1.0:windows_winusb.obj
 0001:0002ac50       _hid_submit_bulk_transfer  1002bc50 f   libusb-1.0:windows_winusb.obj
 0001:0002afd0       _hid_abort_transfers       1002bfd0 f   libusb-1.0:windows_winusb.obj
 0001:0002b010       _hid_reset_device          1002c010 f   libusb-1.0:windows_winusb.obj
 0001:0002b050       _hid_clear_halt            1002c050 f   libusb-1.0:windows_winusb.obj
 0001:0002b110       _hid_copy_transfer_data    1002c110 f   libusb-1.0:windows_winusb.obj
 0001:0002b1b0       _composite_open            1002c1b0 f   libusb-1.0:windows_winusb.obj
 0001:0002b240       _composite_close           1002c240 f   libusb-1.0:windows_winusb.obj
 0001:0002b300       _composite_claim_interface 1002c300 f   libusb-1.0:windows_winusb.obj
 0001:0002b330       _composite_set_interface_altsetting 1002c330 f   libusb-1.0:windows_winusb.obj
 0001:0002b360       _composite_release_interface 1002c360 f   libusb-1.0:windows_winusb.obj
 0001:0002b390       _composite_submit_control_transfer 1002c390 f   libusb-1.0:windows_winusb.obj
 0001:0002b4e0       _composite_submit_bulk_transfer 1002c4e0 f   libusb-1.0:windows_winusb.obj
 0001:0002b540       _composite_submit_iso_transfer 1002c540 f   libusb-1.0:windows_winusb.obj
 0001:0002b5a0       _composite_clear_halt      1002c5a0 f   libusb-1.0:windows_winusb.obj
 0001:0002b600       _composite_abort_control   1002c600 f   libusb-1.0:windows_winusb.obj
 0001:0002b640       _composite_abort_transfers 1002c640 f   libusb-1.0:windows_winusb.obj
 0001:0002b680       _composite_reset_device    1002c680 f   libusb-1.0:windows_winusb.obj
 0001:0002b700       _composite_copy_transfer_data 1002c700 f   libusb-1.0:windows_winusb.obj
 0001:0002b870       _htab_create               1002c870 f   libusb-1.0:windows_nt_common.obj
 0001:0002b950       _htab_destroy              1002c950 f   libusb-1.0:windows_nt_common.obj
 0001:0002bc00       _windows_init_dlls         1002cc00 f   libusb-1.0:windows_nt_common.obj
 0001:0002bce0       _windows_init_clock        1002cce0 f   libusb-1.0:windows_nt_common.obj
 0001:0002bf70       _windows_clock_gettime_threaded@4 1002cf70 f   libusb-1.0:windows_nt_common.obj
 0001:0002c380       _windows_transfer_callback 1002d380 f   libusb-1.0:windows_nt_common.obj
 0001:0002cea9       __catch$??$_Construct@V?$_Deque_const_iterator@V?$_Deque_val@U?$_Deque_simple_types@UFORMULA2_PAIR@@@std@@@std@@@std@@@?$deque@UFORMULA2_PAIR@@V?$allocator@UFORMULA2_PAIR@@@std@@@std@@QAEXV?$_Deque_const_iterator@V?$_Deque_val@U?$_Deque_simple_types@UFORMULA2_PAIR@@@std@@@std@@@1@0@Z$0 1002dea9 f i dll.obj
 0001:0002d1b1       __catch$??$_Insert@AAU?$pair@$$CBV?$basic_string@DU?$char_traits@D@std@@V?$allocator@D@2@@std@@G@std@@V?$_List_unchecked_iterator@V?$_List_val@U?$_List_simple_types@U?$pair@$$CBV?$basic_string@DU?$char_traits@D@std@@V?$allocator@D@2@@std@@G@std@@@std@@@std@@@2@@?$_Hash@V?$_Umap_traits@V?$basic_string@DU?$char_traits@D@std@@V?$allocator@D@2@@std@@GV?$_Uhash_compare@V?$basic_string@DU?$char_traits@D@std@@V?$allocator@D@2@@std@@U?$hash@V?$basic_string@DU?$char_traits@D@std@@V?$allocator@D@2@@std@@@2@U?$equal_to@V?$basic_string@DU?$char_traits@D@std@@V?$allocator@D@2@@std@@@2@@2@V?$allocator@U?$pair@$$CBV?$basic_string@DU?$char_traits@D@std@@V?$allocator@D@2@@std@@G@std@@@2@$0A@@std@@@std@@IAE?AU?$pair@V?$_List_iterator@V?$_List_val@U?$_List_simple_types@U?$pair@$$CBV?$basic_string@DU?$char_traits@D@std@@V?$allocator@D@2@@std@@G@std@@@std@@@std@@@std@@_N@1@AAU?$pair@$$CBV?$basic_string@DU?$char_traits@D@std@@V?$allocator@D@2@@std@@G@1@V?$_List_unchecked_iterator@V?$_List_val@U?$_List_simple_types@U?$pair@$$CBV?$basic_string@DU?$char_traits@D@std@@V?$allocator@D@2@@std@@G@std@@@std@@@std@@@1@@Z$2 1002e1b1 f i dll.obj
 0001:0002d43d       __catch$??$_Insert@AAU?$pair@$$CBV?$basic_string@DU?$char_traits@D@std@@V?$allocator@D@2@@std@@VDEVICE@@@std@@V?$_List_unchecked_iterator@V?$_List_val@U?$_List_simple_types@U?$pair@$$CBV?$basic_string@DU?$char_traits@D@std@@V?$allocator@D@2@@std@@VDEVICE@@@std@@@std@@@std@@@2@@?$_Hash@V?$_Umap_traits@V?$basic_string@DU?$char_traits@D@std@@V?$allocator@D@2@@std@@VDEVICE@@V?$_Uhash_compare@V?$basic_string@DU?$char_traits@D@std@@V?$allocator@D@2@@std@@U?$hash@V?$basic_string@DU?$char_traits@D@std@@V?$allocator@D@2@@std@@@2@U?$equal_to@V?$basic_string@DU?$char_traits@D@std@@V?$allocator@D@2@@std@@@2@@2@V?$allocator@U?$pair@$$CBV?$basic_string@DU?$char_traits@D@std@@V?$allocator@D@2@@std@@VDEVICE@@@std@@@2@$0A@@std@@@std@@IAE?AU?$pair@V?$_List_iterator@V?$_List_val@U?$_List_simple_types@U?$pair@$$CBV?$basic_string@DU?$char_traits@D@std@@V?$allocator@D@2@@std@@VDEVICE@@@std@@@std@@@std@@@std@@_N@1@AAU?$pair@$$CBV?$basic_string@DU?$char_traits@D@std@@V?$allocator@D@2@@std@@VDEVICE@@@1@V?$_List_unchecked_iterator@V?$_List_val@U?$_List_simple_types@U?$pair@$$CBV?$basic_string@DU?$char_traits@D@std@@V?$allocator@D@2@@std@@VDEVICE@@@std@@@std@@@std@@@1@@Z$2 1002e43d f i dll.obj
 0001:0002d8bf       __catch$??$insert@V?$_Deque_const_iterator@V?$_Deque_val@U?$_Deque_simple_types@UFORMULA2_PAIR@@@std@@@std@@@std@@@?$deque@UFORMULA2_PAIR@@V?$allocator@UFORMULA2_PAIR@@@std@@@std@@QAE?AV?$_Deque_iterator@V?$_Deque_val@U?$_Deque_simple_types@UFORMULA2_PAIR@@@std@@@std@@@1@V?$_Deque_const_iterator@V?$_Deque_val@U?$_Deque_simple_types@UFORMULA2_PAIR@@@std@@@std@@@1@00@Z$0 1002e8bf f i dll.obj
 0001:0002d9db       __catch$??$insert@V?$_Deque_const_iterator@V?$_Deque_val@U?$_Deque_simple_types@UFORMULA2_PAIR@@@std@@@std@@@std@@@?$deque@UFORMULA2_PAIR@@V?$allocator@UFORMULA2_PAIR@@@std@@@std@@QAE?AV?$_Deque_iterator@V?$_Deque_val@U?$_Deque_simple_types@UFORMULA2_PAIR@@@std@@@std@@@1@V?$_Deque_const_iterator@V?$_Deque_val@U?$_Deque_simple_types@UFORMULA2_PAIR@@@std@@@std@@@1@00@Z$2 1002e9db f i dll.obj
 0001:0002e875       __catch$?_Insert_n@?$vector@V?$_List_unchecked_iterator@V?$_List_val@U?$_List_simple_types@U?$pair@$$CBV?$basic_string@DU?$char_traits@D@std@@V?$allocator@D@2@@std@@VDEVICE@@@std@@@std@@@std@@@std@@U?$_Wrap_alloc@V?$allocator@V?$_List_unchecked_iterator@V?$_List_val@U?$_List_simple_types@U?$pair@$$CBV?$basic_string@DU?$char_traits@D@std@@V?$allocator@D@2@@std@@VDEVICE@@@std@@@std@@@std@@@std@@@std@@@2@@std@@IAE?AV?$_Vector_iterator@V?$_Vector_val@U?$_Simple_types@V?$_List_unchecked_iterator@V?$_List_val@U?$_List_simple_types@U?$pair@$$CBV?$basic_string@DU?$char_traits@D@std@@V?$allocator@D@2@@std@@VDEVICE@@@std@@@std@@@std@@@std@@@std@@@std@@@2@V?$_Vector_const_iterator@V?$_Vector_val@U?$_Simple_types@V?$_List_unchecked_iterator@V?$_List_val@U?$_List_simple_types@U?$pair@$$CBV?$basic_string@DU?$char_traits@D@std@@V?$allocator@D@2@@std@@VDEVICE@@@std@@@std@@@std@@@std@@@std@@@std@@@2@IABV?$_List_unchecked_iterator@V?$_List_val@U?$_List_simple_types@U?$pair@$$CBV?$basic_string@DU?$char_traits@D@std@@V?$allocator@D@2@@std@@VDEVICE@@@std@@@std@@@std@@@2@@Z$0 1002f875 f i dll.obj
 0001:0002e875       __catch$?_Insert_n@?$vector@V?$_List_unchecked_iterator@V?$_List_val@U?$_List_simple_types@U?$pair@$$CBV?$basic_string@DU?$char_traits@D@std@@V?$allocator@D@2@@std@@G@std@@@std@@@std@@@std@@U?$_Wrap_alloc@V?$allocator@V?$_List_unchecked_iterator@V?$_List_val@U?$_List_simple_types@U?$pair@$$CBV?$basic_string@DU?$char_traits@D@std@@V?$allocator@D@2@@std@@G@std@@@std@@@std@@@std@@@std@@@2@@std@@IAE?AV?$_Vector_iterator@V?$_Vector_val@U?$_Simple_types@V?$_List_unchecked_iterator@V?$_List_val@U?$_List_simple_types@U?$pair@$$CBV?$basic_string@DU?$char_traits@D@std@@V?$allocator@D@2@@std@@G@std@@@std@@@std@@@std@@@std@@@std@@@2@V?$_Vector_const_iterator@V?$_Vector_val@U?$_Simple_types@V?$_List_unchecked_iterator@V?$_List_val@U?$_List_simple_types@U?$pair@$$CBV?$basic_string@DU?$char_traits@D@std@@V?$allocator@D@2@@std@@G@std@@@std@@@std@@@std@@@std@@@std@@@2@IABV?$_List_unchecked_iterator@V?$_List_val@U?$_List_simple_types@U?$pair@$$CBV?$basic_string@DU?$char_traits@D@std@@V?$allocator@D@2@@std@@G@std@@@std@@@std@@@2@@Z$0 1002f875 f i dll.obj
 0001:0002e885       __catch$?_Insert_n@?$vector@V?$_List_unchecked_iterator@V?$_List_val@U?$_List_simple_types@U?$pair@$$CBV?$basic_string@DU?$char_traits@D@std@@V?$allocator@D@2@@std@@G@std@@@std@@@std@@@std@@U?$_Wrap_alloc@V?$allocator@V?$_List_unchecked_iterator@V?$_List_val@U?$_List_simple_types@U?$pair@$$CBV?$basic_string@DU?$char_traits@D@std@@V?$allocator@D@2@@std@@G@std@@@std@@@std@@@std@@@std@@@2@@std@@IAE?AV?$_Vector_iterator@V?$_Vector_val@U?$_Simple_types@V?$_List_unchecked_iterator@V?$_List_val@U?$_List_simple_types@U?$pair@$$CBV?$basic_string@DU?$char_traits@D@std@@V?$allocator@D@2@@std@@G@std@@@std@@@std@@@std@@@std@@@std@@@2@V?$_Vector_const_iterator@V?$_Vector_val@U?$_Simple_types@V?$_List_unchecked_iterator@V?$_List_val@U?$_List_simple_types@U?$pair@$$CBV?$basic_string@DU?$char_traits@D@std@@V?$allocator@D@2@@std@@G@std@@@std@@@std@@@std@@@std@@@std@@@2@IABV?$_List_unchecked_iterator@V?$_List_val@U?$_List_simple_types@U?$pair@$$CBV?$basic_string@DU?$char_traits@D@std@@V?$allocator@D@2@@std@@G@std@@@std@@@std@@@2@@Z$2 1002f885 f i dll.obj
 0001:0002e885       __catch$?_Insert_n@?$vector@V?$_List_unchecked_iterator@V?$_List_val@U?$_List_simple_types@U?$pair@$$CBV?$basic_string@DU?$char_traits@D@std@@V?$allocator@D@2@@std@@VDEVICE@@@std@@@std@@@std@@@std@@U?$_Wrap_alloc@V?$allocator@V?$_List_unchecked_iterator@V?$_List_val@U?$_List_simple_types@U?$pair@$$CBV?$basic_string@DU?$char_traits@D@std@@V?$allocator@D@2@@std@@VDEVICE@@@std@@@std@@@std@@@std@@@std@@@2@@std@@IAE?AV?$_Vector_iterator@V?$_Vector_val@U?$_Simple_types@V?$_List_unchecked_iterator@V?$_List_val@U?$_List_simple_types@U?$pair@$$CBV?$basic_string@DU?$char_traits@D@std@@V?$allocator@D@2@@std@@VDEVICE@@@std@@@std@@@std@@@std@@@std@@@std@@@2@V?$_Vector_const_iterator@V?$_Vector_val@U?$_Simple_types@V?$_List_unchecked_iterator@V?$_List_val@U?$_List_simple_types@U?$pair@$$CBV?$basic_string@DU?$char_traits@D@std@@V?$allocator@D@2@@std@@VDEVICE@@@std@@@std@@@std@@@std@@@std@@@std@@@2@IABV?$_List_unchecked_iterator@V?$_List_val@U?$_List_simple_types@U?$pair@$$CBV?$basic_string@DU?$char_traits@D@std@@V?$allocator@D@2@@std@@VDEVICE@@@std@@@std@@@std@@@2@@Z$2 1002f885 f i dll.obj
 0001:0002ea2b       __catch$?_Reallocate@?$vector@V?$_List_unchecked_iterator@V?$_List_val@U?$_List_simple_types@U?$pair@$$CBV?$basic_string@DU?$char_traits@D@std@@V?$allocator@D@2@@std@@VDEVICE@@@std@@@std@@@std@@@std@@U?$_Wrap_alloc@V?$allocator@V?$_List_unchecked_iterator@V?$_List_val@U?$_List_simple_types@U?$pair@$$CBV?$basic_string@DU?$char_traits@D@std@@V?$allocator@D@2@@std@@VDEVICE@@@std@@@std@@@std@@@std@@@std@@@2@@std@@IAEXI@Z$0 1002fa2b f i dll.obj
 0001:0002ea2b       __catch$?_Reallocate@?$vector@V?$_List_unchecked_iterator@V?$_List_val@U?$_List_simple_types@U?$pair@$$CBV?$basic_string@DU?$char_traits@D@std@@V?$allocator@D@2@@std@@G@std@@@std@@@std@@@std@@U?$_Wrap_alloc@V?$allocator@V?$_List_unchecked_iterator@V?$_List_val@U?$_List_simple_types@U?$pair@$$CBV?$basic_string@DU?$char_traits@D@std@@V?$allocator@D@2@@std@@G@std@@@std@@@std@@@std@@@std@@@2@@std@@IAEXI@Z$0 1002fa2b f i dll.obj
 0001:00031230       $LN1420                    10032230     dll.obj
 0001:00035ec1       __catch$_start_ant$0       10036ec1 f   dll.obj
 0001:00035f90       __catch$_start_server$0    10036f90 f   dll.obj
 0001:00037724       $LN25                      10038724     ev.obj
 0001:00038920       __catch$?check_for_windows_rs232_computrainer@@YA?AW4EnumDeviceType@@PBD@Z$0 10039920 f   internal.obj
 0001:00038b3d       __catch$?check_for_windows_rs232_computrainer@@YA?AW4EnumDeviceType@@PBD@Z$1 10039b3d f   internal.obj
 0001:00038cdc       $LN1056                    10039cdc     internal.obj
 0001:0003900b       __catch$?check_for_windows_rs232_velotron@@YA?AW4EnumDeviceType@@PBD@Z$0 1003a00b f   internal.obj
 0001:0003922c       $LN720                     1003a22c     internal.obj
 0001:0003c6a1       __catch$??0?$QList@VQString@@@@QAE@ABV0@@Z$0 1003d6a1 f i ctsrv:ctsrv.obj
 0001:0003cb48       __catch$??0Ctsrv@RACERMATE@@QAE@HHPBDHPAVQObject@@@Z$0 1003db48 f   ctsrv:ctsrv.obj
 0001:0003cb8b       __catch$??0Ctsrv@RACERMATE@@QAE@HHPBDHPAVQObject@@@Z$1 1003db8b f   ctsrv:ctsrv.obj
 0001:0003cbce       __catch$??0Ctsrv@RACERMATE@@QAE@HHPBDHPAVQObject@@@Z$2 1003dbce f   ctsrv:ctsrv.obj
 0001:0003d43b       __catch$?append@?$QList@VQString@@@@QAEXABVQString@@@Z$4 1003e43b f i ctsrv:ctsrv.obj
 0001:0003d78d       __catch$?detach_helper@?$QList@VQString@@@@AAEXH@Z$0 1003e78d f i ctsrv:ctsrv.obj
 0001:0003d8ce       __catch$?detach_helper_grow@?$QList@VQString@@@@AAEPAUNode@1@HH@Z$2 1003e8ce f i ctsrv:ctsrv.obj
 0001:0003d909       __catch$?detach_helper_grow@?$QList@VQString@@@@AAEPAUNode@1@HH@Z$0 1003e909 f i ctsrv:ctsrv.obj
 0001:0003ff18       $LN31                      10040f18     ctsrv:moc_ctsrv.obj
 0001:00041028       $LN28                      10042028     ctsrv:udp_client.obj
 0001:00041924       $LN10                      10042924     ctsrv:udp_client.obj
 0001:00041930       $LN8                       10042930     ctsrv:udp_client.obj
 0001:00042080       $LN13                      10043080     ctsrv:udp_client.obj
 0001:00042090       $LN11                      10043090     ctsrv:udp_client.obj
 0001:000421c4       $LN17                      100431c4     ctsrv:udp_client.obj
 0001:000421d8       $LN15                      100431d8     ctsrv:udp_client.obj
 0001:00042461       __catch$??0?$QList@VQNetworkAddressEntry@@@@QAE@ABV0@@Z$0 10043461 f i ctsrv:ctsrvworker.obj
 0001:00042511       __catch$??0?$QList@VQNetworkInterface@@@@QAE@ABV0@@Z$0 10043511 f i ctsrv:ctsrvworker.obj
 0001:00042cbc       $LN83                      10043cbc     ctsrv:ctsrvworker.obj
 0001:0004349d       __catch$?append@?$QList@VQNetworkAddressEntry@@@@QAEXABVQNetworkAddressEntry@@@Z$0 1004449d f i ctsrv:ctsrvworker.obj
 0001:000434ee       __catch$?append@?$QList@VQNetworkAddressEntry@@@@QAEXABVQNetworkAddressEntry@@@Z$4 100444ee f i ctsrv:ctsrvworker.obj
 0001:00043fac       __catch$?detach_helper_grow@?$QList@VQNetworkAddressEntry@@@@AAEPAUNode@1@HH@Z$2 10044fac f i ctsrv:ctsrvworker.obj
 0001:00043fe7       __catch$?detach_helper_grow@?$QList@VQNetworkAddressEntry@@@@AAEPAUNode@1@HH@Z$0 10044fe7 f i ctsrv:ctsrvworker.obj
 0001:00044467       __catch$?node_copy@?$QList@VQNetworkAddressEntry@@@@AAEXPAUNode@1@00@Z$2 10045467 f i ctsrv:ctsrvworker.obj
 0001:00044517       __catch$?node_copy@?$QList@VQNetworkInterface@@@@AAEXPAUNode@1@00@Z$2 10045517 f i ctsrv:ctsrvworker.obj
 0001:0004675c       $LN26                      1004775c     ctsrv:moc_udp_client.obj
 0001:00046c40       $LN38                      10047c40     ctsrv:moc_ctsrvworker.obj
 0001:00046ee1       __catch$??0?$QList@I@@QAE@ABV0@@Z$0 10047ee1 f i rmant:ant.obj
 0001:00047213       __catch$??0ANT@RACERMATE@@QAE@HPAVQObject@@@Z$0 10048213 f   rmant:ant.obj
 0001:00047229       __catch$??0ANT@RACERMATE@@QAE@HPAVQObject@@@Z$1 10048229 f   rmant:ant.obj
 0001:000474f4       __catch$??0ANT@RACERMATE@@QAE@PAVQObject@@@Z$0 100484f4 f   rmant:ant.obj
 0001:0004750a       __catch$??0ANT@RACERMATE@@QAE@PAVQObject@@@Z$1 1004850a f   rmant:ant.obj
 0001:00047f55       __catch$?append@?$QList@I@@QAEXABI@Z$4 10048f55 f i rmant:ant.obj
 0001:00048434       __catch$?createNode@?$QMapData@HVANTCHAN@@@@QAEPAU?$QMapNode@HVANTCHAN@@@@ABHABVANTCHAN@@PAU2@_N@Z$2 10049434 f i rmant:ant.obj
 0001:00048440       __catch$?createNode@?$QMapData@HVANTCHAN@@@@QAEPAU?$QMapNode@HVANTCHAN@@@@ABHABVANTCHAN@@PAU2@_N@Z$0 10049440 f i rmant:ant.obj
 0001:00048557       __catch$?detach_helper@?$QList@I@@AAEXH@Z$0 10049557 f i rmant:ant.obj
 0001:0004880f       __catch$?detach_helper_grow@?$QList@I@@AAEPAUNode@1@HH@Z$2 1004980f f i rmant:ant.obj
 0001:0004883b       __catch$?detach_helper_grow@?$QList@I@@AAEPAUNode@1@HH@Z$0 1004983b f i rmant:ant.obj
 0001:00049646       __catch$?init@ANT@RACERMATE@@AAEHXZ$0 1004a646 f   rmant:ant.obj
 0001:0004968c       __catch$?init@ANT@RACERMATE@@AAEHXZ$1 1004a68c f   rmant:ant.obj
 0001:000496d7       __catch$?init@ANT@RACERMATE@@AAEHXZ$2 1004a6d7 f   rmant:ant.obj
 0001:0004a6c0       $LN654                     1004b6c0     rmant:ant.obj
 0001:0004c870       $LN30                      1004d870     rmant:antdev.obj
 0001:0004df6c       $LN137                     1004ef6c     rmant:antdev.obj
 0001:0004df90       $LN107                     1004ef90     rmant:antdev.obj
 0001:0004e004       $LN138                     1004f004     rmant:antdev.obj
 0001:0004e01c       $LN108                     1004f01c     rmant:antdev.obj
 0001:0004e084       $LN139                     1004f084     rmant:antdev.obj
 0001:0004e090       $LN109                     1004f090     rmant:antdev.obj
 0001:0004e200       $LN34                      1004f200     rmant:antdev.obj
 0001:0004e208       $LN30                      1004f208     rmant:antdev.obj
 0001:0004e44c       $LN38                      1004f44c     rmant:antdev.obj
 0001:0004e694       $LN37                      1004f694     rmant:antdev.obj
 0001:0004e964       $LN54                      1004f964     rmant:antdev.obj
 0001:0004e970       $LN50                      1004f970     rmant:antdev.obj
 0001:0004f4dc       $LN36                      100504dc     rmant:antdev.obj
 0001:0004ff44       $LN64                      10050f44     rmant:antworker.obj
 0001:000507c0       $LN18                      100517c0     rmant:moc_antworker.obj
 0001:00050953       ?find_pe_section@@YAPAU_IMAGE_SECTION_HEADER@@QAEI@Z 10051953 f   MSVCRT:utility.obj
 0001:00050c83       ?dllmain_crt_dispatch@@YGHQAUHINSTANCE__@@KQAX@Z 10051c83 f   MSVCRT:dll_dllmain.obj
 0001:00050cd6       ?dllmain_crt_process_attach@@YAHQAUHINSTANCE__@@QAX@Z 10051cd6 f   MSVCRT:dll_dllmain.obj
 0001:00050de8       ?dllmain_crt_process_detach@@YAH_N@Z 10051de8 f   MSVCRT:dll_dllmain.obj
 0001:00050e65       ?dllmain_dispatch@@YAHQAUHINSTANCE__@@KQAX@Z 10051e65 f   MSVCRT:dll_dllmain.obj
 0001:00050f61       ?dllmain_raw@@YGHQAUHINSTANCE__@@KQAX@Z 10051f61 f   MSVCRT:dll_dllmain.obj
 0001:00050fb0       $$000000                   10051fb0     MSVCRT:_ftol3_.obj
 0001:00051530       $$000000                   10052530     MSVCRT:lldiv.obj
 0001:000515f0       $$000000                   100525f0     MSVCRT:_sehprolg4_.obj
 0001:00052ab0       $$000000                   10053ab0     MSVCRT:ulldiv.obj
 0001:00052b20       $$000000                   10053b20     MSVCRT:ullrem.obj
 0001:00052ba0       __unwindfunclet$??_GPerformance@@UAEPAXI@Z$0 10053ba0 f   tlib:performance.obj
 0001:00052ba0       __unwindfunclet$??_GLogger@@UAEPAXI@Z$0 10053ba0 f   glib:logger.obj
 0001:00052ba0       __unwindfunclet$??_GVelotron@@UAEPAXI@Z$0 10053ba0 f   tlib:velotron.obj
 0001:00052ba0       __unwindfunclet$??_GSerial@@UAEPAXI@Z$0 10053ba0 f   glib:serial.obj
 0001:00052ba7       __ehhandler$??_GPerformance@@UAEPAXI@Z 10053ba7 f   tlib:performance.obj
 0001:00052ba7       __ehhandler$??_GVelotron@@UAEPAXI@Z 10053ba7 f   tlib:velotron.obj
 0001:00052ba7       __ehhandler$??_GSerial@@UAEPAXI@Z 10053ba7 f   glib:serial.obj
 0001:00052ba7       __ehhandler$??_GLogger@@UAEPAXI@Z 10053ba7 f   glib:logger.obj
 0001:00052bd0       __ehhandler$??_EErr@@UAEPAXI@Z 10053bd0 f   glib:err.obj
 0001:00052bd0       __ehhandler$??_EIni@@UAEPAXI@Z 10053bd0 f   glib:ini.obj
 0001:00052bd0       __ehhandler$??_EfatalError@@UAEPAXI@Z 10053bd0 f   glib:win_utils.obj
 0001:00052bd0       __ehhandler$??_ECtsrv@RACERMATE@@UAEPAXI@Z 10053bd0 f   ctsrv:ctsrv.obj
 0001:00052bd0       __ehhandler$??_EqtFormula@@UAEPAXI@Z 10053bd0 f   dll.obj
 0001:00052bd0       __ehhandler$??_EsignalStrengthMeter@@UAEPAXI@Z 10053bd0 f   glib:signalstrengthmeter.obj
 0001:00052bd0       __ehhandler$??1UDPClient@RACERMATE@@UAE@XZ 10053bd0 f   ctsrv:udp_client.obj
 0001:00052bd0       __ehhandler$??1?$QList@VQString@@@@QAE@XZ 10053bd0 f   ctsrv:ctsrv.obj
 0001:00052bd0       __ehhandler$??_ELPFilter@@UAEPAXI@Z 10053bd0 f   glib:lpfilter.obj
 0001:00052bd0       __ehhandler$??1EV@@QAE@XZ  10053bd0 f   ev.obj
 0001:00052bd0       __ehhandler$??_EfastTimer@@UAEPAXI@Z 10053bd0 f   glib:fasttimer.obj
 0001:00052bd0       __ehhandler$??_EANT@RACERMATE@@UAEPAXI@Z 10053bd0 f   rmant:ant.obj
 0001:00052bd0       __ehhandler$??_EAverageTimer@@UAEPAXI@Z 10053bd0 f   glib:averagetimer.obj
 0001:00052bd0       __ehhandler$??_EMonarch@@UAEPAXI@Z 10053bd0 f   tlib:monarch.obj
 0001:00052bf0       __ehhandler$?_Copy@?$basic_string@DU?$char_traits@D@std@@V?$allocator@D@2@@std@@QAEXII@Z 10053bf0 f   glib:utils.obj
 0001:00052c10       __ehhandler$?wrapper_function@thread@tthread@@CGIPAX@Z 10053c10 f   tinythread++:tinythread.obj
 0001:00052c30       __unwindfunclet$??0thread@tthread@@QAE@P6AXPAX@Z0@Z$0 10053c30 f   tinythread++:tinythread.obj
 0001:00052c3b       __unwindfunclet$??0thread@tthread@@QAE@P6AXPAX@Z0@Z$1 10053c3b f   tinythread++:tinythread.obj
 0001:00052c43       __ehhandler$??0thread@tthread@@QAE@P6AXPAX@Z0@Z 10053c43 f   tinythread++:tinythread.obj
 0001:00052c60       __unwindfunclet$??_EFormula@@UAEPAXI@Z$0 10053c60 f   tlib:formula.obj
 0001:00052c60       __unwindfunclet$??_EPhysics@@UAEPAXI@Z$0 10053c60 f   tlib:physics.obj
 0001:00052c67       __ehhandler$??_EFormula@@UAEPAXI@Z 10053c67 f   tlib:formula.obj
 0001:00052c67       __ehhandler$??_EPhysics@@UAEPAXI@Z 10053c67 f   tlib:physics.obj
 0001:00052c90       __unwindfunclet$??0Formula@@QAE@M@Z$0 10053c90 f   tlib:formula.obj
 0001:00052c9e       __ehhandler$??0Formula@@QAE@M@Z 10053c9e f   tlib:formula.obj
 0001:00052cc0       __ehhandler$??1SS@@QAE@XZ  10053cc0 f   tlib:ss.obj
 0001:00052cc0       __ehhandler$??1Client@@QAE@XZ 10053cc0 f   tlib:client.obj
 0001:00052cc0       __ehhandler$??1?$QMap@HVQString@@@@QAE@XZ 10053cc0 f   rmant:antdev.obj
 0001:00052cc0       __ehhandler$??1velotronDecoder@@UAE@XZ 10053cc0 f   tlib:velotron_decoder.obj
 0001:00052cc0       __ehhandler$??1Decoder@@UAE@XZ 10053cc0 f   tlib:decoder.obj
 0001:00052cc0       __ehhandler$??1RTD@@UAE@XZ 10053cc0 f   tlib:rtd.obj
 0001:00052cc0       __ehhandler$??1?$QMap@HVANTCHAN@@@@QAE@XZ 10053cc0 f   rmant:antdev.obj
 0001:00052cc0       __ehhandler$??1Formula@@UAE@XZ 10053cc0 f   tlib:formula.obj
 0001:00052cc0       __ehhandler$??1Heartrate@@QAE@XZ 10053cc0 f   tlib:heartrate.obj
 0001:00052ce0       __unwindfunclet$??0?$deque@NV?$allocator@N@std@@@std@@QAE@ABV01@@Z$0 10053ce0 f   tlib:velotron.obj
 0001:00052ce0       __unwindfunclet$??0?$deque@UFORMULA_PAIR@@V?$allocator@UFORMULA_PAIR@@@std@@@std@@QAE@ABV01@@Z$0 10053ce0 f   tlib:formula.obj
 0001:00052ce8       __ehhandler$??0?$deque@NV?$allocator@N@std@@@std@@QAE@ABV01@@Z 10053ce8 f   tlib:velotron.obj
 0001:00052ce8       __ehhandler$??0?$deque@UFORMULA_PAIR@@V?$allocator@UFORMULA_PAIR@@@std@@@std@@QAE@ABV01@@Z 10053ce8 f   tlib:formula.obj
 0001:00052d10       __ehhandler$??$insert@V?$_Deque_const_iterator@V?$_Deque_val@U?$_Deque_simple_types@UFORMULA_PAIR@@@std@@@std@@@std@@@?$deque@UFORMULA_PAIR@@V?$allocator@UFORMULA_PAIR@@@std@@@std@@QAE?AV?$_Deque_iterator@V?$_Deque_val@U?$_Deque_simple_types@UFORMULA_PAIR@@@std@@@std@@@1@V?$_Deque_const_iterator@V?$_Deque_val@U?$_Deque_simple_types@UFORMULA_PAIR@@@std@@@std@@@1@00@Z 10053d10 f   tlib:formula.obj
 0001:00052d30       __ehhandler$??$_Construct@V?$_Deque_const_iterator@V?$_Deque_val@U?$_Deque_simple_types@UFORMULA_PAIR@@@std@@@std@@@std@@@?$deque@UFORMULA_PAIR@@V?$allocator@UFORMULA_PAIR@@@std@@@std@@QAEXV?$_Deque_const_iterator@V?$_Deque_val@U?$_Deque_simple_types@UFORMULA_PAIR@@@std@@@std@@@1@0@Z 10053d30 f   tlib:formula.obj
 0001:00052d50       __unwindfunclet$??0Physics@@QAE@PAVBike@@NN@Z$0 10053d50 f   tlib:physics.obj
 0001:00052d5b       __ehhandler$??0Physics@@QAE@PAVBike@@NN@Z 10053d5b f   tlib:physics.obj
 0001:00052d80       __ehhandler$??1performanceDecoder@@UAE@XZ 10053d80 f   tlib:performance_decoder.obj
 0001:00052d80       __ehhandler$??1?$QMap@IPAVANTDEV@@@@QAE@XZ 10053d80 f   rmant:ant.obj
 0001:00052d80       __ehhandler$??1simDecoder@@UAE@XZ 10053d80 f   tlib:simdecoder.obj
 0001:00052d80       __ehhandler$??1dataSource@@UAE@XZ 10053d80 f   tlib:datasource.obj
 0001:00052d80       __ehhandler$??1Physics@@UAE@XZ 10053d80 f   tlib:physics.obj
 0001:00052da0       __unwindfunclet$?writeState@Physics@@QAEXPAU_iobuf@@@Z$0 10053da0 f   tlib:physics.obj
 0001:00052db5       __ehhandler$?writeState@Physics@@QAEXPAU_iobuf@@@Z 10053db5 f   tlib:physics.obj
 0001:00052de0       __unwindfunclet$?readState@Physics@@QAEXPAU_iobuf@@@Z$0 10053de0 f   tlib:physics.obj
 0001:00052df5       __ehhandler$?readState@Physics@@QAEXPAU_iobuf@@@Z 10053df5 f   tlib:physics.obj
 0001:00052e20       __unwindfunclet$??0Decoder@@QAE@HPAVCourse@@AAVRIDER_DATA@@H@Z$0 10053e20 f   tlib:decoder.obj
 0001:00052e31       __unwindfunclet$??0Decoder@@QAE@HPAVCourse@@AAVRIDER_DATA@@H@Z$2 10053e31 f   tlib:decoder.obj
 0001:00052e46       __unwindfunclet$??0Decoder@@QAE@HPAVCourse@@AAVRIDER_DATA@@H@Z$4 10053e46 f   tlib:decoder.obj
 0001:00052e5b       __ehhandler$??0Decoder@@QAE@HPAVCourse@@AAVRIDER_DATA@@H@Z 10053e5b f   tlib:decoder.obj
 0001:00052e90       __unwindfunclet$??0dataSource@@QAE@AAVRIDER_DATA@@PAVCourse@@PAVBike@@W4LoggingType@@@Z$0 10053e90 f   tlib:datasource.obj
 0001:00052e9e       __unwindfunclet$??0dataSource@@QAE@AAVRIDER_DATA@@PAVCourse@@PAVBike@@W4LoggingType@@@Z$1 10053e9e f   tlib:datasource.obj
 0001:00052eac       __ehhandler$??0dataSource@@QAE@AAVRIDER_DATA@@PAVCourse@@PAVBike@@W4LoggingType@@@Z 10053eac f   tlib:datasource.obj
 0001:00052ed0       __unwindfunclet$??0SS@@QAE@XZ$1 10053ed0 f   tlib:ss.obj
 0001:00052edf       __unwindfunclet$??0SS@@QAE@XZ$3 10053edf f   tlib:ss.obj
 0001:00052eee       __ehhandler$??0SS@@QAE@XZ  10053eee f   tlib:ss.obj
 0001:00052f10       __unwindfunclet$??0Computrainer@@QAE@PBDAAVRIDER_DATA@@PAVCourse@@PAVBike@@W4LoggingType@@0H@Z$0 10053f10 f   tlib:computrainer.obj
 0001:00052f18       __ehhandler$??0Computrainer@@QAE@PBDAAVRIDER_DATA@@PAVCourse@@PAVBike@@W4LoggingType@@0H@Z 10053f18 f   tlib:computrainer.obj
 0001:00052f40       __unwindfunclet$??0Computrainer@@QAE@PAVSerial@@AAVRIDER_DATA@@PAVCourse@@PAVBike@@W4LoggingType@@@Z$0 10053f40 f   tlib:computrainer.obj
 0001:00052f48       __ehhandler$??0Computrainer@@QAE@PAVSerial@@AAVRIDER_DATA@@PAVCourse@@PAVBike@@W4LoggingType@@@Z 10053f48 f   tlib:computrainer.obj
 0001:00052f70       __unwindfunclet$?init@Computrainer@@AAEXXZ$0 10053f70 f   tlib:computrainer.obj
 0001:00052f82       __ehhandler$?init@Computrainer@@AAEXXZ 10053f82 f   tlib:computrainer.obj
 0001:00052fa0       __unwindfunclet$??0Simulator@@QAE@AAVRIDER_DATA@@_NPAVCourse@@PBD@Z$0 10053fa0 f   tlib:simulator.obj
 0001:00052fa8       __unwindfunclet$??0Simulator@@QAE@AAVRIDER_DATA@@_NPAVCourse@@PBD@Z$1 10053fa8 f   tlib:simulator.obj
 0001:00052fba       __ehhandler$??0Simulator@@QAE@AAVRIDER_DATA@@_NPAVCourse@@PBD@Z 10053fba f   tlib:simulator.obj
 0001:00052fe0       __unwindfunclet$??0Performance@@QAE@AAVRIDER_DATA@@_NPBD@Z$0 10053fe0 f   tlib:performance.obj
 0001:00052fe8       __unwindfunclet$??0Performance@@QAE@AAVRIDER_DATA@@_NPBD@Z$1 10053fe8 f   tlib:performance.obj
 0001:00052ffa       __ehhandler$??0Performance@@QAE@AAVRIDER_DATA@@_NPBD@Z 10053ffa f   tlib:performance.obj
 0001:00053020       __unwindfunclet$?set_performance_file_name@Performance@@UAEXPBD@Z$0 10054020 f   tlib:performance.obj
 0001:0005302b       __unwindfunclet$?set_performance_file_name@Performance@@UAEXPBD@Z$1 1005402b f   tlib:performance.obj
 0001:00053040       __ehhandler$?set_performance_file_name@Performance@@UAEXPBD@Z 10054040 f   tlib:performance.obj
 0001:00053070       __unwindfunclet$?check_perf@Performance@@QAEHPBDAAK@Z$0 10054070 f   tlib:performance.obj
 0001:0005307b       __ehhandler$?check_perf@Performance@@QAEHPBDAAK@Z 1005407b f   tlib:performance.obj
 0001:000530b0       __unwindfunclet$??0Velotron@@QAE@PBDAAVRIDER_DATA@@PAVCourse@@PAVBike@@W4LoggingType@@@Z$0 100540b0 f   tlib:velotron.obj
 0001:000530b8       __ehhandler$??0Velotron@@QAE@PBDAAVRIDER_DATA@@PAVCourse@@PAVBike@@W4LoggingType@@@Z 100540b8 f   tlib:velotron.obj
 0001:000530e0       __unwindfunclet$?init@Velotron@@AAEXXZ$3 100540e0 f   tlib:velotron.obj
 0001:000530ef       __unwindfunclet$?init@Velotron@@AAEXXZ$4 100540ef f   tlib:velotron.obj
 0001:000530fe       __unwindfunclet$?init@Velotron@@AAEXXZ$5 100540fe f   tlib:velotron.obj
 0001:00053110       __unwindfunclet$?init@Velotron@@AAEXXZ$6 10054110 f   tlib:velotron.obj
 0001:00053122       __unwindfunclet$?init@Velotron@@AAEXXZ$7 10054122 f   tlib:velotron.obj
 0001:00053134       __ehhandler$?init@Velotron@@AAEXXZ 10054134 f   tlib:velotron.obj
 0001:00053150       __ehhandler$??$insert@V?$_Deque_const_iterator@V?$_Deque_val@U?$_Deque_simple_types@N@std@@@std@@@std@@@?$deque@NV?$allocator@N@std@@@std@@QAE?AV?$_Deque_iterator@V?$_Deque_val@U?$_Deque_simple_types@N@std@@@std@@@1@V?$_Deque_const_iterator@V?$_Deque_val@U?$_Deque_simple_types@N@std@@@std@@@1@00@Z 10054150 f   tlib:velotron.obj
 0001:00053170       __ehhandler$??$_Construct@V?$_Deque_const_iterator@V?$_Deque_val@U?$_Deque_simple_types@N@std@@@std@@@std@@@?$deque@NV?$allocator@N@std@@@std@@QAEXV?$_Deque_const_iterator@V?$_Deque_val@U?$_Deque_simple_types@N@std@@@std@@@1@0@Z 10054170 f   tlib:velotron.obj
 0001:00053190       __unwindfunclet$?connect@NVRAM@@QAEXXZ$2 10054190 f   tlib:nvram.obj
 0001:000531a2       __ehhandler$?connect@NVRAM@@QAEXXZ 100541a2 f   tlib:nvram.obj
 0001:000531c0       __unwindfunclet$??0Client@@QAE@PBDHH@Z$0 100541c0 f   tlib:client.obj
 0001:000531ce       __ehhandler$??0Client@@QAE@PBDHH@Z 100541ce f   tlib:client.obj
 0001:000531f0       __unwindfunclet$??0Course@@QAE@V?$vector@UFPOINT@@V?$allocator@UFPOINT@@@std@@@std@@PBD@Z$0 100541f0 f   tlib:course.obj
 0001:000531f8       __unwindfunclet$??0Course@@QAE@V?$vector@UFPOINT@@V?$allocator@UFPOINT@@@std@@@std@@PBD@Z$1 100541f8 f   tlib:course.obj
 0001:00053206       __unwindfunclet$??0Course@@QAE@V?$vector@UFPOINT@@V?$allocator@UFPOINT@@@std@@@std@@PBD@Z$2 10054206 f   tlib:course.obj
 0001:00053214       __unwindfunclet$??0Course@@QAE@V?$vector@UFPOINT@@V?$allocator@UFPOINT@@@std@@@std@@PBD@Z$3 10054214 f   tlib:course.obj
 0001:00053222       __ehhandler$??0Course@@QAE@V?$vector@UFPOINT@@V?$allocator@UFPOINT@@@std@@@std@@PBD@Z 10054222 f   tlib:course.obj
 0001:00053240       __unwindfunclet$??0RTD@@QAE@PBDHAAVRIDER_DATA@@PAVCourse@@PAVBike@@_NW4LoggingType@@0H@Z$2 10054240 f   tlib:rtd.obj
 0001:0005324b       __unwindfunclet$??0RTD@@QAE@PBDHAAVRIDER_DATA@@PAVCourse@@PAVBike@@_NW4LoggingType@@0H@Z$3 1005424b f   tlib:rtd.obj
 0001:0005325c       __unwindfunclet$??0RTD@@QAE@PBDHAAVRIDER_DATA@@PAVCourse@@PAVBike@@_NW4LoggingType@@0H@Z$4 1005425c f   tlib:rtd.obj
 0001:0005326d       __unwindfunclet$??0RTD@@QAE@PBDHAAVRIDER_DATA@@PAVCourse@@PAVBike@@_NW4LoggingType@@0H@Z$5 1005426d f   tlib:rtd.obj
 0001:0005327e       __unwindfunclet$??0RTD@@QAE@PBDHAAVRIDER_DATA@@PAVCourse@@PAVBike@@_NW4LoggingType@@0H@Z$6 1005427e f   tlib:rtd.obj
 0001:0005328f       __unwindfunclet$??0RTD@@QAE@PBDHAAVRIDER_DATA@@PAVCourse@@PAVBike@@_NW4LoggingType@@0H@Z$8 1005428f f   tlib:rtd.obj
 0001:000532a4       __unwindfunclet$??0RTD@@QAE@PBDHAAVRIDER_DATA@@PAVCourse@@PAVBike@@_NW4LoggingType@@0H@Z$9 100542a4 f   tlib:rtd.obj
 0001:000532b9       __ehhandler$??0RTD@@QAE@PBDHAAVRIDER_DATA@@PAVCourse@@PAVBike@@_NW4LoggingType@@0H@Z 100542b9 f   tlib:rtd.obj
 0001:000532f0       __unwindfunclet$??0RTD@@QAE@PAVSerial@@AAVRIDER_DATA@@PAVCourse@@_NPAVBike@@W4LoggingType@@@Z$0 100542f0 f   tlib:rtd.obj
 0001:000532fb       __unwindfunclet$??0RTD@@QAE@PAVSerial@@AAVRIDER_DATA@@PAVCourse@@_NPAVBike@@W4LoggingType@@@Z$1 100542fb f   tlib:rtd.obj
 0001:0005330c       __unwindfunclet$??0RTD@@QAE@PAVSerial@@AAVRIDER_DATA@@PAVCourse@@_NPAVBike@@W4LoggingType@@@Z$2 1005430c f   tlib:rtd.obj
 0001:0005331d       __unwindfunclet$??0RTD@@QAE@PAVSerial@@AAVRIDER_DATA@@PAVCourse@@_NPAVBike@@W4LoggingType@@@Z$3 1005431d f   tlib:rtd.obj
 0001:0005332e       __unwindfunclet$??0RTD@@QAE@PAVSerial@@AAVRIDER_DATA@@PAVCourse@@_NPAVBike@@W4LoggingType@@@Z$4 1005432e f   tlib:rtd.obj
 0001:0005333f       __ehhandler$??0RTD@@QAE@PAVSerial@@AAVRIDER_DATA@@PAVCourse@@_NPAVBike@@W4LoggingType@@@Z 1005433f f   tlib:rtd.obj
 0001:00053370       __unwindfunclet$??0computrainerDecoder@@QAE@PAVCourse@@AAVRIDER_DATA@@H@Z$0 10054370 f   tlib:computrainer_decoder.obj
 0001:00053378       __unwindfunclet$??0computrainerDecoder@@QAE@PAVCourse@@AAVRIDER_DATA@@H@Z$1 10054378 f   tlib:computrainer_decoder.obj
 0001:00053387       __ehhandler$??0computrainerDecoder@@QAE@PAVCourse@@AAVRIDER_DATA@@H@Z 10054387 f   tlib:computrainer_decoder.obj
 0001:000533b0       __unwindfunclet$??1computrainerDecoder@@UAE@XZ$0 100543b0 f   tlib:computrainer_decoder.obj
 0001:000533b7       __ehhandler$??1computrainerDecoder@@UAE@XZ 100543b7 f   tlib:computrainer_decoder.obj
 0001:000533e0       __unwindfunclet$??0simDecoder@@QAE@PAVCourse@@AAVRIDER_DATA@@@Z$0 100543e0 f   tlib:simdecoder.obj
 0001:000533e0       __unwindfunclet$??0performanceDecoder@@QAE@PAVCourse@@AAVRIDER_DATA@@@Z$0 100543e0 f   tlib:performance_decoder.obj
 0001:000533e8       __ehhandler$??0performanceDecoder@@QAE@PAVCourse@@AAVRIDER_DATA@@@Z 100543e8 f   tlib:performance_decoder.obj
 0001:000533e8       __ehhandler$??0simDecoder@@QAE@PAVCourse@@AAVRIDER_DATA@@@Z 100543e8 f   tlib:simdecoder.obj
 0001:00053410       __unwindfunclet$??0velotronDecoder@@QAE@PAVCourse@@AAVRIDER_DATA@@PAVBike@@PAVPhysics@@H@Z$0 10054410 f   tlib:velotron_decoder.obj
 0001:00053418       __unwindfunclet$??0velotronDecoder@@QAE@PAVCourse@@AAVRIDER_DATA@@PAVBike@@PAVPhysics@@H@Z$2 10054418 f   tlib:velotron_decoder.obj
 0001:0005342a       __unwindfunclet$??0velotronDecoder@@QAE@PAVCourse@@AAVRIDER_DATA@@PAVBike@@PAVPhysics@@H@Z$3 1005442a f   tlib:velotron_decoder.obj
 0001:00053439       __unwindfunclet$??0velotronDecoder@@QAE@PAVCourse@@AAVRIDER_DATA@@PAVBike@@PAVPhysics@@H@Z$4 10054439 f   tlib:velotron_decoder.obj
 0001:00053448       __ehhandler$??0velotronDecoder@@QAE@PAVCourse@@AAVRIDER_DATA@@PAVBike@@PAVPhysics@@H@Z 10054448 f   tlib:velotron_decoder.obj
 0001:00053470       __unwindfunclet$??0Heartrate@@QAE@XZ$0 10054470 f   tlib:heartrate.obj
 0001:0005347b       __unwindfunclet$??0Heartrate@@QAE@XZ$3 1005447b f   tlib:heartrate.obj
 0001:0005348a       __unwindfunclet$??0Heartrate@@QAE@XZ$4 1005448a f   tlib:heartrate.obj
 0001:00053499       __ehhandler$??0Heartrate@@QAE@XZ 10054499 f   tlib:heartrate.obj
 0001:000534c0       __ehhandler$??$_Construct@V?$_Deque_const_iterator@V?$_Deque_val@U?$_Deque_simple_types@UFORMULA2_PAIR@@@std@@@std@@@std@@@?$deque@UFORMULA2_PAIR@@V?$allocator@UFORMULA2_PAIR@@@std@@@std@@QAEXV?$_Deque_const_iterator@V?$_Deque_val@U?$_Deque_simple_types@UFORMULA2_PAIR@@@std@@@std@@@1@0@Z 100544c0 f   dll.obj
 0001:000534e0       __ehhandler$??$_Insert@AAU?$pair@$$CBV?$basic_string@DU?$char_traits@D@std@@V?$allocator@D@2@@std@@G@std@@V?$_List_unchecked_iterator@V?$_List_val@U?$_List_simple_types@U?$pair@$$CBV?$basic_string@DU?$char_traits@D@std@@V?$allocator@D@2@@std@@G@std@@@std@@@std@@@2@@?$_Hash@V?$_Umap_traits@V?$basic_string@DU?$char_traits@D@std@@V?$allocator@D@2@@std@@GV?$_Uhash_compare@V?$basic_string@DU?$char_traits@D@std@@V?$allocator@D@2@@std@@U?$hash@V?$basic_string@DU?$char_traits@D@std@@V?$allocator@D@2@@std@@@2@U?$equal_to@V?$basic_string@DU?$char_traits@D@std@@V?$allocator@D@2@@std@@@2@@2@V?$allocator@U?$pair@$$CBV?$basic_string@DU?$char_traits@D@std@@V?$allocator@D@2@@std@@G@std@@@2@$0A@@std@@@std@@IAE?AU?$pair@V?$_List_iterator@V?$_List_val@U?$_List_simple_types@U?$pair@$$CBV?$basic_string@DU?$char_traits@D@std@@V?$allocator@D@2@@std@@G@std@@@std@@@std@@@std@@_N@1@AAU?$pair@$$CBV?$basic_string@DU?$char_traits@D@std@@V?$allocator@D@2@@std@@G@1@V?$_List_unchecked_iterator@V?$_List_val@U?$_List_simple_types@U?$pair@$$CBV?$basic_string@DU?$char_traits@D@std@@V?$allocator@D@2@@std@@G@std@@@std@@@std@@@1@@Z 100544e0 f   dll.obj
 0001:00053500       __ehhandler$??$_Insert@AAU?$pair@$$CBV?$basic_string@DU?$char_traits@D@std@@V?$allocator@D@2@@std@@VDEVICE@@@std@@V?$_List_unchecked_iterator@V?$_List_val@U?$_List_simple_types@U?$pair@$$CBV?$basic_string@DU?$char_traits@D@std@@V?$allocator@D@2@@std@@VDEVICE@@@std@@@std@@@std@@@2@@?$_Hash@V?$_Umap_traits@V?$basic_string@DU?$char_traits@D@std@@V?$allocator@D@2@@std@@VDEVICE@@V?$_Uhash_compare@V?$basic_string@DU?$char_traits@D@std@@V?$allocator@D@2@@std@@U?$hash@V?$basic_string@DU?$char_traits@D@std@@V?$allocator@D@2@@std@@@2@U?$equal_to@V?$basic_string@DU?$char_traits@D@std@@V?$allocator@D@2@@std@@@2@@2@V?$allocator@U?$pair@$$CBV?$basic_string@DU?$char_traits@D@std@@V?$allocator@D@2@@std@@VDEVICE@@@std@@@2@$0A@@std@@@std@@IAE?AU?$pair@V?$_List_iterator@V?$_List_val@U?$_List_simple_types@U?$pair@$$CBV?$basic_string@DU?$char_traits@D@std@@V?$allocator@D@2@@std@@VDEVICE@@@std@@@std@@@std@@@std@@_N@1@AAU?$pair@$$CBV?$basic_string@DU?$char_traits@D@std@@V?$allocator@D@2@@std@@VDEVICE@@@1@V?$_List_unchecked_iterator@V?$_List_val@U?$_List_simple_types@U?$pair@$$CBV?$basic_string@DU?$char_traits@D@std@@V?$allocator@D@2@@std@@VDEVICE@@@std@@@std@@@std@@@1@@Z 10054500 f   dll.obj
 0001:00053520       __ehhandler$??$insert@V?$_Deque_const_iterator@V?$_Deque_val@U?$_Deque_simple_types@UFORMULA2_PAIR@@@std@@@std@@@std@@@?$deque@UFORMULA2_PAIR@@V?$allocator@UFORMULA2_PAIR@@@std@@@std@@QAE?AV?$_Deque_iterator@V?$_Deque_val@U?$_Deque_simple_types@UFORMULA2_PAIR@@@std@@@std@@@1@V?$_Deque_const_iterator@V?$_Deque_val@U?$_Deque_simple_types@UFORMULA2_PAIR@@@std@@@std@@@1@00@Z 10054520 f   dll.obj
 0001:00053540       __unwindfunclet$??0?$deque@UFORMULA2_PAIR@@V?$allocator@UFORMULA2_PAIR@@@std@@@std@@QAE@ABV01@@Z$0 10054540 f   dll.obj
 0001:00053548       __ehhandler$??0?$deque@UFORMULA2_PAIR@@V?$allocator@UFORMULA2_PAIR@@@std@@@std@@QAE@ABV01@@Z 10054548 f   dll.obj
 0001:00053570       __unwindfunclet$??0RIDER_DATA@@QAE@ABV0@@Z$0 10054570 f   dll.obj
 0001:00053578       __ehhandler$??0RIDER_DATA@@QAE@ABV0@@Z 10054578 f   dll.obj
 0001:000535a0       __ehhandler$?_Insert_n@?$vector@V?$_List_unchecked_iterator@V?$_List_val@U?$_List_simple_types@U?$pair@$$CBV?$basic_string@DU?$char_traits@D@std@@V?$allocator@D@2@@std@@VDEVICE@@@std@@@std@@@std@@@std@@U?$_Wrap_alloc@V?$allocator@V?$_List_unchecked_iterator@V?$_List_val@U?$_List_simple_types@U?$pair@$$CBV?$basic_string@DU?$char_traits@D@std@@V?$allocator@D@2@@std@@VDEVICE@@@std@@@std@@@std@@@std@@@std@@@2@@std@@IAE?AV?$_Vector_iterator@V?$_Vector_val@U?$_Simple_types@V?$_List_unchecked_iterator@V?$_List_val@U?$_List_simple_types@U?$pair@$$CBV?$basic_string@DU?$char_traits@D@std@@V?$allocator@D@2@@std@@VDEVICE@@@std@@@std@@@std@@@std@@@std@@@std@@@2@V?$_Vector_const_iterator@V?$_Vector_val@U?$_Simple_types@V?$_List_unchecked_iterator@V?$_List_val@U?$_List_simple_types@U?$pair@$$CBV?$basic_string@DU?$char_traits@D@std@@V?$allocator@D@2@@std@@VDEVICE@@@std@@@std@@@std@@@std@@@std@@@std@@@2@IABV?$_List_unchecked_iterator@V?$_List_val@U?$_List_simple_types@U?$pair@$$CBV?$basic_string@DU?$char_traits@D@std@@V?$allocator@D@2@@std@@VDEVICE@@@std@@@std@@@std@@@2@@Z 100545a0 f   dll.obj
 0001:000535a0       __ehhandler$?_Insert_n@?$vector@V?$_List_unchecked_iterator@V?$_List_val@U?$_List_simple_types@U?$pair@$$CBV?$basic_string@DU?$char_traits@D@std@@V?$allocator@D@2@@std@@G@std@@@std@@@std@@@std@@U?$_Wrap_alloc@V?$allocator@V?$_List_unchecked_iterator@V?$_List_val@U?$_List_simple_types@U?$pair@$$CBV?$basic_string@DU?$char_traits@D@std@@V?$allocator@D@2@@std@@G@std@@@std@@@std@@@std@@@std@@@2@@std@@IAE?AV?$_Vector_iterator@V?$_Vector_val@U?$_Simple_types@V?$_List_unchecked_iterator@V?$_List_val@U?$_List_simple_types@U?$pair@$$CBV?$basic_string@DU?$char_traits@D@std@@V?$allocator@D@2@@std@@G@std@@@std@@@std@@@std@@@std@@@std@@@2@V?$_Vector_const_iterator@V?$_Vector_val@U?$_Simple_types@V?$_List_unchecked_iterator@V?$_List_val@U?$_List_simple_types@U?$pair@$$CBV?$basic_string@DU?$char_traits@D@std@@V?$allocator@D@2@@std@@G@std@@@std@@@std@@@std@@@std@@@std@@@2@IABV?$_List_unchecked_iterator@V?$_List_val@U?$_List_simple_types@U?$pair@$$CBV?$basic_string@DU?$char_traits@D@std@@V?$allocator@D@2@@std@@G@std@@@std@@@std@@@2@@Z 100545a0 f   dll.obj
 0001:000535c0       __ehhandler$?_Reallocate@?$vector@V?$_List_unchecked_iterator@V?$_List_val@U?$_List_simple_types@U?$pair@$$CBV?$basic_string@DU?$char_traits@D@std@@V?$allocator@D@2@@std@@VDEVICE@@@std@@@std@@@std@@@std@@U?$_Wrap_alloc@V?$allocator@V?$_List_unchecked_iterator@V?$_List_val@U?$_List_simple_types@U?$pair@$$CBV?$basic_string@DU?$char_traits@D@std@@V?$allocator@D@2@@std@@VDEVICE@@@std@@@std@@@std@@@std@@@std@@@2@@std@@IAEXI@Z 100545c0 f   dll.obj
 0001:000535c0       __ehhandler$?_Reallocate@?$vector@V?$_List_unchecked_iterator@V?$_List_val@U?$_List_simple_types@U?$pair@$$CBV?$basic_string@DU?$char_traits@D@std@@V?$allocator@D@2@@std@@G@std@@@std@@@std@@@std@@U?$_Wrap_alloc@V?$allocator@V?$_List_unchecked_iterator@V?$_List_val@U?$_List_simple_types@U?$pair@$$CBV?$basic_string@DU?$char_traits@D@std@@V?$allocator@D@2@@std@@G@std@@@std@@@std@@@std@@@std@@@2@@std@@IAEXI@Z 100545c0 f   dll.obj
 0001:000535e0       __unwindfunclet$?erase@?$_Hash@V?$_Umap_traits@V?$basic_string@DU?$char_traits@D@std@@V?$allocator@D@2@@std@@GV?$_Uhash_compare@V?$basic_string@DU?$char_traits@D@std@@V?$allocator@D@2@@std@@U?$hash@V?$basic_string@DU?$char_traits@D@std@@V?$allocator@D@2@@std@@@2@U?$equal_to@V?$basic_string@DU?$char_traits@D@std@@V?$allocator@D@2@@std@@@2@@2@V?$allocator@U?$pair@$$CBV?$basic_string@DU?$char_traits@D@std@@V?$allocator@D@2@@std@@G@std@@@2@$0A@@std@@@std@@QAE?AV?$_List_iterator@V?$_List_val@U?$_List_simple_types@U?$pair@$$CBV?$basic_string@DU?$char_traits@D@std@@V?$allocator@D@2@@std@@G@std@@@std@@@std@@@2@V?$_List_const_iterator@V?$_List_val@U?$_List_simple_types@U?$pair@$$CBV?$basic_string@DU?$char_traits@D@std@@V?$allocator@D@2@@std@@G@std@@@std@@@std@@@2@0@Z$14 100545e0 f   dll.obj
 0001:000535e6       __ehhandler$?erase@?$_Hash@V?$_Umap_traits@V?$basic_string@DU?$char_traits@D@std@@V?$allocator@D@2@@std@@GV?$_Uhash_compare@V?$basic_string@DU?$char_traits@D@std@@V?$allocator@D@2@@std@@U?$hash@V?$basic_string@DU?$char_traits@D@std@@V?$allocator@D@2@@std@@@2@U?$equal_to@V?$basic_string@DU?$char_traits@D@std@@V?$allocator@D@2@@std@@@2@@2@V?$allocator@U?$pair@$$CBV?$basic_string@DU?$char_traits@D@std@@V?$allocator@D@2@@std@@G@std@@@2@$0A@@std@@@std@@QAE?AV?$_List_iterator@V?$_List_val@U?$_List_simple_types@U?$pair@$$CBV?$basic_string@DU?$char_traits@D@std@@V?$allocator@D@2@@std@@G@std@@@std@@@std@@@2@V?$_List_const_iterator@V?$_List_val@U?$_List_simple_types@U?$pair@$$CBV?$basic_string@DU?$char_traits@D@std@@V?$allocator@D@2@@std@@G@std@@@std@@@std@@@2@0@Z 100545e6 f   dll.obj
 0001:00053610       __unwindfunclet$_GetCurrentVTGear$0 10054610 f   dll.obj
 0001:00053618       __unwindfunclet$_GetCurrentVTGear$1 10054618 f   dll.obj
 0001:00053620       __ehhandler$_GetCurrentVTGear 10054620 f   dll.obj
 0001:00053650       __unwindfunclet$_GetRacerMateDeviceID$0 10054650 f   dll.obj
 0001:00053658       __unwindfunclet$_GetRacerMateDeviceID$1 10054658 f   dll.obj
 0001:00053660       __unwindfunclet$_GetRacerMateDeviceID$8 10054660 f   dll.obj
 0001:00053668       __unwindfunclet$_GetRacerMateDeviceID$9 10054668 f   dll.obj
 0001:00053670       __unwindfunclet$_GetRacerMateDeviceID$10 10054670 f   dll.obj
 0001:00053678       __unwindfunclet$_GetRacerMateDeviceID$2 10054678 f   dll.obj
 0001:00053680       __unwindfunclet$_GetRacerMateDeviceID$3 10054680 f   dll.obj
 0001:00053688       __unwindfunclet$_GetRacerMateDeviceID$4 10054688 f   dll.obj
 0001:00053690       __unwindfunclet$_GetRacerMateDeviceID$5 10054690 f   dll.obj
 0001:00053698       __unwindfunclet$_GetRacerMateDeviceID$6 10054698 f   dll.obj
 0001:000536b7       __unwindfunclet$_GetRacerMateDeviceID$7 100546b7 f   dll.obj
 0001:000536d6       __unwindfunclet$_GetRacerMateDeviceID$11 100546d6 f   dll.obj
 0001:000536de       __ehhandler$_GetRacerMateDeviceID 100546de f   dll.obj
 0001:00053710       __unwindfunclet$_GetTrainerData$0 10054710 f   dll.obj
 0001:00053718       __unwindfunclet$_GetTrainerData$1 10054718 f   dll.obj
 0001:00053720       __unwindfunclet$_GetTrainerData$2 10054720 f   dll.obj
 0001:00053728       __unwindfunclet$_GetTrainerData$3 10054728 f   dll.obj
 0001:00053730       __unwindfunclet$_GetTrainerData$4 10054730 f   dll.obj
 0001:00053738       __unwindfunclet$_GetTrainerData$5 10054738 f   dll.obj
 0001:00053740       __unwindfunclet$_GetTrainerData$6 10054740 f   dll.obj
 0001:00053748       __unwindfunclet$_GetTrainerData$8 10054748 f   dll.obj
 0001:00053750       __ehhandler$_GetTrainerData 10054750 f   dll.obj
 0001:00053780       __unwindfunclet$_get_ss_data$0 10054780 f   dll.obj
 0001:00053788       __unwindfunclet$_get_ss_data$1 10054788 f   dll.obj
 0001:00053790       __unwindfunclet$_get_ss_data$2 10054790 f   dll.obj
 0001:00053798       __unwindfunclet$_get_ss_data$4 10054798 f   dll.obj
 0001:000537a0       __unwindfunclet$_get_ss_data$5 100547a0 f   dll.obj
 0001:000537a8       __ehhandler$_get_ss_data   100547a8 f   dll.obj
 0001:000537d0       __unwindfunclet$_start_ant$2 100547d0 f   dll.obj
 0001:000537e2       __ehhandler$_start_ant     100547e2 f   dll.obj
 0001:00053800       __unwindfunclet$_start_server$2 10054800 f   dll.obj
 0001:00053812       __ehhandler$_start_server  10054812 f   dll.obj
 0001:00053830       __unwindfunclet$??__Eassociations@@YAXXZ$8 10054830 f   dll_globals.obj
 0001:0005383a       __unwindfunclet$??__Eassociations@@YAXXZ$9 1005483a f   dll_globals.obj
 0001:00053844       __ehhandler$??__Eassociations@@YAXXZ 10054844 f   dll_globals.obj
 0001:00053860       __unwindfunclet$??__Edevices@@YAXXZ$8 10054860 f   dll_globals.obj
 0001:0005386a       __unwindfunclet$??__Edevices@@YAXXZ$9 1005486a f   dll_globals.obj
 0001:00053874       __ehhandler$??__Edevices@@YAXXZ 10054874 f   dll_globals.obj
 0001:00053890       __unwindfunclet$??0EV@@QAE@PBDW4EnumDeviceType@@VRIDER_DATA@@PAUPARAMS@Bike@@PAVCourse@@W4LoggingType@@@Z$0 10054890 f   ev.obj
 0001:00053898       __unwindfunclet$??0EV@@QAE@PBDW4EnumDeviceType@@VRIDER_DATA@@PAUPARAMS@Bike@@PAVCourse@@W4LoggingType@@@Z$1 10054898 f   ev.obj
 0001:000538a9       __unwindfunclet$??0EV@@QAE@PBDW4EnumDeviceType@@VRIDER_DATA@@PAUPARAMS@Bike@@PAVCourse@@W4LoggingType@@@Z$2 100548a9 f   ev.obj
 0001:000538ba       __unwindfunclet$??0EV@@QAE@PBDW4EnumDeviceType@@VRIDER_DATA@@PAUPARAMS@Bike@@PAVCourse@@W4LoggingType@@@Z$3 100548ba f   ev.obj
 0001:000538c2       __unwindfunclet$??0EV@@QAE@PBDW4EnumDeviceType@@VRIDER_DATA@@PAUPARAMS@Bike@@PAVCourse@@W4LoggingType@@@Z$4 100548c2 f   ev.obj
 0001:000538ca       __unwindfunclet$??0EV@@QAE@PBDW4EnumDeviceType@@VRIDER_DATA@@PAUPARAMS@Bike@@PAVCourse@@W4LoggingType@@@Z$6 100548ca f   ev.obj
 0001:000538df       __unwindfunclet$??0EV@@QAE@PBDW4EnumDeviceType@@VRIDER_DATA@@PAUPARAMS@Bike@@PAVCourse@@W4LoggingType@@@Z$5 100548df f   ev.obj
 0001:000538e7       __unwindfunclet$??0EV@@QAE@PBDW4EnumDeviceType@@VRIDER_DATA@@PAUPARAMS@Bike@@PAVCourse@@W4LoggingType@@@Z$7 100548e7 f   ev.obj
 0001:000538ef       __unwindfunclet$??0EV@@QAE@PBDW4EnumDeviceType@@VRIDER_DATA@@PAUPARAMS@Bike@@PAVCourse@@W4LoggingType@@@Z$8 100548ef f   ev.obj
 0001:00053904       __unwindfunclet$??0EV@@QAE@PBDW4EnumDeviceType@@VRIDER_DATA@@PAUPARAMS@Bike@@PAVCourse@@W4LoggingType@@@Z$9 10054904 f   ev.obj
 0001:0005390c       __unwindfunclet$??0EV@@QAE@PBDW4EnumDeviceType@@VRIDER_DATA@@PAUPARAMS@Bike@@PAVCourse@@W4LoggingType@@@Z$10 1005490c f   ev.obj
 0001:00053921       __unwindfunclet$??0EV@@QAE@PBDW4EnumDeviceType@@VRIDER_DATA@@PAUPARAMS@Bike@@PAVCourse@@W4LoggingType@@@Z$11 10054921 f   ev.obj
 0001:00053936       __unwindfunclet$??0EV@@QAE@PBDW4EnumDeviceType@@VRIDER_DATA@@PAUPARAMS@Bike@@PAVCourse@@W4LoggingType@@@Z$12 10054936 f   ev.obj
 0001:0005394b       __ehhandler$??0EV@@QAE@PBDW4EnumDeviceType@@VRIDER_DATA@@PAUPARAMS@Bike@@PAVCourse@@W4LoggingType@@@Z 1005494b f   ev.obj
 0001:00053980       __unwindfunclet$?start_collection_thread@EV@@AAEHXZ$0 10054980 f   ev.obj
 0001:00053988       __unwindfunclet$?start_collection_thread@EV@@AAEHXZ$1 10054988 f   ev.obj
 0001:0005399a       __ehhandler$?start_collection_thread@EV@@AAEHXZ 1005499a f   ev.obj
 0001:000539d0       __unwindfunclet$?check_for_trainers@@YA?AW4EnumDeviceType@@PBD@Z$0 100549d0 f   internal.obj
 0001:000539d8       __unwindfunclet$?check_for_trainers@@YA?AW4EnumDeviceType@@PBD@Z$1 100549d8 f   internal.obj
 0001:000539e0       __unwindfunclet$?check_for_trainers@@YA?AW4EnumDeviceType@@PBD@Z$2 100549e0 f   internal.obj
 0001:000539e8       __ehhandler$?check_for_trainers@@YA?AW4EnumDeviceType@@PBD@Z 100549e8 f   internal.obj
 0001:00053a10       __unwindfunclet$?check_for_windows_rs232_computrainer@@YA?AW4EnumDeviceType@@PBD@Z$3 10054a10 f   internal.obj
 0001:00053a1b       __unwindfunclet$?check_for_windows_rs232_computrainer@@YA?AW4EnumDeviceType@@PBD@Z$4 10054a1b f   internal.obj
 0001:00053a23       __unwindfunclet$?check_for_windows_rs232_computrainer@@YA?AW4EnumDeviceType@@PBD@Z$5 10054a23 f   internal.obj
 0001:00053a38       __unwindfunclet$?check_for_windows_rs232_computrainer@@YA?AW4EnumDeviceType@@PBD@Z$6 10054a38 f   internal.obj
 0001:00053a57       __unwindfunclet$?check_for_windows_rs232_computrainer@@YA?AW4EnumDeviceType@@PBD@Z$7 10054a57 f   internal.obj
 0001:00053a5f       __unwindfunclet$?check_for_windows_rs232_computrainer@@YA?AW4EnumDeviceType@@PBD@Z$8 10054a5f f   internal.obj
 0001:00053a67       __unwindfunclet$?check_for_windows_rs232_computrainer@@YA?AW4EnumDeviceType@@PBD@Z$9 10054a67 f   internal.obj
 0001:00053a6f       __unwindfunclet$?check_for_windows_rs232_computrainer@@YA?AW4EnumDeviceType@@PBD@Z$10 10054a6f f   internal.obj
 0001:00053a77       __unwindfunclet$?check_for_windows_rs232_computrainer@@YA?AW4EnumDeviceType@@PBD@Z$11 10054a77 f   internal.obj
 0001:00053a7f       __ehhandler$?check_for_windows_rs232_computrainer@@YA?AW4EnumDeviceType@@PBD@Z 10054a7f f   internal.obj
 0001:00053ab0       __unwindfunclet$?check_for_windows_rs232_velotron@@YA?AW4EnumDeviceType@@PBD@Z$2 10054ab0 f   internal.obj
 0001:00053abb       __unwindfunclet$?check_for_windows_rs232_velotron@@YA?AW4EnumDeviceType@@PBD@Z$3 10054abb f   internal.obj
 0001:00053ad0       __unwindfunclet$?check_for_windows_rs232_velotron@@YA?AW4EnumDeviceType@@PBD@Z$4 10054ad0 f   internal.obj
 0001:00053aef       __unwindfunclet$?check_for_windows_rs232_velotron@@YA?AW4EnumDeviceType@@PBD@Z$9 10054aef f   internal.obj
 0001:00053af7       __unwindfunclet$?check_for_windows_rs232_velotron@@YA?AW4EnumDeviceType@@PBD@Z$5 10054af7 f   internal.obj
 0001:00053aff       __unwindfunclet$?check_for_windows_rs232_velotron@@YA?AW4EnumDeviceType@@PBD@Z$6 10054aff f   internal.obj
 0001:00053b07       __unwindfunclet$?check_for_windows_rs232_velotron@@YA?AW4EnumDeviceType@@PBD@Z$7 10054b07 f   internal.obj
 0001:00053b0f       __unwindfunclet$?check_for_windows_rs232_velotron@@YA?AW4EnumDeviceType@@PBD@Z$8 10054b0f f   internal.obj
 0001:00053b17       __ehhandler$?check_for_windows_rs232_velotron@@YA?AW4EnumDeviceType@@PBD@Z 10054b17 f   internal.obj
 0001:00053b40       __unwindfunclet$?get_computrainer_cal@@YAPBDPBD@Z$0 10054b40 f   internal.obj
 0001:00053b4b       __unwindfunclet$?get_computrainer_cal@@YAPBDPBD@Z$1 10054b4b f   internal.obj
 0001:00053b56       __unwindfunclet$?get_computrainer_cal@@YAPBDPBD@Z$2 10054b56 f   internal.obj
 0001:00053b61       __unwindfunclet$?get_computrainer_cal@@YAPBDPBD@Z$3 10054b61 f   internal.obj
 0001:00053b69       __unwindfunclet$?get_computrainer_cal@@YAPBDPBD@Z$4 10054b69 f   internal.obj
 0001:00053b7e       __ehhandler$?get_computrainer_cal@@YAPBDPBD@Z 10054b7e f   internal.obj
 0001:00053bb0       __unwindfunclet$?get_computrainer_cal_from_thread@@YAPBDPBDH@Z$0 10054bb0 f   internal.obj
 0001:00053bb8       __unwindfunclet$?get_computrainer_cal_from_thread@@YAPBDPBDH@Z$1 10054bb8 f   internal.obj
 0001:00053bc0       __unwindfunclet$?get_computrainer_cal_from_thread@@YAPBDPBDH@Z$2 10054bc0 f   internal.obj
 0001:00053bc8       __ehhandler$?get_computrainer_cal_from_thread@@YAPBDPBDH@Z 10054bc8 f   internal.obj
 0001:00053bf0       __unwindfunclet$?get_computrainer_firmware@@YAPBDPBD@Z$0 10054bf0 f   internal.obj
 0001:00053bfb       __unwindfunclet$?get_computrainer_firmware@@YAPBDPBD@Z$1 10054bfb f   internal.obj
 0001:00053c06       __unwindfunclet$?get_computrainer_firmware@@YAPBDPBD@Z$2 10054c06 f   internal.obj
 0001:00053c11       __unwindfunclet$?get_computrainer_firmware@@YAPBDPBD@Z$3 10054c11 f   internal.obj
 0001:00053c19       __unwindfunclet$?get_computrainer_firmware@@YAPBDPBD@Z$4 10054c19 f   internal.obj
 0001:00053c2e       __unwindfunclet$?get_computrainer_firmware@@YAPBDPBD@Z$5 10054c2e f   internal.obj
 0001:00053c4d       __ehhandler$?get_computrainer_firmware@@YAPBDPBD@Z 10054c4d f   internal.obj
 0001:00053c80       __unwindfunclet$?get_velotron_cal@@YAPBDPBD@Z$0 10054c80 f   internal.obj
 0001:00053c88       __unwindfunclet$?get_velotron_cal@@YAPBDPBD@Z$1 10054c88 f   internal.obj
 0001:00053c9a       __ehhandler$?get_velotron_cal@@YAPBDPBD@Z 10054c9a f   internal.obj
 0001:00053cc0       __unwindfunclet$?get_velotron_cal_from_thread@@YAPBDPBDH@Z$0 10054cc0 f   internal.obj
 0001:00053cc0       __unwindfunclet$?check_for_windows_server_computrainer@@YA?AW4EnumDeviceType@@PBD@Z$0 10054cc0 f   internal.obj
 0001:00053cc8       __unwindfunclet$?check_for_windows_server_computrainer@@YA?AW4EnumDeviceType@@PBD@Z$1 10054cc8 f   internal.obj
