 racermate

 Timestamp is 57ac617a (Thu Aug 11 07:28:58 2016)

 Preferred load address is 10000000

 Start         Length     Name                   Class
 0001:00000000 00086e4dH .textbss                DATA
 0002:00000000 0000ca40H .text$di                CODE
 0002:0000ca40 00105940H .text$mn                CODE
 0002:00112380 0000c6d0H .text$x                 CODE
 0002:0011ea50 00001434H .text$yd                CODE
 0003:00000000 00000104H .CRT$XCA                DATA
 0003:00000104 00000158H .CRT$XCU                DATA
 0003:0000025c 00000104H .CRT$XCZ                DATA
 0003:00000360 00000104H .CRT$XIA                DATA
 0003:00000464 00000104H .CRT$XIC                DATA
 0003:00000568 00000104H .CRT$XIZ                DATA
 0003:0000066c 00000004H .CRT$XLA                DATA
 0003:00000670 00000004H .CRT$XLZ                DATA
 0003:00000674 00000104H .CRT$XPA                DATA
 0003:00000778 00000104H .CRT$XPZ                DATA
 0003:0000087c 00000104H .CRT$XTA                DATA
 0003:00000980 00000110H .CRT$XTZ                DATA
 0003:00000a90 0001f504H .rdata                  DATA
 0003:0001ff94 0000011cH .rdata$T                DATA
 0003:000200b0 00001830H .rdata$r                DATA
 0003:000218e0 0000016cH .rdata$zzzdbg           DATA
 0003:00021a4c 00000104H .rtc$IAA                DATA
 0003:00021b50 0000020cH .rtc$IMZ                DATA
 0003:00021d5c 00000104H .rtc$IZZ                DATA
 0003:00021e60 00000104H .rtc$TAA                DATA
 0003:00021f64 0000020cH .rtc$TMZ                DATA
 0003:00022170 00000108H .rtc$TZZ                DATA
 0003:00022278 0000b208H .xdata$x                DATA
 0003:0002d480 00003905H .edata                  DATA
 0004:00000000 000025e0H .data                   DATA
 0004:000025e0 00000a80H .data$r                 DATA
 0004:00003060 000039f8H .bss                    DATA
 0005:00000000 00000c38H .idata$5                DATA
 0005:00000c38 00000140H .idata$2                DATA
 0005:00000d78 00000014H .idata$3                DATA
 0005:00000d8c 00000c38H .idata$4                DATA
 0005:000019c4 00003acdH .idata$6                DATA
 0006:00000000 0000017cH .gfids$y                DATA
 0007:00000000 00000104H .tls                    DATA
 0007:00000104 00000104H .tls$                   DATA
 0007:00000208 00000101H .tls$ZZZ                DATA
 0008:00000000 00000104H .00cfg                  DATA
 0009:00000000 00000170H .rsrc$01                DATA
 0009:00000170 000002ccH .rsrc$02                DATA

  Address         Publics by Value              Rva+Base       Lib:Object

 0000:00000000       ___guard_longjmp_count     00000000     <absolute>
 0000:00000000       ___safe_se_handler_table   00000000     <absolute>
 0000:00000000       ___guard_fids_count        00000000     <absolute>
 0000:00000000       ___guard_fids_table        00000000     <absolute>
 0000:00000000       ___safe_se_handler_count   00000000     <absolute>
 0000:00000000       ___dynamic_value_reloc_table 00000000     <absolute>
 0000:00000000       ___guard_iat_table         00000000     <absolute>
 0000:00000000       ___guard_longjmp_table     00000000     <absolute>
 0000:00000000       ___guard_iat_count         00000000     <absolute>
 0000:0000002c       __tls_array                0000002c     <absolute>
 0000:00000100       ___guard_flags             00000100     <absolute>
 0000:00000000       ___ImageBase               10000000     <linker-defined>
 0001:00000000       __enc$textbss$begin        10001000     <linker-defined>
 0001:00086e4d       __enc$textbss$end          10087e4d     <linker-defined>
 0002:0000ca40       ??$?0$$QAV?$basic_string@DU?$char_traits@D@std@@V?$allocator@D@2@@std@@$$Z$$V@?$pair@$$CBV?$basic_string@DU?$char_traits@D@std@@V?$allocator@D@2@@std@@VDEVICE@@@std@@QAE@Upiecewise_construct_t@1@V?$tuple@$$QAV?$basic_string@DU?$char_traits@D@std@@V?$allocator@D@2@@std@@@1@V?$tuple@$$V@1@@Z 10094a40 f i dll.obj
 0002:0000cac0       ??$?0$$V@?$_Compressed_pair@U?$_Wrap_alloc@V?$allocator@D@std@@@std@@V?$_String_val@U?$_Simple_types@D@std@@@2@$00@std@@QAE@U_Zero_then_variadic_args_t@1@@Z 10094ac0 f i dll.obj
 0002:0000cb20       ??$?0AAU?$_Wrap_alloc@V?$allocator@D@std@@@std@@@?$_Wrap_alloc@V?$allocator@U_Container_proxy@std@@@std@@@std@@QAE@AAU?$_Wrap_alloc@V?$allocator@D@std@@@1@@Z 10094b20 f i dll.obj
 0002:0000cb90       ??$?0AAU?$_Wrap_alloc@V?$allocator@UFORMULA_PAIR@@@std@@@std@@@?$_Wrap_alloc@V?$allocator@PAUFORMULA_PAIR@@@std@@@std@@QAE@AAU?$_Wrap_alloc@V?$allocator@UFORMULA_PAIR@@@std@@@1@@Z 10094b90 f i dll.obj
 0002:0000cc00       ??$?0AAU?$_Wrap_alloc@V?$allocator@UFORMULA_PAIR@@@std@@@std@@@?$_Wrap_alloc@V?$allocator@U_Container_proxy@std@@@std@@@std@@QAE@AAU?$_Wrap_alloc@V?$allocator@UFORMULA_PAIR@@@std@@@1@@Z 10094c00 f i dll.obj
 0002:0000cc70       ??$?0AAV?$_List_iterator@V?$_List_val@U?$_List_simple_types@U?$pair@$$CBV?$basic_string@DU?$char_traits@D@std@@V?$allocator@D@2@@std@@VDEVICE@@@std@@@std@@@std@@@std@@_NX$0A@@?$pair@V?$_List_iterator@V?$_List_val@U?$_List_simple_types@U?$pair@$$CBV?$basic_string@DU?$char_traits@D@std@@V?$allocator@D@2@@std@@VDEVICE@@@std@@@std@@@std@@@std@@_N@std@@QAE@AAV?$_List_iterator@V?$_List_val@U?$_List_simple_types@U?$pair@$$CBV?$basic_string@DU?$char_traits@D@std@@V?$allocator@D@2@@std@@VDEVICE@@@std@@@std@@@std@@@1@$$QA_N@Z 10094c70 f i dll.obj
 0002:0000ccf0       ??$?0D@?$allocator@U_Container_proxy@std@@@std@@QAE@ABV?$allocator@D@1@@Z 10094cf0 f i dll.obj
 0002:0000cd30       ??$?0U?$_Wrap_alloc@V?$allocator@D@std@@@std@@$$V@?$_Compressed_pair@U?$_Wrap_alloc@V?$allocator@D@std@@@std@@V?$_String_val@U?$_Simple_types@D@std@@@2@$00@std@@QAE@U_One_then_variadic_args_t@1@$$QAU?$_Wrap_alloc@V?$allocator@D@std@@@1@@Z 10094d30 f i dll.obj
 0002:0000cda0       ??$?0U?$_Wrap_alloc@V?$allocator@D@std@@@std@@X@?$_String_alloc@U?$_String_base_types@DV?$allocator@D@std@@@std@@@std@@QAE@$$QAU?$_Wrap_alloc@V?$allocator@D@std@@@1@@Z 10094da0 f i dll.obj
 0002:0000ce60       ??$?0U?$_Wrap_alloc@V?$allocator@UFORMULA_PAIR@@@std@@@std@@$$V@?$_Compressed_pair@U?$_Wrap_alloc@V?$allocator@UFORMULA_PAIR@@@std@@@std@@V?$_Deque_val@U?$_Deque_simple_types@UFORMULA_PAIR@@@std@@@2@$00@std@@QAE@U_One_then_variadic_args_t@1@$$QAU?$_Wrap_alloc@V?$allocator@UFORMULA_PAIR@@@std@@@1@@Z 10094e60 f i dll.obj
 0002:0000ced0       ??$?0U?$_Wrap_alloc@V?$allocator@UFORMULA_PAIR@@@std@@@std@@@?$_Deque_alloc@U?$_Deque_base_types@UFORMULA_PAIR@@V?$allocator@UFORMULA_PAIR@@@std@@@std@@@std@@QAE@$$QAU?$_Wrap_alloc@V?$allocator@UFORMULA_PAIR@@@std@@@1@@Z 10094ed0 f i dll.obj
 0002:0000cf90       ??$?0UFORMULA_PAIR@@@?$allocator@PAUFORMULA_PAIR@@@std@@QAE@ABV?$allocator@UFORMULA_PAIR@@@1@@Z 10094f90 f i dll.obj
 0002:0000cfd0       ??$?0UFORMULA_PAIR@@@?$allocator@U_Container_proxy@std@@@std@@QAE@ABV?$allocator@UFORMULA_PAIR@@@1@@Z 10094fd0 f i dll.obj
 0002:0000d010       ??$?0U_Exact_args_t@std@@$0A@@?$tuple@$$V@std@@QAE@U_Exact_args_t@1@@Z 10095010 f i dll.obj
 0002:0000d050       ??$?0V?$_List_iterator@V?$_List_val@U?$_List_simple_types@U?$pair@$$CBV?$basic_string@DU?$char_traits@D@std@@V?$allocator@D@2@@std@@VDEVICE@@@std@@@std@@@std@@@std@@_NX$0A@@?$pair@V?$_List_iterator@V?$_List_val@U?$_List_simple_types@U?$pair@$$CBV?$basic_string@DU?$char_traits@D@std@@V?$allocator@D@2@@std@@VDEVICE@@@std@@@std@@@std@@@std@@_N@std@@QAE@$$QAV?$_List_iterator@V?$_List_val@U?$_List_simple_types@U?$pair@$$CBV?$basic_string@DU?$char_traits@D@std@@V?$allocator@D@2@@std@@VDEVICE@@@std@@@std@@@std@@@1@$$QA_N@Z 10095050 f i dll.obj
 0002:0000d0d0       ??$?0V?$allocator@UFORMULA_PAIR@@@std@@@?$_Wrap_alloc@V?$allocator@UFORMULA_PAIR@@@std@@@std@@QAE@$$QAV?$allocator@UFORMULA_PAIR@@@1@@Z 100950d0 f i dll.obj
 0002:0000d140       ??$?0V?$basic_string@DU?$char_traits@D@std@@V?$allocator@D@2@@std@@$$V$0A@@?$tuple@$$QAV?$basic_string@DU?$char_traits@D@std@@V?$allocator@D@2@@std@@@std@@QAE@$$QAV?$basic_string@DU?$char_traits@D@std@@V?$allocator@D@2@@1@@Z 10095140 f i dll.obj
 0002:0000d1d0       ??$?0V?$basic_string@DU?$char_traits@D@std@@V?$allocator@D@2@@std@@@?$_Tuple_val@$$QAV?$basic_string@DU?$char_traits@D@std@@V?$allocator@D@2@@std@@@std@@QAE@$$QAV?$basic_string@DU?$char_traits@D@std@@V?$allocator@D@2@@1@@Z 100951d0 f i dll.obj
 0002:0000d230       ??$?0V?$tuple@$$QAV?$basic_string@DU?$char_traits@D@std@@V?$allocator@D@2@@std@@@std@@V?$tuple@$$V@1@$0A@$$Z$S@?$pair@$$CBV?$basic_string@DU?$char_traits@D@std@@V?$allocator@D@2@@std@@VDEVICE@@@std@@QAE@AAV?$tuple@$$QAV?$basic_string@DU?$char_traits@D@std@@V?$allocator@D@2@@std@@@1@AAV?$tuple@$$V@1@U?$integer_sequence@I$0A@@1@U?$integer_sequence@I$S@1@@Z 10095230 f i dll.obj
 0002:0000d300       ??$?8DD@std@@YA_NABV?$allocator@D@0@0@Z 10095300 f i dll.obj
 0002:0000d330       ??$?8DU?$char_traits@D@std@@V?$allocator@D@1@@std@@YA_NABV?$basic_string@DU?$char_traits@D@std@@V?$allocator@D@2@@0@0@Z 10095330 f i dll.obj
 0002:0000d3b0       ??$?8UFORMULA_PAIR@@U0@@std@@YA_NABV?$allocator@UFORMULA_PAIR@@@0@0@Z 100953b0 f i dll.obj
 0002:0000d3e0       ??$?8V?$allocator@D@std@@V01@@std@@YA_NABU?$_Wrap_alloc@V?$allocator@D@std@@@0@0@Z 100953e0 f i dll.obj
 0002:0000d440       ??$?8V?$allocator@UFORMULA_PAIR@@@std@@V01@@std@@YA_NABU?$_Wrap_alloc@V?$allocator@UFORMULA_PAIR@@@std@@@0@0@Z 10095440 f i dll.obj
 0002:0000d4a0       ??$?9V?$allocator@D@std@@V01@@std@@YA_NABU?$_Wrap_alloc@V?$allocator@D@std@@@0@0@Z 100954a0 f i dll.obj
 0002:0000d520       ??$?9V?$allocator@UFORMULA_PAIR@@@std@@V01@@std@@YA_NABU?$_Wrap_alloc@V?$allocator@UFORMULA_PAIR@@@std@@@0@0@Z 10095520 f i dll.obj
 0002:0000d5a0       ??$_Addressof@$$CBV?$_List_unchecked_iterator@V?$_List_val@U?$_List_simple_types@U?$pair@$$CBV?$basic_string@DU?$char_traits@D@std@@V?$allocator@D@2@@std@@VDEVICE@@@std@@@std@@@std@@@std@@@std@@YAPBV?$_List_unchecked_iterator@V?$_List_val@U?$_List_simple_types@U?$pair@$$CBV?$basic_string@DU?$char_traits@D@std@@V?$allocator@D@2@@std@@VDEVICE@@@std@@@std@@@std@@@0@ABV10@U?$integral_constant@_N$0A@@0@@Z 100955a0 f i dll.obj
 0002:0000d5e0       ??$_Addressof@D@std@@YAPADAADU?$integral_constant@_N$0A@@0@@Z 100955e0 f i dll.obj
 0002:0000d620       ??$_Addressof@PAU?$_List_node@U?$pair@$$CBV?$basic_string@DU?$char_traits@D@std@@V?$allocator@D@2@@std@@VDEVICE@@@std@@PAX@std@@@std@@YAPAPAU?$_List_node@U?$pair@$$CBV?$basic_string@DU?$char_traits@D@std@@V?$allocator@D@2@@std@@VDEVICE@@@std@@PAX@0@AAPAU10@U?$integral_constant@_N$0A@@0@@Z 10095620 f i dll.obj
 0002:0000d660       ??$_Addressof@PAUFORMULA_PAIR@@@std@@YAPAPAUFORMULA_PAIR@@AAPAU1@U?$integral_constant@_N$0A@@0@@Z 10095660 f i dll.obj
 0002:0000d6a0       ??$_Addressof@U?$pair@$$CBV?$basic_string@DU?$char_traits@D@std@@V?$allocator@D@2@@std@@VDEVICE@@@std@@@std@@YAPAU?$pair@$$CBV?$basic_string@DU?$char_traits@D@std@@V?$allocator@D@2@@std@@VDEVICE@@@0@AAU10@U?$integral_constant@_N$0A@@0@@Z 100956a0 f i dll.obj
 0002:0000d6e0       ??$_Addressof@V?$_List_unchecked_iterator@V?$_List_val@U?$_List_simple_types@U?$pair@$$CBV?$basic_string@DU?$char_traits@D@std@@V?$allocator@D@2@@std@@VDEVICE@@@std@@@std@@@std@@@std@@@std@@YAPAV?$_List_unchecked_iterator@V?$_List_val@U?$_List_simple_types@U?$pair@$$CBV?$basic_string@DU?$char_traits@D@std@@V?$allocator@D@2@@std@@VDEVICE@@@std@@@std@@@std@@@0@AAV10@U?$integral_constant@_N$0A@@0@@Z 100956e0 f i dll.obj
 0002:0000d720       ??$_Buynode@ABUpiecewise_construct_t@std@@V?$tuple@$$QAV?$basic_string@DU?$char_traits@D@std@@V?$allocator@D@2@@std@@@2@V?$tuple@$$V@2@@?$_List_buy@U?$pair@$$CBV?$basic_string@DU?$char_traits@D@std@@V?$allocator@D@2@@std@@VDEVICE@@@std@@V?$allocator@U?$pair@$$CBV?$basic_string@DU?$char_traits@D@std@@V?$allocator@D@2@@std@@VDEVICE@@@std@@@2@@std@@QAEPAU?$_List_node@U?$pair@$$CBV?$basic_string@DU?$char_traits@D@std@@V?$allocator@D@2@@std@@VDEVICE@@@std@@PAX@1@PAU21@0ABUpiecewise_construct_t@1@$$QAV?$tuple@$$QAV?$basic_string@DU?$char_traits@D@std@@V?$allocator@D@2@@std@@@1@$$QAV?$tuple@$$V@1@@Z 10095720 f i dll.obj
 0002:0000d880       ??$_Buynode_if_nil@AAU?$pair@$$CBV?$basic_string@DU?$char_traits@D@std@@V?$allocator@D@2@@std@@VDEVICE@@@std@@@?$_Hash@V?$_Umap_traits@V?$basic_string@DU?$char_traits@D@std@@V?$allocator@D@2@@std@@VDEVICE@@V?$_Uhash_compare@V?$basic_string@DU?$char_traits@D@std@@V?$allocator@D@2@@std@@U?$hash@V?$basic_string@DU?$char_traits@D@std@@V?$allocator@D@2@@std@@@2@U?$equal_to@V?$basic_string@DU?$char_traits@D@std@@V?$allocator@D@2@@std@@@2@@2@V?$allocator@U?$pair@$$CBV?$basic_string@DU?$char_traits@D@std@@V?$allocator@D@2@@std@@VDEVICE@@@std@@@2@$0A@@std@@@std@@IAE?AV?$_List_unchecked_iterator@V?$_List_val@U?$_List_simple_types@U?$pair@$$CBV?$basic_string@DU?$char_traits@D@std@@V?$allocator@D@2@@std@@VDEVICE@@@std@@@std@@@std@@@1@AAU?$pair@$$CBV?$basic_string@DU?$char_traits@D@std@@V?$allocator@D@2@@std@@VDEVICE@@@1@V21@@Z 10095880 f i dll.obj
 0002:0000d8d0       ??$_Construct@V?$_Deque_const_iterator@V?$_Deque_val@U?$_Deque_simple_types@UFORMULA_PAIR@@@std@@@std@@@std@@@?$deque@UFORMULA_PAIR@@V?$allocator@UFORMULA_PAIR@@@std@@@std@@QAEXV?$_Deque_const_iterator@V?$_Deque_val@U?$_Deque_simple_types@UFORMULA_PAIR@@@std@@@std@@@1@0@Z 100958d0 f i dll.obj
 0002:0000da10       ??$_Copy_backward_memmove@PAV?$_List_unchecked_iterator@V?$_List_val@U?$_List_simple_types@U?$pair@$$CBV?$basic_string@DU?$char_traits@D@std@@V?$allocator@D@2@@std@@VDEVICE@@@std@@@std@@@std@@@std@@PAV12@@std@@YAPAV?$_List_unchecked_iterator@V?$_List_val@U?$_List_simple_types@U?$pair@$$CBV?$basic_string@DU?$char_traits@D@std@@V?$allocator@D@2@@std@@VDEVICE@@@std@@@std@@@std@@@0@PAV10@00@Z 10095a10 f i dll.obj
 0002:0000daa0       ??$_Copy_memmove@PAPAUFORMULA_PAIR@@PAPAU1@@std@@YAPAPAUFORMULA_PAIR@@PAPAU1@00@Z 10095aa0 f i dll.obj
 0002:0000db30       ??$_Copy_no_deprecate1@V?$_Deque_unchecked_const_iterator@V?$_Deque_val@U?$_Deque_simple_types@UFORMULA_PAIR@@@std@@@std@@@std@@V?$_Deque_iterator@V?$_Deque_val@U?$_Deque_simple_types@UFORMULA_PAIR@@@std@@@std@@@2@@std@@YA?AV?$_Deque_iterator@V?$_Deque_val@U?$_Deque_simple_types@UFORMULA_PAIR@@@std@@@std@@@0@V?$_Deque_unchecked_const_iterator@V?$_Deque_val@U?$_Deque_simple_types@UFORMULA_PAIR@@@std@@@std@@@0@0V10@Urandom_access_iterator_tag@0@2@Z 10095b30 f i dll.obj
 0002:0000dcb0       ??$_Copy_no_deprecate@V?$_Deque_const_iterator@V?$_Deque_val@U?$_Deque_simple_types@UFORMULA_PAIR@@@std@@@std@@@std@@V?$_Deque_iterator@V?$_Deque_val@U?$_Deque_simple_types@UFORMULA_PAIR@@@std@@@std@@@2@@std@@YA?AV?$_Deque_iterator@V?$_Deque_val@U?$_Deque_simple_types@UFORMULA_PAIR@@@std@@@std@@@0@V?$_Deque_const_iterator@V?$_Deque_val@U?$_Deque_simple_types@UFORMULA_PAIR@@@std@@@std@@@0@0V10@@Z 10095cb0 f i dll.obj
 0002:0000df20       ??$_Copy_unchecked1@V?$_Deque_unchecked_const_iterator@V?$_Deque_val@U?$_Deque_simple_types@UFORMULA_PAIR@@@std@@@std@@@std@@V?$_Deque_unchecked_iterator@V?$_Deque_val@U?$_Deque_simple_types@UFORMULA_PAIR@@@std@@@std@@@2@@std@@YA?AV?$_Deque_unchecked_iterator@V?$_Deque_val@U?$_Deque_simple_types@UFORMULA_PAIR@@@std@@@std@@@0@V?$_Deque_unchecked_const_iterator@V?$_Deque_val@U?$_Deque_simple_types@UFORMULA_PAIR@@@std@@@std@@@0@0V10@U_General_ptr_iterator_tag@0@@Z 10095f20 f i dll.obj
 0002:0000dfd0       ??$_Copy_unchecked@V?$_Deque_unchecked_const_iterator@V?$_Deque_val@U?$_Deque_simple_types@UFORMULA_PAIR@@@std@@@std@@@std@@V?$_Deque_unchecked_iterator@V?$_Deque_val@U?$_Deque_simple_types@UFORMULA_PAIR@@@std@@@std@@@2@@std@@YA?AV?$_Deque_unchecked_iterator@V?$_Deque_val@U?$_Deque_simple_types@UFORMULA_PAIR@@@std@@@std@@@0@V?$_Deque_unchecked_const_iterator@V?$_Deque_val@U?$_Deque_simple_types@UFORMULA_PAIR@@@std@@@std@@@0@0V10@@Z 10095fd0 f i dll.obj
 0002:0000e070       ??$_Debug_pointer@$$CBD@std@@YAXPBDPB_WI@Z 10096070 f i dll.obj
 0002:0000e0e0       ??$_Debug_pointer@V?$_Deque_const_iterator@V?$_Deque_val@U?$_Deque_simple_types@UFORMULA_PAIR@@@std@@@std@@@std@@@std@@YAXAAV?$_Deque_const_iterator@V?$_Deque_val@U?$_Deque_simple_types@UFORMULA_PAIR@@@std@@@std@@@0@PB_WI@Z 100960e0 f i dll.obj
 0002:0000e110       ??$_Debug_pointer@V?$_Deque_iterator@V?$_Deque_val@U?$_Deque_simple_types@UFORMULA_PAIR@@@std@@@std@@@std@@@std@@YAXAAV?$_Deque_iterator@V?$_Deque_val@U?$_Deque_simple_types@UFORMULA_PAIR@@@std@@@std@@@0@PB_WI@Z 10096110 f i dll.obj
 0002:0000e140       ??$_Debug_pointer@V?$_Deque_unchecked_iterator@V?$_Deque_val@U?$_Deque_simple_types@UFORMULA_PAIR@@@std@@@std@@@std@@@std@@YAXAAV?$_Deque_unchecked_iterator@V?$_Deque_val@U?$_Deque_simple_types@UFORMULA_PAIR@@@std@@@std@@@0@PB_WI@Z 10096140 f i dll.obj
 0002:0000e170       ??$_Debug_pointer@V?$_List_unchecked_iterator@V?$_List_val@U?$_List_simple_types@U?$pair@$$CBV?$basic_string@DU?$char_traits@D@std@@V?$allocator@D@2@@std@@VDEVICE@@@std@@@std@@@std@@@std@@@std@@YAXPAV?$_List_unchecked_iterator@V?$_List_val@U?$_List_simple_types@U?$pair@$$CBV?$basic_string@DU?$char_traits@D@std@@V?$allocator@D@2@@std@@VDEVICE@@@std@@@std@@@std@@@0@PB_WI@Z 10096170 f i dll.obj
 0002:0000e1e0       ??$_Debug_pointer_if@$$CBD@std@@YAX_NPBDPB_WI@Z 100961e0 f i dll.obj
 0002:0000e260       ??$_Debug_range2@PAV?$_List_unchecked_iterator@V?$_List_val@U?$_List_simple_types@U?$pair@$$CBV?$basic_string@DU?$char_traits@D@std@@V?$allocator@D@2@@std@@VDEVICE@@@std@@@std@@@std@@@std@@@std@@YAXPAV?$_List_unchecked_iterator@V?$_List_val@U?$_List_simple_types@U?$pair@$$CBV?$basic_string@DU?$char_traits@D@std@@V?$allocator@D@2@@std@@VDEVICE@@@std@@@std@@@std@@@0@0PB_WIUrandom_access_iterator_tag@0@@Z 10096260 f i dll.obj
 0002:0000e310       ??$_Debug_range2@V?$_Deque_const_iterator@V?$_Deque_val@U?$_Deque_simple_types@UFORMULA_PAIR@@@std@@@std@@@std@@@std@@YAXV?$_Deque_const_iterator@V?$_Deque_val@U?$_Deque_simple_types@UFORMULA_PAIR@@@std@@@std@@@0@0PB_WIUrandom_access_iterator_tag@0@@Z 10096310 f i dll.obj
 0002:0000e440       ??$_Debug_range2@V?$_Deque_iterator@V?$_Deque_val@U?$_Deque_simple_types@UFORMULA_PAIR@@@std@@@std@@@std@@@std@@YAXV?$_Deque_iterator@V?$_Deque_val@U?$_Deque_simple_types@UFORMULA_PAIR@@@std@@@std@@@0@0PB_WIUrandom_access_iterator_tag@0@@Z 10096440 f i dll.obj
 0002:0000e570       ??$_Debug_range2@V?$_Deque_unchecked_iterator@V?$_Deque_val@U?$_Deque_simple_types@UFORMULA_PAIR@@@std@@@std@@@std@@@std@@YAXV?$_Deque_unchecked_iterator@V?$_Deque_val@U?$_Deque_simple_types@UFORMULA_PAIR@@@std@@@std@@@0@0PB_WIUrandom_access_iterator_tag@0@@Z 10096570 f i dll.obj
 0002:0000e640       ??$_Debug_range@PAV?$_List_unchecked_iterator@V?$_List_val@U?$_List_simple_types@U?$pair@$$CBV?$basic_string@DU?$char_traits@D@std@@V?$allocator@D@2@@std@@VDEVICE@@@std@@@std@@@std@@@std@@@std@@YAXPAV?$_List_unchecked_iterator@V?$_List_val@U?$_List_simple_types@U?$pair@$$CBV?$basic_string@DU?$char_traits@D@std@@V?$allocator@D@2@@std@@VDEVICE@@@std@@@std@@@std@@@0@0PB_WI@Z 10096640 f i dll.obj
 0002:0000e6c0       ??$_Debug_range@V?$_Deque_const_iterator@V?$_Deque_val@U?$_Deque_simple_types@UFORMULA_PAIR@@@std@@@std@@@std@@@std@@YAXV?$_Deque_const_iterator@V?$_Deque_val@U?$_Deque_simple_types@UFORMULA_PAIR@@@std@@@std@@@0@0PB_WI@Z 100966c0 f i dll.obj
 0002:0000e7f0       ??$_Debug_range@V?$_Deque_iterator@V?$_Deque_val@U?$_Deque_simple_types@UFORMULA_PAIR@@@std@@@std@@@std@@@std@@YAXV?$_Deque_iterator@V?$_Deque_val@U?$_Deque_simple_types@UFORMULA_PAIR@@@std@@@std@@@0@0PB_WI@Z 100967f0 f i dll.obj
 0002:0000e920       ??$_Debug_range@V?$_Deque_unchecked_iterator@V?$_Deque_val@U?$_Deque_simple_types@UFORMULA_PAIR@@@std@@@std@@@std@@@std@@YAXV?$_Deque_unchecked_iterator@V?$_Deque_val@U?$_Deque_simple_types@UFORMULA_PAIR@@@std@@@std@@@0@0PB_WI@Z 10096920 f i dll.obj
 0002:0000e9b0       ??$_Debug_range_ptr2@V?$_Deque_const_iterator@V?$_Deque_val@U?$_Deque_simple_types@UFORMULA_PAIR@@@std@@@std@@@std@@V?$_Deque_iterator@V?$_Deque_val@U?$_Deque_simple_types@UFORMULA_PAIR@@@std@@@std@@@2@@std@@YAXV?$_Deque_const_iterator@V?$_Deque_val@U?$_Deque_simple_types@UFORMULA_PAIR@@@std@@@std@@@0@0AAV?$_Deque_iterator@V?$_Deque_val@U?$_Deque_simple_types@UFORMULA_PAIR@@@std@@@std@@@0@PB_WIUrandom_access_iterator_tag@0@@Z 100969b0 f i dll.obj
 0002:0000eaf0       ??$_Debug_range_ptr2@V?$_Deque_iterator@V?$_Deque_val@U?$_Deque_simple_types@UFORMULA_PAIR@@@std@@@std@@@std@@V12@@std@@YAXV?$_Deque_iterator@V?$_Deque_val@U?$_Deque_simple_types@UFORMULA_PAIR@@@std@@@std@@@0@0AAV10@PB_WIUrandom_access_iterator_tag@0@@Z 10096af0 f i dll.obj
 0002:0000ec30       ??$_Debug_range_ptr@V?$_Deque_const_iterator@V?$_Deque_val@U?$_Deque_simple_types@UFORMULA_PAIR@@@std@@@std@@@std@@V?$_Deque_iterator@V?$_Deque_val@U?$_Deque_simple_types@UFORMULA_PAIR@@@std@@@std@@@2@@std@@YAXV?$_Deque_const_iterator@V?$_Deque_val@U?$_Deque_simple_types@UFORMULA_PAIR@@@std@@@std@@@0@0AAV?$_Deque_iterator@V?$_Deque_val@U?$_Deque_simple_types@UFORMULA_PAIR@@@std@@@std@@@0@PB_WI@Z 10096c30 f i dll.obj
 0002:0000ed60       ??$_Debug_range_ptr@V?$_Deque_iterator@V?$_Deque_val@U?$_Deque_simple_types@UFORMULA_PAIR@@@std@@@std@@@std@@V12@@std@@YAXV?$_Deque_iterator@V?$_Deque_val@U?$_Deque_simple_types@UFORMULA_PAIR@@@std@@@std@@@0@0AAV10@PB_WI@Z 10096d60 f i dll.obj
 0002:0000ee90       ??$_Destroy_range@U?$_Wrap_alloc@U?$_Wrap_alloc@V?$allocator@V?$_List_unchecked_iterator@V?$_List_val@U?$_List_simple_types@U?$pair@$$CBV?$basic_string@DU?$char_traits@D@std@@V?$allocator@D@2@@std@@VDEVICE@@@std@@@std@@@std@@@std@@@std@@@std@@@std@@@std@@YAXPAV?$_List_unchecked_iterator@V?$_List_val@U?$_List_simple_types@U?$pair@$$CBV?$basic_string@DU?$char_traits@D@std@@V?$allocator@D@2@@std@@VDEVICE@@@std@@@std@@@std@@@0@0AAU?$_Wrap_alloc@U?$_Wrap_alloc@V?$allocator@V?$_List_unchecked_iterator@V?$_List_val@U?$_List_simple_types@U?$pair@$$CBV?$basic_string@DU?$char_traits@D@std@@V?$allocator@D@2@@std@@VDEVICE@@@std@@@std@@@std@@@std@@@std@@@std@@@0@@Z 10096e90 f i dll.obj
 0002:0000ef10       ??$_Destroy_range@U?$_Wrap_alloc@V?$allocator@PAUFORMULA_PAIR@@@std@@@std@@@std@@YAXPAPAUFORMULA_PAIR@@0AAU?$_Wrap_alloc@V?$allocator@PAUFORMULA_PAIR@@@std@@@0@@Z 10096f10 f i dll.obj
 0002:0000ef90       ??$_Fill_memset_is_safe@PAV?$_List_unchecked_iterator@V?$_List_val@U?$_List_simple_types@U?$pair@$$CBV?$basic_string@DU?$char_traits@D@std@@V?$allocator@D@2@@std@@VDEVICE@@@std@@@std@@@std@@@std@@V12@@std@@YA?AU?$integral_constant@_N$0A@@0@ABQAV?$_List_unchecked_iterator@V?$_List_val@U?$_List_simple_types@U?$pair@$$CBV?$basic_string@DU?$char_traits@D@std@@V?$allocator@D@2@@std@@VDEVICE@@@std@@@std@@@std@@@0@ABV20@@Z 10096f90 f i dll.obj
 0002:0000efd0       ??$_Fill_unchecked1@PAV?$_List_unchecked_iterator@V?$_List_val@U?$_List_simple_types@U?$pair@$$CBV?$basic_string@DU?$char_traits@D@std@@V?$allocator@D@2@@std@@VDEVICE@@@std@@@std@@@std@@@std@@V12@@std@@YAXPAV?$_List_unchecked_iterator@V?$_List_val@U?$_List_simple_types@U?$pair@$$CBV?$basic_string@DU?$char_traits@D@std@@V?$allocator@D@2@@std@@VDEVICE@@@std@@@std@@@std@@@0@0ABV10@U?$integral_constant@_N$0A@@0@@Z 10096fd0 f i dll.obj
 0002:0000f030       ??$_Fill_unchecked@PAV?$_List_unchecked_iterator@V?$_List_val@U?$_List_simple_types@U?$pair@$$CBV?$basic_string@DU?$char_traits@D@std@@V?$allocator@D@2@@std@@VDEVICE@@@std@@@std@@@std@@@std@@V12@@std@@YAXPAV?$_List_unchecked_iterator@V?$_List_val@U?$_List_simple_types@U?$pair@$$CBV?$basic_string@DU?$char_traits@D@std@@V?$allocator@D@2@@std@@VDEVICE@@@std@@@std@@@std@@@0@0ABV10@@Z 10097030 f i dll.obj
 0002:0000f0b0       ??$_Fn@U?$_Wrap_alloc@V?$allocator@V?$_List_unchecked_iterator@V?$_List_val@U?$_List_simple_types@U?$pair@$$CBV?$basic_string@DU?$char_traits@D@std@@V?$allocator@D@2@@std@@VDEVICE@@@std@@@std@@@std@@@std@@@std@@@std@@@_Alloc_max_size@std@@SAIHABU?$_Wrap_alloc@V?$allocator@V?$_List_unchecked_iterator@V?$_List_val@U?$_List_simple_types@U?$pair@$$CBV?$basic_string@DU?$char_traits@D@std@@V?$allocator@D@2@@std@@VDEVICE@@@std@@@std@@@std@@@std@@@std@@@1@@Z 100970b0 f i dll.obj
 0002:0000f110       ??$_Fn@U?$_Wrap_alloc@V?$allocator@V?$_List_unchecked_iterator@V?$_List_val@U?$_List_simple_types@U?$pair@$$CBV?$basic_string@DU?$char_traits@D@std@@V?$allocator@D@2@@std@@VDEVICE@@@std@@@std@@@std@@@std@@@std@@@std@@V?$_List_unchecked_iterator@V?$_List_val@U?$_List_simple_types@U?$pair@$$CBV?$basic_string@DU?$char_traits@D@std@@V?$allocator@D@2@@std@@VDEVICE@@@std@@@std@@@std@@@2@@_Alloc_destroy@std@@SAXHAAU?$_Wrap_alloc@V?$allocator@V?$_List_unchecked_iterator@V?$_List_val@U?$_List_simple_types@U?$pair@$$CBV?$basic_string@DU?$char_traits@D@std@@V?$allocator@D@2@@std@@VDEVICE@@@std@@@std@@@std@@@std@@@std@@@1@PAV?$_List_unchecked_iterator@V?$_List_val@U?$_List_simple_types@U?$pair@$$CBV?$basic_string@DU?$char_traits@D@std@@V?$allocator@D@2@@std@@VDEVICE@@@std@@@std@@@std@@@1@@Z 10097110 f i dll.obj
 0002:0000f160       ??$_Fn@U?$_Wrap_alloc@V?$allocator@V?$_List_unchecked_iterator@V?$_List_val@U?$_List_simple_types@U?$pair@$$CBV?$basic_string@DU?$char_traits@D@std@@V?$allocator@D@2@@std@@VDEVICE@@@std@@@std@@@std@@@std@@@std@@@std@@V?$_List_unchecked_iterator@V?$_List_val@U?$_List_simple_types@U?$pair@$$CBV?$basic_string@DU?$char_traits@D@std@@V?$allocator@D@2@@std@@VDEVICE@@@std@@@std@@@std@@@2@ABV32@@_Alloc_construct@std@@SAXHAAU?$_Wrap_alloc@V?$allocator@V?$_List_unchecked_iterator@V?$_List_val@U?$_List_simple_types@U?$pair@$$CBV?$basic_string@DU?$char_traits@D@std@@V?$allocator@D@2@@std@@VDEVICE@@@std@@@std@@@std@@@std@@@std@@@1@PAV?$_List_unchecked_iterator@V?$_List_val@U?$_List_simple_types@U?$pair@$$CBV?$basic_string@DU?$char_traits@D@std@@V?$allocator@D@2@@std@@VDEVICE@@@std@@@std@@@std@@@1@ABV31@@Z 10097160 f i dll.obj
 0002:0000f1c0       ??$_Fn@U?$_Wrap_alloc@V?$allocator@V?$_List_unchecked_iterator@V?$_List_val@U?$_List_simple_types@U?$pair@$$CBV?$basic_string@DU?$char_traits@D@std@@V?$allocator@D@2@@std@@VDEVICE@@@std@@@std@@@std@@@std@@@std@@@std@@V?$_List_unchecked_iterator@V?$_List_val@U?$_List_simple_types@U?$pair@$$CBV?$basic_string@DU?$char_traits@D@std@@V?$allocator@D@2@@std@@VDEVICE@@@std@@@std@@@std@@@2@V32@@_Alloc_construct@std@@SAXHAAU?$_Wrap_alloc@V?$allocator@V?$_List_unchecked_iterator@V?$_List_val@U?$_List_simple_types@U?$pair@$$CBV?$basic_string@DU?$char_traits@D@std@@V?$allocator@D@2@@std@@VDEVICE@@@std@@@std@@@std@@@std@@@std@@@1@PAV?$_List_unchecked_iterator@V?$_List_val@U?$_List_simple_types@U?$pair@$$CBV?$basic_string@DU?$char_traits@D@std@@V?$allocator@D@2@@std@@VDEVICE@@@std@@@std@@@std@@@1@$$QAV31@@Z 100971c0 f i dll.obj
 0002:0000f220       ??$_Insert@AAU?$pair@$$CBV?$basic_string@DU?$char_traits@D@std@@V?$allocator@D@2@@std@@VDEVICE@@@std@@V?$_List_unchecked_iterator@V?$_List_val@U?$_List_simple_types@U?$pair@$$CBV?$basic_string@DU?$char_traits@D@std@@V?$allocator@D@2@@std@@VDEVICE@@@std@@@std@@@std@@@2@@?$_Hash@V?$_Umap_traits@V?$basic_string@DU?$char_traits@D@std@@V?$allocator@D@2@@std@@VDEVICE@@V?$_Uhash_compare@V?$basic_string@DU?$char_traits@D@std@@V?$allocator@D@2@@std@@U?$hash@V?$basic_string@DU?$char_traits@D@std@@V?$allocator@D@2@@std@@@2@U?$equal_to@V?$basic_string@DU?$char_traits@D@std@@V?$allocator@D@2@@std@@@2@@2@V?$allocator@U?$pair@$$CBV?$basic_string@DU?$char_traits@D@std@@V?$allocator@D@2@@std@@VDEVICE@@@std@@@2@$0A@@std@@@std@@IAE?AU?$pair@V?$_List_iterator@V?$_List_val@U?$_List_simple_types@U?$pair@$$CBV?$basic_string@DU?$char_traits@D@std@@V?$allocator@D@2@@std@@VDEVICE@@@std@@@std@@@std@@@std@@_N@1@AAU?$pair@$$CBV?$basic_string@DU?$char_traits@D@std@@V?$allocator@D@2@@std@@VDEVICE@@@1@V?$_List_unchecked_iterator@V?$_List_val@U?$_List_simple_types@U?$pair@$$CBV?$basic_string@DU?$char_traits@D@std@@V?$allocator@D@2@@std@@VDEVICE@@@std@@@std@@@std@@@1@@Z 10097220 f i dll.obj
 0002:0000f790       ??$_Insert@ABUpiecewise_construct_t@std@@V?$tuple@$$QAV?$basic_string@DU?$char_traits@D@std@@V?$allocator@D@2@@std@@@2@V?$tuple@$$V@2@@?$list@U?$pair@$$CBV?$basic_string@DU?$char_traits@D@std@@V?$allocator@D@2@@std@@VDEVICE@@@std@@V?$allocator@U?$pair@$$CBV?$basic_string@DU?$char_traits@D@std@@V?$allocator@D@2@@std@@VDEVICE@@@std@@@2@@std@@QAEXV?$_List_unchecked_const_iterator@V?$_List_val@U?$_List_simple_types@U?$pair@$$CBV?$basic_string@DU?$char_traits@D@std@@V?$allocator@D@2@@std@@VDEVICE@@@std@@@std@@@std@@U_Iterator_base0@2@@1@ABUpiecewise_construct_t@1@$$QAV?$tuple@$$QAV?$basic_string@DU?$char_traits@D@std@@V?$allocator@D@2@@std@@@1@$$QAV?$tuple@$$V@1@@Z 10097790 f i dll.obj
 0002:0000f880       ??$_Is_checked@V?$_Deque_iterator@V?$_Deque_val@U?$_Deque_simple_types@UFORMULA_PAIR@@@std@@@std@@@std@@@std@@YA?AU?$integral_constant@_N$00@0@V?$_Deque_iterator@V?$_Deque_val@U?$_Deque_simple_types@UFORMULA_PAIR@@@std@@@std@@@0@@Z 10097880 f i dll.obj
 0002:0000f8f0       ??$_Iter_cat@PAV?$_List_unchecked_iterator@V?$_List_val@U?$_List_simple_types@U?$pair@$$CBV?$basic_string@DU?$char_traits@D@std@@V?$allocator@D@2@@std@@VDEVICE@@@std@@@std@@@std@@@std@@@std@@YA?AUrandom_access_iterator_tag@0@ABQAV?$_List_unchecked_iterator@V?$_List_val@U?$_List_simple_types@U?$pair@$$CBV?$basic_string@DU?$char_traits@D@std@@V?$allocator@D@2@@std@@VDEVICE@@@std@@@std@@@std@@@0@@Z 100978f0 f i dll.obj
 0002:0000f930       ??$_Iter_cat@V?$_Deque_const_iterator@V?$_Deque_val@U?$_Deque_simple_types@UFORMULA_PAIR@@@std@@@std@@@std@@@std@@YA?AUrandom_access_iterator_tag@0@ABV?$_Deque_const_iterator@V?$_Deque_val@U?$_Deque_simple_types@UFORMULA_PAIR@@@std@@@std@@@0@@Z 10097930 f i dll.obj
 0002:0000f970       ??$_Iter_cat@V?$_Deque_iterator@V?$_Deque_val@U?$_Deque_simple_types@UFORMULA_PAIR@@@std@@@std@@@std@@@std@@YA?AUrandom_access_iterator_tag@0@ABV?$_Deque_iterator@V?$_Deque_val@U?$_Deque_simple_types@UFORMULA_PAIR@@@std@@@std@@@0@@Z 10097970 f i dll.obj
 0002:0000f9b0       ??$_Iter_cat@V?$_Deque_unchecked_iterator@V?$_Deque_val@U?$_Deque_simple_types@UFORMULA_PAIR@@@std@@@std@@@std@@@std@@YA?AUrandom_access_iterator_tag@0@ABV?$_Deque_unchecked_iterator@V?$_Deque_val@U?$_Deque_simple_types@UFORMULA_PAIR@@@std@@@std@@@0@@Z 100979b0 f i dll.obj
 0002:0000f9f0       ??$_Kfn@$$CBV?$basic_string@DU?$char_traits@D@std@@V?$allocator@D@2@@std@@VDEVICE@@@?$_Umap_traits@V?$basic_string@DU?$char_traits@D@std@@V?$allocator@D@2@@std@@VDEVICE@@V?$_Uhash_compare@V?$basic_string@DU?$char_traits@D@std@@V?$allocator@D@2@@std@@U?$hash@V?$basic_string@DU?$char_traits@D@std@@V?$allocator@D@2@@std@@@2@U?$equal_to@V?$basic_string@DU?$char_traits@D@std@@V?$allocator@D@2@@std@@@2@@2@V?$allocator@U?$pair@$$CBV?$basic_string@DU?$char_traits@D@std@@V?$allocator@D@2@@std@@VDEVICE@@@std@@@2@$0A@@std@@SAABV?$basic_string@DU?$char_traits@D@std@@V?$allocator@D@2@@1@ABU?$pair@$$CBV?$basic_string@DU?$char_traits@D@std@@V?$allocator@D@2@@std@@VDEVICE@@@1@@Z 100979f0 f i dll.obj
 0002:0000fa30       ??$_Move_backward1@V?$_Deque_unchecked_iterator@V?$_Deque_val@U?$_Deque_simple_types@UFORMULA_PAIR@@@std@@@std@@@std@@V?$_Deque_iterator@V?$_Deque_val@U?$_Deque_simple_types@UFORMULA_PAIR@@@std@@@std@@@2@@std@@YA?AV?$_Deque_iterator@V?$_Deque_val@U?$_Deque_simple_types@UFORMULA_PAIR@@@std@@@std@@@0@V?$_Deque_unchecked_iterator@V?$_Deque_val@U?$_Deque_simple_types@UFORMULA_PAIR@@@std@@@std@@@0@0V10@Urandom_access_iterator_tag@0@2@Z 10097a30 f i dll.obj
 0002:0000fbb0       ??$_Move_backward_unchecked1@PAV?$_List_unchecked_iterator@V?$_List_val@U?$_List_simple_types@U?$pair@$$CBV?$basic_string@DU?$char_traits@D@std@@V?$allocator@D@2@@std@@VDEVICE@@@std@@@std@@@std@@@std@@PAV12@@std@@YAPAV?$_List_unchecked_iterator@V?$_List_val@U?$_List_simple_types@U?$pair@$$CBV?$basic_string@DU?$char_traits@D@std@@V?$allocator@D@2@@std@@VDEVICE@@@std@@@std@@@std@@@0@PAV10@00U_Trivially_copyable_ptr_iterator_tag@0@@Z 10097bb0 f i dll.obj
 0002:0000fc10       ??$_Move_backward_unchecked1@V?$_Deque_unchecked_iterator@V?$_Deque_val@U?$_Deque_simple_types@UFORMULA_PAIR@@@std@@@std@@@std@@V12@@std@@YA?AV?$_Deque_unchecked_iterator@V?$_Deque_val@U?$_Deque_simple_types@UFORMULA_PAIR@@@std@@@std@@@0@V10@00U_General_ptr_iterator_tag@0@@Z 10097c10 f i dll.obj
 0002:0000fcc0       ??$_Move_backward_unchecked@PAV?$_List_unchecked_iterator@V?$_List_val@U?$_List_simple_types@U?$pair@$$CBV?$basic_string@DU?$char_traits@D@std@@V?$allocator@D@2@@std@@VDEVICE@@@std@@@std@@@std@@@std@@PAV12@@std@@YAPAV?$_List_unchecked_iterator@V?$_List_val@U?$_List_simple_types@U?$pair@$$CBV?$basic_string@DU?$char_traits@D@std@@V?$allocator@D@2@@std@@VDEVICE@@@std@@@std@@@std@@@0@PAV10@00@Z 10097cc0 f i dll.obj
 0002:0000fd40       ??$_Move_backward_unchecked@V?$_Deque_unchecked_iterator@V?$_Deque_val@U?$_Deque_simple_types@UFORMULA_PAIR@@@std@@@std@@@std@@V12@@std@@YA?AV?$_Deque_unchecked_iterator@V?$_Deque_val@U?$_Deque_simple_types@UFORMULA_PAIR@@@std@@@std@@@0@V10@00@Z 10097d40 f i dll.obj
 0002:0000fde0       ??$_Move_no_deprecate1@V?$_Deque_unchecked_iterator@V?$_Deque_val@U?$_Deque_simple_types@UFORMULA_PAIR@@@std@@@std@@@std@@V?$_Deque_iterator@V?$_Deque_val@U?$_Deque_simple_types@UFORMULA_PAIR@@@std@@@std@@@2@@std@@YA?AV?$_Deque_iterator@V?$_Deque_val@U?$_Deque_simple_types@UFORMULA_PAIR@@@std@@@std@@@0@V?$_Deque_unchecked_iterator@V?$_Deque_val@U?$_Deque_simple_types@UFORMULA_PAIR@@@std@@@std@@@0@0V10@Urandom_access_iterator_tag@0@2@Z 10097de0 f i dll.obj
 0002:0000ff60       ??$_Move_no_deprecate@V?$_Deque_iterator@V?$_Deque_val@U?$_Deque_simple_types@UFORMULA_PAIR@@@std@@@std@@@std@@V12@@std@@YA?AV?$_Deque_iterator@V?$_Deque_val@U?$_Deque_simple_types@UFORMULA_PAIR@@@std@@@std@@@0@V10@00@Z 10097f60 f i dll.obj
 0002:000101d0       ??$_Move_unchecked1@V?$_Deque_unchecked_iterator@V?$_Deque_val@U?$_Deque_simple_types@UFORMULA_PAIR@@@std@@@std@@@std@@V12@@std@@YA?AV?$_Deque_unchecked_iterator@V?$_Deque_val@U?$_Deque_simple_types@UFORMULA_PAIR@@@std@@@std@@@0@V10@00U_General_ptr_iterator_tag@0@@Z 100981d0 f i dll.obj
 0002:00010280       ??$_Move_unchecked@V?$_Deque_unchecked_iterator@V?$_Deque_val@U?$_Deque_simple_types@UFORMULA_PAIR@@@std@@@std@@@std@@V12@@std@@YA?AV?$_Deque_unchecked_iterator@V?$_Deque_val@U?$_Deque_simple_types@UFORMULA_PAIR@@@std@@@std@@@0@V10@00@Z 10098280 f i dll.obj
 0002:00010320       ??$_Pocca@U?$_Wrap_alloc@V?$allocator@D@std@@@std@@@std@@YAXAAU?$_Wrap_alloc@V?$allocator@D@std@@@0@ABU10@@Z 10098320 f i dll.obj
 0002:000103b0       ??$_Pocca@U?$_Wrap_alloc@V?$allocator@D@std@@@std@@@std@@YAXAAU?$_Wrap_alloc@V?$allocator@D@std@@@0@ABU10@U?$integral_constant@_N$0A@@0@@Z 100983b0 f i dll.obj
 0002:000103e0       ??$_Pocca@U?$_Wrap_alloc@V?$allocator@UFORMULA_PAIR@@@std@@@std@@@std@@YAXAAU?$_Wrap_alloc@V?$allocator@UFORMULA_PAIR@@@std@@@0@ABU10@@Z 100983e0 f i dll.obj
 0002:00010470       ??$_Pocca@U?$_Wrap_alloc@V?$allocator@UFORMULA_PAIR@@@std@@@std@@@std@@YAXAAU?$_Wrap_alloc@V?$allocator@UFORMULA_PAIR@@@std@@@0@ABU10@U?$integral_constant@_N$0A@@0@@Z 10098470 f i dll.obj
 0002:000104a0       ??$_Ptr_copy_cat@PAUFORMULA_PAIR@@PAU1@@std@@YA?AU_Really_trivial_ptr_iterator_tag@0@ABQAPAUFORMULA_PAIR@@0@Z 100984a0 f i dll.obj
 0002:000104e0       ??$_Ptr_copy_cat@V?$_Deque_unchecked_const_iterator@V?$_Deque_val@U?$_Deque_simple_types@UFORMULA_PAIR@@@std@@@std@@@std@@V?$_Deque_unchecked_iterator@V?$_Deque_val@U?$_Deque_simple_types@UFORMULA_PAIR@@@std@@@std@@@2@@std@@YA?AU_General_ptr_iterator_tag@0@ABV?$_Deque_unchecked_const_iterator@V?$_Deque_val@U?$_Deque_simple_types@UFORMULA_PAIR@@@std@@@std@@@0@ABV?$_Deque_unchecked_iterator@V?$_Deque_val@U?$_Deque_simple_types@UFORMULA_PAIR@@@std@@@std@@@0@@Z 100984e0 f i dll.obj
 0002:00010520       ??$_Ptr_move_cat@V?$_Deque_unchecked_iterator@V?$_Deque_val@U?$_Deque_simple_types@UFORMULA_PAIR@@@std@@@std@@@std@@V12@@std@@YA?AU_General_ptr_iterator_tag@0@ABV?$_Deque_unchecked_iterator@V?$_Deque_val@U?$_Deque_simple_types@UFORMULA_PAIR@@@std@@@std@@@0@0@Z 10098520 f i dll.obj
 0002:00010560       ??$_Ptr_move_cat@V?$_List_unchecked_iterator@V?$_List_val@U?$_List_simple_types@U?$pair@$$CBV?$basic_string@DU?$char_traits@D@std@@V?$allocator@D@2@@std@@VDEVICE@@@std@@@std@@@std@@@std@@V12@@std@@YA?AU_Trivially_copyable_ptr_iterator_tag@0@ABQAV?$_List_unchecked_iterator@V?$_List_val@U?$_List_simple_types@U?$pair@$$CBV?$basic_string@DU?$char_traits@D@std@@V?$allocator@D@2@@std@@VDEVICE@@@std@@@std@@@std@@@0@0@Z 10098560 f i dll.obj
 0002:000105a0       ??$_Rechecked@PAPAUFORMULA_PAIR@@PAPAU1@@std@@YAAAPAPAUFORMULA_PAIR@@AAPAPAU1@PAPAU1@@Z 100985a0 f i dll.obj
 0002:000105e0       ??$_Rechecked@PAV?$_List_unchecked_iterator@V?$_List_val@U?$_List_simple_types@U?$pair@$$CBV?$basic_string@DU?$char_traits@D@std@@V?$allocator@D@2@@std@@VDEVICE@@@std@@@std@@@std@@@std@@PAV12@@std@@YAAAPAV?$_List_unchecked_iterator@V?$_List_val@U?$_List_simple_types@U?$pair@$$CBV?$basic_string@DU?$char_traits@D@std@@V?$allocator@D@2@@std@@VDEVICE@@@std@@@std@@@std@@@0@AAPAV10@PAV10@@Z 100985e0 f i dll.obj
 0002:00010620       ??$_Rechecked@V?$_Deque_val@U?$_Deque_simple_types@UFORMULA_PAIR@@@std@@@std@@@std@@YAAAV?$_Deque_iterator@V?$_Deque_val@U?$_Deque_simple_types@UFORMULA_PAIR@@@std@@@std@@@0@AAV10@V?$_Deque_unchecked_iterator@V?$_Deque_val@U?$_Deque_simple_types@UFORMULA_PAIR@@@std@@@std@@@0@@Z 10098620 f i dll.obj
 0002:00010680       ??$_Reverse@V?$_Deque_unchecked_iterator@V?$_Deque_val@U?$_Deque_simple_types@UFORMULA_PAIR@@@std@@@std@@@std@@@std@@YAXV?$_Deque_unchecked_iterator@V?$_Deque_val@U?$_Deque_simple_types@UFORMULA_PAIR@@@std@@@std@@@0@0Ubidirectional_iterator_tag@0@@Z 10098680 f i dll.obj
 0002:00010730       ??$_Rotate@V?$_Deque_unchecked_iterator@V?$_Deque_val@U?$_Deque_simple_types@UFORMULA_PAIR@@@std@@@std@@@std@@@std@@YA?AV?$_Deque_unchecked_iterator@V?$_Deque_val@U?$_Deque_simple_types@UFORMULA_PAIR@@@std@@@std@@@0@V10@00Urandom_access_iterator_tag@0@@Z 10098730 f i dll.obj
 0002:000107f0       ??$_Try_emplace@V?$basic_string@DU?$char_traits@D@std@@V?$allocator@D@2@@std@@$$V@?$unordered_map@V?$basic_string@DU?$char_traits@D@std@@V?$allocator@D@2@@std@@VDEVICE@@U?$hash@V?$basic_string@DU?$char_traits@D@std@@V?$allocator@D@2@@std@@@2@U?$equal_to@V?$basic_string@DU?$char_traits@D@std@@V?$allocator@D@2@@std@@@2@V?$allocator@U?$pair@$$CBV?$basic_string@DU?$char_traits@D@std@@V?$allocator@D@2@@std@@VDEVICE@@@std@@@2@@std@@QAE?AU?$pair@V?$_List_iterator@V?$_List_val@U?$_List_simple_types@U?$pair@$$CBV?$basic_string@DU?$char_traits@D@std@@V?$allocator@D@2@@std@@VDEVICE@@@std@@@std@@@std@@@std@@_N@1@$$QAV?$basic_string@DU?$char_traits@D@std@@V?$allocator@D@2@@1@@Z 100987f0 f i dll.obj
 0002:00010a10       ??$_Umove@PAV?$_List_unchecked_iterator@V?$_List_val@U?$_List_simple_types@U?$pair@$$CBV?$basic_string@DU?$char_traits@D@std@@V?$allocator@D@2@@std@@VDEVICE@@@std@@@std@@@std@@@std@@@?$vector@V?$_List_unchecked_iterator@V?$_List_val@U?$_List_simple_types@U?$pair@$$CBV?$basic_string@DU?$char_traits@D@std@@V?$allocator@D@2@@std@@VDEVICE@@@std@@@std@@@std@@@std@@U?$_Wrap_alloc@V?$allocator@V?$_List_unchecked_iterator@V?$_List_val@U?$_List_simple_types@U?$pair@$$CBV?$basic_string@DU?$char_traits@D@std@@V?$allocator@D@2@@std@@VDEVICE@@@std@@@std@@@std@@@std@@@std@@@2@@std@@IAEPAV?$_List_unchecked_iterator@V?$_List_val@U?$_List_simple_types@U?$pair@$$CBV?$basic_string@DU?$char_traits@D@std@@V?$allocator@D@2@@std@@VDEVICE@@@std@@@std@@@std@@@1@PAV21@00@Z 10098a10 f i dll.obj
 0002:00010a80       ??$_Unchecked@PAPAUFORMULA_PAIR@@@std@@YAPAPAUFORMULA_PAIR@@PAPAU1@@Z 10098a80 f i dll.obj
 0002:00010ac0       ??$_Unchecked@PAV?$_List_unchecked_iterator@V?$_List_val@U?$_List_simple_types@U?$pair@$$CBV?$basic_string@DU?$char_traits@D@std@@V?$allocator@D@2@@std@@VDEVICE@@@std@@@std@@@std@@@std@@@std@@YAPAV?$_List_unchecked_iterator@V?$_List_val@U?$_List_simple_types@U?$pair@$$CBV?$basic_string@DU?$char_traits@D@std@@V?$allocator@D@2@@std@@VDEVICE@@@std@@@std@@@std@@@0@PAV10@@Z 10098ac0 f i dll.obj
 0002:00010b00       ??$_Unchecked@V?$_Deque_unchecked_iterator@V?$_Deque_val@U?$_Deque_simple_types@UFORMULA_PAIR@@@std@@@std@@@std@@@std@@YA?AV?$_Deque_unchecked_iterator@V?$_Deque_val@U?$_Deque_simple_types@UFORMULA_PAIR@@@std@@@std@@@0@V10@@Z 10098b00 f i dll.obj
 0002:00010b50       ??$_Unchecked@V?$_Deque_val@U?$_Deque_simple_types@UFORMULA_PAIR@@@std@@@std@@@std@@YA?AV?$_Deque_unchecked_const_iterator@V?$_Deque_val@U?$_Deque_simple_types@UFORMULA_PAIR@@@std@@@std@@@0@V?$_Deque_const_iterator@V?$_Deque_val@U?$_Deque_simple_types@UFORMULA_PAIR@@@std@@@std@@@0@@Z 10098b50 f i dll.obj
 0002:00010c00       ??$_Unchecked@V?$_Deque_val@U?$_Deque_simple_types@UFORMULA_PAIR@@@std@@@std@@@std@@YA?AV?$_Deque_unchecked_iterator@V?$_Deque_val@U?$_Deque_simple_types@UFORMULA_PAIR@@@std@@@std@@@0@V?$_Deque_iterator@V?$_Deque_val@U?$_Deque_simple_types@UFORMULA_PAIR@@@std@@@std@@@0@@Z 10098c00 f i dll.obj
 0002:00010cb0       ??$_Uninit_alloc_fill_n1@PAV?$_List_unchecked_iterator@V?$_List_val@U?$_List_simple_types@U?$pair@$$CBV?$basic_string@DU?$char_traits@D@std@@V?$allocator@D@2@@std@@VDEVICE@@@std@@@std@@@std@@@std@@IU?$_Wrap_alloc@V?$allocator@V?$_List_unchecked_iterator@V?$_List_val@U?$_List_simple_types@U?$pair@$$CBV?$basic_string@DU?$char_traits@D@std@@V?$allocator@D@2@@std@@VDEVICE@@@std@@@std@@@std@@@std@@@std@@@2@U?$integral_constant@_N$0A@@2@@std@@YAXPAV?$_List_unchecked_iterator@V?$_List_val@U?$_List_simple_types@U?$pair@$$CBV?$basic_string@DU?$char_traits@D@std@@V?$allocator@D@2@@std@@VDEVICE@@@std@@@std@@@std@@@0@IPBV10@AAU?$_Wrap_alloc@U?$_Wrap_alloc@V?$allocator@V?$_List_unchecked_iterator@V?$_List_val@U?$_List_simple_types@U?$pair@$$CBV?$basic_string@DU?$char_traits@D@std@@V?$allocator@D@2@@std@@VDEVICE@@@std@@@std@@@std@@@std@@@std@@@std@@@0@U?$integral_constant@_N$0A@@0@@Z 10098cb0 f i dll.obj
 0002:00010dd0       ??$_Uninitialized_copy@PAPAUFORMULA_PAIR@@PAPAU1@U?$_Wrap_alloc@V?$allocator@PAUFORMULA_PAIR@@@std@@@std@@@std@@YAPAPAUFORMULA_PAIR@@PAPAU1@00AAU?$_Wrap_alloc@V?$allocator@PAUFORMULA_PAIR@@@std@@@0@@Z 10098dd0 f i dll.obj
 0002:00010e70       ??$_Uninitialized_copy_al_unchecked1@PAUFORMULA_PAIR@@PAU1@@std@@YAPAPAUFORMULA_PAIR@@PAPAU1@00AAU?$_Wrap_alloc@V?$allocator@PAUFORMULA_PAIR@@@std@@@0@U_Really_trivial_ptr_iterator_tag@0@@Z 10098e70 f i dll.obj
 0002:00010ed0       ??$_Uninitialized_copy_al_unchecked@PAPAUFORMULA_PAIR@@PAPAU1@U?$_Wrap_alloc@V?$allocator@PAUFORMULA_PAIR@@@std@@@std@@@std@@YAPAPAUFORMULA_PAIR@@PAPAU1@00AAU?$_Wrap_alloc@V?$allocator@PAUFORMULA_PAIR@@@std@@@0@@Z 10098ed0 f i dll.obj
 0002:00010f50       ??$_Uninitialized_default_fill_n1@PAPAUFORMULA_PAIR@@I@std@@YAXPAPAUFORMULA_PAIR@@IAAU?$_Wrap_alloc@V?$allocator@PAUFORMULA_PAIR@@@std@@@0@U?$integral_constant@_N$00@0@@Z 10098f50 f i dll.obj
 0002:00010fb0       ??$_Uninitialized_default_fill_n@PAPAUFORMULA_PAIR@@IU?$_Wrap_alloc@V?$allocator@PAUFORMULA_PAIR@@@std@@@std@@@std@@YAXPAPAUFORMULA_PAIR@@IAAU?$_Wrap_alloc@V?$allocator@PAUFORMULA_PAIR@@@std@@@0@@Z 10098fb0 f i dll.obj
 0002:00011020       ??$_Uninitialized_fill_n@PAV?$_List_unchecked_iterator@V?$_List_val@U?$_List_simple_types@U?$pair@$$CBV?$basic_string@DU?$char_traits@D@std@@V?$allocator@D@2@@std@@VDEVICE@@@std@@@std@@@std@@@std@@IU?$_Wrap_alloc@U?$_Wrap_alloc@V?$allocator@V?$_List_unchecked_iterator@V?$_List_val@U?$_List_simple_types@U?$pair@$$CBV?$basic_string@DU?$char_traits@D@std@@V?$allocator@D@2@@std@@VDEVICE@@@std@@@std@@@std@@@std@@@std@@@std@@@2@@std@@YAXPAV?$_List_unchecked_iterator@V?$_List_val@U?$_List_simple_types@U?$pair@$$CBV?$basic_string@DU?$char_traits@D@std@@V?$allocator@D@2@@std@@VDEVICE@@@std@@@std@@@std@@@0@IPBV10@AAU?$_Wrap_alloc@U?$_Wrap_alloc@V?$allocator@V?$_List_unchecked_iterator@V?$_List_val@U?$_List_simple_types@U?$pair@$$CBV?$basic_string@DU?$char_traits@D@std@@V?$allocator@D@2@@std@@VDEVICE@@@std@@@std@@@std@@@std@@@std@@@std@@@0@@Z 10099020 f i dll.obj
 0002:000110b0       ??$_Uninitialized_move@PAV?$_List_unchecked_iterator@V?$_List_val@U?$_List_simple_types@U?$pair@$$CBV?$basic_string@DU?$char_traits@D@std@@V?$allocator@D@2@@std@@VDEVICE@@@std@@@std@@@std@@@std@@PAV12@U?$_Wrap_alloc@U?$_Wrap_alloc@V?$allocator@V?$_List_unchecked_iterator@V?$_List_val@U?$_List_simple_types@U?$pair@$$CBV?$basic_string@DU?$char_traits@D@std@@V?$allocator@D@2@@std@@VDEVICE@@@std@@@std@@@std@@@std@@@std@@@std@@@2@@std@@YAPAV?$_List_unchecked_iterator@V?$_List_val@U?$_List_simple_types@U?$pair@$$CBV?$basic_string@DU?$char_traits@D@std@@V?$allocator@D@2@@std@@VDEVICE@@@std@@@std@@@std@@@0@PAV10@00AAU?$_Wrap_alloc@U?$_Wrap_alloc@V?$allocator@V?$_List_unchecked_iterator@V?$_List_val@U?$_List_simple_types@U?$pair@$$CBV?$basic_string@DU?$char_traits@D@std@@V?$allocator@D@2@@std@@VDEVICE@@@std@@@std@@@std@@@std@@@std@@@std@@@0@@Z 100990b0 f i dll.obj
 0002:00011150       ??$_Uninitialized_move_al_unchecked1@PAV?$_List_unchecked_iterator@V?$_List_val@U?$_List_simple_types@U?$pair@$$CBV?$basic_string@DU?$char_traits@D@std@@V?$allocator@D@2@@std@@VDEVICE@@@std@@@std@@@std@@@std@@PAV12@U?$_Wrap_alloc@V?$allocator@V?$_List_unchecked_iterator@V?$_List_val@U?$_List_simple_types@U?$pair@$$CBV?$basic_string@DU?$char_traits@D@std@@V?$allocator@D@2@@std@@VDEVICE@@@std@@@std@@@std@@@std@@@std@@@2@@std@@YAPAV?$_List_unchecked_iterator@V?$_List_val@U?$_List_simple_types@U?$pair@$$CBV?$basic_string@DU?$char_traits@D@std@@V?$allocator@D@2@@std@@VDEVICE@@@std@@@std@@@std@@@0@PAV10@00AAU?$_Wrap_alloc@U?$_Wrap_alloc@V?$allocator@V?$_List_unchecked_iterator@V?$_List_val@U?$_List_simple_types@U?$pair@$$CBV?$basic_string@DU?$char_traits@D@std@@V?$allocator@D@2@@std@@VDEVICE@@@std@@@std@@@std@@@std@@@std@@@std@@@0@U_General_ptr_iterator_tag@0@@Z 10099150 f i dll.obj
 0002:00011280       ??$_Uninitialized_move_al_unchecked@PAV?$_List_unchecked_iterator@V?$_List_val@U?$_List_simple_types@U?$pair@$$CBV?$basic_string@DU?$char_traits@D@std@@V?$allocator@D@2@@std@@VDEVICE@@@std@@@std@@@std@@@std@@PAV12@U?$_Wrap_alloc@U?$_Wrap_alloc@V?$allocator@V?$_List_unchecked_iterator@V?$_List_val@U?$_List_simple_types@U?$pair@$$CBV?$basic_string@DU?$char_traits@D@std@@V?$allocator@D@2@@std@@VDEVICE@@@std@@@std@@@std@@@std@@@std@@@std@@@2@@std@@YAPAV?$_List_unchecked_iterator@V?$_List_val@U?$_List_simple_types@U?$pair@$$CBV?$basic_string@DU?$char_traits@D@std@@V?$allocator@D@2@@std@@VDEVICE@@@std@@@std@@@std@@@0@PAV10@00AAU?$_Wrap_alloc@U?$_Wrap_alloc@V?$allocator@V?$_List_unchecked_iterator@V?$_List_val@U?$_List_simple_types@U?$pair@$$CBV?$basic_string@DU?$char_traits@D@std@@V?$allocator@D@2@@std@@VDEVICE@@@std@@@std@@@std@@@std@@@std@@@std@@@0@@Z 10099280 f i dll.obj
 0002:00011310       ??$__vcrt_va_start_verify_argument_type@QBD@@YAXXZ 10099310 f i dll.obj
 0002:00011340       ??$addressof@$$CBV?$_List_unchecked_iterator@V?$_List_val@U?$_List_simple_types@U?$pair@$$CBV?$basic_string@DU?$char_traits@D@std@@V?$allocator@D@2@@std@@VDEVICE@@@std@@@std@@@std@@@std@@@std@@YAPBV?$_List_unchecked_iterator@V?$_List_val@U?$_List_simple_types@U?$pair@$$CBV?$basic_string@DU?$char_traits@D@std@@V?$allocator@D@2@@std@@VDEVICE@@@std@@@std@@@std@@@0@ABV10@@Z 10099340 f i dll.obj
 0002:000113a0       ??$addressof@D@std@@YAPADAAD@Z 100993a0 f i dll.obj
 0002:00011400       ??$addressof@PAU?$_List_node@U?$pair@$$CBV?$basic_string@DU?$char_traits@D@std@@V?$allocator@D@2@@std@@VDEVICE@@@std@@PAX@std@@@std@@YAPAPAU?$_List_node@U?$pair@$$CBV?$basic_string@DU?$char_traits@D@std@@V?$allocator@D@2@@std@@VDEVICE@@@std@@PAX@0@AAPAU10@@Z 10099400 f i dll.obj
 0002:00011460       ??$addressof@PAUFORMULA_PAIR@@@std@@YAPAPAUFORMULA_PAIR@@AAPAU1@@Z 10099460 f i dll.obj
 0002:000114c0       ??$addressof@U?$pair@$$CBV?$basic_string@DU?$char_traits@D@std@@V?$allocator@D@2@@std@@VDEVICE@@@std@@@std@@YAPAU?$pair@$$CBV?$basic_string@DU?$char_traits@D@std@@V?$allocator@D@2@@std@@VDEVICE@@@0@AAU10@@Z 100994c0 f i dll.obj
 0002:00011520       ??$addressof@V?$_List_unchecked_iterator@V?$_List_val@U?$_List_simple_types@U?$pair@$$CBV?$basic_string@DU?$char_traits@D@std@@V?$allocator@D@2@@std@@VDEVICE@@@std@@@std@@@std@@@std@@@std@@YAPAV?$_List_unchecked_iterator@V?$_List_val@U?$_List_simple_types@U?$pair@$$CBV?$basic_string@DU?$char_traits@D@std@@V?$allocator@D@2@@std@@VDEVICE@@@std@@@std@@@std@@@0@AAV10@@Z 10099520 f i dll.obj
 0002:00011580       ??$construct@PADAAPAD@?$_Wrap_alloc@V?$allocator@D@std@@@std@@QAEXPAPADAAPAD@Z 10099580 f i dll.obj
 0002:000115f0       ??$construct@PADAAPAD@?$allocator@D@std@@QAEXPAPADAAPAD@Z 100995f0 f i dll.obj
 0002:000116a0       ??$construct@PADAAPAD@?$allocator_traits@V?$allocator@D@std@@@std@@SAXAAV?$allocator@D@1@PAPADAAPAD@Z 100996a0 f i dll.obj
 0002:00011700       ??$construct@PAU?$_List_node@U?$pair@$$CBV?$basic_string@DU?$char_traits@D@std@@V?$allocator@D@2@@std@@VDEVICE@@@std@@PAX@std@@AAPAU12@@?$_Wrap_alloc@V?$allocator@U?$_List_node@U?$pair@$$CBV?$basic_string@DU?$char_traits@D@std@@V?$allocator@D@2@@std@@VDEVICE@@@std@@PAX@std@@@std@@@std@@QAEXPAPAU?$_List_node@U?$pair@$$CBV?$basic_string@DU?$char_traits@D@std@@V?$allocator@D@2@@std@@VDEVICE@@@std@@PAX@1@AAPAU21@@Z 10099700 f i dll.obj
 0002:00011770       ??$construct@PAU?$_List_node@U?$pair@$$CBV?$basic_string@DU?$char_traits@D@std@@V?$allocator@D@2@@std@@VDEVICE@@@std@@PAX@std@@AAPAU12@@?$allocator@U?$_List_node@U?$pair@$$CBV?$basic_string@DU?$char_traits@D@std@@V?$allocator@D@2@@std@@VDEVICE@@@std@@PAX@std@@@std@@QAEXPAPAU?$_List_node@U?$pair@$$CBV?$basic_string@DU?$char_traits@D@std@@V?$allocator@D@2@@std@@VDEVICE@@@std@@PAX@1@AAPAU21@@Z 10099770 f i dll.obj
 0002:00011820       ??$construct@PAU?$_List_node@U?$pair@$$CBV?$basic_string@DU?$char_traits@D@std@@V?$allocator@D@2@@std@@VDEVICE@@@std@@PAX@std@@AAPAU12@@?$allocator_traits@V?$allocator@U?$_List_node@U?$pair@$$CBV?$basic_string@DU?$char_traits@D@std@@V?$allocator@D@2@@std@@VDEVICE@@@std@@PAX@std@@@std@@@std@@SAXAAV?$allocator@U?$_List_node@U?$pair@$$CBV?$basic_string@DU?$char_traits@D@std@@V?$allocator@D@2@@std@@VDEVICE@@@std@@PAX@std@@@1@PAPAU?$_List_node@U?$pair@$$CBV?$basic_string@DU?$char_traits@D@std@@V?$allocator@D@2@@std@@VDEVICE@@@std@@PAX@1@AAPAU31@@Z 10099820 f i dll.obj
 0002:00011880       ??$construct@U?$pair@$$CBV?$basic_string@DU?$char_traits@D@std@@V?$allocator@D@2@@std@@VDEVICE@@@std@@ABUpiecewise_construct_t@2@V?$tuple@$$QAV?$basic_string@DU?$char_traits@D@std@@V?$allocator@D@2@@std@@@2@V?$tuple@$$V@2@@?$_Wrap_alloc@V?$allocator@U?$_List_node@U?$pair@$$CBV?$basic_string@DU?$char_traits@D@std@@V?$allocator@D@2@@std@@VDEVICE@@@std@@PAX@std@@@std@@@std@@QAEXPAU?$pair@$$CBV?$basic_string@DU?$char_traits@D@std@@V?$allocator@D@2@@std@@VDEVICE@@@1@ABUpiecewise_construct_t@1@$$QAV?$tuple@$$QAV?$basic_string@DU?$char_traits@D@std@@V?$allocator@D@2@@std@@@1@$$QAV?$tuple@$$V@1@@Z 10099880 f i dll.obj
 0002:00011910       ??$construct@U?$pair@$$CBV?$basic_string@DU?$char_traits@D@std@@V?$allocator@D@2@@std@@VDEVICE@@@std@@ABUpiecewise_construct_t@2@V?$tuple@$$QAV?$basic_string@DU?$char_traits@D@std@@V?$allocator@D@2@@std@@@2@V?$tuple@$$V@2@@?$allocator@U?$_List_node@U?$pair@$$CBV?$basic_string@DU?$char_traits@D@std@@V?$allocator@D@2@@std@@VDEVICE@@@std@@PAX@std@@@std@@QAEXPAU?$pair@$$CBV?$basic_string@DU?$char_traits@D@std@@V?$allocator@D@2@@std@@VDEVICE@@@1@ABUpiecewise_construct_t@1@$$QAV?$tuple@$$QAV?$basic_string@DU?$char_traits@D@std@@V?$allocator@D@2@@std@@@1@$$QAV?$tuple@$$V@1@@Z 10099910 f i dll.obj
 0002:00011a50       ??$construct@U?$pair@$$CBV?$basic_string@DU?$char_traits@D@std@@V?$allocator@D@2@@std@@VDEVICE@@@std@@ABUpiecewise_construct_t@2@V?$tuple@$$QAV?$basic_string@DU?$char_traits@D@std@@V?$allocator@D@2@@std@@@2@V?$tuple@$$V@2@@?$allocator_traits@V?$allocator@U?$_List_node@U?$pair@$$CBV?$basic_string@DU?$char_traits@D@std@@V?$allocator@D@2@@std@@VDEVICE@@@std@@PAX@std@@@std@@@std@@SAXAAV?$allocator@U?$_List_node@U?$pair@$$CBV?$basic_string@DU?$char_traits@D@std@@V?$allocator@D@2@@std@@VDEVICE@@@std@@PAX@std@@@1@PAU?$pair@$$CBV?$basic_string@DU?$char_traits@D@std@@V?$allocator@D@2@@std@@VDEVICE@@@1@ABUpiecewise_construct_t@1@$$QAV?$tuple@$$QAV?$basic_string@DU?$char_traits@D@std@@V?$allocator@D@2@@std@@@1@$$QAV?$tuple@$$V@1@@Z 10099a50 f i dll.obj
 0002:00011ad0       ??$construct@UFORMULA_PAIR@@ABU1@@?$_Wrap_alloc@V?$allocator@UFORMULA_PAIR@@@std@@@std@@QAEXPAUFORMULA_PAIR@@ABU2@@Z 10099ad0 f i dll.obj
 0002:00011b40       ??$construct@UFORMULA_PAIR@@ABU1@@?$allocator@UFORMULA_PAIR@@@std@@QAEXPAUFORMULA_PAIR@@ABU2@@Z 10099b40 f i dll.obj
 0002:00011bf0       ??$construct@UFORMULA_PAIR@@ABU1@@?$allocator_traits@V?$allocator@UFORMULA_PAIR@@@std@@@std@@SAXAAV?$allocator@UFORMULA_PAIR@@@1@PAUFORMULA_PAIR@@ABU3@@Z 10099bf0 f i dll.obj
 0002:00011c50       ??$construct@U_Container_proxy@std@@U12@@?$_Wrap_alloc@V?$allocator@U_Container_proxy@std@@@std@@@std@@QAEXPAU_Container_proxy@1@$$QAU21@@Z 10099c50 f i dll.obj
 0002:00011cc0       ??$construct@U_Container_proxy@std@@U12@@?$allocator@U_Container_proxy@std@@@std@@QAEXPAU_Container_proxy@1@$$QAU21@@Z 10099cc0 f i dll.obj
 0002:00011d70       ??$construct@U_Container_proxy@std@@U12@@?$allocator_traits@V?$allocator@U_Container_proxy@std@@@std@@@std@@SAXAAV?$allocator@U_Container_proxy@std@@@1@PAU_Container_proxy@1@$$QAU31@@Z 10099d70 f i dll.obj
 0002:00011dd0       ??$construct@V?$_List_unchecked_iterator@V?$_List_val@U?$_List_simple_types@U?$pair@$$CBV?$basic_string@DU?$char_traits@D@std@@V?$allocator@D@2@@std@@VDEVICE@@@std@@@std@@@std@@@std@@ABV12@@?$_Wrap_alloc@U?$_Wrap_alloc@V?$allocator@V?$_List_unchecked_iterator@V?$_List_val@U?$_List_simple_types@U?$pair@$$CBV?$basic_string@DU?$char_traits@D@std@@V?$allocator@D@2@@std@@VDEVICE@@@std@@@std@@@std@@@std@@@std@@@std@@@std@@QAEXPAV?$_List_unchecked_iterator@V?$_List_val@U?$_List_simple_types@U?$pair@$$CBV?$basic_string@DU?$char_traits@D@std@@V?$allocator@D@2@@std@@VDEVICE@@@std@@@std@@@std@@@1@ABV21@@Z 10099dd0 f i dll.obj
 0002:00011e40       ??$construct@V?$_List_unchecked_iterator@V?$_List_val@U?$_List_simple_types@U?$pair@$$CBV?$basic_string@DU?$char_traits@D@std@@V?$allocator@D@2@@std@@VDEVICE@@@std@@@std@@@std@@@std@@ABV12@@?$_Wrap_alloc@V?$allocator@V?$_List_unchecked_iterator@V?$_List_val@U?$_List_simple_types@U?$pair@$$CBV?$basic_string@DU?$char_traits@D@std@@V?$allocator@D@2@@std@@VDEVICE@@@std@@@std@@@std@@@std@@@std@@@std@@QAEXPAV?$_List_unchecked_iterator@V?$_List_val@U?$_List_simple_types@U?$pair@$$CBV?$basic_string@DU?$char_traits@D@std@@V?$allocator@D@2@@std@@VDEVICE@@@std@@@std@@@std@@@1@ABV21@@Z 10099e40 f i dll.obj
 0002:00011eb0       ??$construct@V?$_List_unchecked_iterator@V?$_List_val@U?$_List_simple_types@U?$pair@$$CBV?$basic_string@DU?$char_traits@D@std@@V?$allocator@D@2@@std@@VDEVICE@@@std@@@std@@@std@@@std@@ABV12@@?$allocator@V?$_List_unchecked_iterator@V?$_List_val@U?$_List_simple_types@U?$pair@$$CBV?$basic_string@DU?$char_traits@D@std@@V?$allocator@D@2@@std@@VDEVICE@@@std@@@std@@@std@@@std@@@std@@QAEXPAV?$_List_unchecked_iterator@V?$_List_val@U?$_List_simple_types@U?$pair@$$CBV?$basic_string@DU?$char_traits@D@std@@V?$allocator@D@2@@std@@VDEVICE@@@std@@@std@@@std@@@1@ABV21@@Z 10099eb0 f i dll.obj
 0002:00011f60       ??$construct@V?$_List_unchecked_iterator@V?$_List_val@U?$_List_simple_types@U?$pair@$$CBV?$basic_string@DU?$char_traits@D@std@@V?$allocator@D@2@@std@@VDEVICE@@@std@@@std@@@std@@@std@@ABV12@@?$allocator_traits@U?$_Wrap_alloc@V?$allocator@V?$_List_unchecked_iterator@V?$_List_val@U?$_List_simple_types@U?$pair@$$CBV?$basic_string@DU?$char_traits@D@std@@V?$allocator@D@2@@std@@VDEVICE@@@std@@@std@@@std@@@std@@@std@@@std@@@std@@SAXAAU?$_Wrap_alloc@V?$allocator@V?$_List_unchecked_iterator@V?$_List_val@U?$_List_simple_types@U?$pair@$$CBV?$basic_string@DU?$char_traits@D@std@@V?$allocator@D@2@@std@@VDEVICE@@@std@@@std@@@std@@@std@@@std@@@1@PAV?$_List_unchecked_iterator@V?$_List_val@U?$_List_simple_types@U?$pair@$$CBV?$basic_string@DU?$char_traits@D@std@@V?$allocator@D@2@@std@@VDEVICE@@@std@@@std@@@std@@@1@ABV31@@Z 10099f60 f i dll.obj
 0002:00011fd0       ??$construct@V?$_List_unchecked_iterator@V?$_List_val@U?$_List_simple_types@U?$pair@$$CBV?$basic_string@DU?$char_traits@D@std@@V?$allocator@D@2@@std@@VDEVICE@@@std@@@std@@@std@@@std@@ABV12@@?$allocator_traits@V?$allocator@V?$_List_unchecked_iterator@V?$_List_val@U?$_List_simple_types@U?$pair@$$CBV?$basic_string@DU?$char_traits@D@std@@V?$allocator@D@2@@std@@VDEVICE@@@std@@@std@@@std@@@std@@@std@@@std@@SAXAAV?$allocator@V?$_List_unchecked_iterator@V?$_List_val@U?$_List_simple_types@U?$pair@$$CBV?$basic_string@DU?$char_traits@D@std@@V?$allocator@D@2@@std@@VDEVICE@@@std@@@std@@@std@@@std@@@1@PAV?$_List_unchecked_iterator@V?$_List_val@U?$_List_simple_types@U?$pair@$$CBV?$basic_string@DU?$char_traits@D@std@@V?$allocator@D@2@@std@@VDEVICE@@@std@@@std@@@std@@@1@ABV31@@Z 10099fd0 f i dll.obj
 0002:00012030       ??$construct@V?$_List_unchecked_iterator@V?$_List_val@U?$_List_simple_types@U?$pair@$$CBV?$basic_string@DU?$char_traits@D@std@@V?$allocator@D@2@@std@@VDEVICE@@@std@@@std@@@std@@@std@@V12@@?$_Wrap_alloc@U?$_Wrap_alloc@V?$allocator@V?$_List_unchecked_iterator@V?$_List_val@U?$_List_simple_types@U?$pair@$$CBV?$basic_string@DU?$char_traits@D@std@@V?$allocator@D@2@@std@@VDEVICE@@@std@@@std@@@std@@@std@@@std@@@std@@@std@@QAEXPAV?$_List_unchecked_iterator@V?$_List_val@U?$_List_simple_types@U?$pair@$$CBV?$basic_string@DU?$char_traits@D@std@@V?$allocator@D@2@@std@@VDEVICE@@@std@@@std@@@std@@@1@$$QAV21@@Z 1009a030 f i dll.obj
 0002:000120a0       ??$construct@V?$_List_unchecked_iterator@V?$_List_val@U?$_List_simple_types@U?$pair@$$CBV?$basic_string@DU?$char_traits@D@std@@V?$allocator@D@2@@std@@VDEVICE@@@std@@@std@@@std@@@std@@V12@@?$_Wrap_alloc@V?$allocator@V?$_List_unchecked_iterator@V?$_List_val@U?$_List_simple_types@U?$pair@$$CBV?$basic_string@DU?$char_traits@D@std@@V?$allocator@D@2@@std@@VDEVICE@@@std@@@std@@@std@@@std@@@std@@@std@@QAEXPAV?$_List_unchecked_iterator@V?$_List_val@U?$_List_simple_types@U?$pair@$$CBV?$basic_string@DU?$char_traits@D@std@@V?$allocator@D@2@@std@@VDEVICE@@@std@@@std@@@std@@@1@$$QAV21@@Z 1009a0a0 f i dll.obj
 0002:00012110       ??$construct@V?$_List_unchecked_iterator@V?$_List_val@U?$_List_simple_types@U?$pair@$$CBV?$basic_string@DU?$char_traits@D@std@@V?$allocator@D@2@@std@@VDEVICE@@@std@@@std@@@std@@@std@@V12@@?$allocator@V?$_List_unchecked_iterator@V?$_List_val@U?$_List_simple_types@U?$pair@$$CBV?$basic_string@DU?$char_traits@D@std@@V?$allocator@D@2@@std@@VDEVICE@@@std@@@std@@@std@@@std@@@std@@QAEXPAV?$_List_unchecked_iterator@V?$_List_val@U?$_List_simple_types@U?$pair@$$CBV?$basic_string@DU?$char_traits@D@std@@V?$allocator@D@2@@std@@VDEVICE@@@std@@@std@@@std@@@1@$$QAV21@@Z 1009a110 f i dll.obj
 0002:000121c0       ??$construct@V?$_List_unchecked_iterator@V?$_List_val@U?$_List_simple_types@U?$pair@$$CBV?$basic_string@DU?$char_traits@D@std@@V?$allocator@D@2@@std@@VDEVICE@@@std@@@std@@@std@@@std@@V12@@?$allocator_traits@U?$_Wrap_alloc@V?$allocator@V?$_List_unchecked_iterator@V?$_List_val@U?$_List_simple_types@U?$pair@$$CBV?$basic_string@DU?$char_traits@D@std@@V?$allocator@D@2@@std@@VDEVICE@@@std@@@std@@@std@@@std@@@std@@@std@@@std@@SAXAAU?$_Wrap_alloc@V?$allocator@V?$_List_unchecked_iterator@V?$_List_val@U?$_List_simple_types@U?$pair@$$CBV?$basic_string@DU?$char_traits@D@std@@V?$allocator@D@2@@std@@VDEVICE@@@std@@@std@@@std@@@std@@@std@@@1@PAV?$_List_unchecked_iterator@V?$_List_val@U?$_List_simple_types@U?$pair@$$CBV?$basic_string@DU?$char_traits@D@std@@V?$allocator@D@2@@std@@VDEVICE@@@std@@@std@@@std@@@1@$$QAV31@@Z 1009a1c0 f i dll.obj
 0002:00012230       ??$construct@V?$_List_unchecked_iterator@V?$_List_val@U?$_List_simple_types@U?$pair@$$CBV?$basic_string@DU?$char_traits@D@std@@V?$allocator@D@2@@std@@VDEVICE@@@std@@@std@@@std@@@std@@V12@@?$allocator_traits@V?$allocator@V?$_List_unchecked_iterator@V?$_List_val@U?$_List_simple_types@U?$pair@$$CBV?$basic_string@DU?$char_traits@D@std@@V?$allocator@D@2@@std@@VDEVICE@@@std@@@std@@@std@@@std@@@std@@@std@@SAXAAV?$allocator@V?$_List_unchecked_iterator@V?$_List_val@U?$_List_simple_types@U?$pair@$$CBV?$basic_string@DU?$char_traits@D@std@@V?$allocator@D@2@@std@@VDEVICE@@@std@@@std@@@std@@@std@@@1@PAV?$_List_unchecked_iterator@V?$_List_val@U?$_List_simple_types@U?$pair@$$CBV?$basic_string@DU?$char_traits@D@std@@V?$allocator@D@2@@std@@VDEVICE@@@std@@@std@@@std@@@1@$$QAV31@@Z 1009a230 f i dll.obj
 0002:00012290       ??$copy@V?$_Deque_const_iterator@V?$_Deque_val@U?$_Deque_simple_types@UFORMULA_PAIR@@@std@@@std@@@std@@V?$_Deque_iterator@V?$_Deque_val@U?$_Deque_simple_types@UFORMULA_PAIR@@@std@@@std@@@2@@std@@YA?AV?$_Deque_iterator@V?$_Deque_val@U?$_Deque_simple_types@UFORMULA_PAIR@@@std@@@std@@@0@V?$_Deque_const_iterator@V?$_Deque_val@U?$_Deque_simple_types@UFORMULA_PAIR@@@std@@@std@@@0@0V10@@Z 1009a290 f i dll.obj
 0002:00012460       ??$destroy@PAD@?$_Wrap_alloc@V?$allocator@D@std@@@std@@QAEXPAPAD@Z 1009a460 f i dll.obj
 0002:000124c0       ??$destroy@PAD@?$allocator@D@std@@QAEXPAPAD@Z 1009a4c0 f i dll.obj
 0002:00012500       ??$destroy@PAD@?$allocator_traits@V?$allocator@D@std@@@std@@SAXAAV?$allocator@D@1@PAPAD@Z 1009a500 f i dll.obj
 0002:00012550       ??$destroy@PAU?$_List_node@U?$pair@$$CBV?$basic_string@DU?$char_traits@D@std@@V?$allocator@D@2@@std@@VDEVICE@@@std@@PAX@std@@@?$_Wrap_alloc@V?$allocator@U?$_List_node@U?$pair@$$CBV?$basic_string@DU?$char_traits@D@std@@V?$allocator@D@2@@std@@VDEVICE@@@std@@PAX@std@@@std@@@std@@QAEXPAPAU?$_List_node@U?$pair@$$CBV?$basic_string@DU?$char_traits@D@std@@V?$allocator@D@2@@std@@VDEVICE@@@std@@PAX@1@@Z 1009a550 f i dll.obj
 0002:000125b0       ??$destroy@PAU?$_List_node@U?$pair@$$CBV?$basic_string@DU?$char_traits@D@std@@V?$allocator@D@2@@std@@VDEVICE@@@std@@PAX@std@@@?$allocator@U?$_List_node@U?$pair@$$CBV?$basic_string@DU?$char_traits@D@std@@V?$allocator@D@2@@std@@VDEVICE@@@std@@PAX@std@@@std@@QAEXPAPAU?$_List_node@U?$pair@$$CBV?$basic_string@DU?$char_traits@D@std@@V?$allocator@D@2@@std@@VDEVICE@@@std@@PAX@1@@Z 1009a5b0 f i dll.obj
 0002:000125f0       ??$destroy@PAU?$_List_node@U?$pair@$$CBV?$basic_string@DU?$char_traits@D@std@@V?$allocator@D@2@@std@@VDEVICE@@@std@@PAX@std@@@?$allocator_traits@V?$allocator@U?$_List_node@U?$pair@$$CBV?$basic_string@DU?$char_traits@D@std@@V?$allocator@D@2@@std@@VDEVICE@@@std@@PAX@std@@@std@@@std@@SAXAAV?$allocator@U?$_List_node@U?$pair@$$CBV?$basic_string@DU?$char_traits@D@std@@V?$allocator@D@2@@std@@VDEVICE@@@std@@PAX@std@@@1@PAPAU?$_List_node@U?$pair@$$CBV?$basic_string@DU?$char_traits@D@std@@V?$allocator@D@2@@std@@VDEVICE@@@std@@PAX@1@@Z 1009a5f0 f i dll.obj
 0002:00012640       ??$destroy@PAUFORMULA_PAIR@@@?$_Wrap_alloc@V?$allocator@PAUFORMULA_PAIR@@@std@@@std@@QAEXPAPAUFORMULA_PAIR@@@Z 1009a640 f i dll.obj
 0002:000126a0       ??$destroy@PAUFORMULA_PAIR@@@?$_Wrap_alloc@V?$allocator@UFORMULA_PAIR@@@std@@@std@@QAEXPAPAUFORMULA_PAIR@@@Z 1009a6a0 f i dll.obj
 0002:00012700       ??$destroy@PAUFORMULA_PAIR@@@?$allocator@PAUFORMULA_PAIR@@@std@@QAEXPAPAUFORMULA_PAIR@@@Z 1009a700 f i dll.obj
 0002:00012740       ??$destroy@PAUFORMULA_PAIR@@@?$allocator@UFORMULA_PAIR@@@std@@QAEXPAPAUFORMULA_PAIR@@@Z 1009a740 f i dll.obj
 0002:00012780       ??$destroy@PAUFORMULA_PAIR@@@?$allocator_traits@V?$allocator@PAUFORMULA_PAIR@@@std@@@std@@SAXAAV?$allocator@PAUFORMULA_PAIR@@@1@PAPAUFORMULA_PAIR@@@Z 1009a780 f i dll.obj
 0002:000127d0       ??$destroy@PAUFORMULA_PAIR@@@?$allocator_traits@V?$allocator@UFORMULA_PAIR@@@std@@@std@@SAXAAV?$allocator@UFORMULA_PAIR@@@1@PAPAUFORMULA_PAIR@@@Z 1009a7d0 f i dll.obj
 0002:00012820       ??$destroy@U?$pair@$$CBV?$basic_string@DU?$char_traits@D@std@@V?$allocator@D@2@@std@@VDEVICE@@@std@@@?$_Wrap_alloc@V?$allocator@U?$_List_node@U?$pair@$$CBV?$basic_string@DU?$char_traits@D@std@@V?$allocator@D@2@@std@@VDEVICE@@@std@@PAX@std@@@std@@@std@@QAEXPAU?$pair@$$CBV?$basic_string@DU?$char_traits@D@std@@V?$allocator@D@2@@std@@VDEVICE@@@1@@Z 1009a820 f i dll.obj
 0002:00012880       ??$destroy@U?$pair@$$CBV?$basic_string@DU?$char_traits@D@std@@V?$allocator@D@2@@std@@VDEVICE@@@std@@@?$allocator@U?$_List_node@U?$pair@$$CBV?$basic_string@DU?$char_traits@D@std@@V?$allocator@D@2@@std@@VDEVICE@@@std@@PAX@std@@@std@@QAEXPAU?$pair@$$CBV?$basic_string@DU?$char_traits@D@std@@V?$allocator@D@2@@std@@VDEVICE@@@1@@Z 1009a880 f i dll.obj
 0002:000128e0       ??$destroy@U?$pair@$$CBV?$basic_string@DU?$char_traits@D@std@@V?$allocator@D@2@@std@@VDEVICE@@@std@@@?$allocator_traits@V?$allocator@U?$_List_node@U?$pair@$$CBV?$basic_string@DU?$char_traits@D@std@@V?$allocator@D@2@@std@@VDEVICE@@@std@@PAX@std@@@std@@@std@@SAXAAV?$allocator@U?$_List_node@U?$pair@$$CBV?$basic_string@DU?$char_traits@D@std@@V?$allocator@D@2@@std@@VDEVICE@@@std@@PAX@std@@@1@PAU?$pair@$$CBV?$basic_string@DU?$char_traits@D@std@@V?$allocator@D@2@@std@@VDEVICE@@@1@@Z 1009a8e0 f i dll.obj
 0002:00012930       ??$destroy@UFORMULA_PAIR@@@?$_Wrap_alloc@V?$allocator@UFORMULA_PAIR@@@std@@@std@@QAEXPAUFORMULA_PAIR@@@Z 1009a930 f i dll.obj
 0002:00012990       ??$destroy@UFORMULA_PAIR@@@?$allocator@UFORMULA_PAIR@@@std@@QAEXPAUFORMULA_PAIR@@@Z 1009a990 f i dll.obj
 0002:000129d0       ??$destroy@UFORMULA_PAIR@@@?$allocator_traits@V?$allocator@UFORMULA_PAIR@@@std@@@std@@SAXAAV?$allocator@UFORMULA_PAIR@@@1@PAUFORMULA_PAIR@@@Z 1009a9d0 f i dll.obj
 0002:00012a20       ??$destroy@U_Container_proxy@std@@@?$_Wrap_alloc@V?$allocator@U_Container_proxy@std@@@std@@@std@@QAEXPAU_Container_proxy@1@@Z 1009aa20 f i dll.obj
 0002:00012a80       ??$destroy@U_Container_proxy@std@@@?$allocator@U_Container_proxy@std@@@std@@QAEXPAU_Container_proxy@1@@Z 1009aa80 f i dll.obj
 0002:00012ac0       ??$destroy@U_Container_proxy@std@@@?$allocator_traits@V?$allocator@U_Container_proxy@std@@@std@@@std@@SAXAAV?$allocator@U_Container_proxy@std@@@1@PAU_Container_proxy@1@@Z 1009aac0 f i dll.obj
 0002:00012b10       ??$destroy@V?$_List_unchecked_iterator@V?$_List_val@U?$_List_simple_types@U?$pair@$$CBV?$basic_string@DU?$char_traits@D@std@@V?$allocator@D@2@@std@@VDEVICE@@@std@@@std@@@std@@@std@@@?$_Wrap_alloc@U?$_Wrap_alloc@V?$allocator@V?$_List_unchecked_iterator@V?$_List_val@U?$_List_simple_types@U?$pair@$$CBV?$basic_string@DU?$char_traits@D@std@@V?$allocator@D@2@@std@@VDEVICE@@@std@@@std@@@std@@@std@@@std@@@std@@@std@@QAEXPAV?$_List_unchecked_iterator@V?$_List_val@U?$_List_simple_types@U?$pair@$$CBV?$basic_string@DU?$char_traits@D@std@@V?$allocator@D@2@@std@@VDEVICE@@@std@@@std@@@std@@@1@@Z 1009ab10 f i dll.obj
 0002:00012b70       ??$destroy@V?$_List_unchecked_iterator@V?$_List_val@U?$_List_simple_types@U?$pair@$$CBV?$basic_string@DU?$char_traits@D@std@@V?$allocator@D@2@@std@@VDEVICE@@@std@@@std@@@std@@@std@@@?$_Wrap_alloc@V?$allocator@V?$_List_unchecked_iterator@V?$_List_val@U?$_List_simple_types@U?$pair@$$CBV?$basic_string@DU?$char_traits@D@std@@V?$allocator@D@2@@std@@VDEVICE@@@std@@@std@@@std@@@std@@@std@@@std@@QAEXPAV?$_List_unchecked_iterator@V?$_List_val@U?$_List_simple_types@U?$pair@$$CBV?$basic_string@DU?$char_traits@D@std@@V?$allocator@D@2@@std@@VDEVICE@@@std@@@std@@@std@@@1@@Z 1009ab70 f i dll.obj
 0002:00012bd0       ??$destroy@V?$_List_unchecked_iterator@V?$_List_val@U?$_List_simple_types@U?$pair@$$CBV?$basic_string@DU?$char_traits@D@std@@V?$allocator@D@2@@std@@VDEVICE@@@std@@@std@@@std@@@std@@@?$allocator@V?$_List_unchecked_iterator@V?$_List_val@U?$_List_simple_types@U?$pair@$$CBV?$basic_string@DU?$char_traits@D@std@@V?$allocator@D@2@@std@@VDEVICE@@@std@@@std@@@std@@@std@@@std@@QAEXPAV?$_List_unchecked_iterator@V?$_List_val@U?$_List_simple_types@U?$pair@$$CBV?$basic_string@DU?$char_traits@D@std@@V?$allocator@D@2@@std@@VDEVICE@@@std@@@std@@@std@@@1@@Z 1009abd0 f i dll.obj
 0002:00012c10       ??$destroy@V?$_List_unchecked_iterator@V?$_List_val@U?$_List_simple_types@U?$pair@$$CBV?$basic_string@DU?$char_traits@D@std@@V?$allocator@D@2@@std@@VDEVICE@@@std@@@std@@@std@@@std@@@?$allocator_traits@U?$_Wrap_alloc@V?$allocator@V?$_List_unchecked_iterator@V?$_List_val@U?$_List_simple_types@U?$pair@$$CBV?$basic_string@DU?$char_traits@D@std@@V?$allocator@D@2@@std@@VDEVICE@@@std@@@std@@@std@@@std@@@std@@@std@@@std@@SAXAAU?$_Wrap_alloc@V?$allocator@V?$_List_unchecked_iterator@V?$_List_val@U?$_List_simple_types@U?$pair@$$CBV?$basic_string@DU?$char_traits@D@std@@V?$allocator@D@2@@std@@VDEVICE@@@std@@@std@@@std@@@std@@@std@@@1@PAV?$_List_unchecked_iterator@V?$_List_val@U?$_List_simple_types@U?$pair@$$CBV?$basic_string@DU?$char_traits@D@std@@V?$allocator@D@2@@std@@VDEVICE@@@std@@@std@@@std@@@1@@Z 1009ac10 f i dll.obj
 0002:00012c70       ??$destroy@V?$_List_unchecked_iterator@V?$_List_val@U?$_List_simple_types@U?$pair@$$CBV?$basic_string@DU?$char_traits@D@std@@V?$allocator@D@2@@std@@VDEVICE@@@std@@@std@@@std@@@std@@@?$allocator_traits@V?$allocator@V?$_List_unchecked_iterator@V?$_List_val@U?$_List_simple_types@U?$pair@$$CBV?$basic_string@DU?$char_traits@D@std@@V?$allocator@D@2@@std@@VDEVICE@@@std@@@std@@@std@@@std@@@std@@@std@@SAXAAV?$allocator@V?$_List_unchecked_iterator@V?$_List_val@U?$_List_simple_types@U?$pair@$$CBV?$basic_string@DU?$char_traits@D@std@@V?$allocator@D@2@@std@@VDEVICE@@@std@@@std@@@std@@@std@@@1@PAV?$_List_unchecked_iterator@V?$_List_val@U?$_List_simple_types@U?$pair@$$CBV?$basic_string@DU?$char_traits@D@std@@V?$allocator@D@2@@std@@VDEVICE@@@std@@@std@@@std@@@1@@Z 1009ac70 f i dll.obj
 0002:00012cc0       ??$emplace@ABUpiecewise_construct_t@std@@V?$tuple@$$QAV?$basic_string@DU?$char_traits@D@std@@V?$allocator@D@2@@std@@@2@V?$tuple@$$V@2@@?$_Hash@V?$_Umap_traits@V?$basic_string@DU?$char_traits@D@std@@V?$allocator@D@2@@std@@VDEVICE@@V?$_Uhash_compare@V?$basic_string@DU?$char_traits@D@std@@V?$allocator@D@2@@std@@U?$hash@V?$basic_string@DU?$char_traits@D@std@@V?$allocator@D@2@@std@@@2@U?$equal_to@V?$basic_string@DU?$char_traits@D@std@@V?$allocator@D@2@@std@@@2@@2@V?$allocator@U?$pair@$$CBV?$basic_string@DU?$char_traits@D@std@@V?$allocator@D@2@@std@@VDEVICE@@@std@@@2@$0A@@std@@@std@@QAE?AU?$pair@V?$_List_iterator@V?$_List_val@U?$_List_simple_types@U?$pair@$$CBV?$basic_string@DU?$char_traits@D@std@@V?$allocator@D@2@@std@@VDEVICE@@@std@@@std@@@std@@@std@@_N@1@ABUpiecewise_construct_t@1@$$QAV?$tuple@$$QAV?$basic_string@DU?$char_traits@D@std@@V?$allocator@D@2@@std@@@1@$$QAV?$tuple@$$V@1@@Z 1009acc0 f i dll.obj
 0002:00012da0       ??$emplace_back@ABUFORMULA_PAIR@@@?$deque@UFORMULA_PAIR@@V?$allocator@UFORMULA_PAIR@@@std@@@std@@QAEXABUFORMULA_PAIR@@@Z 1009ada0 f i dll.obj
 0002:00012f80       ??$emplace_front@ABUpiecewise_construct_t@std@@V?$tuple@$$QAV?$basic_string@DU?$char_traits@D@std@@V?$allocator@D@2@@std@@@2@V?$tuple@$$V@2@@?$list@U?$pair@$$CBV?$basic_string@DU?$char_traits@D@std@@V?$allocator@D@2@@std@@VDEVICE@@@std@@V?$allocator@U?$pair@$$CBV?$basic_string@DU?$char_traits@D@std@@V?$allocator@D@2@@std@@VDEVICE@@@std@@@2@@std@@QAEXABUpiecewise_construct_t@1@$$QAV?$tuple@$$QAV?$basic_string@DU?$char_traits@D@std@@V?$allocator@D@2@@std@@@1@$$QAV?$tuple@$$V@1@@Z 1009af80 f i dll.obj
 0002:00013030       ??$fill@PAV?$_List_unchecked_iterator@V?$_List_val@U?$_List_simple_types@U?$pair@$$CBV?$basic_string@DU?$char_traits@D@std@@V?$allocator@D@2@@std@@VDEVICE@@@std@@@std@@@std@@@std@@V12@@std@@YAXPAV?$_List_unchecked_iterator@V?$_List_val@U?$_List_simple_types@U?$pair@$$CBV?$basic_string@DU?$char_traits@D@std@@V?$allocator@D@2@@std@@VDEVICE@@@std@@@std@@@std@@@0@0ABV10@@Z 1009b030 f i dll.obj
 0002:000130c0       ??$forward@$$QAV?$basic_string@DU?$char_traits@D@std@@V?$allocator@D@2@@std@@@std@@YA$$QAV?$basic_string@DU?$char_traits@D@std@@V?$allocator@D@2@@0@AAV10@@Z 1009b0c0 f i dll.obj
 0002:00013100       ??$forward@AAPAD@std@@YAAAPADAAPAD@Z 1009b100 f i dll.obj
 0002:00013140       ??$forward@AAPAU?$_List_node@U?$pair@$$CBV?$basic_string@DU?$char_traits@D@std@@V?$allocator@D@2@@std@@VDEVICE@@@std@@PAX@std@@@std@@YAAAPAU?$_List_node@U?$pair@$$CBV?$basic_string@DU?$char_traits@D@std@@V?$allocator@D@2@@std@@VDEVICE@@@std@@PAX@0@AAPAU10@@Z 1009b140 f i dll.obj
 0002:00013180       ??$forward@AAU?$_Wrap_alloc@V?$allocator@D@std@@@std@@@std@@YAAAU?$_Wrap_alloc@V?$allocator@D@std@@@0@AAU10@@Z 1009b180 f i dll.obj
 0002:000131c0       ??$forward@AAU?$_Wrap_alloc@V?$allocator@UFORMULA_PAIR@@@std@@@std@@@std@@YAAAU?$_Wrap_alloc@V?$allocator@UFORMULA_PAIR@@@std@@@0@AAU10@@Z 1009b1c0 f i dll.obj
 0002:00013200       ??$forward@AAU?$pair@$$CBV?$basic_string@DU?$char_traits@D@std@@V?$allocator@D@2@@std@@VDEVICE@@@std@@@std@@YAAAU?$pair@$$CBV?$basic_string@DU?$char_traits@D@std@@V?$allocator@D@2@@std@@VDEVICE@@@0@AAU10@@Z 1009b200 f i dll.obj
 0002:00013240       ??$forward@AAV?$_List_iterator@V?$_List_val@U?$_List_simple_types@U?$pair@$$CBV?$basic_string@DU?$char_traits@D@std@@V?$allocator@D@2@@std@@VDEVICE@@@std@@@std@@@std@@@std@@@std@@YAAAV?$_List_iterator@V?$_List_val@U?$_List_simple_types@U?$pair@$$CBV?$basic_string@DU?$char_traits@D@std@@V?$allocator@D@2@@std@@VDEVICE@@@std@@@std@@@std@@@0@AAV10@@Z 1009b240 f i dll.obj
 0002:00013280       ??$forward@ABUFORMULA_PAIR@@@std@@YAABUFORMULA_PAIR@@ABU1@@Z 1009b280 f i dll.obj
 0002:000132c0       ??$forward@ABUpiecewise_construct_t@std@@@std@@YAABUpiecewise_construct_t@0@ABU10@@Z 1009b2c0 f i dll.obj
 0002:00013300       ??$forward@ABV?$_List_unchecked_iterator@V?$_List_val@U?$_List_simple_types@U?$pair@$$CBV?$basic_string@DU?$char_traits@D@std@@V?$allocator@D@2@@std@@VDEVICE@@@std@@@std@@@std@@@std@@@std@@YAABV?$_List_unchecked_iterator@V?$_List_val@U?$_List_simple_types@U?$pair@$$CBV?$basic_string@DU?$char_traits@D@std@@V?$allocator@D@2@@std@@VDEVICE@@@std@@@std@@@std@@@0@ABV10@@Z 1009b300 f i dll.obj
 0002:00013340       ??$forward@U?$_Wrap_alloc@V?$allocator@D@std@@@std@@@std@@YA$$QAU?$_Wrap_alloc@V?$allocator@D@std@@@0@AAU10@@Z 1009b340 f i dll.obj
 0002:00013380       ??$forward@U?$_Wrap_alloc@V?$allocator@UFORMULA_PAIR@@@std@@@std@@@std@@YA$$QAU?$_Wrap_alloc@V?$allocator@UFORMULA_PAIR@@@std@@@0@AAU10@@Z 1009b380 f i dll.obj
 0002:000133c0       ??$forward@U_Container_proxy@std@@@std@@YA$$QAU_Container_proxy@0@AAU10@@Z 1009b3c0 f i dll.obj
 0002:00013400       ??$forward@V?$_List_iterator@V?$_List_val@U?$_List_simple_types@U?$pair@$$CBV?$basic_string@DU?$char_traits@D@std@@V?$allocator@D@2@@std@@VDEVICE@@@std@@@std@@@std@@@std@@@std@@YA$$QAV?$_List_iterator@V?$_List_val@U?$_List_simple_types@U?$pair@$$CBV?$basic_string@DU?$char_traits@D@std@@V?$allocator@D@2@@std@@VDEVICE@@@std@@@std@@@std@@@0@AAV10@@Z 1009b400 f i dll.obj
 0002:00013440       ??$forward@V?$_List_unchecked_iterator@V?$_List_val@U?$_List_simple_types@U?$pair@$$CBV?$basic_string@DU?$char_traits@D@std@@V?$allocator@D@2@@std@@VDEVICE@@@std@@@std@@@std@@@std@@@std@@YA$$QAV?$_List_unchecked_iterator@V?$_List_val@U?$_List_simple_types@U?$pair@$$CBV?$basic_string@DU?$char_traits@D@std@@V?$allocator@D@2@@std@@VDEVICE@@@std@@@std@@@std@@@0@AAV10@@Z 1009b440 f i dll.obj
 0002:00013480       ??$forward@V?$allocator@UFORMULA_PAIR@@@std@@@std@@YA$$QAV?$allocator@UFORMULA_PAIR@@@0@AAV10@@Z 1009b480 f i dll.obj
 0002:000134c0       ??$forward@V?$basic_string@DU?$char_traits@D@std@@V?$allocator@D@2@@std@@@std@@YA$$QAV?$basic_string@DU?$char_traits@D@std@@V?$allocator@D@2@@0@AAV10@@Z 1009b4c0 f i dll.obj
 0002:00013500       ??$forward@V?$tuple@$$QAV?$basic_string@DU?$char_traits@D@std@@V?$allocator@D@2@@std@@@std@@@std@@YA$$QAV?$tuple@$$QAV?$basic_string@DU?$char_traits@D@std@@V?$allocator@D@2@@std@@@0@AAV10@@Z 1009b500 f i dll.obj
 0002:00013540       ??$forward@V?$tuple@$$V@std@@@std@@YA$$QAV?$tuple@$$V@0@AAV10@@Z 1009b540 f i dll.obj
 0002:00013580       ??$forward@_N@std@@YA$$QA_NAA_N@Z 1009b580 f i dll.obj
 0002:000135c0       ??$forward_as_tuple@$$V@std@@YA?AV?$tuple@$$V@0@XZ 1009b5c0 f i dll.obj
 0002:00013610       ??$forward_as_tuple@V?$basic_string@DU?$char_traits@D@std@@V?$allocator@D@2@@std@@@std@@YA?AV?$tuple@$$QAV?$basic_string@DU?$char_traits@D@std@@V?$allocator@D@2@@std@@@0@$$QAV?$basic_string@DU?$char_traits@D@std@@V?$allocator@D@2@@0@@Z 1009b610 f i dll.obj
 0002:000136b0       ??$get@$0A@$$QAV?$basic_string@DU?$char_traits@D@std@@V?$allocator@D@2@@std@@@std@@YA$$QAV?$basic_string@DU?$char_traits@D@std@@V?$allocator@D@2@@0@$$QAV?$tuple@$$QAV?$basic_string@DU?$char_traits@D@std@@V?$allocator@D@2@@std@@@0@@Z 1009b6b0 f i dll.obj
 0002:00013700       ??$insert@V?$_Deque_const_iterator@V?$_Deque_val@U?$_Deque_simple_types@UFORMULA_PAIR@@@std@@@std@@@std@@@?$deque@UFORMULA_PAIR@@V?$allocator@UFORMULA_PAIR@@@std@@@std@@QAE?AV?$_Deque_iterator@V?$_Deque_val@U?$_Deque_simple_types@UFORMULA_PAIR@@@std@@@std@@@1@V?$_Deque_const_iterator@V?$_Deque_val@U?$_Deque_simple_types@UFORMULA_PAIR@@@std@@@std@@@1@00@Z 1009b700 f i dll.obj
 0002:00013e50       ??$iter_swap@V?$_Deque_unchecked_iterator@V?$_Deque_val@U?$_Deque_simple_types@UFORMULA_PAIR@@@std@@@std@@@std@@V12@@std@@YAXV?$_Deque_unchecked_iterator@V?$_Deque_val@U?$_Deque_simple_types@UFORMULA_PAIR@@@std@@@std@@@0@0@Z 1009be50 f i dll.obj
 0002:00013eb0       ??$move@AAU?$_Wrap_alloc@V?$allocator@D@std@@@std@@@std@@YA$$QAU?$_Wrap_alloc@V?$allocator@D@std@@@0@AAU10@@Z 1009beb0 f i dll.obj
 0002:00013ef0       ??$move@AAU?$_Wrap_alloc@V?$allocator@UFORMULA_PAIR@@@std@@@std@@@std@@YA$$QAU?$_Wrap_alloc@V?$allocator@UFORMULA_PAIR@@@std@@@0@AAU10@@Z 1009bef0 f i dll.obj
 0002:00013f30       ??$move@AAUFORMULA_PAIR@@@std@@YA$$QAUFORMULA_PAIR@@AAU1@@Z 1009bf30 f i dll.obj
 0002:00013f70       ??$move@AAV?$_List_unchecked_iterator@V?$_List_val@U?$_List_simple_types@U?$pair@$$CBV?$basic_string@DU?$char_traits@D@std@@V?$allocator@D@2@@std@@VDEVICE@@@std@@@std@@@std@@@std@@@std@@YA$$QAV?$_List_unchecked_iterator@V?$_List_val@U?$_List_simple_types@U?$pair@$$CBV?$basic_string@DU?$char_traits@D@std@@V?$allocator@D@2@@std@@VDEVICE@@@std@@@std@@@std@@@0@AAV10@@Z 1009bf70 f i dll.obj
 0002:00013fb0       ??$move@AAV?$basic_string@DU?$char_traits@D@std@@V?$allocator@D@2@@std@@@std@@YA$$QAV?$basic_string@DU?$char_traits@D@std@@V?$allocator@D@2@@0@AAV10@@Z 1009bfb0 f i dll.obj
 0002:00013ff0       ??$move@AAV?$tuple@$$QAV?$basic_string@DU?$char_traits@D@std@@V?$allocator@D@2@@std@@@std@@@std@@YA$$QAV?$tuple@$$QAV?$basic_string@DU?$char_traits@D@std@@V?$allocator@D@2@@std@@@0@AAV10@@Z 1009bff0 f i dll.obj
 0002:00014030       ??$move@V?$_Deque_iterator@V?$_Deque_val@U?$_Deque_simple_types@UFORMULA_PAIR@@@std@@@std@@@std@@V12@@std@@YA?AV?$_Deque_iterator@V?$_Deque_val@U?$_Deque_simple_types@UFORMULA_PAIR@@@std@@@std@@@0@V10@00@Z 1009c030 f i dll.obj
 0002:00014200       ??$move_backward@V?$_Deque_iterator@V?$_Deque_val@U?$_Deque_simple_types@UFORMULA_PAIR@@@std@@@std@@@std@@V12@@std@@YA?AV?$_Deque_iterator@V?$_Deque_val@U?$_Deque_simple_types@UFORMULA_PAIR@@@std@@@std@@@0@V10@00@Z 1009c200 f i dll.obj
 0002:000144c0       ??$reverse@V?$_Deque_iterator@V?$_Deque_val@U?$_Deque_simple_types@UFORMULA_PAIR@@@std@@@std@@@std@@@std@@YAXV?$_Deque_iterator@V?$_Deque_val@U?$_Deque_simple_types@UFORMULA_PAIR@@@std@@@std@@@0@0@Z 1009c4c0 f i dll.obj
 0002:000146a0       ??$reverse@V?$_Deque_unchecked_iterator@V?$_Deque_val@U?$_Deque_simple_types@UFORMULA_PAIR@@@std@@@std@@@std@@@std@@YAXV?$_Deque_unchecked_iterator@V?$_Deque_val@U?$_Deque_simple_types@UFORMULA_PAIR@@@std@@@std@@@0@0@Z 1009c6a0 f i dll.obj
 0002:00014790       ??$rotate@V?$_Deque_iterator@V?$_Deque_val@U?$_Deque_simple_types@UFORMULA_PAIR@@@std@@@std@@@std@@@std@@YA?AV?$_Deque_iterator@V?$_Deque_val@U?$_Deque_simple_types@UFORMULA_PAIR@@@std@@@std@@@0@V10@00@Z 1009c790 f i dll.obj
 0002:00014b80       ??$swap@UFORMULA_PAIR@@@std@@YAXAAUFORMULA_PAIR@@0@Z 1009cb80 f i dll.obj
 0002:00014c50       ??$try_emplace@$$V@?$unordered_map@V?$basic_string@DU?$char_traits@D@std@@V?$allocator@D@2@@std@@VDEVICE@@U?$hash@V?$basic_string@DU?$char_traits@D@std@@V?$allocator@D@2@@std@@@2@U?$equal_to@V?$basic_string@DU?$char_traits@D@std@@V?$allocator@D@2@@std@@@2@V?$allocator@U?$pair@$$CBV?$basic_string@DU?$char_traits@D@std@@V?$allocator@D@2@@std@@VDEVICE@@@std@@@2@@std@@QAE?AU?$pair@V?$_List_iterator@V?$_List_val@U?$_List_simple_types@U?$pair@$$CBV?$basic_string@DU?$char_traits@D@std@@V?$allocator@D@2@@std@@VDEVICE@@@std@@@std@@@std@@@std@@_N@1@$$QAV?$basic_string@DU?$char_traits@D@std@@V?$allocator@D@2@@1@@Z 1009cc50 f i dll.obj
 0002:00014ce0       ??0?$_Deque_const_iterator@V?$_Deque_val@U?$_Deque_simple_types@UFORMULA_PAIR@@@std@@@std@@@std@@QAE@$$QAV01@@Z 1009cce0 f i dll.obj
 0002:00014d50       ??0?$_Deque_const_iterator@V?$_Deque_val@U?$_Deque_simple_types@UFORMULA_PAIR@@@std@@@std@@@std@@QAE@ABV01@@Z 1009cd50 f i dll.obj
 0002:00014dc0       ??0?$_Deque_const_iterator@V?$_Deque_val@U?$_Deque_simple_types@UFORMULA_PAIR@@@std@@@std@@@std@@QAE@IPBU_Container_base12@1@@Z 1009cdc0 f i dll.obj
 0002:00014e80       ??0?$_Deque_iterator@V?$_Deque_val@U?$_Deque_simple_types@UFORMULA_PAIR@@@std@@@std@@@std@@QAE@$$QAV01@@Z 1009ce80 f i dll.obj
 0002:00014ee0       ??0?$_Deque_iterator@V?$_Deque_val@U?$_Deque_simple_types@UFORMULA_PAIR@@@std@@@std@@@std@@QAE@ABV01@@Z 1009cee0 f i dll.obj
 0002:00014f40       ??0?$_Deque_iterator@V?$_Deque_val@U?$_Deque_simple_types@UFORMULA_PAIR@@@std@@@std@@@std@@QAE@IPBU_Container_base12@1@@Z 1009cf40 f i dll.obj
 0002:00014fa0       ??0?$_Deque_unchecked_const_iterator@V?$_Deque_val@U?$_Deque_simple_types@UFORMULA_PAIR@@@std@@@std@@@std@@QAE@IPBU_Container_base12@1@@Z 1009cfa0 f i dll.obj
 0002:00014ff0       ??0?$_Deque_unchecked_iterator@V?$_Deque_val@U?$_Deque_simple_types@UFORMULA_PAIR@@@std@@@std@@@std@@QAE@IPBU_Container_base12@1@@Z 1009cff0 f i dll.obj
 0002:00015050       ??0?$_Deque_val@U?$_Deque_simple_types@UFORMULA_PAIR@@@std@@@std@@QAE@XZ 1009d050 f i dll.obj
 0002:000150e0       ??0?$_Iterator012@Ubidirectional_iterator_tag@std@@U?$pair@$$CBV?$basic_string@DU?$char_traits@D@std@@V?$allocator@D@2@@std@@VDEVICE@@@2@HPBU32@ABU32@U_Iterator_base12@2@@std@@QAE@$$QAU01@@Z 1009d0e0 f i dll.obj
 0002:00015140       ??0?$_Iterator012@Ubidirectional_iterator_tag@std@@U?$pair@$$CBV?$basic_string@DU?$char_traits@D@std@@V?$allocator@D@2@@std@@VDEVICE@@@2@HPBU32@ABU32@U_Iterator_base12@2@@std@@QAE@ABU01@@Z 1009d140 f i dll.obj
 0002:000151a0       ??0?$_Iterator012@Ubidirectional_iterator_tag@std@@U?$pair@$$CBV?$basic_string@DU?$char_traits@D@std@@V?$allocator@D@2@@std@@VDEVICE@@@2@HPBU32@ABU32@U_Iterator_base12@2@@std@@QAE@XZ 1009d1a0 f i dll.obj
 0002:00015200       ??0?$_Iterator012@Urandom_access_iterator_tag@std@@V?$_List_unchecked_iterator@V?$_List_val@U?$_List_simple_types@U?$pair@$$CBV?$basic_string@DU?$char_traits@D@std@@V?$allocator@D@2@@std@@VDEVICE@@@std@@@std@@@std@@@2@HPBV32@ABV32@U_Iterator_base12@2@@std@@QAE@$$QAU01@@Z 1009d200 f i dll.obj
 0002:00015260       ??0?$_Iterator012@Urandom_access_iterator_tag@std@@V?$_List_unchecked_iterator@V?$_List_val@U?$_List_simple_types@U?$pair@$$CBV?$basic_string@DU?$char_traits@D@std@@V?$allocator@D@2@@std@@VDEVICE@@@std@@@std@@@std@@@2@HPBV32@ABV32@U_Iterator_base12@2@@std@@QAE@ABU01@@Z 1009d260 f i dll.obj
 0002:000152c0       ??0?$_Iterator012@Urandom_access_iterator_tag@std@@V?$_List_unchecked_iterator@V?$_List_val@U?$_List_simple_types@U?$pair@$$CBV?$basic_string@DU?$char_traits@D@std@@V?$allocator@D@2@@std@@VDEVICE@@@std@@@std@@@std@@@2@HPBV32@ABV32@U_Iterator_base12@2@@std@@QAE@XZ 1009d2c0 f i dll.obj
 0002:00015320       ??0?$_List_const_iterator@V?$_List_val@U?$_List_simple_types@U?$pair@$$CBV?$basic_string@DU?$char_traits@D@std@@V?$allocator@D@2@@std@@VDEVICE@@@std@@@std@@@std@@@std@@QAE@$$QAV01@@Z 1009d320 f i dll.obj
 0002:00015380       ??0?$_List_const_iterator@V?$_List_val@U?$_List_simple_types@U?$pair@$$CBV?$basic_string@DU?$char_traits@D@std@@V?$allocator@D@2@@std@@VDEVICE@@@std@@@std@@@std@@@std@@QAE@ABV01@@Z 1009d380 f i dll.obj
 0002:000153e0       ??0?$_List_const_iterator@V?$_List_val@U?$_List_simple_types@U?$pair@$$CBV?$basic_string@DU?$char_traits@D@std@@V?$allocator@D@2@@std@@VDEVICE@@@std@@@std@@@std@@@std@@QAE@PAU?$_List_node@U?$pair@$$CBV?$basic_string@DU?$char_traits@D@std@@V?$allocator@D@2@@std@@VDEVICE@@@std@@PAX@1@PBV?$_List_val@U?$_List_simple_types@U?$pair@$$CBV?$basic_string@DU?$char_traits@D@std@@V?$allocator@D@2@@std@@VDEVICE@@@std@@@std@@@1@@Z 1009d3e0 f i dll.obj
 0002:00015440       ??0?$_List_const_iterator@V?$_List_val@U?$_List_simple_types@U?$pair@$$CBV?$basic_string@DU?$char_traits@D@std@@V?$allocator@D@2@@std@@VDEVICE@@@std@@@std@@@std@@@std@@QAE@XZ 1009d440 f i dll.obj
 0002:000154a0       ??0?$_List_iterator@V?$_List_val@U?$_List_simple_types@U?$pair@$$CBV?$basic_string@DU?$char_traits@D@std@@V?$allocator@D@2@@std@@VDEVICE@@@std@@@std@@@std@@@std@@QAE@$$QAV01@@Z 1009d4a0 f i dll.obj
 0002:00015500       ??0?$_List_iterator@V?$_List_val@U?$_List_simple_types@U?$pair@$$CBV?$basic_string@DU?$char_traits@D@std@@V?$allocator@D@2@@std@@VDEVICE@@@std@@@std@@@std@@@std@@QAE@ABV01@@Z 1009d500 f i dll.obj
 0002:00015560       ??0?$_List_iterator@V?$_List_val@U?$_List_simple_types@U?$pair@$$CBV?$basic_string@DU?$char_traits@D@std@@V?$allocator@D@2@@std@@VDEVICE@@@std@@@std@@@std@@@std@@QAE@PAU?$_List_node@U?$pair@$$CBV?$basic_string@DU?$char_traits@D@std@@V?$allocator@D@2@@std@@VDEVICE@@@std@@PAX@1@PBV?$_List_val@U?$_List_simple_types@U?$pair@$$CBV?$basic_string@DU?$char_traits@D@std@@V?$allocator@D@2@@std@@VDEVICE@@@std@@@std@@@1@@Z 1009d560 f i dll.obj
 0002:000155c0       ??0?$_List_unchecked_const_iterator@V?$_List_val@U?$_List_simple_types@U?$pair@$$CBV?$basic_string@DU?$char_traits@D@std@@V?$allocator@D@2@@std@@VDEVICE@@@std@@@std@@@std@@U_Iterator_base0@2@@std@@QAE@PAU?$_List_node@U?$pair@$$CBV?$basic_string@DU?$char_traits@D@std@@V?$allocator@D@2@@std@@VDEVICE@@@std@@PAX@1@PBV?$_List_val@U?$_List_simple_types@U?$pair@$$CBV?$basic_string@DU?$char_traits@D@std@@V?$allocator@D@2@@std@@VDEVICE@@@std@@@std@@@1@@Z 1009d5c0 f i dll.obj
 0002:00015630       ??0?$_List_unchecked_const_iterator@V?$_List_val@U?$_List_simple_types@U?$pair@$$CBV?$basic_string@DU?$char_traits@D@std@@V?$allocator@D@2@@std@@VDEVICE@@@std@@@std@@@std@@U_Iterator_base0@2@@std@@QAE@XZ 1009d630 f i dll.obj
 0002:00015680       ??0?$_List_unchecked_const_iterator@V?$_List_val@U?$_List_simple_types@U?$pair@$$CBV?$basic_string@DU?$char_traits@D@std@@V?$allocator@D@2@@std@@VDEVICE@@@std@@@std@@@std@@U_Iterator_base12@2@@std@@QAE@$$QAV01@@Z 1009d680 f i dll.obj
 0002:000156f0       ??0?$_List_unchecked_const_iterator@V?$_List_val@U?$_List_simple_types@U?$pair@$$CBV?$basic_string@DU?$char_traits@D@std@@V?$allocator@D@2@@std@@VDEVICE@@@std@@@std@@@std@@U_Iterator_base12@2@@std@@QAE@ABV01@@Z 1009d6f0 f i dll.obj
 0002:00015760       ??0?$_List_unchecked_const_iterator@V?$_List_val@U?$_List_simple_types@U?$pair@$$CBV?$basic_string@DU?$char_traits@D@std@@V?$allocator@D@2@@std@@VDEVICE@@@std@@@std@@@std@@U_Iterator_base12@2@@std@@QAE@PAU?$_List_node@U?$pair@$$CBV?$basic_string@DU?$char_traits@D@std@@V?$allocator@D@2@@std@@VDEVICE@@@std@@PAX@1@PBV?$_List_val@U?$_List_simple_types@U?$pair@$$CBV?$basic_string@DU?$char_traits@D@std@@V?$allocator@D@2@@std@@VDEVICE@@@std@@@std@@@1@@Z 1009d760 f i dll.obj
 0002:00015820       ??0?$_List_unchecked_const_iterator@V?$_List_val@U?$_List_simple_types@U?$pair@$$CBV?$basic_string@DU?$char_traits@D@std@@V?$allocator@D@2@@std@@VDEVICE@@@std@@@std@@@std@@U_Iterator_base12@2@@std@@QAE@XZ 1009d820 f i dll.obj
 0002:00015880       ??0?$_List_unchecked_iterator@V?$_List_val@U?$_List_simple_types@U?$pair@$$CBV?$basic_string@DU?$char_traits@D@std@@V?$allocator@D@2@@std@@VDEVICE@@@std@@@std@@@std@@@std@@QAE@PAU?$_List_node@U?$pair@$$CBV?$basic_string@DU?$char_traits@D@std@@V?$allocator@D@2@@std@@VDEVICE@@@std@@PAX@1@PBV?$_List_val@U?$_List_simple_types@U?$pair@$$CBV?$basic_string@DU?$char_traits@D@std@@V?$allocator@D@2@@std@@VDEVICE@@@std@@@std@@@1@@Z 1009d880 f i dll.obj
 0002:000158e0       ??0?$_List_unchecked_iterator@V?$_List_val@U?$_List_simple_types@U?$pair@$$CBV?$basic_string@DU?$char_traits@D@std@@V?$allocator@D@2@@std@@VDEVICE@@@std@@@std@@@std@@@std@@QAE@XZ 1009d8e0 f i dll.obj
 0002:00015940       ??0?$_String_alloc@U?$_String_base_types@DV?$allocator@D@std@@@std@@@std@@QAE@XZ 1009d940 f i dll.obj
 0002:000159f0       ??0?$_String_val@U?$_Simple_types@D@std@@@std@@QAE@XZ 1009d9f0 f i dll.obj
 0002:00015a60       ??0?$_Vector_const_iterator@V?$_Vector_val@U?$_Simple_types@V?$_List_unchecked_iterator@V?$_List_val@U?$_List_simple_types@U?$pair@$$CBV?$basic_string@DU?$char_traits@D@std@@V?$allocator@D@2@@std@@VDEVICE@@@std@@@std@@@std@@@std@@@std@@@std@@@std@@QAE@$$QAV01@@Z 1009da60 f i dll.obj
 0002:00015ad0       ??0?$_Vector_const_iterator@V?$_Vector_val@U?$_Simple_types@V?$_List_unchecked_iterator@V?$_List_val@U?$_List_simple_types@U?$pair@$$CBV?$basic_string@DU?$char_traits@D@std@@V?$allocator@D@2@@std@@VDEVICE@@@std@@@std@@@std@@@std@@@std@@@std@@@std@@QAE@ABV01@@Z 1009dad0 f i dll.obj
 0002:00015b40       ??0?$_Vector_const_iterator@V?$_Vector_val@U?$_Simple_types@V?$_List_unchecked_iterator@V?$_List_val@U?$_List_simple_types@U?$pair@$$CBV?$basic_string@DU?$char_traits@D@std@@V?$allocator@D@2@@std@@VDEVICE@@@std@@@std@@@std@@@std@@@std@@@std@@@std@@QAE@PAV?$_List_unchecked_iterator@V?$_List_val@U?$_List_simple_types@U?$pair@$$CBV?$basic_string@DU?$char_traits@D@std@@V?$allocator@D@2@@std@@VDEVICE@@@std@@@std@@@std@@@1@PBU_Container_base12@1@@Z 1009db40 f i dll.obj
 0002:00015c00       ??0?$_Vector_iterator@V?$_Vector_val@U?$_Simple_types@V?$_List_unchecked_iterator@V?$_List_val@U?$_List_simple_types@U?$pair@$$CBV?$basic_string@DU?$char_traits@D@std@@V?$allocator@D@2@@std@@VDEVICE@@@std@@@std@@@std@@@std@@@std@@@std@@@std@@QAE@ABV01@@Z 1009dc00 f i dll.obj
 0002:00015c60       ??0?$_Vector_iterator@V?$_Vector_val@U?$_Simple_types@V?$_List_unchecked_iterator@V?$_List_val@U?$_List_simple_types@U?$pair@$$CBV?$basic_string@DU?$char_traits@D@std@@V?$allocator@D@2@@std@@VDEVICE@@@std@@@std@@@std@@@std@@@std@@@std@@@std@@QAE@PAV?$_List_unchecked_iterator@V?$_List_val@U?$_List_simple_types@U?$pair@$$CBV?$basic_string@DU?$char_traits@D@std@@V?$allocator@D@2@@std@@VDEVICE@@@std@@@std@@@std@@@1@PBU_Container_base12@1@@Z 1009dc60 f i dll.obj
 0002:00015cc0       ??0?$_Wrap_alloc@V?$allocator@D@std@@@std@@QAE@$$QAU01@@Z 1009dcc0 f i dll.obj
 0002:00015d30       ??0?$_Wrap_alloc@V?$allocator@D@std@@@std@@QAE@XZ 1009dd30 f i dll.obj
 0002:00015d90       ??0?$_Wrap_alloc@V?$allocator@UFORMULA_PAIR@@@std@@@std@@QAE@$$QAU01@@Z 1009dd90 f i dll.obj
 0002:00015e00       ??0?$allocator@D@std@@QAE@ABV01@@Z 1009de00 f i dll.obj
 0002:00015e40       ??0?$allocator@D@std@@QAE@XZ 1009de40 f i dll.obj
 0002:00015e80       ??0?$allocator@UFORMULA_PAIR@@@std@@QAE@ABV01@@Z 1009de80 f i dll.obj
 0002:00015ec0       ??0?$basic_string@DU?$char_traits@D@std@@V?$allocator@D@2@@std@@QAE@$$QAV01@@Z 1009dec0 f i dll.obj
 0002:00015f90       ??0?$basic_string@DU?$char_traits@D@std@@V?$allocator@D@2@@std@@QAE@PBD@Z 1009df90 f i dll.obj
 0002:00016050       ??0?$basic_string@DU?$char_traits@D@std@@V?$allocator@D@2@@std@@QAE@XZ 1009e050 f i dll.obj
 0002:000160f0       ??0?$deque@UFORMULA_PAIR@@V?$allocator@UFORMULA_PAIR@@@std@@@std@@QAE@ABV01@@Z 1009e0f0 f i dll.obj
 0002:00016200       ??0?$tuple@$$QAV?$basic_string@DU?$char_traits@D@std@@V?$allocator@D@2@@std@@@std@@QAE@$$QAV01@@Z 1009e200 f i dll.obj
 0002:00016270       ??0?$tuple@$$V@std@@QAE@ABV01@@Z 1009e270 f i dll.obj
 0002:000162b0       ??0?$tuple@$$V@std@@QAE@XZ 1009e2b0 f i dll.obj
 0002:000162f0       ??0DEVICE@@QAE@XZ          1009e2f0 f i dll.obj
 0002:00016480       ??0Formula@@QAE@ABV0@@Z    1009e480 f i dll.obj
 0002:00016630       ??0Monarch@@QAE@ABV0@@Z    1009e630 f i dll.obj
 0002:00016850       ??0PERSON_DATA@@QAE@XZ     1009e850 f i dll.obj
 0002:00016930       ??0Physics@@QAE@ABV0@@Z    1009e930 f i dll.obj
 0002:00017a20       ??0RIDER_DATA@@QAE@ABV0@@Z 1009fa20 f i dll.obj
 0002:00017bb0       ??0RIDER_DATA@@QAE@XZ      1009fbb0 f i dll.obj
 0002:00017d50       ??0_Container_base12@std@@QAE@XZ 1009fd50 f i dll.obj
 0002:00017da0       ??0_Container_proxy@std@@QAE@XZ 1009fda0 f i dll.obj
 0002:00017df0       ??0_Iterator_base12@std@@QAE@ABU01@@Z 1009fdf0 f i dll.obj
 0002:00017e70       ??0_Iterator_base12@std@@QAE@XZ 1009fe70 f i dll.obj
 0002:00017ec0       ??0fatalError@@QAE@ABV0@@Z 1009fec0 f i dll.obj
 0002:00017f40       ??1?$_Compressed_pair@U?$_Wrap_alloc@V?$allocator@D@std@@@std@@V?$_String_val@U?$_Simple_types@D@std@@@2@$00@std@@QAE@XZ 1009ff40 f i dll.obj
 0002:00017f90       ??1?$_Compressed_pair@U?$_Wrap_alloc@V?$allocator@UFORMULA_PAIR@@@std@@@std@@V?$_Deque_val@U?$_Deque_simple_types@UFORMULA_PAIR@@@std@@@2@$00@std@@QAE@XZ 1009ff90 f i dll.obj
 0002:00017fe0       ??1?$_Deque_alloc@U?$_Deque_base_types@UFORMULA_PAIR@@V?$allocator@UFORMULA_PAIR@@@std@@@std@@@std@@QAE@XZ 1009ffe0 f i dll.obj
 0002:00018070       ??1?$_Deque_const_iterator@V?$_Deque_val@U?$_Deque_simple_types@UFORMULA_PAIR@@@std@@@std@@@std@@QAE@XZ 100a0070 f i dll.obj
 0002:000180c0       ??1?$_Deque_iterator@V?$_Deque_val@U?$_Deque_simple_types@UFORMULA_PAIR@@@std@@@std@@@std@@QAE@XZ 100a00c0 f i dll.obj
 0002:00018110       ??1?$_Deque_val@U?$_Deque_simple_types@UFORMULA_PAIR@@@std@@@std@@QAE@XZ 100a0110 f i dll.obj
 0002:00018160       ??1?$_Iterator012@Ubidirectional_iterator_tag@std@@U?$pair@$$CBV?$basic_string@DU?$char_traits@D@std@@V?$allocator@D@2@@std@@VDEVICE@@@2@HPBU32@ABU32@U_Iterator_base12@2@@std@@QAE@XZ 100a0160 f i dll.obj
 0002:000181b0       ??1?$_Iterator012@Urandom_access_iterator_tag@std@@V?$_List_unchecked_iterator@V?$_List_val@U?$_List_simple_types@U?$pair@$$CBV?$basic_string@DU?$char_traits@D@std@@V?$allocator@D@2@@std@@VDEVICE@@@std@@@std@@@std@@@2@HPBV32@ABV32@U_Iterator_base12@2@@std@@QAE@XZ 100a01b0 f i dll.obj
 0002:00018200       ??1?$_List_const_iterator@V?$_List_val@U?$_List_simple_types@U?$pair@$$CBV?$basic_string@DU?$char_traits@D@std@@V?$allocator@D@2@@std@@VDEVICE@@@std@@@std@@@std@@@std@@QAE@XZ 100a0200 f i dll.obj
 0002:00018250       ??1?$_List_iterator@V?$_List_val@U?$_List_simple_types@U?$pair@$$CBV?$basic_string@DU?$char_traits@D@std@@V?$allocator@D@2@@std@@VDEVICE@@@std@@@std@@@std@@@std@@QAE@XZ 100a0250 f i dll.obj
 0002:000182a0       ??1?$_List_unchecked_const_iterator@V?$_List_val@U?$_List_simple_types@U?$pair@$$CBV?$basic_string@DU?$char_traits@D@std@@V?$allocator@D@2@@std@@VDEVICE@@@std@@@std@@@std@@U_Iterator_base12@2@@std@@QAE@XZ 100a02a0 f i dll.obj
 0002:000182f0       ??1?$_String_alloc@U?$_String_base_types@DV?$allocator@D@std@@@std@@@std@@QAE@XZ 100a02f0 f i dll.obj
 0002:00018380       ??1?$_String_val@U?$_Simple_types@D@std@@@std@@QAE@XZ 100a0380 f i dll.obj
 0002:000183d0       ??1?$_Vector_const_iterator@V?$_Vector_val@U?$_Simple_types@V?$_List_unchecked_iterator@V?$_List_val@U?$_List_simple_types@U?$pair@$$CBV?$basic_string@DU?$char_traits@D@std@@V?$allocator@D@2@@std@@VDEVICE@@@std@@@std@@@std@@@std@@@std@@@std@@@std@@QAE@XZ 100a03d0 f i dll.obj
 0002:00018420       ??1?$_Vector_iterator@V?$_Vector_val@U?$_Simple_types@V?$_List_unchecked_iterator@V?$_List_val@U?$_List_simple_types@U?$pair@$$CBV?$basic_string@DU?$char_traits@D@std@@V?$allocator@D@2@@std@@VDEVICE@@@std@@@std@@@std@@@std@@@std@@@std@@@std@@QAE@XZ 100a0420 f i dll.obj
 0002:00018470       ??1?$basic_string@DU?$char_traits@D@std@@V?$allocator@D@2@@std@@QAE@XZ 100a0470 f i dll.obj
 0002:00018510       ??1?$pair@$$CBV?$basic_string@DU?$char_traits@D@std@@V?$allocator@D@2@@std@@VDEVICE@@@std@@QAE@XZ 100a0510 f i dll.obj
 0002:00018570       ??1?$pair@V?$_List_iterator@V?$_List_val@U?$_List_simple_types@U?$pair@$$CBV?$basic_string@DU?$char_traits@D@std@@V?$allocator@D@2@@std@@VDEVICE@@@std@@@std@@@std@@@std@@_N@std@@QAE@XZ 100a0570 f i dll.obj
 0002:000185c0       ??1DEVICE@@QAE@XZ          100a05c0 f i dll.obj
 0002:00018620       ??1PERSON_DATA@@QAE@XZ     100a0620 f i dll.obj
 0002:00018700       ??1RIDER_DATA@@QAE@XZ      100a0700 f i dll.obj
 0002:00018770       ??1_Container_base12@std@@QAE@XZ 100a0770 f i dll.obj
 0002:00018800       ??1_Iterator_base12@std@@QAE@XZ 100a0800 f i dll.obj
 0002:000188f0       ??2@YAPAXIPAX@Z            100a08f0 f i dll.obj
 0002:00018930       ??3@YAXPAX0@Z              100a0930 f i dll.obj
 0002:00018960       ??4?$_Iterator012@Ubidirectional_iterator_tag@std@@U?$pair@$$CBV?$basic_string@DU?$char_traits@D@std@@V?$allocator@D@2@@std@@VDEVICE@@@2@HPBU32@ABU32@U_Iterator_base12@2@@std@@QAEAAU01@$$QAU01@@Z 100a0960 f i dll.obj
 0002:000189c0       ??4?$_List_const_iterator@V?$_List_val@U?$_List_simple_types@U?$pair@$$CBV?$basic_string@DU?$char_traits@D@std@@V?$allocator@D@2@@std@@VDEVICE@@@std@@@std@@@std@@@std@@QAEAAV01@$$QAV01@@Z 100a09c0 f i dll.obj
 0002:00018a20       ??4?$_List_unchecked_const_iterator@V?$_List_val@U?$_List_simple_types@U?$pair@$$CBV?$basic_string@DU?$char_traits@D@std@@V?$allocator@D@2@@std@@VDEVICE@@@std@@@std@@@std@@U_Iterator_base12@2@@std@@QAEAAV01@$$QAV01@@Z 100a0a20 f i dll.obj
 0002:00018a90       ??4?$basic_string@DU?$char_traits@D@std@@V?$allocator@D@2@@std@@QAEAAV01@ABV01@@Z 100a0a90 f i dll.obj
 0002:00018b50       ??4?$deque@UFORMULA_PAIR@@V?$allocator@UFORMULA_PAIR@@@std@@@std@@QAEAAV01@ABV01@@Z 100a0b50 f i dll.obj
 0002:00019040       ??4Formula@@QAEAAV0@ABV0@@Z 100a1040 f i dll.obj
 0002:00019200       ??4Monarch@@QAEAAV0@ABV0@@Z 100a1200 f i dll.obj
 0002:00019410       ??4PERSON_DATA@@QAEAAU0@ABU0@@Z 100a1410 f i dll.obj
 0002:00019600       ??4Physics@@QAEAAV0@ABV0@@Z 100a1600 f i dll.obj
 0002:0001a710       ??4SDIRS@@QAEAAV0@ABV0@@Z  100a2710 f i dll.obj
 0002:0001a760       ??4_Iterator_base12@std@@QAEAAU01@ABU01@@Z 100a2760 f i dll.obj
 0002:0001a8a0       ??8?$_Deque_const_iterator@V?$_Deque_val@U?$_Deque_simple_types@UFORMULA_PAIR@@@std@@@std@@@std@@QBE_NABV01@@Z 100a28a0 f i dll.obj
 0002:0001a930       ??8?$_Deque_unchecked_const_iterator@V?$_Deque_val@U?$_Deque_simple_types@UFORMULA_PAIR@@@std@@@std@@@std@@QBE_NABV01@@Z 100a2930 f i dll.obj
 0002:0001a9a0       ??8?$_List_const_iterator@V?$_List_val@U?$_List_simple_types@U?$pair@$$CBV?$basic_string@DU?$char_traits@D@std@@V?$allocator@D@2@@std@@VDEVICE@@@std@@@std@@@std@@@std@@QBE_NABV01@@Z 100a29a0 f i dll.obj
 0002:0001aaf0       ??8?$_List_unchecked_const_iterator@V?$_List_val@U?$_List_simple_types@U?$pair@$$CBV?$basic_string@DU?$char_traits@D@std@@V?$allocator@D@2@@std@@VDEVICE@@@std@@@std@@@std@@U_Iterator_base0@2@@std@@QBE_NABV01@@Z 100a2af0 f i dll.obj
 0002:0001ab60       ??9?$_Deque_const_iterator@V?$_Deque_val@U?$_Deque_simple_types@UFORMULA_PAIR@@@std@@@std@@@std@@QBE_NABV01@@Z 100a2b60 f i dll.obj
 0002:0001abf0       ??9?$_Deque_unchecked_const_iterator@V?$_Deque_val@U?$_Deque_simple_types@UFORMULA_PAIR@@@std@@@std@@@std@@QBE_NABV01@@Z 100a2bf0 f i dll.obj
 0002:0001ac80       ??9?$_List_unchecked_const_iterator@V?$_List_val@U?$_List_simple_types@U?$pair@$$CBV?$basic_string@DU?$char_traits@D@std@@V?$allocator@D@2@@std@@VDEVICE@@@std@@@std@@@std@@U_Iterator_base0@2@@std@@QBE_NABV01@@Z 100a2c80 f i dll.obj
 0002:0001ad10       ??A?$unordered_map@V?$basic_string@DU?$char_traits@D@std@@V?$allocator@D@2@@std@@VDEVICE@@U?$hash@V?$basic_string@DU?$char_traits@D@std@@V?$allocator@D@2@@std@@@2@U?$equal_to@V?$basic_string@DU?$char_traits@D@std@@V?$allocator@D@2@@std@@@2@V?$allocator@U?$pair@$$CBV?$basic_string@DU?$char_traits@D@std@@V?$allocator@D@2@@std@@VDEVICE@@@std@@@2@@std@@QAEAAVDEVICE@@$$QAV?$basic_string@DU?$char_traits@D@std@@V?$allocator@D@2@@1@@Z 100a2d10 f i dll.obj
 0002:0001ae10       ??A?$vector@V?$_List_unchecked_iterator@V?$_List_val@U?$_List_simple_types@U?$pair@$$CBV?$basic_string@DU?$char_traits@D@std@@V?$allocator@D@2@@std@@VDEVICE@@@std@@@std@@@std@@@std@@U?$_Wrap_alloc@V?$allocator@V?$_List_unchecked_iterator@V?$_List_val@U?$_List_simple_types@U?$pair@$$CBV?$basic_string@DU?$char_traits@D@std@@V?$allocator@D@2@@std@@VDEVICE@@@std@@@std@@@std@@@std@@@std@@@2@@std@@QAEAAV?$_List_unchecked_iterator@V?$_List_val@U?$_List_simple_types@U?$pair@$$CBV?$basic_string@DU?$char_traits@D@std@@V?$allocator@D@2@@std@@VDEVICE@@@std@@@std@@@std@@@1@I@Z 100a2e10 f i dll.obj
 0002:0001af30       ??A?$vector@V?$basic_string@DU?$char_traits@D@std@@V?$allocator@D@2@@std@@V?$allocator@V?$basic_string@DU?$char_traits@D@std@@V?$allocator@D@2@@std@@@2@@std@@QAEAAV?$basic_string@DU?$char_traits@D@std@@V?$allocator@D@2@@1@I@Z 100a2f30 f i dll.obj
 0002:0001b050       ??C?$_List_iterator@V?$_List_val@U?$_List_simple_types@U?$pair@$$CBV?$basic_string@DU?$char_traits@D@std@@V?$allocator@D@2@@std@@VDEVICE@@@std@@@std@@@std@@@std@@QBEPAU?$pair@$$CBV?$basic_string@DU?$char_traits@D@std@@V?$allocator@D@2@@std@@VDEVICE@@@1@XZ 100a3050 f i dll.obj
 0002:0001b0b0       ??D?$_Deque_const_iterator@V?$_Deque_val@U?$_Deque_simple_types@UFORMULA_PAIR@@@std@@@std@@@std@@QBEABUFORMULA_PAIR@@XZ 100a30b0 f i dll.obj
 0002:0001b230       ??D?$_Deque_unchecked_const_iterator@V?$_Deque_val@U?$_Deque_simple_types@UFORMULA_PAIR@@@std@@@std@@@std@@QBEABUFORMULA_PAIR@@XZ 100a3230 f i dll.obj
 0002:0001b2c0       ??D?$_Deque_unchecked_iterator@V?$_Deque_val@U?$_Deque_simple_types@UFORMULA_PAIR@@@std@@@std@@@std@@QBEAAUFORMULA_PAIR@@XZ 100a32c0 f i dll.obj
 0002:0001b310       ??D?$_List_const_iterator@V?$_List_val@U?$_List_simple_types@U?$pair@$$CBV?$basic_string@DU?$char_traits@D@std@@V?$allocator@D@2@@std@@VDEVICE@@@std@@@std@@@std@@@std@@QBEABU?$pair@$$CBV?$basic_string@DU?$char_traits@D@std@@V?$allocator@D@2@@std@@VDEVICE@@@1@XZ 100a3310 f i dll.obj
 0002:0001b450       ??D?$_List_iterator@V?$_List_val@U?$_List_simple_types@U?$pair@$$CBV?$basic_string@DU?$char_traits@D@std@@V?$allocator@D@2@@std@@VDEVICE@@@std@@@std@@@std@@@std@@QBEAAU?$pair@$$CBV?$basic_string@DU?$char_traits@D@std@@V?$allocator@D@2@@std@@VDEVICE@@@1@XZ 100a3450 f i dll.obj
 0002:0001b4a0       ??D?$_List_unchecked_const_iterator@V?$_List_val@U?$_List_simple_types@U?$pair@$$CBV?$basic_string@DU?$char_traits@D@std@@V?$allocator@D@2@@std@@VDEVICE@@@std@@@std@@@std@@U_Iterator_base0@2@@std@@QBEABU?$pair@$$CBV?$basic_string@DU?$char_traits@D@std@@V?$allocator@D@2@@std@@VDEVICE@@@1@XZ 100a34a0 f i dll.obj
 0002:0001b500       ??D?$_List_unchecked_iterator@V?$_List_val@U?$_List_simple_types@U?$pair@$$CBV?$basic_string@DU?$char_traits@D@std@@V?$allocator@D@2@@std@@VDEVICE@@@std@@@std@@@std@@@std@@QBEAAU?$pair@$$CBV?$basic_string@DU?$char_traits@D@std@@V?$allocator@D@2@@std@@VDEVICE@@@1@XZ 100a3500 f i dll.obj
 0002:0001b550       ??E?$_Deque_const_iterator@V?$_Deque_val@U?$_Deque_simple_types@UFORMULA_PAIR@@@std@@@std@@@std@@QAEAAV01@XZ 100a3550 f i dll.obj
 0002:0001b690       ??E?$_Deque_unchecked_const_iterator@V?$_Deque_val@U?$_Deque_simple_types@UFORMULA_PAIR@@@std@@@std@@@std@@QAEAAV01@XZ 100a3690 f i dll.obj
 0002:0001b6e0       ??E?$_Deque_unchecked_iterator@V?$_Deque_val@U?$_Deque_simple_types@UFORMULA_PAIR@@@std@@@std@@@std@@QAEAAV01@XZ 100a36e0 f i dll.obj
 0002:0001b740       ??E?$_List_const_iterator@V?$_List_val@U?$_List_simple_types@U?$pair@$$CBV?$basic_string@DU?$char_traits@D@std@@V?$allocator@D@2@@std@@VDEVICE@@@std@@@std@@@std@@@std@@QAE?AV01@H@Z 100a3740 f i dll.obj
 0002:0001b860       ??E?$_List_const_iterator@V?$_List_val@U?$_List_simple_types@U?$pair@$$CBV?$basic_string@DU?$char_traits@D@std@@V?$allocator@D@2@@std@@VDEVICE@@@std@@@std@@@std@@@std@@QAEAAV01@XZ 100a3860 f i dll.obj
 0002:0001b9b0       ??E?$_List_unchecked_const_iterator@V?$_List_val@U?$_List_simple_types@U?$pair@$$CBV?$basic_string@DU?$char_traits@D@std@@V?$allocator@D@2@@std@@VDEVICE@@@std@@@std@@@std@@U_Iterator_base0@2@@std@@QAEAAV01@XZ 100a39b0 f i dll.obj
 0002:0001ba20       ??E?$_List_unchecked_iterator@V?$_List_val@U?$_List_simple_types@U?$pair@$$CBV?$basic_string@DU?$char_traits@D@std@@V?$allocator@D@2@@std@@VDEVICE@@@std@@@std@@@std@@@std@@QAEAAV01@XZ 100a3a20 f i dll.obj
 0002:0001ba80       ??F?$_Deque_unchecked_const_iterator@V?$_Deque_val@U?$_Deque_simple_types@UFORMULA_PAIR@@@std@@@std@@@std@@QAEAAV01@XZ 100a3a80 f i dll.obj
 0002:0001bad0       ??F?$_Deque_unchecked_iterator@V?$_Deque_val@U?$_Deque_simple_types@UFORMULA_PAIR@@@std@@@std@@@std@@QAEAAV01@XZ 100a3ad0 f i dll.obj
 0002:0001bb30       ??F?$_List_unchecked_const_iterator@V?$_List_val@U?$_List_simple_types@U?$pair@$$CBV?$basic_string@DU?$char_traits@D@std@@V?$allocator@D@2@@std@@VDEVICE@@@std@@@std@@@std@@U_Iterator_base0@2@@std@@QAEAAV01@XZ 100a3b30 f i dll.obj
 0002:0001bba0       ??F?$_List_unchecked_iterator@V?$_List_val@U?$_List_simple_types@U?$pair@$$CBV?$basic_string@DU?$char_traits@D@std@@V?$allocator@D@2@@std@@VDEVICE@@@std@@@std@@@std@@@std@@QAEAAV01@XZ 100a3ba0 f i dll.obj
 0002:0001bc00       ??G?$_Deque_const_iterator@V?$_Deque_val@U?$_Deque_simple_types@UFORMULA_PAIR@@@std@@@std@@@std@@QBEHABV01@@Z 100a3c00 f i dll.obj
 0002:0001bcb0       ??G?$_Deque_iterator@V?$_Deque_val@U?$_Deque_simple_types@UFORMULA_PAIR@@@std@@@std@@@std@@QBE?AV01@H@Z 100a3cb0 f i dll.obj
 0002:0001bdd0       ??G?$_Deque_iterator@V?$_Deque_val@U?$_Deque_simple_types@UFORMULA_PAIR@@@std@@@std@@@std@@QBEHABV?$_Deque_const_iterator@V?$_Deque_val@U?$_Deque_simple_types@UFORMULA_PAIR@@@std@@@std@@@1@@Z 100a3dd0 f i dll.obj
 0002:0001be30       ??G?$_Deque_unchecked_const_iterator@V?$_Deque_val@U?$_Deque_simple_types@UFORMULA_PAIR@@@std@@@std@@@std@@QBEHABV01@@Z 100a3e30 f i dll.obj
 0002:0001bec0       ??G?$_Deque_unchecked_iterator@V?$_Deque_val@U?$_Deque_simple_types@UFORMULA_PAIR@@@std@@@std@@@std@@QBEHABV?$_Deque_unchecked_const_iterator@V?$_Deque_val@U?$_Deque_simple_types@UFORMULA_PAIR@@@std@@@std@@@1@@Z 100a3ec0 f i dll.obj
 0002:0001bf20       ??H?$_Deque_const_iterator@V?$_Deque_val@U?$_Deque_simple_types@UFORMULA_PAIR@@@std@@@std@@@std@@QBE?AV01@H@Z 100a3f20 f i dll.obj
 0002:0001c040       ??H?$_Deque_iterator@V?$_Deque_val@U?$_Deque_simple_types@UFORMULA_PAIR@@@std@@@std@@@std@@QBE?AV01@H@Z 100a4040 f i dll.obj
 0002:0001c160       ??H?$_Deque_unchecked_iterator@V?$_Deque_val@U?$_Deque_simple_types@UFORMULA_PAIR@@@std@@@std@@@std@@QBE?AV01@H@Z 100a4160 f i dll.obj
 0002:0001c210       ??H?$_Vector_iterator@V?$_Vector_val@U?$_Simple_types@V?$_List_unchecked_iterator@V?$_List_val@U?$_List_simple_types@U?$pair@$$CBV?$basic_string@DU?$char_traits@D@std@@V?$allocator@D@2@@std@@VDEVICE@@@std@@@std@@@std@@@std@@@std@@@std@@@std@@QBE?AV01@H@Z 100a4210 f i dll.obj
 0002:0001c330       ??M?$_Deque_const_iterator@V?$_Deque_val@U?$_Deque_simple_types@UFORMULA_PAIR@@@std@@@std@@@std@@QBE_NABV01@@Z 100a4330 f i dll.obj
 0002:0001c3c0       ??M?$_Deque_unchecked_const_iterator@V?$_Deque_val@U?$_Deque_simple_types@UFORMULA_PAIR@@@std@@@std@@@std@@QBE_NABV01@@Z 100a43c0 f i dll.obj
 0002:0001c430       ??R?$_Uhash_compare@V?$basic_string@DU?$char_traits@D@std@@V?$allocator@D@2@@std@@U?$hash@V?$basic_string@DU?$char_traits@D@std@@V?$allocator@D@2@@std@@@2@U?$equal_to@V?$basic_string@DU?$char_traits@D@std@@V?$allocator@D@2@@std@@@2@@std@@QBEIABV?$basic_string@DU?$char_traits@D@std@@V?$allocator@D@2@@1@@Z 100a4430 f i dll.obj
 0002:0001c490       ??R?$_Uhash_compare@V?$basic_string@DU?$char_traits@D@std@@V?$allocator@D@2@@std@@U?$hash@V?$basic_string@DU?$char_traits@D@std@@V?$allocator@D@2@@std@@@2@U?$equal_to@V?$basic_string@DU?$char_traits@D@std@@V?$allocator@D@2@@std@@@2@@std@@QBE_NABV?$basic_string@DU?$char_traits@D@std@@V?$allocator@D@2@@1@0@Z 100a4490 f i dll.obj
 0002:0001c520       ??R?$equal_to@V?$basic_string@DU?$char_traits@D@std@@V?$allocator@D@2@@std@@@std@@QBE_NABV?$basic_string@DU?$char_traits@D@std@@V?$allocator@D@2@@1@0@Z 100a4520 f i dll.obj
 0002:0001c580       ??R?$hash@V?$basic_string@DU?$char_traits@D@std@@V?$allocator@D@2@@std@@@std@@QBEIABV?$basic_string@DU?$char_traits@D@std@@V?$allocator@D@2@@1@@Z 100a4580 f i dll.obj
 0002:0001c5f0       ??Y?$_Deque_const_iterator@V?$_Deque_val@U?$_Deque_simple_types@UFORMULA_PAIR@@@std@@@std@@@std@@QAEAAV01@H@Z 100a45f0 f i dll.obj
 0002:0001c750       ??Y?$_Deque_iterator@V?$_Deque_val@U?$_Deque_simple_types@UFORMULA_PAIR@@@std@@@std@@@std@@QAEAAV01@H@Z 100a4750 f i dll.obj
 0002:0001c7a0       ??Y?$_Deque_unchecked_const_iterator@V?$_Deque_val@U?$_Deque_simple_types@UFORMULA_PAIR@@@std@@@std@@@std@@QAEAAV01@H@Z 100a47a0 f i dll.obj
 0002:0001c7f0       ??Y?$_Deque_unchecked_iterator@V?$_Deque_val@U?$_Deque_simple_types@UFORMULA_PAIR@@@std@@@std@@@std@@QAEAAV01@H@Z 100a47f0 f i dll.obj
 0002:0001c850       ??Y?$_Vector_const_iterator@V?$_Vector_val@U?$_Simple_types@V?$_List_unchecked_iterator@V?$_List_val@U?$_List_simple_types@U?$pair@$$CBV?$basic_string@DU?$char_traits@D@std@@V?$allocator@D@2@@std@@VDEVICE@@@std@@@std@@@std@@@std@@@std@@@std@@@std@@QAEAAV01@H@Z 100a4850 f i dll.obj
 0002:0001c9c0       ??Y?$_Vector_iterator@V?$_Vector_val@U?$_Simple_types@V?$_List_unchecked_iterator@V?$_List_val@U?$_List_simple_types@U?$pair@$$CBV?$basic_string@DU?$char_traits@D@std@@V?$allocator@D@2@@std@@VDEVICE@@@std@@@std@@@std@@@std@@@std@@@std@@@std@@QAEAAV01@H@Z 100a49c0 f i dll.obj
 0002:0001ca20       ??Z?$_Deque_iterator@V?$_Deque_val@U?$_Deque_simple_types@UFORMULA_PAIR@@@std@@@std@@@std@@QAEAAV01@H@Z 100a4a20 f i dll.obj
 0002:0001ca80       ??_EFormula@@UAEPAXI@Z     100a4a80 f i dll.obj
 0002:0001cb90       ??_EMonarch@@UAEPAXI@Z     100a4b90 f i dll.obj
 0002:0001cca0       ??_EPhysics@@UAEPAXI@Z     100a4ca0 f i dll.obj
 0002:0001cdb0       ??_EfatalError@@UAEPAXI@Z  100a4db0 f i dll.obj
 0002:0001cec0       ??_FFormula@@QAEXXZ        100a4ec0 f i dll.obj
 0002:0001cf20       ??_FMonarch@@QAEXXZ        100a4f20 f i dll.obj
 0002:0001cf90       ??_FfastTimer@@QAEXXZ      100a4f90 f i dll.obj
 0002:0001cff0       ??_G?$pair@$$CBV?$basic_string@DU?$char_traits@D@std@@V?$allocator@D@2@@std@@VDEVICE@@@std@@QAEPAXI@Z 100a4ff0 f i dll.obj
 0002:0001d070       ??_GEV@@QAEPAXI@Z          100a5070 f i dll.obj
 0002:0001d0f0       ??_GFormula@@UAEPAXI@Z     100a50f0 f i dll.obj
 0002:0001d170       ??_GMonarch@@UAEPAXI@Z     100a5170 f i dll.obj
 0002:0001d1f0       ??_GPhysics@@UAEPAXI@Z     100a51f0 f i dll.obj
 0002:0001d270       ??_GfatalError@@UAEPAXI@Z  100a5270 f i dll.obj
 0002:0001d2f0       ?_Adopt@_Iterator_base0@std@@QAEXPBX@Z 100a52f0 f i dll.obj
 0002:0001d330       ?_Adopt@_Iterator_base12@std@@QAEXPBU_Container_base12@2@@Z 100a5330 f i dll.obj
 0002:0001d4e0       ?_Alloc_proxy@?$_Deque_alloc@U?$_Deque_base_types@UFORMULA_PAIR@@V?$allocator@UFORMULA_PAIR@@@std@@@std@@@std@@QAEXXZ 100a54e0 f i dll.obj
 0002:0001d5e0       ?_Alloc_proxy@?$_String_alloc@U?$_String_base_types@DV?$allocator@D@std@@@std@@@std@@QAEXXZ 100a55e0 f i dll.obj
 0002:0001d6e0       ?_Allocate@std@@YAPAXII_N@Z 100a56e0 f i dll.obj
 0002:0001d940       ?_Assign_rv@?$basic_string@DU?$char_traits@D@std@@V?$allocator@D@2@@std@@QAEX$$QAV12@@Z 100a5940 f i dll.obj
 0002:0001da50       ?_Begin@?$_Hash@V?$_Umap_traits@V?$basic_string@DU?$char_traits@D@std@@V?$allocator@D@2@@std@@VDEVICE@@V?$_Uhash_compare@V?$basic_string@DU?$char_traits@D@std@@V?$allocator@D@2@@std@@U?$hash@V?$basic_string@DU?$char_traits@D@std@@V?$allocator@D@2@@std@@@2@U?$equal_to@V?$basic_string@DU?$char_traits@D@std@@V?$allocator@D@2@@std@@@2@@2@V?$allocator@U?$pair@$$CBV?$basic_string@DU?$char_traits@D@std@@V?$allocator@D@2@@std@@VDEVICE@@@std@@@2@$0A@@std@@@std@@IAE?AV?$_List_unchecked_iterator@V?$_List_val@U?$_List_simple_types@U?$pair@$$CBV?$basic_string@DU?$char_traits@D@std@@V?$allocator@D@2@@std@@VDEVICE@@@std@@@std@@@std@@@2@I@Z 100a5a50 f i dll.obj
 0002:0001dac0       ?_Buynode0@?$_List_alloc@U?$_List_base_types@U?$pair@$$CBV?$basic_string@DU?$char_traits@D@std@@V?$allocator@D@2@@std@@VDEVICE@@@std@@V?$allocator@U?$pair@$$CBV?$basic_string@DU?$char_traits@D@std@@V?$allocator@D@2@@std@@VDEVICE@@@std@@@2@@std@@@std@@QAEPAU?$_List_node@U?$pair@$$CBV?$basic_string@DU?$char_traits@D@std@@V?$allocator@D@2@@std@@VDEVICE@@@std@@PAX@2@PAU32@0@Z 100a5ac0 f i dll.obj
 0002:0001dc50       ?_Bx@?$_String_alloc@U?$_String_base_types@DV?$allocator@D@std@@@std@@@std@@QAEAAT_Bxty@?$_String_val@U?$_Simple_types@D@std@@@2@XZ 100a5c50 f i dll.obj
 0002:0001dcb0       ?_Check_offset@?$basic_string@DU?$char_traits@D@std@@V?$allocator@D@2@@std@@QBEXI@Z 100a5cb0 f i dll.obj
 0002:0001dd20       ?_Check_size@?$_Hash@V?$_Umap_traits@V?$basic_string@DU?$char_traits@D@std@@V?$allocator@D@2@@std@@VDEVICE@@V?$_Uhash_compare@V?$basic_string@DU?$char_traits@D@std@@V?$allocator@D@2@@std@@U?$hash@V?$basic_string@DU?$char_traits@D@std@@V?$allocator@D@2@@std@@@2@U?$equal_to@V?$basic_string@DU?$char_traits@D@std@@V?$allocator@D@2@@std@@@2@@2@V?$allocator@U?$pair@$$CBV?$basic_string@DU?$char_traits@D@std@@V?$allocator@D@2@@std@@VDEVICE@@@std@@@2@$0A@@std@@@std@@IAEXXZ 100a5d20 f i dll.obj
 0002:0001de20       ?_Clamp_suffix_size@?$basic_string@DU?$char_traits@D@std@@V?$allocator@D@2@@std@@QBEIII@Z 100a5e20 f i dll.obj
 0002:0001dea0       ?_Clrcont@_Iterator_base12@std@@QAEXXZ 100a5ea0 f i dll.obj
 0002:0001dee0       ?_Compat@?$_Deque_const_iterator@V?$_Deque_val@U?$_Deque_simple_types@UFORMULA_PAIR@@@std@@@std@@@std@@QBEXABV12@@Z 100a5ee0 f i dll.obj
 0002:0001e000       ?_Copy@?$basic_string@DU?$char_traits@D@std@@V?$allocator@D@2@@std@@QAEXII@Z 100a6000 f i dll.obj
 0002:0001e2b0       ?_Copy_alloc@?$_Deque_alloc@U?$_Deque_base_types@UFORMULA_PAIR@@V?$allocator@UFORMULA_PAIR@@@std@@@std@@@std@@QAEXABU?$_Wrap_alloc@V?$allocator@UFORMULA_PAIR@@@std@@@2@@Z 100a62b0 f i dll.obj
 0002:0001e330       ?_Copy_alloc@?$_String_alloc@U?$_String_base_types@DV?$allocator@D@std@@@std@@@std@@QAEXABU?$_Wrap_alloc@V?$allocator@D@std@@@2@@Z 100a6330 f i dll.obj
 0002:0001e3b0       ?_Deallocate@std@@YAXPAXII@Z 100a63b0 f i dll.obj
 0002:0001e860       ?_Destroy@?$vector@V?$_List_unchecked_iterator@V?$_List_val@U?$_List_simple_types@U?$pair@$$CBV?$basic_string@DU?$char_traits@D@std@@V?$allocator@D@2@@std@@VDEVICE@@@std@@@std@@@std@@@std@@U?$_Wrap_alloc@V?$allocator@V?$_List_unchecked_iterator@V?$_List_val@U?$_List_simple_types@U?$pair@$$CBV?$basic_string@DU?$char_traits@D@std@@V?$allocator@D@2@@std@@VDEVICE@@@std@@@std@@@std@@@std@@@std@@@2@@std@@IAEXPAV?$_List_unchecked_iterator@V?$_List_val@U?$_List_simple_types@U?$pair@$$CBV?$basic_string@DU?$char_traits@D@std@@V?$allocator@D@2@@std@@VDEVICE@@@std@@@std@@@std@@@2@0@Z 100a6860 f i dll.obj
 0002:0001e8d0       ?_Destroy_if_not_nil@?$_Hash@V?$_Umap_traits@V?$basic_string@DU?$char_traits@D@std@@V?$allocator@D@2@@std@@VDEVICE@@V?$_Uhash_compare@V?$basic_string@DU?$char_traits@D@std@@V?$allocator@D@2@@std@@U?$hash@V?$basic_string@DU?$char_traits@D@std@@V?$allocator@D@2@@std@@@2@U?$equal_to@V?$basic_string@DU?$char_traits@D@std@@V?$allocator@D@2@@std@@@2@@2@V?$allocator@U?$pair@$$CBV?$basic_string@DU?$char_traits@D@std@@V?$allocator@D@2@@std@@VDEVICE@@@std@@@2@$0A@@std@@@std@@IAEXV?$_List_unchecked_iterator@V?$_List_val@U?$_List_simple_types@U?$pair@$$CBV?$basic_string@DU?$char_traits@D@std@@V?$allocator@D@2@@std@@VDEVICE@@@std@@@std@@@std@@@2@@Z 100a68d0 f i dll.obj
 0002:0001ea00       ?_End@?$_Hash@V?$_Umap_traits@V?$basic_string@DU?$char_traits@D@std@@V?$allocator@D@2@@std@@VDEVICE@@V?$_Uhash_compare@V?$basic_string@DU?$char_traits@D@std@@V?$allocator@D@2@@std@@U?$hash@V?$basic_string@DU?$char_traits@D@std@@V?$allocator@D@2@@std@@@2@U?$equal_to@V?$basic_string@DU?$char_traits@D@std@@V?$allocator@D@2@@std@@@2@@2@V?$allocator@U?$pair@$$CBV?$basic_string@DU?$char_traits@D@std@@V?$allocator@D@2@@std@@VDEVICE@@@std@@@2@$0A@@std@@@std@@IAE?AV?$_List_unchecked_iterator@V?$_List_val@U?$_List_simple_types@U?$pair@$$CBV?$basic_string@DU?$char_traits@D@std@@V?$allocator@D@2@@std@@VDEVICE@@@std@@@std@@@std@@@2@I@Z 100a6a00 f i dll.obj
 0002:0001eb00       ?_Eos@?$basic_string@DU?$char_traits@D@std@@V?$allocator@D@2@@std@@QAEXI@Z 100a6b00 f i dll.obj
 0002:0001eb90       ?_Erase_bucket@?$_Hash@V?$_Umap_traits@V?$basic_string@DU?$char_traits@D@std@@V?$allocator@D@2@@std@@VDEVICE@@V?$_Uhash_compare@V?$basic_string@DU?$char_traits@D@std@@V?$allocator@D@2@@std@@U?$hash@V?$basic_string@DU?$char_traits@D@std@@V?$allocator@D@2@@std@@@2@U?$equal_to@V?$basic_string@DU?$char_traits@D@std@@V?$allocator@D@2@@std@@@2@@2@V?$allocator@U?$pair@$$CBV?$basic_string@DU?$char_traits@D@std@@V?$allocator@D@2@@std@@VDEVICE@@@std@@@2@$0A@@std@@@std@@IAEXV?$_List_iterator@V?$_List_val@U?$_List_simple_types@U?$pair@$$CBV?$basic_string@DU?$char_traits@D@std@@V?$allocator@D@2@@std@@VDEVICE@@@std@@@std@@@std@@@2@I@Z 100a6b90 f i dll.obj
 0002:0001ed70       ?_Free_proxy@?$_Deque_alloc@U?$_Deque_base_types@UFORMULA_PAIR@@V?$allocator@UFORMULA_PAIR@@@std@@@std@@@std@@QAEXXZ 100a6d70 f i dll.obj
 0002:0001ee60       ?_Free_proxy@?$_String_alloc@U?$_String_base_types@DV?$allocator@D@std@@@std@@@std@@QAEXXZ 100a6e60 f i dll.obj
 0002:0001ef50       ?_Freenode@?$_List_buy@U?$pair@$$CBV?$basic_string@DU?$char_traits@D@std@@V?$allocator@D@2@@std@@VDEVICE@@@std@@V?$allocator@U?$pair@$$CBV?$basic_string@DU?$char_traits@D@std@@V?$allocator@D@2@@std@@VDEVICE@@@std@@@2@@std@@QAEXPAU?$_List_node@U?$pair@$$CBV?$basic_string@DU?$char_traits@D@std@@V?$allocator@D@2@@std@@VDEVICE@@@std@@PAX@2@@Z 100a6f50 f i dll.obj
 0002:0001f040       ?_Get_data@?$_Deque_alloc@U?$_Deque_base_types@UFORMULA_PAIR@@V?$allocator@UFORMULA_PAIR@@@std@@@std@@@std@@QAEAAV?$_Deque_val@U?$_Deque_simple_types@UFORMULA_PAIR@@@std@@@2@XZ 100a7040 f i dll.obj
 0002:0001f090       ?_Get_data@?$_Deque_alloc@U?$_Deque_base_types@UFORMULA_PAIR@@V?$allocator@UFORMULA_PAIR@@@std@@@std@@@std@@QBEABV?$_Deque_val@U?$_Deque_simple_types@UFORMULA_PAIR@@@std@@@2@XZ 100a7090 f i dll.obj
 0002:0001f0e0       ?_Get_data@?$_List_alloc@U?$_List_base_types@U?$pair@$$CBV?$basic_string@DU?$char_traits@D@std@@V?$allocator@D@2@@std@@VDEVICE@@@std@@V?$allocator@U?$pair@$$CBV?$basic_string@DU?$char_traits@D@std@@V?$allocator@D@2@@std@@VDEVICE@@@std@@@2@@std@@@std@@QAEAAV?$_List_val@U?$_List_simple_types@U?$pair@$$CBV?$basic_string@DU?$char_traits@D@std@@V?$allocator@D@2@@std@@VDEVICE@@@std@@@std@@@2@XZ 100a70e0 f i dll.obj
 0002:0001f130       ?_Get_data@?$_List_alloc@U?$_List_base_types@U?$pair@$$CBV?$basic_string@DU?$char_traits@D@std@@V?$allocator@D@2@@std@@VDEVICE@@@std@@V?$allocator@U?$pair@$$CBV?$basic_string@DU?$char_traits@D@std@@V?$allocator@D@2@@std@@VDEVICE@@@std@@@2@@std@@@std@@QBEABV?$_List_val@U?$_List_simple_types@U?$pair@$$CBV?$basic_string@DU?$char_traits@D@std@@V?$allocator@D@2@@std@@VDEVICE@@@std@@@std@@@2@XZ 100a7130 f i dll.obj
 0002:0001f180       ?_Get_data@?$_String_alloc@U?$_String_base_types@DV?$allocator@D@std@@@std@@@std@@QAEAAV?$_String_val@U?$_Simple_types@D@std@@@2@XZ 100a7180 f i dll.obj
 0002:0001f1d0       ?_Get_data@?$_String_alloc@U?$_String_base_types@DV?$allocator@D@std@@@std@@@std@@QBEABV?$_String_val@U?$_Simple_types@D@std@@@2@XZ 100a71d0 f i dll.obj
 0002:0001f220       ?_Get_data@?$_Vector_alloc@U?$_Vec_base_types@V?$_List_unchecked_iterator@V?$_List_val@U?$_List_simple_types@U?$pair@$$CBV?$basic_string@DU?$char_traits@D@std@@V?$allocator@D@2@@std@@VDEVICE@@@std@@@std@@@std@@@std@@U?$_Wrap_alloc@V?$allocator@V?$_List_unchecked_iterator@V?$_List_val@U?$_List_simple_types@U?$pair@$$CBV?$basic_string@DU?$char_traits@D@std@@V?$allocator@D@2@@std@@VDEVICE@@@std@@@std@@@std@@@std@@@std@@@2@@std@@@std@@QAEAAV?$_Vector_val@U?$_Simple_types@V?$_List_unchecked_iterator@V?$_List_val@U?$_List_simple_types@U?$pair@$$CBV?$basic_string@DU?$char_traits@D@std@@V?$allocator@D@2@@std@@VDEVICE@@@std@@@std@@@std@@@std@@@std@@@2@XZ 100a7220 f i dll.obj
 0002:0001f270       ?_Get_data@?$_Vector_alloc@U?$_Vec_base_types@V?$_List_unchecked_iterator@V?$_List_val@U?$_List_simple_types@U?$pair@$$CBV?$basic_string@DU?$char_traits@D@std@@V?$allocator@D@2@@std@@VDEVICE@@@std@@@std@@@std@@@std@@U?$_Wrap_alloc@V?$allocator@V?$_List_unchecked_iterator@V?$_List_val@U?$_List_simple_types@U?$pair@$$CBV?$basic_string@DU?$char_traits@D@std@@V?$allocator@D@2@@std@@VDEVICE@@@std@@@std@@@std@@@std@@@std@@@2@@std@@@std@@QBEABV?$_Vector_val@U?$_Simple_types@V?$_List_unchecked_iterator@V?$_List_val@U?$_List_simple_types@U?$pair@$$CBV?$basic_string@DU?$char_traits@D@std@@V?$allocator@D@2@@std@@VDEVICE@@@std@@@std@@@std@@@std@@@std@@@2@XZ 100a7270 f i dll.obj
 0002:0001f2c0       ?_Get_data@?$_Vector_alloc@U?$_Vec_base_types@V?$basic_string@DU?$char_traits@D@std@@V?$allocator@D@2@@std@@V?$allocator@V?$basic_string@DU?$char_traits@D@std@@V?$allocator@D@2@@std@@@2@@std@@@std@@QAEAAV?$_Vector_val@U?$_Simple_types@V?$basic_string@DU?$char_traits@D@std@@V?$allocator@D@2@@std@@@std@@@2@XZ 100a72c0 f i dll.obj
 0002:0001f310       ?_Get_data@?$_Vector_alloc@U?$_Vec_base_types@V?$basic_string@DU?$char_traits@D@std@@V?$allocator@D@2@@std@@V?$allocator@V?$basic_string@DU?$char_traits@D@std@@V?$allocator@D@2@@std@@@2@@std@@@std@@QBEABV?$_Vector_val@U?$_Simple_types@V?$basic_string@DU?$char_traits@D@std@@V?$allocator@D@2@@std@@@std@@@2@XZ 100a7310 f i dll.obj
 0002:0001f360       ?_Get_first@?$_Compressed_pair@U?$_Wrap_alloc@U?$_Wrap_alloc@V?$allocator@V?$_List_unchecked_iterator@V?$_List_val@U?$_List_simple_types@U?$pair@$$CBV?$basic_string@DU?$char_traits@D@std@@V?$allocator@D@2@@std@@VDEVICE@@@std@@@std@@@std@@@std@@@std@@@std@@@std@@V?$_Vector_val@U?$_Simple_types@V?$_List_unchecked_iterator@V?$_List_val@U?$_List_simple_types@U?$pair@$$CBV?$basic_string@DU?$char_traits@D@std@@V?$allocator@D@2@@std@@VDEVICE@@@std@@@std@@@std@@@std@@@std@@@2@$00@std@@QAEAAU?$_Wrap_alloc@U?$_Wrap_alloc@V?$allocator@V?$_List_unchecked_iterator@V?$_List_val@U?$_List_simple_types@U?$pair@$$CBV?$basic_string@DU?$char_traits@D@std@@V?$allocator@D@2@@std@@VDEVICE@@@std@@@std@@@std@@@std@@@std@@@std@@@2@XZ 100a7360 f i dll.obj
 0002:0001f3a0       ?_Get_first@?$_Compressed_pair@U?$_Wrap_alloc@U?$_Wrap_alloc@V?$allocator@V?$_List_unchecked_iterator@V?$_List_val@U?$_List_simple_types@U?$pair@$$CBV?$basic_string@DU?$char_traits@D@std@@V?$allocator@D@2@@std@@VDEVICE@@@std@@@std@@@std@@@std@@@std@@@std@@@std@@V?$_Vector_val@U?$_Simple_types@V?$_List_unchecked_iterator@V?$_List_val@U?$_List_simple_types@U?$pair@$$CBV?$basic_string@DU?$char_traits@D@std@@V?$allocator@D@2@@std@@VDEVICE@@@std@@@std@@@std@@@std@@@std@@@2@$00@std@@QBEABU?$_Wrap_alloc@U?$_Wrap_alloc@V?$allocator@V?$_List_unchecked_iterator@V?$_List_val@U?$_List_simple_types@U?$pair@$$CBV?$basic_string@DU?$char_traits@D@std@@V?$allocator@D@2@@std@@VDEVICE@@@std@@@std@@@std@@@std@@@std@@@std@@@2@XZ 100a73a0 f i dll.obj
 0002:0001f3e0       ?_Get_first@?$_Compressed_pair@U?$_Wrap_alloc@V?$allocator@D@std@@@std@@V?$_String_val@U?$_Simple_types@D@std@@@2@$00@std@@QAEAAU?$_Wrap_alloc@V?$allocator@D@std@@@2@XZ 100a73e0 f i dll.obj
 0002:0001f420       ?_Get_first@?$_Compressed_pair@U?$_Wrap_alloc@V?$allocator@D@std@@@std@@V?$_String_val@U?$_Simple_types@D@std@@@2@$00@std@@QBEABU?$_Wrap_alloc@V?$allocator@D@std@@@2@XZ 100a7420 f i dll.obj
 0002:0001f460       ?_Get_first@?$_Compressed_pair@U?$_Wrap_alloc@V?$allocator@U?$_List_node@U?$pair@$$CBV?$basic_string@DU?$char_traits@D@std@@V?$allocator@D@2@@std@@VDEVICE@@@std@@PAX@std@@@std@@@std@@V?$_List_val@U?$_List_simple_types@U?$pair@$$CBV?$basic_string@DU?$char_traits@D@std@@V?$allocator@D@2@@std@@VDEVICE@@@std@@@std@@@2@$00@std@@QAEAAU?$_Wrap_alloc@V?$allocator@U?$_List_node@U?$pair@$$CBV?$basic_string@DU?$char_traits@D@std@@V?$allocator@D@2@@std@@VDEVICE@@@std@@PAX@std@@@std@@@2@XZ 100a7460 f i dll.obj
 0002:0001f4a0       ?_Get_first@?$_Compressed_pair@U?$_Wrap_alloc@V?$allocator@U?$_List_node@U?$pair@$$CBV?$basic_string@DU?$char_traits@D@std@@V?$allocator@D@2@@std@@VDEVICE@@@std@@PAX@std@@@std@@@std@@V?$_List_val@U?$_List_simple_types@U?$pair@$$CBV?$basic_string@DU?$char_traits@D@std@@V?$allocator@D@2@@std@@VDEVICE@@@std@@@std@@@2@$00@std@@QBEABU?$_Wrap_alloc@V?$allocator@U?$_List_node@U?$pair@$$CBV?$basic_string@DU?$char_traits@D@std@@V?$allocator@D@2@@std@@VDEVICE@@@std@@PAX@std@@@std@@@2@XZ 100a74a0 f i dll.obj
 0002:0001f4e0       ?_Get_first@?$_Compressed_pair@U?$_Wrap_alloc@V?$allocator@UFORMULA_PAIR@@@std@@@std@@V?$_Deque_val@U?$_Deque_simple_types@UFORMULA_PAIR@@@std@@@2@$00@std@@QAEAAU?$_Wrap_alloc@V?$allocator@UFORMULA_PAIR@@@std@@@2@XZ 100a74e0 f i dll.obj
 0002:0001f520       ?_Get_first@?$_Compressed_pair@U?$_Wrap_alloc@V?$allocator@UFORMULA_PAIR@@@std@@@std@@V?$_Deque_val@U?$_Deque_simple_types@UFORMULA_PAIR@@@std@@@2@$00@std@@QBEABU?$_Wrap_alloc@V?$allocator@UFORMULA_PAIR@@@std@@@2@XZ 100a7520 f i dll.obj
 0002:0001f560       ?_Get_first@?$_Compressed_pair@U?$equal_to@V?$basic_string@DU?$char_traits@D@std@@V?$allocator@D@2@@std@@@std@@M$00@std@@QBEABU?$equal_to@V?$basic_string@DU?$char_traits@D@std@@V?$allocator@D@2@@std@@@2@XZ 100a7560 f i dll.obj
 0002:0001f5a0       ?_Get_first@?$_Compressed_pair@U?$hash@V?$basic_string@DU?$char_traits@D@std@@V?$allocator@D@2@@std@@@std@@V?$_Compressed_pair@U?$equal_to@V?$basic_string@DU?$char_traits@D@std@@V?$allocator@D@2@@std@@@std@@M$00@2@$00@std@@QBEABU?$hash@V?$basic_string@DU?$char_traits@D@std@@V?$allocator@D@2@@std@@@2@XZ 100a75a0 f i dll.obj
 0002:0001f5e0       ?_Get_max_bucket_size@?$_Uhash_compare@V?$basic_string@DU?$char_traits@D@std@@V?$allocator@D@2@@std@@U?$hash@V?$basic_string@DU?$char_traits@D@std@@V?$allocator@D@2@@std@@@2@U?$equal_to@V?$basic_string@DU?$char_traits@D@std@@V?$allocator@D@2@@std@@@2@@std@@QBEABMXZ 100a75e0 f i dll.obj
 0002:0001f640       ?_Get_second@?$_Compressed_pair@U?$_Wrap_alloc@U?$_Wrap_alloc@V?$allocator@V?$_List_unchecked_iterator@V?$_List_val@U?$_List_simple_types@U?$pair@$$CBV?$basic_string@DU?$char_traits@D@std@@V?$allocator@D@2@@std@@VDEVICE@@@std@@@std@@@std@@@std@@@std@@@std@@@std@@V?$_Vector_val@U?$_Simple_types@V?$_List_unchecked_iterator@V?$_List_val@U?$_List_simple_types@U?$pair@$$CBV?$basic_string@DU?$char_traits@D@std@@V?$allocator@D@2@@std@@VDEVICE@@@std@@@std@@@std@@@std@@@std@@@2@$00@std@@QAEAAV?$_Vector_val@U?$_Simple_types@V?$_List_unchecked_iterator@V?$_List_val@U?$_List_simple_types@U?$pair@$$CBV?$basic_string@DU?$char_traits@D@std@@V?$allocator@D@2@@std@@VDEVICE@@@std@@@std@@@std@@@std@@@std@@@2@XZ 100a7640 f i dll.obj
 0002:0001f680       ?_Get_second@?$_Compressed_pair@U?$_Wrap_alloc@U?$_Wrap_alloc@V?$allocator@V?$_List_unchecked_iterator@V?$_List_val@U?$_List_simple_types@U?$pair@$$CBV?$basic_string@DU?$char_traits@D@std@@V?$allocator@D@2@@std@@VDEVICE@@@std@@@std@@@std@@@std@@@std@@@std@@@std@@V?$_Vector_val@U?$_Simple_types@V?$_List_unchecked_iterator@V?$_List_val@U?$_List_simple_types@U?$pair@$$CBV?$basic_string@DU?$char_traits@D@std@@V?$allocator@D@2@@std@@VDEVICE@@@std@@@std@@@std@@@std@@@std@@@2@$00@std@@QBEABV?$_Vector_val@U?$_Simple_types@V?$_List_unchecked_iterator@V?$_List_val@U?$_List_simple_types@U?$pair@$$CBV?$basic_string@DU?$char_traits@D@std@@V?$allocator@D@2@@std@@VDEVICE@@@std@@@std@@@std@@@std@@@std@@@2@XZ 100a7680 f i dll.obj
 0002:0001f6c0       ?_Get_second@?$_Compressed_pair@U?$_Wrap_alloc@V?$allocator@D@std@@@std@@V?$_String_val@U?$_Simple_types@D@std@@@2@$00@std@@QAEAAV?$_String_val@U?$_Simple_types@D@std@@@2@XZ 100a76c0 f i dll.obj
 0002:0001f700       ?_Get_second@?$_Compressed_pair@U?$_Wrap_alloc@V?$allocator@D@std@@@std@@V?$_String_val@U?$_Simple_types@D@std@@@2@$00@std@@QBEABV?$_String_val@U?$_Simple_types@D@std@@@2@XZ 100a7700 f i dll.obj
 0002:0001f740       ?_Get_second@?$_Compressed_pair@U?$_Wrap_alloc@V?$allocator@U?$_List_node@U?$pair@$$CBV?$basic_string@DU?$char_traits@D@std@@V?$allocator@D@2@@std@@VDEVICE@@@std@@PAX@std@@@std@@@std@@V?$_List_val@U?$_List_simple_types@U?$pair@$$CBV?$basic_string@DU?$char_traits@D@std@@V?$allocator@D@2@@std@@VDEVICE@@@std@@@std@@@2@$00@std@@QAEAAV?$_List_val@U?$_List_simple_types@U?$pair@$$CBV?$basic_string@DU?$char_traits@D@std@@V?$allocator@D@2@@std@@VDEVICE@@@std@@@std@@@2@XZ 100a7740 f i dll.obj
 0002:0001f780       ?_Get_second@?$_Compressed_pair@U?$_Wrap_alloc@V?$allocator@U?$_List_node@U?$pair@$$CBV?$basic_string@DU?$char_traits@D@std@@V?$allocator@D@2@@std@@VDEVICE@@@std@@PAX@std@@@std@@@std@@V?$_List_val@U?$_List_simple_types@U?$pair@$$CBV?$basic_string@DU?$char_traits@D@std@@V?$allocator@D@2@@std@@VDEVICE@@@std@@@std@@@2@$00@std@@QBEABV?$_List_val@U?$_List_simple_types@U?$pair@$$CBV?$basic_string@DU?$char_traits@D@std@@V?$allocator@D@2@@std@@VDEVICE@@@std@@@std@@@2@XZ 100a7780 f i dll.obj
 0002:0001f7c0       ?_Get_second@?$_Compressed_pair@U?$_Wrap_alloc@V?$allocator@UFORMULA_PAIR@@@std@@@std@@V?$_Deque_val@U?$_Deque_simple_types@UFORMULA_PAIR@@@std@@@2@$00@std@@QAEAAV?$_Deque_val@U?$_Deque_simple_types@UFORMULA_PAIR@@@std@@@2@XZ 100a77c0 f i dll.obj
 0002:0001f800       ?_Get_second@?$_Compressed_pair@U?$_Wrap_alloc@V?$allocator@UFORMULA_PAIR@@@std@@@std@@V?$_Deque_val@U?$_Deque_simple_types@UFORMULA_PAIR@@@std@@@2@$00@std@@QBEABV?$_Deque_val@U?$_Deque_simple_types@UFORMULA_PAIR@@@std@@@2@XZ 100a7800 f i dll.obj
 0002:0001f840       ?_Get_second@?$_Compressed_pair@U?$_Wrap_alloc@V?$allocator@V?$basic_string@DU?$char_traits@D@std@@V?$allocator@D@2@@std@@@std@@@std@@V?$_Vector_val@U?$_Simple_types@V?$basic_string@DU?$char_traits@D@std@@V?$allocator@D@2@@std@@@std@@@2@$00@std@@QAEAAV?$_Vector_val@U?$_Simple_types@V?$basic_string@DU?$char_traits@D@std@@V?$allocator@D@2@@std@@@std@@@2@XZ 100a7840 f i dll.obj
 0002:0001f880       ?_Get_second@?$_Compressed_pair@U?$_Wrap_alloc@V?$allocator@V?$basic_string@DU?$char_traits@D@std@@V?$allocator@D@2@@std@@@std@@@std@@V?$_Vector_val@U?$_Simple_types@V?$basic_string@DU?$char_traits@D@std@@V?$allocator@D@2@@std@@@std@@@2@$00@std@@QBEABV?$_Vector_val@U?$_Simple_types@V?$basic_string@DU?$char_traits@D@std@@V?$allocator@D@2@@std@@@std@@@2@XZ 100a7880 f i dll.obj
 0002:0001f8c0       ?_Get_second@?$_Compressed_pair@U?$equal_to@V?$basic_string@DU?$char_traits@D@std@@V?$allocator@D@2@@std@@@std@@M$00@std@@QBEABMXZ 100a78c0 f i dll.obj
 0002:0001f900       ?_Get_second@?$_Compressed_pair@U?$hash@V?$basic_string@DU?$char_traits@D@std@@V?$allocator@D@2@@std@@@std@@V?$_Compressed_pair@U?$equal_to@V?$basic_string@DU?$char_traits@D@std@@V?$allocator@D@2@@std@@@std@@M$00@2@$00@std@@QBEABV?$_Compressed_pair@U?$equal_to@V?$basic_string@DU?$char_traits@D@std@@V?$allocator@D@2@@std@@@std@@M$00@2@XZ 100a7900 f i dll.obj
 0002:0001f940       ?_Getal@?$_Deque_alloc@U?$_Deque_base_types@UFORMULA_PAIR@@V?$allocator@UFORMULA_PAIR@@@std@@@std@@@std@@QAEAAU?$_Wrap_alloc@V?$allocator@UFORMULA_PAIR@@@std@@@2@XZ 100a7940 f i dll.obj
 0002:0001f990       ?_Getal@?$_Deque_alloc@U?$_Deque_base_types@UFORMULA_PAIR@@V?$allocator@UFORMULA_PAIR@@@std@@@std@@@std@@QBEABU?$_Wrap_alloc@V?$allocator@UFORMULA_PAIR@@@std@@@2@XZ 100a7990 f i dll.obj
 0002:0001f9e0       ?_Getal@?$_List_alloc@U?$_List_base_types@U?$pair@$$CBV?$basic_string@DU?$char_traits@D@std@@V?$allocator@D@2@@std@@VDEVICE@@@std@@V?$allocator@U?$pair@$$CBV?$basic_string@DU?$char_traits@D@std@@V?$allocator@D@2@@std@@VDEVICE@@@std@@@2@@std@@@std@@QAEAAU?$_Wrap_alloc@V?$allocator@U?$_List_node@U?$pair@$$CBV?$basic_string@DU?$char_traits@D@std@@V?$allocator@D@2@@std@@VDEVICE@@@std@@PAX@std@@@std@@@2@XZ 100a79e0 f i dll.obj
 0002:0001fa30       ?_Getal@?$_List_alloc@U?$_List_base_types@U?$pair@$$CBV?$basic_string@DU?$char_traits@D@std@@V?$allocator@D@2@@std@@VDEVICE@@@std@@V?$allocator@U?$pair@$$CBV?$basic_string@DU?$char_traits@D@std@@V?$allocator@D@2@@std@@VDEVICE@@@std@@@2@@std@@@std@@QBEABU?$_Wrap_alloc@V?$allocator@U?$_List_node@U?$pair@$$CBV?$basic_string@DU?$char_traits@D@std@@V?$allocator@D@2@@std@@VDEVICE@@@std@@PAX@std@@@std@@@2@XZ 100a7a30 f i dll.obj
 0002:0001fa80       ?_Getal@?$_String_alloc@U?$_String_base_types@DV?$allocator@D@std@@@std@@@std@@QAEAAU?$_Wrap_alloc@V?$allocator@D@std@@@2@XZ 100a7a80 f i dll.obj
 0002:0001fad0       ?_Getal@?$_String_alloc@U?$_String_base_types@DV?$allocator@D@std@@@std@@@std@@QBEABU?$_Wrap_alloc@V?$allocator@D@std@@@2@XZ 100a7ad0 f i dll.obj
 0002:0001fb20       ?_Getal@?$_Vector_alloc@U?$_Vec_base_types@V?$_List_unchecked_iterator@V?$_List_val@U?$_List_simple_types@U?$pair@$$CBV?$basic_string@DU?$char_traits@D@std@@V?$allocator@D@2@@std@@VDEVICE@@@std@@@std@@@std@@@std@@U?$_Wrap_alloc@V?$allocator@V?$_List_unchecked_iterator@V?$_List_val@U?$_List_simple_types@U?$pair@$$CBV?$basic_string@DU?$char_traits@D@std@@V?$allocator@D@2@@std@@VDEVICE@@@std@@@std@@@std@@@std@@@std@@@2@@std@@@std@@QAEAAU?$_Wrap_alloc@U?$_Wrap_alloc@V?$allocator@V?$_List_unchecked_iterator@V?$_List_val@U?$_List_simple_types@U?$pair@$$CBV?$basic_string@DU?$char_traits@D@std@@V?$allocator@D@2@@std@@VDEVICE@@@std@@@std@@@std@@@std@@@std@@@std@@@2@XZ 100a7b20 f i dll.obj
 0002:0001fb70       ?_Getal@?$_Vector_alloc@U?$_Vec_base_types@V?$_List_unchecked_iterator@V?$_List_val@U?$_List_simple_types@U?$pair@$$CBV?$basic_string@DU?$char_traits@D@std@@V?$allocator@D@2@@std@@VDEVICE@@@std@@@std@@@std@@@std@@U?$_Wrap_alloc@V?$allocator@V?$_List_unchecked_iterator@V?$_List_val@U?$_List_simple_types@U?$pair@$$CBV?$basic_string@DU?$char_traits@D@std@@V?$allocator@D@2@@std@@VDEVICE@@@std@@@std@@@std@@@std@@@std@@@2@@std@@@std@@QBEABU?$_Wrap_alloc@U?$_Wrap_alloc@V?$allocator@V?$_List_unchecked_iterator@V?$_List_val@U?$_List_simple_types@U?$pair@$$CBV?$basic_string@DU?$char_traits@D@std@@V?$allocator@D@2@@std@@VDEVICE@@@std@@@std@@@std@@@std@@@std@@@std@@@2@XZ 100a7b70 f i dll.obj
 0002:0001fbc0       ?_Getblock@?$_Deque_alloc@U?$_Deque_base_types@UFORMULA_PAIR@@V?$allocator@UFORMULA_PAIR@@@std@@@std@@@std@@QBEII@Z 100a7bc0 f i dll.obj
 0002:0001fc20       ?_Getblock@?$_Deque_val@U?$_Deque_simple_types@UFORMULA_PAIR@@@std@@@std@@QBEII@Z 100a7c20 f i dll.obj
 0002:0001fc70       ?_Getcont@_Iterator_base12@std@@QBEPBU_Container_base12@2@XZ 100a7c70 f i dll.obj
 0002:0001fce0       ?_Gethash@?$_Uhash_compare@V?$basic_string@DU?$char_traits@D@std@@V?$allocator@D@2@@std@@U?$hash@V?$basic_string@DU?$char_traits@D@std@@V?$allocator@D@2@@std@@@2@U?$equal_to@V?$basic_string@DU?$char_traits@D@std@@V?$allocator@D@2@@std@@@2@@std@@QBEABU?$hash@V?$basic_string@DU?$char_traits@D@std@@V?$allocator@D@2@@std@@@2@XZ 100a7ce0 f i dll.obj
 0002:0001fd30       ?_Getkeyeq@?$_Uhash_compare@V?$basic_string@DU?$char_traits@D@std@@V?$allocator@D@2@@std@@U?$hash@V?$basic_string@DU?$char_traits@D@std@@V?$allocator@D@2@@std@@@2@U?$equal_to@V?$basic_string@DU?$char_traits@D@std@@V?$allocator@D@2@@std@@@2@@std@@QBEABU?$equal_to@V?$basic_string@DU?$char_traits@D@std@@V?$allocator@D@2@@std@@@2@XZ 100a7d30 f i dll.obj
 0002:0001fd90       ?_Getpfirst@?$_Deque_alloc@U?$_Deque_base_types@UFORMULA_PAIR@@V?$allocator@UFORMULA_PAIR@@@std@@@std@@@std@@QBEPAPAU_Iterator_base12@2@XZ 100a7d90 f i dll.obj
 0002:0001fdf0       ?_Getpfirst@?$_List_alloc@U?$_List_base_types@U?$pair@$$CBV?$basic_string@DU?$char_traits@D@std@@V?$allocator@D@2@@std@@VDEVICE@@@std@@V?$allocator@U?$pair@$$CBV?$basic_string@DU?$char_traits@D@std@@V?$allocator@D@2@@std@@VDEVICE@@@std@@@2@@std@@@std@@QBEPAPAU_Iterator_base12@2@XZ 100a7df0 f i dll.obj
 0002:0001fe50       ?_Getpfirst@?$_Vector_alloc@U?$_Vec_base_types@V?$_List_unchecked_iterator@V?$_List_val@U?$_List_simple_types@U?$pair@$$CBV?$basic_string@DU?$char_traits@D@std@@V?$allocator@D@2@@std@@VDEVICE@@@std@@@std@@@std@@@std@@U?$_Wrap_alloc@V?$allocator@V?$_List_unchecked_iterator@V?$_List_val@U?$_List_simple_types@U?$pair@$$CBV?$basic_string@DU?$char_traits@D@std@@V?$allocator@D@2@@std@@VDEVICE@@@std@@@std@@@std@@@std@@@std@@@2@@std@@@std@@QBEPAPAU_Iterator_base12@2@XZ 100a7e50 f i dll.obj
 0002:0001feb0       ?_Getpfirst@_Container_base12@std@@QBEPAPAU_Iterator_base12@2@XZ 100a7eb0 f i dll.obj
 0002:0001ff20       ?_Getpnext@_Iterator_base12@std@@QAEPAPAU12@XZ 100a7f20 f i dll.obj
 0002:0001ff60       ?_Grow@?$basic_string@DU?$char_traits@D@std@@V?$allocator@D@2@@std@@QAE_NI_N@Z 100a7f60 f i dll.obj
 0002:00020090       ?_Grow_to@?$vector@V?$_List_unchecked_iterator@V?$_List_val@U?$_List_simple_types@U?$pair@$$CBV?$basic_string@DU?$char_traits@D@std@@V?$allocator@D@2@@std@@VDEVICE@@@std@@@std@@@std@@@std@@U?$_Wrap_alloc@V?$allocator@V?$_List_unchecked_iterator@V?$_List_val@U?$_List_simple_types@U?$pair@$$CBV?$basic_string@DU?$char_traits@D@std@@V?$allocator@D@2@@std@@VDEVICE@@@std@@@std@@@std@@@std@@@std@@@2@@std@@IBEII@Z 100a8090 f i dll.obj
 0002:00020140       ?_Growmap@?$deque@UFORMULA_PAIR@@V?$allocator@UFORMULA_PAIR@@@std@@@std@@IAEXI@Z 100a8140 f i dll.obj
 0002:000204d0       ?_Hash_seq@std@@YAIPBEI@Z  100a84d0 f i dll.obj
 0002:00020560       ?_Hashval@?$_Hash@V?$_Umap_traits@V?$basic_string@DU?$char_traits@D@std@@V?$allocator@D@2@@std@@VDEVICE@@V?$_Uhash_compare@V?$basic_string@DU?$char_traits@D@std@@V?$allocator@D@2@@std@@U?$hash@V?$basic_string@DU?$char_traits@D@std@@V?$allocator@D@2@@std@@@2@U?$equal_to@V?$basic_string@DU?$char_traits@D@std@@V?$allocator@D@2@@std@@@2@@2@V?$allocator@U?$pair@$$CBV?$basic_string@DU?$char_traits@D@std@@V?$allocator@D@2@@std@@VDEVICE@@@std@@@2@$0A@@std@@@std@@IBEIABV?$basic_string@DU?$char_traits@D@std@@V?$allocator@D@2@@2@@Z 100a8560 f i dll.obj
 0002:000205c0       ?_Incsize@?$list@U?$pair@$$CBV?$basic_string@DU?$char_traits@D@std@@V?$allocator@D@2@@std@@VDEVICE@@@std@@V?$allocator@U?$pair@$$CBV?$basic_string@DU?$char_traits@D@std@@V?$allocator@D@2@@std@@VDEVICE@@@std@@@2@@std@@QAEXI@Z 100a85c0 f i dll.obj
 0002:00020670       ?_Init@?$_Hash@V?$_Umap_traits@V?$basic_string@DU?$char_traits@D@std@@V?$allocator@D@2@@std@@VDEVICE@@V?$_Uhash_compare@V?$basic_string@DU?$char_traits@D@std@@V?$allocator@D@2@@std@@U?$hash@V?$basic_string@DU?$char_traits@D@std@@V?$allocator@D@2@@std@@@2@U?$equal_to@V?$basic_string@DU?$char_traits@D@std@@V?$allocator@D@2@@std@@@2@@2@V?$allocator@U?$pair@$$CBV?$basic_string@DU?$char_traits@D@std@@V?$allocator@D@2@@std@@VDEVICE@@@std@@@2@$0A@@std@@@std@@IAEXI@Z 100a8670 f i dll.obj
 0002:00020710       ?_Insert_bucket@?$_Hash@V?$_Umap_traits@V?$basic_string@DU?$char_traits@D@std@@V?$allocator@D@2@@std@@VDEVICE@@V?$_Uhash_compare@V?$basic_string@DU?$char_traits@D@std@@V?$allocator@D@2@@std@@U?$hash@V?$basic_string@DU?$char_traits@D@std@@V?$allocator@D@2@@std@@@2@U?$equal_to@V?$basic_string@DU?$char_traits@D@std@@V?$allocator@D@2@@std@@@2@@2@V?$allocator@U?$pair@$$CBV?$basic_string@DU?$char_traits@D@std@@V?$allocator@D@2@@std@@VDEVICE@@@std@@@2@$0A@@std@@@std@@IAEXV?$_List_unchecked_iterator@V?$_List_val@U?$_List_simple_types@U?$pair@$$CBV?$basic_string@DU?$char_traits@D@std@@V?$allocator@D@2@@std@@VDEVICE@@@std@@@std@@@std@@@2@0I@Z 100a8710 f i dll.obj
 0002:00020840       ?_Insert_n@?$vector@V?$_List_unchecked_iterator@V?$_List_val@U?$_List_simple_types@U?$pair@$$CBV?$basic_string@DU?$char_traits@D@std@@V?$allocator@D@2@@std@@VDEVICE@@@std@@@std@@@std@@@std@@U?$_Wrap_alloc@V?$allocator@V?$_List_unchecked_iterator@V?$_List_val@U?$_List_simple_types@U?$pair@$$CBV?$basic_string@DU?$char_traits@D@std@@V?$allocator@D@2@@std@@VDEVICE@@@std@@@std@@@std@@@std@@@std@@@2@@std@@IAE?AV?$_Vector_iterator@V?$_Vector_val@U?$_Simple_types@V?$_List_unchecked_iterator@V?$_List_val@U?$_List_simple_types@U?$pair@$$CBV?$basic_string@DU?$char_traits@D@std@@V?$allocator@D@2@@std@@VDEVICE@@@std@@@std@@@std@@@std@@@std@@@std@@@2@V?$_Vector_const_iterator@V?$_Vector_val@U?$_Simple_types@V?$_List_unchecked_iterator@V?$_List_val@U?$_List_simple_types@U?$pair@$$CBV?$basic_string@DU?$char_traits@D@std@@V?$allocator@D@2@@std@@VDEVICE@@@std@@@std@@@std@@@std@@@std@@@std@@@2@IABV?$_List_unchecked_iterator@V?$_List_val@U?$_List_simple_types@U?$pair@$$CBV?$basic_string@DU?$char_traits@D@std@@V?$allocator@D@2@@std@@VDEVICE@@@std@@@std@@@std@@@2@@Z 100a8840 f i dll.obj
 0002:00020f00       ?_Inside@?$basic_string@DU?$char_traits@D@std@@V?$allocator@D@2@@std@@QAE_NPBD@Z 100a8f00 f i dll.obj
 0002:00020f90       ?_Make_iter@?$_Hash@V?$_Umap_traits@V?$basic_string@DU?$char_traits@D@std@@V?$allocator@D@2@@std@@VDEVICE@@V?$_Uhash_compare@V?$basic_string@DU?$char_traits@D@std@@V?$allocator@D@2@@std@@U?$hash@V?$basic_string@DU?$char_traits@D@std@@V?$allocator@D@2@@std@@@2@U?$equal_to@V?$basic_string@DU?$char_traits@D@std@@V?$allocator@D@2@@std@@@2@@2@V?$allocator@U?$pair@$$CBV?$basic_string@DU?$char_traits@D@std@@V?$allocator@D@2@@std@@VDEVICE@@@std@@@2@$0A@@std@@@std@@QBE?AV?$_List_iterator@V?$_List_val@U?$_List_simple_types@U?$pair@$$CBV?$basic_string@DU?$char_traits@D@std@@V?$allocator@D@2@@std@@VDEVICE@@@std@@@std@@@std@@@2@V?$_List_const_iterator@V?$_List_val@U?$_List_simple_types@U?$pair@$$CBV?$basic_string@DU?$char_traits@D@std@@V?$allocator@D@2@@std@@VDEVICE@@@std@@@std@@@std@@@2@@Z 100a8f90 f i dll.obj
 0002:00021090       ?_Make_iter@?$_Hash@V?$_Umap_traits@V?$basic_string@DU?$char_traits@D@std@@V?$allocator@D@2@@std@@VDEVICE@@V?$_Uhash_compare@V?$basic_string@DU?$char_traits@D@std@@V?$allocator@D@2@@std@@U?$hash@V?$basic_string@DU?$char_traits@D@std@@V?$allocator@D@2@@std@@@2@U?$equal_to@V?$basic_string@DU?$char_traits@D@std@@V?$allocator@D@2@@std@@@2@@2@V?$allocator@U?$pair@$$CBV?$basic_string@DU?$char_traits@D@std@@V?$allocator@D@2@@std@@VDEVICE@@@std@@@2@$0A@@std@@@std@@QBE?AV?$_List_iterator@V?$_List_val@U?$_List_simple_types@U?$pair@$$CBV?$basic_string@DU?$char_traits@D@std@@V?$allocator@D@2@@std@@VDEVICE@@@std@@@std@@@std@@@2@V?$_List_unchecked_const_iterator@V?$_List_val@U?$_List_simple_types@U?$pair@$$CBV?$basic_string@DU?$char_traits@D@std@@V?$allocator@D@2@@std@@VDEVICE@@@std@@@std@@@std@@U_Iterator_base0@2@@2@@Z 100a9090 f i dll.obj
 0002:00021120       ?_Make_iter@?$deque@UFORMULA_PAIR@@V?$allocator@UFORMULA_PAIR@@@std@@@std@@QBE?AV?$_Deque_iterator@V?$_Deque_val@U?$_Deque_simple_types@UFORMULA_PAIR@@@std@@@std@@@2@V?$_Deque_const_iterator@V?$_Deque_val@U?$_Deque_simple_types@UFORMULA_PAIR@@@std@@@std@@@2@@Z 100a9120 f i dll.obj
 0002:00021200       ?_Make_iter@?$list@U?$pair@$$CBV?$basic_string@DU?$char_traits@D@std@@V?$allocator@D@2@@std@@VDEVICE@@@std@@V?$allocator@U?$pair@$$CBV?$basic_string@DU?$char_traits@D@std@@V?$allocator@D@2@@std@@VDEVICE@@@std@@@2@@std@@QBE?AV?$_List_iterator@V?$_List_val@U?$_List_simple_types@U?$pair@$$CBV?$basic_string@DU?$char_traits@D@std@@V?$allocator@D@2@@std@@VDEVICE@@@std@@@std@@@std@@@2@V?$_List_const_iterator@V?$_List_val@U?$_List_simple_types@U?$pair@$$CBV?$basic_string@DU?$char_traits@D@std@@V?$allocator@D@2@@std@@VDEVICE@@@std@@@std@@@std@@@2@@Z 100a9200 f i dll.obj
 0002:000212b0       ?_Make_iter@?$list@U?$pair@$$CBV?$basic_string@DU?$char_traits@D@std@@V?$allocator@D@2@@std@@VDEVICE@@@std@@V?$allocator@U?$pair@$$CBV?$basic_string@DU?$char_traits@D@std@@V?$allocator@D@2@@std@@VDEVICE@@@std@@@2@@std@@QBE?AV?$_List_iterator@V?$_List_val@U?$_List_simple_types@U?$pair@$$CBV?$basic_string@DU?$char_traits@D@std@@V?$allocator@D@2@@std@@VDEVICE@@@std@@@std@@@std@@@2@V?$_List_unchecked_const_iterator@V?$_List_val@U?$_List_simple_types@U?$pair@$$CBV?$basic_string@DU?$char_traits@D@std@@V?$allocator@D@2@@std@@VDEVICE@@@std@@@std@@@std@@U_Iterator_base0@2@@2@@Z 100a92b0 f i dll.obj
 0002:00021340       ?_Map@?$_Deque_alloc@U?$_Deque_base_types@UFORMULA_PAIR@@V?$allocator@UFORMULA_PAIR@@@std@@@std@@@std@@QAEAAPAPAUFORMULA_PAIR@@XZ 100a9340 f i dll.obj
 0002:000213a0       ?_Mapsize@?$_Deque_alloc@U?$_Deque_base_types@UFORMULA_PAIR@@V?$allocator@UFORMULA_PAIR@@@std@@@std@@@std@@QAEAAIXZ 100a93a0 f i dll.obj
 0002:00021400       ?_Max_bucket_size@?$_Hash@V?$_Umap_traits@V?$basic_string@DU?$char_traits@D@std@@V?$allocator@D@2@@std@@VDEVICE@@V?$_Uhash_compare@V?$basic_string@DU?$char_traits@D@std@@V?$allocator@D@2@@std@@U?$hash@V?$basic_string@DU?$char_traits@D@std@@V?$allocator@D@2@@std@@@2@U?$equal_to@V?$basic_string@DU?$char_traits@D@std@@V?$allocator@D@2@@std@@@2@@2@V?$allocator@U?$pair@$$CBV?$basic_string@DU?$char_traits@D@std@@V?$allocator@D@2@@std@@VDEVICE@@@std@@@2@$0A@@std@@@std@@IBEABMXZ 100a9400 f i dll.obj
 0002:00021450       ?_Myend@?$_Vector_alloc@U?$_Vec_base_types@V?$_List_unchecked_iterator@V?$_List_val@U?$_List_simple_types@U?$pair@$$CBV?$basic_string@DU?$char_traits@D@std@@V?$allocator@D@2@@std@@VDEVICE@@@std@@@std@@@std@@@std@@U?$_Wrap_alloc@V?$allocator@V?$_List_unchecked_iterator@V?$_List_val@U?$_List_simple_types@U?$pair@$$CBV?$basic_string@DU?$char_traits@D@std@@V?$allocator@D@2@@std@@VDEVICE@@@std@@@std@@@std@@@std@@@std@@@2@@std@@@std@@QAEAAPAV?$_List_unchecked_iterator@V?$_List_val@U?$_List_simple_types@U?$pair@$$CBV?$basic_string@DU?$char_traits@D@std@@V?$allocator@D@2@@std@@VDEVICE@@@std@@@std@@@std@@@2@XZ 100a9450 f i dll.obj
 0002:000214b0       ?_Myend@?$_Vector_alloc@U?$_Vec_base_types@V?$_List_unchecked_iterator@V?$_List_val@U?$_List_simple_types@U?$pair@$$CBV?$basic_string@DU?$char_traits@D@std@@V?$allocator@D@2@@std@@VDEVICE@@@std@@@std@@@std@@@std@@U?$_Wrap_alloc@V?$allocator@V?$_List_unchecked_iterator@V?$_List_val@U?$_List_simple_types@U?$pair@$$CBV?$basic_string@DU?$char_traits@D@std@@V?$allocator@D@2@@std@@VDEVICE@@@std@@@std@@@std@@@std@@@std@@@2@@std@@@std@@QBEABQAV?$_List_unchecked_iterator@V?$_List_val@U?$_List_simple_types@U?$pair@$$CBV?$basic_string@DU?$char_traits@D@std@@V?$allocator@D@2@@std@@VDEVICE@@@std@@@std@@@std@@@2@XZ 100a94b0 f i dll.obj
 0002:00021510       ?_Myfirst@?$_Vector_alloc@U?$_Vec_base_types@V?$_List_unchecked_iterator@V?$_List_val@U?$_List_simple_types@U?$pair@$$CBV?$basic_string@DU?$char_traits@D@std@@V?$allocator@D@2@@std@@VDEVICE@@@std@@@std@@@std@@@std@@U?$_Wrap_alloc@V?$allocator@V?$_List_unchecked_iterator@V?$_List_val@U?$_List_simple_types@U?$pair@$$CBV?$basic_string@DU?$char_traits@D@std@@V?$allocator@D@2@@std@@VDEVICE@@@std@@@std@@@std@@@std@@@std@@@2@@std@@@std@@QAEAAPAV?$_List_unchecked_iterator@V?$_List_val@U?$_List_simple_types@U?$pair@$$CBV?$basic_string@DU?$char_traits@D@std@@V?$allocator@D@2@@std@@VDEVICE@@@std@@@std@@@std@@@2@XZ 100a9510 f i dll.obj
 0002:00021570       ?_Myfirst@?$_Vector_alloc@U?$_Vec_base_types@V?$_List_unchecked_iterator@V?$_List_val@U?$_List_simple_types@U?$pair@$$CBV?$basic_string@DU?$char_traits@D@std@@V?$allocator@D@2@@std@@VDEVICE@@@std@@@std@@@std@@@std@@U?$_Wrap_alloc@V?$allocator@V?$_List_unchecked_iterator@V?$_List_val@U?$_List_simple_types@U?$pair@$$CBV?$basic_string@DU?$char_traits@D@std@@V?$allocator@D@2@@std@@VDEVICE@@@std@@@std@@@std@@@std@@@std@@@2@@std@@@std@@QBEABQAV?$_List_unchecked_iterator@V?$_List_val@U?$_List_simple_types@U?$pair@$$CBV?$basic_string@DU?$char_traits@D@std@@V?$allocator@D@2@@std@@VDEVICE@@@std@@@std@@@std@@@2@XZ 100a9570 f i dll.obj
 0002:000215d0       ?_Myfirst@?$_Vector_alloc@U?$_Vec_base_types@V?$basic_string@DU?$char_traits@D@std@@V?$allocator@D@2@@std@@V?$allocator@V?$basic_string@DU?$char_traits@D@std@@V?$allocator@D@2@@std@@@2@@std@@@std@@QAEAAPAV?$basic_string@DU?$char_traits@D@std@@V?$allocator@D@2@@2@XZ 100a95d0 f i dll.obj
 0002:00021630       ?_Myfirst@?$_Vector_alloc@U?$_Vec_base_types@V?$basic_string@DU?$char_traits@D@std@@V?$allocator@D@2@@std@@V?$allocator@V?$basic_string@DU?$char_traits@D@std@@V?$allocator@D@2@@std@@@2@@std@@@std@@QBEABQAV?$basic_string@DU?$char_traits@D@std@@V?$allocator@D@2@@2@XZ 100a9630 f i dll.obj
 0002:00021690       ?_Myhead@?$_List_alloc@U?$_List_base_types@U?$pair@$$CBV?$basic_string@DU?$char_traits@D@std@@V?$allocator@D@2@@std@@VDEVICE@@@std@@V?$allocator@U?$pair@$$CBV?$basic_string@DU?$char_traits@D@std@@V?$allocator@D@2@@std@@VDEVICE@@@std@@@2@@std@@@std@@QAEAAPAU?$_List_node@U?$pair@$$CBV?$basic_string@DU?$char_traits@D@std@@V?$allocator@D@2@@std@@VDEVICE@@@std@@PAX@2@XZ 100a9690 f i dll.obj
 0002:000216f0       ?_Mylast@?$_Vector_alloc@U?$_Vec_base_types@V?$_List_unchecked_iterator@V?$_List_val@U?$_List_simple_types@U?$pair@$$CBV?$basic_string@DU?$char_traits@D@std@@V?$allocator@D@2@@std@@VDEVICE@@@std@@@std@@@std@@@std@@U?$_Wrap_alloc@V?$allocator@V?$_List_unchecked_iterator@V?$_List_val@U?$_List_simple_types@U?$pair@$$CBV?$basic_string@DU?$char_traits@D@std@@V?$allocator@D@2@@std@@VDEVICE@@@std@@@std@@@std@@@std@@@std@@@2@@std@@@std@@QAEAAPAV?$_List_unchecked_iterator@V?$_List_val@U?$_List_simple_types@U?$pair@$$CBV?$basic_string@DU?$char_traits@D@std@@V?$allocator@D@2@@std@@VDEVICE@@@std@@@std@@@std@@@2@XZ 100a96f0 f i dll.obj
 0002:00021750       ?_Mylast@?$_Vector_alloc@U?$_Vec_base_types@V?$_List_unchecked_iterator@V?$_List_val@U?$_List_simple_types@U?$pair@$$CBV?$basic_string@DU?$char_traits@D@std@@V?$allocator@D@2@@std@@VDEVICE@@@std@@@std@@@std@@@std@@U?$_Wrap_alloc@V?$allocator@V?$_List_unchecked_iterator@V?$_List_val@U?$_List_simple_types@U?$pair@$$CBV?$basic_string@DU?$char_traits@D@std@@V?$allocator@D@2@@std@@VDEVICE@@@std@@@std@@@std@@@std@@@std@@@2@@std@@@std@@QBEABQAV?$_List_unchecked_iterator@V?$_List_val@U?$_List_simple_types@U?$pair@$$CBV?$basic_string@DU?$char_traits@D@std@@V?$allocator@D@2@@std@@VDEVICE@@@std@@@std@@@std@@@2@XZ 100a9750 f i dll.obj
 0002:000217b0       ?_Mylast@?$_Vector_alloc@U?$_Vec_base_types@V?$basic_string@DU?$char_traits@D@std@@V?$allocator@D@2@@std@@V?$allocator@V?$basic_string@DU?$char_traits@D@std@@V?$allocator@D@2@@std@@@2@@std@@@std@@QBEABQAV?$basic_string@DU?$char_traits@D@std@@V?$allocator@D@2@@2@XZ 100a97b0 f i dll.obj
 0002:00021810       ?_Mynode@?$_List_unchecked_const_iterator@V?$_List_val@U?$_List_simple_types@U?$pair@$$CBV?$basic_string@DU?$char_traits@D@std@@V?$allocator@D@2@@std@@VDEVICE@@@std@@@std@@@std@@U_Iterator_base0@2@@std@@QBEPAU?$_List_node@U?$pair@$$CBV?$basic_string@DU?$char_traits@D@std@@V?$allocator@D@2@@std@@VDEVICE@@@std@@PAX@2@XZ 100a9810 f i dll.obj
 0002:00021850       ?_Mynode@?$_List_unchecked_const_iterator@V?$_List_val@U?$_List_simple_types@U?$pair@$$CBV?$basic_string@DU?$char_traits@D@std@@V?$allocator@D@2@@std@@VDEVICE@@@std@@@std@@@std@@U_Iterator_base12@2@@std@@QBEPAU?$_List_node@U?$pair@$$CBV?$basic_string@DU?$char_traits@D@std@@V?$allocator@D@2@@std@@VDEVICE@@@std@@PAX@2@XZ 100a9850 f i dll.obj
 0002:00021890       ?_Myoff@?$_Deque_alloc@U?$_Deque_base_types@UFORMULA_PAIR@@V?$allocator@UFORMULA_PAIR@@@std@@@std@@@std@@QAEAAIXZ 100a9890 f i dll.obj
 0002:000218f0       ?_Myoff@?$_Deque_alloc@U?$_Deque_base_types@UFORMULA_PAIR@@V?$allocator@UFORMULA_PAIR@@@std@@@std@@@std@@QBEABIXZ 100a98f0 f i dll.obj
 0002:00021950       ?_Myproxy@?$_Deque_alloc@U?$_Deque_base_types@UFORMULA_PAIR@@V?$allocator@UFORMULA_PAIR@@@std@@@std@@@std@@QAEAAPAU_Container_proxy@2@XZ 100a9950 f i dll.obj
 0002:000219a0       ?_Myproxy@?$_String_alloc@U?$_String_base_types@DV?$allocator@D@std@@@std@@@std@@QAEAAPAU_Container_proxy@2@XZ 100a99a0 f i dll.obj
 0002:000219f0       ?_Myptr@?$_String_alloc@U?$_String_base_types@DV?$allocator@D@std@@@std@@@std@@QAEPADXZ 100a99f0 f i dll.obj
 0002:00021a50       ?_Myptr@?$_String_alloc@U?$_String_base_types@DV?$allocator@D@std@@@std@@@std@@QBEPBDXZ 100a9a50 f i dll.obj
 0002:00021ab0       ?_Myptr@?$_String_val@U?$_Simple_types@D@std@@@std@@QAEPADXZ 100a9ab0 f i dll.obj
 0002:00021b40       ?_Myptr@?$_String_val@U?$_Simple_types@D@std@@@std@@QBEPBDXZ 100a9b40 f i dll.obj
 0002:00021bd0       ?_Myres@?$_String_alloc@U?$_String_base_types@DV?$allocator@D@std@@@std@@@std@@QAEAAIXZ 100a9bd0 f i dll.obj
 0002:00021c30       ?_Mysize@?$_Deque_alloc@U?$_Deque_base_types@UFORMULA_PAIR@@V?$allocator@UFORMULA_PAIR@@@std@@@std@@@std@@QAEAAIXZ 100a9c30 f i dll.obj
 0002:00021c90       ?_Mysize@?$_Deque_alloc@U?$_Deque_base_types@UFORMULA_PAIR@@V?$allocator@UFORMULA_PAIR@@@std@@@std@@@std@@QBEABIXZ 100a9c90 f i dll.obj
 0002:00021cf0       ?_Mysize@?$_List_alloc@U?$_List_base_types@U?$pair@$$CBV?$basic_string@DU?$char_traits@D@std@@V?$allocator@D@2@@std@@VDEVICE@@@std@@V?$allocator@U?$pair@$$CBV?$basic_string@DU?$char_traits@D@std@@V?$allocator@D@2@@std@@VDEVICE@@@std@@@2@@std@@@std@@QAEAAIXZ 100a9cf0 f i dll.obj
 0002:00021d50       ?_Mysize@?$_List_alloc@U?$_List_base_types@U?$pair@$$CBV?$basic_string@DU?$char_traits@D@std@@V?$allocator@D@2@@std@@VDEVICE@@@std@@V?$allocator@U?$pair@$$CBV?$basic_string@DU?$char_traits@D@std@@V?$allocator@D@2@@std@@VDEVICE@@@std@@@2@@std@@@std@@QBEABIXZ 100a9d50 f i dll.obj
 0002:00021db0       ?_Mysize@?$_String_alloc@U?$_String_base_types@DV?$allocator@D@std@@@std@@@std@@QAEAAIXZ 100a9db0 f i dll.obj
 0002:00021e10       ?_Mysize@?$_String_alloc@U?$_String_base_types@DV?$allocator@D@std@@@std@@@std@@QBEABIXZ 100a9e10 f i dll.obj
 0002:00021e70       ?_Myval@?$_List_alloc@U?$_List_base_types@U?$pair@$$CBV?$basic_string@DU?$char_traits@D@std@@V?$allocator@D@2@@std@@VDEVICE@@@std@@V?$allocator@U?$pair@$$CBV?$basic_string@DU?$char_traits@D@std@@V?$allocator@D@2@@std@@VDEVICE@@@std@@@2@@std@@@std@@SAAAU?$pair@$$CBV?$basic_string@DU?$char_traits@D@std@@V?$allocator@D@2@@std@@VDEVICE@@@2@PAU?$_List_node@U?$pair@$$CBV?$basic_string@DU?$char_traits@D@std@@V?$allocator@D@2@@std@@VDEVICE@@@std@@PAX@2@@Z 100a9e70 f i dll.obj
 0002:00021ec0       ?_Myval@?$_List_val@U?$_List_simple_types@U?$pair@$$CBV?$basic_string@DU?$char_traits@D@std@@V?$allocator@D@2@@std@@VDEVICE@@@std@@@std@@@std@@SAAAU?$pair@$$CBV?$basic_string@DU?$char_traits@D@std@@V?$allocator@D@2@@std@@VDEVICE@@@2@PAU?$_List_node@U?$pair@$$CBV?$basic_string@DU?$char_traits@D@std@@V?$allocator@D@2@@std@@VDEVICE@@@std@@PAX@2@@Z 100a9ec0 f i dll.obj
 0002:00021f00       ?_Nextnode@?$_List_alloc@U?$_List_base_types@U?$pair@$$CBV?$basic_string@DU?$char_traits@D@std@@V?$allocator@D@2@@std@@VDEVICE@@@std@@V?$allocator@U?$pair@$$CBV?$basic_string@DU?$char_traits@D@std@@V?$allocator@D@2@@std@@VDEVICE@@@std@@@2@@std@@@std@@SAAAPAU?$_List_node@U?$pair@$$CBV?$basic_string@DU?$char_traits@D@std@@V?$allocator@D@2@@std@@VDEVICE@@@std@@PAX@2@PAU32@@Z 100a9f00 f i dll.obj
 0002:00021f50       ?_Nextnode@?$_List_val@U?$_List_simple_types@U?$pair@$$CBV?$basic_string@DU?$char_traits@D@std@@V?$allocator@D@2@@std@@VDEVICE@@@std@@@std@@@std@@SAAAPAU?$_List_node@U?$pair@$$CBV?$basic_string@DU?$char_traits@D@std@@V?$allocator@D@2@@std@@VDEVICE@@@std@@PAX@2@PAU32@@Z 100a9f50 f i dll.obj
 0002:00021f90       ?_Orphan_all@?$_Deque_alloc@U?$_Deque_base_types@UFORMULA_PAIR@@V?$allocator@UFORMULA_PAIR@@@std@@@std@@@std@@QAEXXZ 100a9f90 f i dll.obj
 0002:00021ff0       ?_Orphan_all@?$_String_alloc@U?$_String_base_types@DV?$allocator@D@std@@@std@@@std@@QAEXXZ 100a9ff0 f i dll.obj
 0002:00022050       ?_Orphan_all@?$_Vector_alloc@U?$_Vec_base_types@V?$_List_unchecked_iterator@V?$_List_val@U?$_List_simple_types@U?$pair@$$CBV?$basic_string@DU?$char_traits@D@std@@V?$allocator@D@2@@std@@VDEVICE@@@std@@@std@@@std@@@std@@U?$_Wrap_alloc@V?$allocator@V?$_List_unchecked_iterator@V?$_List_val@U?$_List_simple_types@U?$pair@$$CBV?$basic_string@DU?$char_traits@D@std@@V?$allocator@D@2@@std@@VDEVICE@@@std@@@std@@@std@@@std@@@std@@@2@@std@@@std@@QAEXXZ 100aa050 f i dll.obj
 0002:000220b0       ?_Orphan_all@_Container_base12@std@@QAEXXZ 100aa0b0 f i dll.obj
 0002:000221c0       ?_Orphan_me@_Iterator_base12@std@@QAEXXZ 100aa1c0 f i dll.obj
 0002:00022290       ?_Orphan_off@?$deque@UFORMULA_PAIR@@V?$allocator@UFORMULA_PAIR@@@std@@@std@@IBEXI@Z 100aa290 f i dll.obj
 0002:00022470       ?_Orphan_ptr@?$list@U?$pair@$$CBV?$basic_string@DU?$char_traits@D@std@@V?$allocator@D@2@@std@@VDEVICE@@@std@@V?$allocator@U?$pair@$$CBV?$basic_string@DU?$char_traits@D@std@@V?$allocator@D@2@@std@@VDEVICE@@@std@@@2@@std@@QAEXPAU?$_List_node@U?$pair@$$CBV?$basic_string@DU?$char_traits@D@std@@V?$allocator@D@2@@std@@VDEVICE@@@std@@PAX@2@@Z 100aa470 f i dll.obj
 0002:000225f0       ?_Orphan_range@?$vector@V?$_List_unchecked_iterator@V?$_List_val@U?$_List_simple_types@U?$pair@$$CBV?$basic_string@DU?$char_traits@D@std@@V?$allocator@D@2@@std@@VDEVICE@@@std@@@std@@@std@@@std@@U?$_Wrap_alloc@V?$allocator@V?$_List_unchecked_iterator@V?$_List_val@U?$_List_simple_types@U?$pair@$$CBV?$basic_string@DU?$char_traits@D@std@@V?$allocator@D@2@@std@@VDEVICE@@@std@@@std@@@std@@@std@@@std@@@2@@std@@IBEXPAV?$_List_unchecked_iterator@V?$_List_val@U?$_List_simple_types@U?$pair@$$CBV?$basic_string@DU?$char_traits@D@std@@V?$allocator@D@2@@std@@VDEVICE@@@std@@@std@@@std@@@2@0@Z 100aa5f0 f i dll.obj
 0002:00022760       ?_Prevnode@?$_List_alloc@U?$_List_base_types@U?$pair@$$CBV?$basic_string@DU?$char_traits@D@std@@V?$allocator@D@2@@std@@VDEVICE@@@std@@V?$allocator@U?$pair@$$CBV?$basic_string@DU?$char_traits@D@std@@V?$allocator@D@2@@std@@VDEVICE@@@std@@@2@@std@@@std@@SAAAPAU?$_List_node@U?$pair@$$CBV?$basic_string@DU?$char_traits@D@std@@V?$allocator@D@2@@std@@VDEVICE@@@std@@PAX@2@PAU32@@Z 100aa760 f i dll.obj
 0002:000227b0       ?_Prevnode@?$_List_val@U?$_List_simple_types@U?$pair@$$CBV?$basic_string@DU?$char_traits@D@std@@V?$allocator@D@2@@std@@VDEVICE@@@std@@@std@@@std@@SAAAPAU?$_List_node@U?$pair@$$CBV?$basic_string@DU?$char_traits@D@std@@V?$allocator@D@2@@std@@VDEVICE@@@std@@PAX@2@PAU32@@Z 100aa7b0 f i dll.obj
 0002:000227f0       ?_Reallocate@?$vector@V?$_List_unchecked_iterator@V?$_List_val@U?$_List_simple_types@U?$pair@$$CBV?$basic_string@DU?$char_traits@D@std@@V?$allocator@D@2@@std@@VDEVICE@@@std@@@std@@@std@@@std@@U?$_Wrap_alloc@V?$allocator@V?$_List_unchecked_iterator@V?$_List_val@U?$_List_simple_types@U?$pair@$$CBV?$basic_string@DU?$char_traits@D@std@@V?$allocator@D@2@@std@@VDEVICE@@@std@@@std@@@std@@@std@@@std@@@2@@std@@IAEXI@Z 100aa7f0 f i dll.obj
 0002:000229e0       ?_Rechecked@?$_Deque_iterator@V?$_Deque_val@U?$_Deque_simple_types@UFORMULA_PAIR@@@std@@@std@@@std@@QAEAAV12@V?$_Deque_unchecked_iterator@V?$_Deque_val@U?$_Deque_simple_types@UFORMULA_PAIR@@@std@@@std@@@2@@Z 100aa9e0 f i dll.obj
 0002:00022a30       ?_Reinsert@?$_Hash@V?$_Umap_traits@V?$basic_string@DU?$char_traits@D@std@@V?$allocator@D@2@@std@@VDEVICE@@V?$_Uhash_compare@V?$basic_string@DU?$char_traits@D@std@@V?$allocator@D@2@@std@@U?$hash@V?$basic_string@DU?$char_traits@D@std@@V?$allocator@D@2@@std@@@2@U?$equal_to@V?$basic_string@DU?$char_traits@D@std@@V?$allocator@D@2@@std@@@2@@2@V?$allocator@U?$pair@$$CBV?$basic_string@DU?$char_traits@D@std@@V?$allocator@D@2@@std@@VDEVICE@@@std@@@2@$0A@@std@@@std@@IAEXXZ 100aaa30 f i dll.obj
 0002:00022b70       ?_Setcont@?$_Deque_const_iterator@V?$_Deque_val@U?$_Deque_simple_types@UFORMULA_PAIR@@@std@@@std@@@std@@QAEXPBV?$_Deque_val@U?$_Deque_simple_types@UFORMULA_PAIR@@@std@@@2@@Z 100aab70 f i dll.obj
 0002:00022bd0       ?_Tidy@?$basic_string@DU?$char_traits@D@std@@V?$allocator@D@2@@std@@QAEX_NI@Z 100aabd0 f i dll.obj
 0002:00022ce0       ?_Tidy@?$deque@UFORMULA_PAIR@@V?$allocator@UFORMULA_PAIR@@@std@@@std@@IAEXXZ 100aace0 f i dll.obj
 0002:00022e80       ?_Traits_compare@?$basic_string@DU?$char_traits@D@std@@V?$allocator@D@2@@std@@SAHQBDI0I@Z 100aae80 f i dll.obj
 0002:00022f40       ?_Ufill@?$vector@V?$_List_unchecked_iterator@V?$_List_val@U?$_List_simple_types@U?$pair@$$CBV?$basic_string@DU?$char_traits@D@std@@V?$allocator@D@2@@std@@VDEVICE@@@std@@@std@@@std@@@std@@U?$_Wrap_alloc@V?$allocator@V?$_List_unchecked_iterator@V?$_List_val@U?$_List_simple_types@U?$pair@$$CBV?$basic_string@DU?$char_traits@D@std@@V?$allocator@D@2@@std@@VDEVICE@@@std@@@std@@@std@@@std@@@std@@@2@@std@@IAEPAV?$_List_unchecked_iterator@V?$_List_val@U?$_List_simple_types@U?$pair@$$CBV?$basic_string@DU?$char_traits@D@std@@V?$allocator@D@2@@std@@VDEVICE@@@std@@@std@@@std@@@2@PAV32@IPBV32@@Z 100aaf40 f i dll.obj
 0002:00022fc0       ?_Unchecked@?$_Deque_const_iterator@V?$_Deque_val@U?$_Deque_simple_types@UFORMULA_PAIR@@@std@@@std@@@std@@QBE?AV?$_Deque_unchecked_const_iterator@V?$_Deque_val@U?$_Deque_simple_types@UFORMULA_PAIR@@@std@@@std@@@2@XZ 100aafc0 f i dll.obj
 0002:00023030       ?_Unchecked@?$_Deque_iterator@V?$_Deque_val@U?$_Deque_simple_types@UFORMULA_PAIR@@@std@@@std@@@std@@QBE?AV?$_Deque_unchecked_iterator@V?$_Deque_val@U?$_Deque_simple_types@UFORMULA_PAIR@@@std@@@std@@@2@XZ 100ab030 f i dll.obj
 0002:000230a0       ?_Unchecked@?$_List_iterator@V?$_List_val@U?$_List_simple_types@U?$pair@$$CBV?$basic_string@DU?$char_traits@D@std@@V?$allocator@D@2@@std@@VDEVICE@@@std@@@std@@@std@@@std@@QBE?AV?$_List_unchecked_iterator@V?$_List_val@U?$_List_simple_types@U?$pair@$$CBV?$basic_string@DU?$char_traits@D@std@@V?$allocator@D@2@@std@@VDEVICE@@@std@@@std@@@std@@@2@XZ 100ab0a0 f i dll.obj
 0002:00023110       ?_Unchecked_begin@?$_Hash@V?$_Umap_traits@V?$basic_string@DU?$char_traits@D@std@@V?$allocator@D@2@@std@@VDEVICE@@V?$_Uhash_compare@V?$basic_string@DU?$char_traits@D@std@@V?$allocator@D@2@@std@@U?$hash@V?$basic_string@DU?$char_traits@D@std@@V?$allocator@D@2@@std@@@2@U?$equal_to@V?$basic_string@DU?$char_traits@D@std@@V?$allocator@D@2@@std@@@2@@2@V?$allocator@U?$pair@$$CBV?$basic_string@DU?$char_traits@D@std@@V?$allocator@D@2@@std@@VDEVICE@@@std@@@2@$0A@@std@@@std@@QAE?AV?$_List_unchecked_iterator@V?$_List_val@U?$_List_simple_types@U?$pair@$$CBV?$basic_string@DU?$char_traits@D@std@@V?$allocator@D@2@@std@@VDEVICE@@@std@@@std@@@std@@@2@XZ 100ab110 f i dll.obj
 0002:00023170       ?_Unchecked_begin@?$list@U?$pair@$$CBV?$basic_string@DU?$char_traits@D@std@@V?$allocator@D@2@@std@@VDEVICE@@@std@@V?$allocator@U?$pair@$$CBV?$basic_string@DU?$char_traits@D@std@@V?$allocator@D@2@@std@@VDEVICE@@@std@@@2@@std@@QAE?AV?$_List_unchecked_iterator@V?$_List_val@U?$_List_simple_types@U?$pair@$$CBV?$basic_string@DU?$char_traits@D@std@@V?$allocator@D@2@@std@@VDEVICE@@@std@@@std@@@std@@@2@XZ 100ab170 f i dll.obj
 0002:000231f0       ?_Unchecked_end@?$_Hash@V?$_Umap_traits@V?$basic_string@DU?$char_traits@D@std@@V?$allocator@D@2@@std@@VDEVICE@@V?$_Uhash_compare@V?$basic_string@DU?$char_traits@D@std@@V?$allocator@D@2@@std@@U?$hash@V?$basic_string@DU?$char_traits@D@std@@V?$allocator@D@2@@std@@@2@U?$equal_to@V?$basic_string@DU?$char_traits@D@std@@V?$allocator@D@2@@std@@@2@@2@V?$allocator@U?$pair@$$CBV?$basic_string@DU?$char_traits@D@std@@V?$allocator@D@2@@std@@VDEVICE@@@std@@@2@$0A@@std@@@std@@QAE?AV?$_List_unchecked_iterator@V?$_List_val@U?$_List_simple_types@U?$pair@$$CBV?$basic_string@DU?$char_traits@D@std@@V?$allocator@D@2@@std@@VDEVICE@@@std@@@std@@@std@@@2@XZ 100ab1f0 f i dll.obj
 0002:00023250       ?_Unchecked_end@?$list@U?$pair@$$CBV?$basic_string@DU?$char_traits@D@std@@V?$allocator@D@2@@std@@VDEVICE@@@std@@V?$allocator@U?$pair@$$CBV?$basic_string@DU?$char_traits@D@std@@V?$allocator@D@2@@std@@VDEVICE@@@std@@@2@@std@@QAE?AV?$_List_unchecked_iterator@V?$_List_val@U?$_List_simple_types@U?$pair@$$CBV?$basic_string@DU?$char_traits@D@std@@V?$allocator@D@2@@std@@VDEVICE@@@std@@@std@@@std@@@2@XZ 100ab250 f i dll.obj
 0002:000232c0       ?_Unchecked_splice@?$list@U?$pair@$$CBV?$basic_string@DU?$char_traits@D@std@@V?$allocator@D@2@@std@@VDEVICE@@@std@@V?$allocator@U?$pair@$$CBV?$basic_string@DU?$char_traits@D@std@@V?$allocator@D@2@@std@@VDEVICE@@@std@@@2@@std@@QAEXV?$_List_unchecked_const_iterator@V?$_List_val@U?$_List_simple_types@U?$pair@$$CBV?$basic_string@DU?$char_traits@D@std@@V?$allocator@D@2@@std@@VDEVICE@@@std@@@std@@@std@@U_Iterator_base0@2@@2@00@Z 100ab2c0 f i dll.obj
 0002:00023440       ?_Unlinknode@?$list@U?$pair@$$CBV?$basic_string@DU?$char_traits@D@std@@V?$allocator@D@2@@std@@VDEVICE@@@std@@V?$allocator@U?$pair@$$CBV?$basic_string@DU?$char_traits@D@std@@V?$allocator@D@2@@std@@VDEVICE@@@std@@@2@@std@@QAEPAU?$_List_node@U?$pair@$$CBV?$basic_string@DU?$char_traits@D@std@@V?$allocator@D@2@@std@@VDEVICE@@@std@@PAX@2@V?$_List_const_iterator@V?$_List_val@U?$_List_simple_types@U?$pair@$$CBV?$basic_string@DU?$char_traits@D@std@@V?$allocator@D@2@@std@@VDEVICE@@@std@@@std@@@std@@@2@@Z 100ab440 f i dll.obj
 0002:000235f0       ?_Unused_capacity@?$vector@V?$_List_unchecked_iterator@V?$_List_val@U?$_List_simple_types@U?$pair@$$CBV?$basic_string@DU?$char_traits@D@std@@V?$allocator@D@2@@std@@VDEVICE@@@std@@@std@@@std@@@std@@U?$_Wrap_alloc@V?$allocator@V?$_List_unchecked_iterator@V?$_List_val@U?$_List_simple_types@U?$pair@$$CBV?$basic_string@DU?$char_traits@D@std@@V?$allocator@D@2@@std@@VDEVICE@@@std@@@std@@@std@@@std@@@std@@@2@@std@@QBEIXZ 100ab5f0 f i dll.obj
 0002:00023660       ?_Vec_hi@?$_Hash@V?$_Umap_traits@V?$basic_string@DU?$char_traits@D@std@@V?$allocator@D@2@@std@@VDEVICE@@V?$_Uhash_compare@V?$basic_string@DU?$char_traits@D@std@@V?$allocator@D@2@@std@@U?$hash@V?$basic_string@DU?$char_traits@D@std@@V?$allocator@D@2@@std@@@2@U?$equal_to@V?$basic_string@DU?$char_traits@D@std@@V?$allocator@D@2@@std@@@2@@2@V?$allocator@U?$pair@$$CBV?$basic_string@DU?$char_traits@D@std@@V?$allocator@D@2@@std@@VDEVICE@@@std@@@2@$0A@@std@@@std@@IAEAAV?$_List_unchecked_iterator@V?$_List_val@U?$_List_simple_types@U?$pair@$$CBV?$basic_string@DU?$char_traits@D@std@@V?$allocator@D@2@@std@@VDEVICE@@@std@@@std@@@std@@@2@I@Z 100ab660 f i dll.obj
 0002:000236c0       ?_Vec_lo@?$_Hash@V?$_Umap_traits@V?$basic_string@DU?$char_traits@D@std@@V?$allocator@D@2@@std@@VDEVICE@@V?$_Uhash_compare@V?$basic_string@DU?$char_traits@D@std@@V?$allocator@D@2@@std@@U?$hash@V?$basic_string@DU?$char_traits@D@std@@V?$allocator@D@2@@std@@@2@U?$equal_to@V?$basic_string@DU?$char_traits@D@std@@V?$allocator@D@2@@std@@@2@@2@V?$allocator@U?$pair@$$CBV?$basic_string@DU?$char_traits@D@std@@V?$allocator@D@2@@std@@VDEVICE@@@std@@@2@$0A@@std@@@std@@IAEAAV?$_List_unchecked_iterator@V?$_List_val@U?$_List_simple_types@U?$pair@$$CBV?$basic_string@DU?$char_traits@D@std@@V?$allocator@D@2@@std@@VDEVICE@@@std@@@std@@@std@@@2@I@Z 100ab6c0 f i dll.obj
 0002:00023720       ?_Xlen@?$basic_string@DU?$char_traits@D@std@@V?$allocator@D@2@@std@@QBEXXZ 100ab720 f i dll.obj
 0002:00023780       ?_Xlen@?$deque@UFORMULA_PAIR@@V?$allocator@UFORMULA_PAIR@@@std@@@std@@IBEXXZ 100ab780 f i dll.obj
 0002:000237e0       ?_Xlen@?$vector@V?$_List_unchecked_iterator@V?$_List_val@U?$_List_simple_types@U?$pair@$$CBV?$basic_string@DU?$char_traits@D@std@@V?$allocator@D@2@@std@@VDEVICE@@@std@@@std@@@std@@@std@@U?$_Wrap_alloc@V?$allocator@V?$_List_unchecked_iterator@V?$_List_val@U?$_List_simple_types@U?$pair@$$CBV?$basic_string@DU?$char_traits@D@std@@V?$allocator@D@2@@std@@VDEVICE@@@std@@@std@@@std@@@std@@@std@@@2@@std@@IBEXXZ 100ab7e0 f i dll.obj
 0002:00023840       ?_Xran@?$basic_string@DU?$char_traits@D@std@@V?$allocator@D@2@@std@@QBEXXZ 100ab840 f i dll.obj
 0002:000238a0       ?__empty_global_delete@@YAXPAX@Z 100ab8a0 f i dll.obj
 0002:000238d0       ?__empty_global_delete@@YAXPAXI@Z 100ab8d0 f i dll.obj
 0002:00023900       ?allocate@?$_Wrap_alloc@U?$_Wrap_alloc@V?$allocator@V?$_List_unchecked_iterator@V?$_List_val@U?$_List_simple_types@U?$pair@$$CBV?$basic_string@DU?$char_traits@D@std@@V?$allocator@D@2@@std@@VDEVICE@@@std@@@std@@@std@@@std@@@std@@@std@@@std@@QAEPAV?$_List_unchecked_iterator@V?$_List_val@U?$_List_simple_types@U?$pair@$$CBV?$basic_string@DU?$char_traits@D@std@@V?$allocator@D@2@@std@@VDEVICE@@@std@@@std@@@std@@@2@I@Z 100ab900 f i dll.obj
 0002:00023960       ?allocate@?$_Wrap_alloc@V?$allocator@D@std@@@std@@QAEPADI@Z 100ab960 f i dll.obj
 0002:000239c0       ?allocate@?$_Wrap_alloc@V?$allocator@PAUFORMULA_PAIR@@@std@@@std@@QAEPAPAUFORMULA_PAIR@@I@Z 100ab9c0 f i dll.obj
 0002:00023a20       ?allocate@?$_Wrap_alloc@V?$allocator@U?$_List_node@U?$pair@$$CBV?$basic_string@DU?$char_traits@D@std@@V?$allocator@D@2@@std@@VDEVICE@@@std@@PAX@std@@@std@@@std@@QAEPAU?$_List_node@U?$pair@$$CBV?$basic_string@DU?$char_traits@D@std@@V?$allocator@D@2@@std@@VDEVICE@@@std@@PAX@2@I@Z 100aba20 f i dll.obj
 0002:00023a80       ?allocate@?$_Wrap_alloc@V?$allocator@UFORMULA_PAIR@@@std@@@std@@QAEPAUFORMULA_PAIR@@I@Z 100aba80 f i dll.obj
 0002:00023ae0       ?allocate@?$_Wrap_alloc@V?$allocator@U_Container_proxy@std@@@std@@@std@@QAEPAU_Container_proxy@2@I@Z 100abae0 f i dll.obj
 0002:00023b40       ?allocate@?$_Wrap_alloc@V?$allocator@V?$_List_unchecked_iterator@V?$_List_val@U?$_List_simple_types@U?$pair@$$CBV?$basic_string@DU?$char_traits@D@std@@V?$allocator@D@2@@std@@VDEVICE@@@std@@@std@@@std@@@std@@@std@@@std@@QAEPAV?$_List_unchecked_iterator@V?$_List_val@U?$_List_simple_types@U?$pair@$$CBV?$basic_string@DU?$char_traits@D@std@@V?$allocator@D@2@@std@@VDEVICE@@@std@@@std@@@std@@@2@I@Z 100abb40 f i dll.obj
 0002:00023ba0       ?allocate@?$allocator@D@std@@QAEPADI@Z 100abba0 f i dll.obj
 0002:00023c00       ?allocate@?$allocator@PAUFORMULA_PAIR@@@std@@QAEPAPAUFORMULA_PAIR@@I@Z 100abc00 f i dll.obj
 0002:00023c60       ?allocate@?$allocator@U?$_List_node@U?$pair@$$CBV?$basic_string@DU?$char_traits@D@std@@V?$allocator@D@2@@std@@VDEVICE@@@std@@PAX@std@@@std@@QAEPAU?$_List_node@U?$pair@$$CBV?$basic_string@DU?$char_traits@D@std@@V?$allocator@D@2@@std@@VDEVICE@@@std@@PAX@2@I@Z 100abc60 f i dll.obj
 0002:00023cc0       ?allocate@?$allocator@UFORMULA_PAIR@@@std@@QAEPAUFORMULA_PAIR@@I@Z 100abcc0 f i dll.obj
 0002:00023d20       ?allocate@?$allocator@U_Container_proxy@std@@@std@@QAEPAU_Container_proxy@2@I@Z 100abd20 f i dll.obj
 0002:00023d80       ?allocate@?$allocator@V?$_List_unchecked_iterator@V?$_List_val@U?$_List_simple_types@U?$pair@$$CBV?$basic_string@DU?$char_traits@D@std@@V?$allocator@D@2@@std@@VDEVICE@@@std@@@std@@@std@@@std@@@std@@QAEPAV?$_List_unchecked_iterator@V?$_List_val@U?$_List_simple_types@U?$pair@$$CBV?$basic_string@DU?$char_traits@D@std@@V?$allocator@D@2@@std@@VDEVICE@@@std@@@std@@@std@@@2@I@Z 100abd80 f i dll.obj
 0002:00023de0       ?assign@?$basic_string@DU?$char_traits@D@std@@V?$allocator@D@2@@std@@QAEAAV12@ABV12@@Z 100abde0 f i dll.obj
 0002:00023e40       ?assign@?$basic_string@DU?$char_traits@D@std@@V?$allocator@D@2@@std@@QAEAAV12@ABV12@II@Z 100abe40 f i dll.obj
 0002:00023f40       ?assign@?$basic_string@DU?$char_traits@D@std@@V?$allocator@D@2@@std@@QAEAAV12@PBD@Z 100abf40 f i dll.obj
 0002:00023fd0       ?assign@?$basic_string@DU?$char_traits@D@std@@V?$allocator@D@2@@std@@QAEAAV12@PBDI@Z 100abfd0 f i dll.obj
 0002:000240f0       ?assign@?$char_traits@D@std@@SAXAADABD@Z 100ac0f0 f i dll.obj
 0002:00024130       ?assign@?$vector@V?$_List_unchecked_iterator@V?$_List_val@U?$_List_simple_types@U?$pair@$$CBV?$basic_string@DU?$char_traits@D@std@@V?$allocator@D@2@@std@@VDEVICE@@@std@@@std@@@std@@@std@@U?$_Wrap_alloc@V?$allocator@V?$_List_unchecked_iterator@V?$_List_val@U?$_List_simple_types@U?$pair@$$CBV?$basic_string@DU?$char_traits@D@std@@V?$allocator@D@2@@std@@VDEVICE@@@std@@@std@@@std@@@std@@@std@@@2@@std@@QAEXIABV?$_List_unchecked_iterator@V?$_List_val@U?$_List_simple_types@U?$pair@$$CBV?$basic_string@DU?$char_traits@D@std@@V?$allocator@D@2@@std@@VDEVICE@@@std@@@std@@@std@@@2@@Z 100ac130 f i dll.obj
 0002:00024260       ?begin@?$deque@UFORMULA_PAIR@@V?$allocator@UFORMULA_PAIR@@@std@@@std@@QAE?AV?$_Deque_iterator@V?$_Deque_val@U?$_Deque_simple_types@UFORMULA_PAIR@@@std@@@std@@@2@XZ 100ac260 f i dll.obj
 0002:00024310       ?begin@?$deque@UFORMULA_PAIR@@V?$allocator@UFORMULA_PAIR@@@std@@@std@@QBE?AV?$_Deque_const_iterator@V?$_Deque_val@U?$_Deque_simple_types@UFORMULA_PAIR@@@std@@@std@@@2@XZ 100ac310 f i dll.obj
 0002:000243c0       ?begin@?$list@U?$pair@$$CBV?$basic_string@DU?$char_traits@D@std@@V?$allocator@D@2@@std@@VDEVICE@@@std@@V?$allocator@U?$pair@$$CBV?$basic_string@DU?$char_traits@D@std@@V?$allocator@D@2@@std@@VDEVICE@@@std@@@2@@std@@QAE?AV?$_List_iterator@V?$_List_val@U?$_List_simple_types@U?$pair@$$CBV?$basic_string@DU?$char_traits@D@std@@V?$allocator@D@2@@std@@VDEVICE@@@std@@@std@@@std@@@2@XZ 100ac3c0 f i dll.obj
 0002:00024470       ?begin@?$vector@V?$_List_unchecked_iterator@V?$_List_val@U?$_List_simple_types@U?$pair@$$CBV?$basic_string@DU?$char_traits@D@std@@V?$allocator@D@2@@std@@VDEVICE@@@std@@@std@@@std@@@std@@U?$_Wrap_alloc@V?$allocator@V?$_List_unchecked_iterator@V?$_List_val@U?$_List_simple_types@U?$pair@$$CBV?$basic_string@DU?$char_traits@D@std@@V?$allocator@D@2@@std@@VDEVICE@@@std@@@std@@@std@@@std@@@std@@@2@@std@@QAE?AV?$_Vector_iterator@V?$_Vector_val@U?$_Simple_types@V?$_List_unchecked_iterator@V?$_List_val@U?$_List_simple_types@U?$pair@$$CBV?$basic_string@DU?$char_traits@D@std@@V?$allocator@D@2@@std@@VDEVICE@@@std@@@std@@@std@@@std@@@std@@@std@@@2@XZ 100ac470 f i dll.obj
 0002:00024520       ?bucket_count@?$_Hash@V?$_Umap_traits@V?$basic_string@DU?$char_traits@D@std@@V?$allocator@D@2@@std@@VDEVICE@@V?$_Uhash_compare@V?$basic_string@DU?$char_traits@D@std@@V?$allocator@D@2@@std@@U?$hash@V?$basic_string@DU?$char_traits@D@std@@V?$allocator@D@2@@std@@@2@U?$equal_to@V?$basic_string@DU?$char_traits@D@std@@V?$allocator@D@2@@std@@@2@@2@V?$allocator@U?$pair@$$CBV?$basic_string@DU?$char_traits@D@std@@V?$allocator@D@2@@std@@VDEVICE@@@std@@@2@$0A@@std@@@std@@QBEIXZ 100ac520 f i dll.obj
 0002:00024560       ?c_str@?$basic_string@DU?$char_traits@D@std@@V?$allocator@D@2@@std@@QBEPBDXZ 100ac560 f i dll.obj
 0002:000245f0       ?capacity@?$vector@V?$_List_unchecked_iterator@V?$_List_val@U?$_List_simple_types@U?$pair@$$CBV?$basic_string@DU?$char_traits@D@std@@V?$allocator@D@2@@std@@VDEVICE@@@std@@@std@@@std@@@std@@U?$_Wrap_alloc@V?$allocator@V?$_List_unchecked_iterator@V?$_List_val@U?$_List_simple_types@U?$pair@$$CBV?$basic_string@DU?$char_traits@D@std@@V?$allocator@D@2@@std@@VDEVICE@@@std@@@std@@@std@@@std@@@std@@@2@@std@@QBEIXZ 100ac5f0 f i dll.obj
 0002:00024660       ?clear@?$deque@UFORMULA_PAIR@@V?$allocator@UFORMULA_PAIR@@@std@@@std@@QAEXXZ 100ac660 f i dll.obj
 0002:000246f0       ?clear@?$vector@V?$_List_unchecked_iterator@V?$_List_val@U?$_List_simple_types@U?$pair@$$CBV?$basic_string@DU?$char_traits@D@std@@V?$allocator@D@2@@std@@VDEVICE@@@std@@@std@@@std@@@std@@U?$_Wrap_alloc@V?$allocator@V?$_List_unchecked_iterator@V?$_List_val@U?$_List_simple_types@U?$pair@$$CBV?$basic_string@DU?$char_traits@D@std@@V?$allocator@D@2@@std@@VDEVICE@@@std@@@std@@@std@@@std@@@std@@@2@@std@@QAEXXZ 100ac6f0 f i dll.obj
 0002:000247c0       ?compare@?$basic_string@DU?$char_traits@D@std@@V?$allocator@D@2@@std@@QBEHABV12@@Z 100ac7c0 f i dll.obj
 0002:00024880       ?compare@?$char_traits@D@std@@SAHPBD0I@Z 100ac880 f i dll.obj
 0002:00024900       ?copy@?$char_traits@D@std@@SAPADPADPBDI@Z 100ac900 f i dll.obj
 0002:00024980       ?deallocate@?$_Wrap_alloc@U?$_Wrap_alloc@V?$allocator@V?$_List_unchecked_iterator@V?$_List_val@U?$_List_simple_types@U?$pair@$$CBV?$basic_string@DU?$char_traits@D@std@@V?$allocator@D@2@@std@@VDEVICE@@@std@@@std@@@std@@@std@@@std@@@std@@@std@@QAEXPAV?$_List_unchecked_iterator@V?$_List_val@U?$_List_simple_types@U?$pair@$$CBV?$basic_string@DU?$char_traits@D@std@@V?$allocator@D@2@@std@@VDEVICE@@@std@@@std@@@std@@@2@I@Z 100ac980 f i dll.obj
 0002:000249e0       ?deallocate@?$_Wrap_alloc@V?$allocator@D@std@@@std@@QAEXPADI@Z 100ac9e0 f i dll.obj
 0002:00024a40       ?deallocate@?$_Wrap_alloc@V?$allocator@PAUFORMULA_PAIR@@@std@@@std@@QAEXPAPAUFORMULA_PAIR@@I@Z 100aca40 f i dll.obj
 0002:00024aa0       ?deallocate@?$_Wrap_alloc@V?$allocator@U?$_List_node@U?$pair@$$CBV?$basic_string@DU?$char_traits@D@std@@V?$allocator@D@2@@std@@VDEVICE@@@std@@PAX@std@@@std@@@std@@QAEXPAU?$_List_node@U?$pair@$$CBV?$basic_string@DU?$char_traits@D@std@@V?$allocator@D@2@@std@@VDEVICE@@@std@@PAX@2@I@Z 100acaa0 f i dll.obj
 0002:00024b00       ?deallocate@?$_Wrap_alloc@V?$allocator@UFORMULA_PAIR@@@std@@@std@@QAEXPAUFORMULA_PAIR@@I@Z 100acb00 f i dll.obj
 0002:00024b60       ?deallocate@?$_Wrap_alloc@V?$allocator@U_Container_proxy@std@@@std@@@std@@QAEXPAU_Container_proxy@2@I@Z 100acb60 f i dll.obj
 0002:00024bc0       ?deallocate@?$_Wrap_alloc@V?$allocator@V?$_List_unchecked_iterator@V?$_List_val@U?$_List_simple_types@U?$pair@$$CBV?$basic_string@DU?$char_traits@D@std@@V?$allocator@D@2@@std@@VDEVICE@@@std@@@std@@@std@@@std@@@std@@@std@@QAEXPAV?$_List_unchecked_iterator@V?$_List_val@U?$_List_simple_types@U?$pair@$$CBV?$basic_string@DU?$char_traits@D@std@@V?$allocator@D@2@@std@@VDEVICE@@@std@@@std@@@std@@@2@I@Z 100acbc0 f i dll.obj
 0002:00024c20       ?deallocate@?$allocator@D@std@@QAEXPADI@Z 100acc20 f i dll.obj
 0002:00024c80       ?deallocate@?$allocator@PAUFORMULA_PAIR@@@std@@QAEXPAPAUFORMULA_PAIR@@I@Z 100acc80 f i dll.obj
 0002:00024ce0       ?deallocate@?$allocator@U?$_List_node@U?$pair@$$CBV?$basic_string@DU?$char_traits@D@std@@V?$allocator@D@2@@std@@VDEVICE@@@std@@PAX@std@@@std@@QAEXPAU?$_List_node@U?$pair@$$CBV?$basic_string@DU?$char_traits@D@std@@V?$allocator@D@2@@std@@VDEVICE@@@std@@PAX@2@I@Z 100acce0 f i dll.obj
 0002:00024d50       ?deallocate@?$allocator@UFORMULA_PAIR@@@std@@QAEXPAUFORMULA_PAIR@@I@Z 100acd50 f i dll.obj
 0002:00024db0       ?deallocate@?$allocator@U_Container_proxy@std@@@std@@QAEXPAU_Container_proxy@2@I@Z 100acdb0 f i dll.obj
 0002:00024e10       ?deallocate@?$allocator@V?$_List_unchecked_iterator@V?$_List_val@U?$_List_simple_types@U?$pair@$$CBV?$basic_string@DU?$char_traits@D@std@@V?$allocator@D@2@@std@@VDEVICE@@@std@@@std@@@std@@@std@@@std@@QAEXPAV?$_List_unchecked_iterator@V?$_List_val@U?$_List_simple_types@U?$pair@$$CBV?$basic_string@DU?$char_traits@D@std@@V?$allocator@D@2@@std@@VDEVICE@@@std@@@std@@@std@@@2@I@Z 100ace10 f i dll.obj
 0002:00024e70       ?dec_factor@Physics@@QAEXXZ 100ace70 f i dll.obj
 0002:00024f60       ?empty@?$deque@UFORMULA_PAIR@@V?$allocator@UFORMULA_PAIR@@@std@@@std@@QBE_NXZ 100acf60 f i dll.obj
 0002:00024fe0       ?end@?$_Hash@V?$_Umap_traits@V?$basic_string@DU?$char_traits@D@std@@V?$allocator@D@2@@std@@VDEVICE@@V?$_Uhash_compare@V?$basic_string@DU?$char_traits@D@std@@V?$allocator@D@2@@std@@U?$hash@V?$basic_string@DU?$char_traits@D@std@@V?$allocator@D@2@@std@@@2@U?$equal_to@V?$basic_string@DU?$char_traits@D@std@@V?$allocator@D@2@@std@@@2@@2@V?$allocator@U?$pair@$$CBV?$basic_string@DU?$char_traits@D@std@@V?$allocator@D@2@@std@@VDEVICE@@@std@@@2@$0A@@std@@@std@@QAE?AV?$_List_iterator@V?$_List_val@U?$_List_simple_types@U?$pair@$$CBV?$basic_string@DU?$char_traits@D@std@@V?$allocator@D@2@@std@@VDEVICE@@@std@@@std@@@std@@@2@XZ 100acfe0 f i dll.obj
 0002:00025040       ?end@?$deque@UFORMULA_PAIR@@V?$allocator@UFORMULA_PAIR@@@std@@@std@@QAE?AV?$_Deque_iterator@V?$_Deque_val@U?$_Deque_simple_types@UFORMULA_PAIR@@@std@@@std@@@2@XZ 100ad040 f i dll.obj
 0002:00025100       ?end@?$deque@UFORMULA_PAIR@@V?$allocator@UFORMULA_PAIR@@@std@@@std@@QBE?AV?$_Deque_const_iterator@V?$_Deque_val@U?$_Deque_simple_types@UFORMULA_PAIR@@@std@@@std@@@2@XZ 100ad100 f i dll.obj
 0002:000251c0       ?end@?$list@U?$pair@$$CBV?$basic_string@DU?$char_traits@D@std@@V?$allocator@D@2@@std@@VDEVICE@@@std@@V?$allocator@U?$pair@$$CBV?$basic_string@DU?$char_traits@D@std@@V?$allocator@D@2@@std@@VDEVICE@@@std@@@2@@std@@QAE?AV?$_List_iterator@V?$_List_val@U?$_List_simple_types@U?$pair@$$CBV?$basic_string@DU?$char_traits@D@std@@V?$allocator@D@2@@std@@VDEVICE@@@std@@@std@@@std@@@2@XZ 100ad1c0 f i dll.obj
 0002:00025270       ?erase@?$_Hash@V?$_Umap_traits@V?$basic_string@DU?$char_traits@D@std@@V?$allocator@D@2@@std@@VDEVICE@@V?$_Uhash_compare@V?$basic_string@DU?$char_traits@D@std@@V?$allocator@D@2@@std@@U?$hash@V?$basic_string@DU?$char_traits@D@std@@V?$allocator@D@2@@std@@@2@U?$equal_to@V?$basic_string@DU?$char_traits@D@std@@V?$allocator@D@2@@std@@@2@@2@V?$allocator@U?$pair@$$CBV?$basic_string@DU?$char_traits@D@std@@V?$allocator@D@2@@std@@VDEVICE@@@std@@@2@$0A@@std@@@std@@QAE?AV?$_List_iterator@V?$_List_val@U?$_List_simple_types@U?$pair@$$CBV?$basic_string@DU?$char_traits@D@std@@V?$allocator@D@2@@std@@VDEVICE@@@std@@@std@@@std@@@2@V?$_List_const_iterator@V?$_List_val@U?$_List_simple_types@U?$pair@$$CBV?$basic_string@DU?$char_traits@D@std@@V?$allocator@D@2@@std@@VDEVICE@@@std@@@std@@@std@@@2@@Z 100ad270 f i dll.obj
 0002:000253f0       ?erase@?$basic_string@DU?$char_traits@D@std@@V?$allocator@D@2@@std@@QAEAAV12@I@Z 100ad3f0 f i dll.obj
 0002:00025460       ?erase@?$basic_string@DU?$char_traits@D@std@@V?$allocator@D@2@@std@@QAEAAV12@II@Z 100ad460 f i dll.obj
 0002:00025540       ?erase@?$deque@UFORMULA_PAIR@@V?$allocator@UFORMULA_PAIR@@@std@@@std@@QAE?AV?$_Deque_iterator@V?$_Deque_val@U?$_Deque_simple_types@UFORMULA_PAIR@@@std@@@std@@@2@V?$_Deque_const_iterator@V?$_Deque_val@U?$_Deque_simple_types@UFORMULA_PAIR@@@std@@@std@@@2@0@Z 100ad540 f i dll.obj
 0002:00025c50       ?erase@?$list@U?$pair@$$CBV?$basic_string@DU?$char_traits@D@std@@V?$allocator@D@2@@std@@VDEVICE@@@std@@V?$allocator@U?$pair@$$CBV?$basic_string@DU?$char_traits@D@std@@V?$allocator@D@2@@std@@VDEVICE@@@std@@@2@@std@@QAE?AV?$_List_iterator@V?$_List_val@U?$_List_simple_types@U?$pair@$$CBV?$basic_string@DU?$char_traits@D@std@@V?$allocator@D@2@@std@@VDEVICE@@@std@@@std@@@std@@@2@V?$_List_const_iterator@V?$_List_val@U?$_List_simple_types@U?$pair@$$CBV?$basic_string@DU?$char_traits@D@std@@V?$allocator@D@2@@std@@VDEVICE@@@std@@@std@@@std@@@2@@Z 100adc50 f i dll.obj
 0002:00025d90       ?find@?$_Hash@V?$_Umap_traits@V?$basic_string@DU?$char_traits@D@std@@V?$allocator@D@2@@std@@VDEVICE@@V?$_Uhash_compare@V?$basic_string@DU?$char_traits@D@std@@V?$allocator@D@2@@std@@U?$hash@V?$basic_string@DU?$char_traits@D@std@@V?$allocator@D@2@@std@@@2@U?$equal_to@V?$basic_string@DU?$char_traits@D@std@@V?$allocator@D@2@@std@@@2@@2@V?$allocator@U?$pair@$$CBV?$basic_string@DU?$char_traits@D@std@@V?$allocator@D@2@@std@@VDEVICE@@@std@@@2@$0A@@std@@@std@@QAE?AV?$_List_iterator@V?$_List_val@U?$_List_simple_types@U?$pair@$$CBV?$basic_string@DU?$char_traits@D@std@@V?$allocator@D@2@@std@@VDEVICE@@@std@@@std@@@std@@@2@ABV?$basic_string@DU?$char_traits@D@std@@V?$allocator@D@2@@2@@Z 100add90 f i dll.obj
 0002:00025e10       ?front@?$list@U?$pair@$$CBV?$basic_string@DU?$char_traits@D@std@@V?$allocator@D@2@@std@@VDEVICE@@@std@@V?$allocator@U?$pair@$$CBV?$basic_string@DU?$char_traits@D@std@@V?$allocator@D@2@@std@@VDEVICE@@@std@@@2@@std@@QAEAAU?$pair@$$CBV?$basic_string@DU?$char_traits@D@std@@V?$allocator@D@2@@std@@VDEVICE@@@2@XZ 100ade10 f i dll.obj
 0002:00025ef0       ?getGrade@Physics@@QAENXZ  100adef0 f i dll.obj
 0002:00025f30       ?getPortNumber@Ctsrv@RACERMATE@@QAEHXZ 100adf30 f i dll.obj
 0002:00025f70       ?getWindForceConstant@Physics@@QAENXZ 100adf70 f i dll.obj
 0002:00025fb0       ?getWindPowerConstant@Physics@@QAENXZ 100adfb0 f i dll.obj
 0002:00025ff0       ?get_avg_watts@Formula@@QAEMXZ 100adff0 f i dll.obj
 0002:00026030       ?get_filename@fatalError@@QAEPBDXZ 100ae030 f i dll.obj
 0002:00026070       ?get_ftp@Formula@@QAEMXZ   100ae070 f i dll.obj
 0002:000260b0       ?get_line@fatalError@@QAEHXZ 100ae0b0 f i dll.obj
 0002:000260f0       ?get_maxdq@Formula@@QAEMXZ 100ae0f0 f i dll.obj
 0002:00026140       ?get_measured_ergo_watts@Physics@@QAENXZ 100ae140 f i dll.obj
 0002:00026180       ?get_str@fatalError@@QAEPBDXZ 100ae180 f i dll.obj
 0002:000261c0       ?get_watts_factor@Physics@@QAENXZ 100ae1c0 f i dll.obj
 0002:00026200       ?get_x_if@Formula@@QAEMXZ  100ae200 f i dll.obj
 0002:00026240       ?get_x_np@Formula@@QAEMXZ  100ae240 f i dll.obj
 0002:00026280       ?get_x_tss@Formula@@QAEMXZ 100ae280 f i dll.obj
 0002:000262c0       ?getfval@LPFilter@@QAENXZ  100ae2c0 f i dll.obj
 0002:00026300       ?getwhat@EV@@QAE?AW4EnumDeviceType@@XZ 100ae300 f i dll.obj
 0002:00026340       ?inc_factor@Physics@@QAEXXZ 100ae340 f i dll.obj
 0002:00026430       ?insert@?$vector@V?$_List_unchecked_iterator@V?$_List_val@U?$_List_simple_types@U?$pair@$$CBV?$basic_string@DU?$char_traits@D@std@@V?$allocator@D@2@@std@@VDEVICE@@@std@@@std@@@std@@@std@@U?$_Wrap_alloc@V?$allocator@V?$_List_unchecked_iterator@V?$_List_val@U?$_List_simple_types@U?$pair@$$CBV?$basic_string@DU?$char_traits@D@std@@V?$allocator@D@2@@std@@VDEVICE@@@std@@@std@@@std@@@std@@@std@@@2@@std@@QAE?AV?$_Vector_iterator@V?$_Vector_val@U?$_Simple_types@V?$_List_unchecked_iterator@V?$_List_val@U?$_List_simple_types@U?$pair@$$CBV?$basic_string@DU?$char_traits@D@std@@V?$allocator@D@2@@std@@VDEVICE@@@std@@@std@@@std@@@std@@@std@@@std@@@2@V?$_Vector_const_iterator@V?$_Vector_val@U?$_Simple_types@V?$_List_unchecked_iterator@V?$_List_val@U?$_List_simple_types@U?$pair@$$CBV?$basic_string@DU?$char_traits@D@std@@V?$allocator@D@2@@std@@VDEVICE@@@std@@@std@@@std@@@std@@@std@@@std@@@2@IABV?$_List_unchecked_iterator@V?$_List_val@U?$_List_simple_types@U?$pair@$$CBV?$basic_string@DU?$char_traits@D@std@@V?$allocator@D@2@@std@@VDEVICE@@@std@@@std@@@std@@@2@@Z 100ae430 f i dll.obj
 0002:00026530       ?is_connected_x@EV@@QAE_NXZ 100ae530 f i dll.obj
 0002:00026580       ?is_paused@Physics@@QAE_NXZ 100ae580 f i dll.obj
 0002:000265c0       ?length@?$char_traits@D@std@@SAIPBD@Z 100ae5c0 f i dll.obj
 0002:00026640       ?load_factor@?$_Hash@V?$_Umap_traits@V?$basic_string@DU?$char_traits@D@std@@V?$allocator@D@2@@std@@VDEVICE@@V?$_Uhash_compare@V?$basic_string@DU?$char_traits@D@std@@V?$allocator@D@2@@std@@U?$hash@V?$basic_string@DU?$char_traits@D@std@@V?$allocator@D@2@@std@@@2@U?$equal_to@V?$basic_string@DU?$char_traits@D@std@@V?$allocator@D@2@@std@@@2@@2@V?$allocator@U?$pair@$$CBV?$basic_string@DU?$char_traits@D@std@@V?$allocator@D@2@@std@@VDEVICE@@@std@@@2@$0A@@std@@@std@@QBEMXZ 100ae640 f i dll.obj
 0002:00026740       ?lower_bound@?$_Hash@V?$_Umap_traits@V?$basic_string@DU?$char_traits@D@std@@V?$allocator@D@2@@std@@VDEVICE@@V?$_Uhash_compare@V?$basic_string@DU?$char_traits@D@std@@V?$allocator@D@2@@std@@U?$hash@V?$basic_string@DU?$char_traits@D@std@@V?$allocator@D@2@@std@@@2@U?$equal_to@V?$basic_string@DU?$char_traits@D@std@@V?$allocator@D@2@@std@@@2@@2@V?$allocator@U?$pair@$$CBV?$basic_string@DU?$char_traits@D@std@@V?$allocator@D@2@@std@@VDEVICE@@@std@@@2@$0A@@std@@@std@@QAE?AV?$_List_iterator@V?$_List_val@U?$_List_simple_types@U?$pair@$$CBV?$basic_string@DU?$char_traits@D@std@@V?$allocator@D@2@@std@@VDEVICE@@@std@@@std@@@std@@@2@ABV?$basic_string@DU?$char_traits@D@std@@V?$allocator@D@2@@2@@Z 100ae740 f i dll.obj
 0002:00026a50       ?max_load_factor@?$_Hash@V?$_Umap_traits@V?$basic_string@DU?$char_traits@D@std@@V?$allocator@D@2@@std@@VDEVICE@@V?$_Uhash_compare@V?$basic_string@DU?$char_traits@D@std@@V?$allocator@D@2@@std@@U?$hash@V?$basic_string@DU?$char_traits@D@std@@V?$allocator@D@2@@std@@@2@U?$equal_to@V?$basic_string@DU?$char_traits@D@std@@V?$allocator@D@2@@std@@@2@@2@V?$allocator@U?$pair@$$CBV?$basic_string@DU?$char_traits@D@std@@V?$allocator@D@2@@std@@VDEVICE@@@std@@@2@$0A@@std@@@std@@QBEMXZ 100aea50 f i dll.obj
 0002:00026ac0       ?max_size@?$_Wrap_alloc@U?$_Wrap_alloc@V?$allocator@V?$_List_unchecked_iterator@V?$_List_val@U?$_List_simple_types@U?$pair@$$CBV?$basic_string@DU?$char_traits@D@std@@V?$allocator@D@2@@std@@VDEVICE@@@std@@@std@@@std@@@std@@@std@@@std@@@std@@QBEIU_Nil@2@@Z 100aeac0 f i dll.obj
 0002:00026b20       ?max_size@?$_Wrap_alloc@V?$allocator@D@std@@@std@@QBEIU_Nil@2@@Z 100aeb20 f i dll.obj
 0002:00026b80       ?max_size@?$_Wrap_alloc@V?$allocator@U?$_List_node@U?$pair@$$CBV?$basic_string@DU?$char_traits@D@std@@V?$allocator@D@2@@std@@VDEVICE@@@std@@PAX@std@@@std@@@std@@QBEIU_Nil@2@@Z 100aeb80 f i dll.obj
 0002:00026be0       ?max_size@?$_Wrap_alloc@V?$allocator@UFORMULA_PAIR@@@std@@@std@@QBEIU_Nil@2@@Z 100aebe0 f i dll.obj
 0002:00026c40       ?max_size@?$_Wrap_alloc@V?$allocator@V?$_List_unchecked_iterator@V?$_List_val@U?$_List_simple_types@U?$pair@$$CBV?$basic_string@DU?$char_traits@D@std@@V?$allocator@D@2@@std@@VDEVICE@@@std@@@std@@@std@@@std@@@std@@@std@@QBEIU_Nil@2@@Z 100aec40 f i dll.obj
 0002:00026ca0       ?max_size@?$allocator@D@std@@QBEIXZ 100aeca0 f i dll.obj
 0002:00026ce0       ?max_size@?$allocator@U?$_List_node@U?$pair@$$CBV?$basic_string@DU?$char_traits@D@std@@V?$allocator@D@2@@std@@VDEVICE@@@std@@PAX@std@@@std@@QBEIXZ 100aece0 f i dll.obj
 0002:00026d20       ?max_size@?$allocator@UFORMULA_PAIR@@@std@@QBEIXZ 100aed20 f i dll.obj
 0002:00026d60       ?max_size@?$allocator@V?$_List_unchecked_iterator@V?$_List_val@U?$_List_simple_types@U?$pair@$$CBV?$basic_string@DU?$char_traits@D@std@@V?$allocator@D@2@@std@@VDEVICE@@@std@@@std@@@std@@@std@@@std@@QBEIXZ 100aed60 f i dll.obj
 0002:00026da0       ?max_size@?$allocator_traits@U?$_Wrap_alloc@V?$allocator@V?$_List_unchecked_iterator@V?$_List_val@U?$_List_simple_types@U?$pair@$$CBV?$basic_string@DU?$char_traits@D@std@@V?$allocator@D@2@@std@@VDEVICE@@@std@@@std@@@std@@@std@@@std@@@std@@@std@@SAIABU?$_Wrap_alloc@V?$allocator@V?$_List_unchecked_iterator@V?$_List_val@U?$_List_simple_types@U?$pair@$$CBV?$basic_string@DU?$char_traits@D@std@@V?$allocator@D@2@@std@@VDEVICE@@@std@@@std@@@std@@@std@@@std@@@2@@Z 100aeda0 f i dll.obj
 0002:00026df0       ?max_size@?$allocator_traits@V?$allocator@D@std@@@std@@SAIABV?$allocator@D@2@@Z 100aedf0 f i dll.obj
 0002:00026e40       ?max_size@?$allocator_traits@V?$allocator@U?$_List_node@U?$pair@$$CBV?$basic_string@DU?$char_traits@D@std@@V?$allocator@D@2@@std@@VDEVICE@@@std@@PAX@std@@@std@@@std@@SAIABV?$allocator@U?$_List_node@U?$pair@$$CBV?$basic_string@DU?$char_traits@D@std@@V?$allocator@D@2@@std@@VDEVICE@@@std@@PAX@std@@@2@@Z 100aee40 f i dll.obj
 0002:00026e90       ?max_size@?$allocator_traits@V?$allocator@UFORMULA_PAIR@@@std@@@std@@SAIABV?$allocator@UFORMULA_PAIR@@@2@@Z 100aee90 f i dll.obj
 0002:00026ee0       ?max_size@?$allocator_traits@V?$allocator@V?$_List_unchecked_iterator@V?$_List_val@U?$_List_simple_types@U?$pair@$$CBV?$basic_string@DU?$char_traits@D@std@@V?$allocator@D@2@@std@@VDEVICE@@@std@@@std@@@std@@@std@@@std@@@std@@SAIABV?$allocator@V?$_List_unchecked_iterator@V?$_List_val@U?$_List_simple_types@U?$pair@$$CBV?$basic_string@DU?$char_traits@D@std@@V?$allocator@D@2@@std@@VDEVICE@@@std@@@std@@@std@@@std@@@2@@Z 100aeee0 f i dll.obj
 0002:00026f30       ?max_size@?$basic_string@DU?$char_traits@D@std@@V?$allocator@D@2@@std@@QBEIXZ 100aef30 f i dll.obj
 0002:00026fd0       ?max_size@?$deque@UFORMULA_PAIR@@V?$allocator@UFORMULA_PAIR@@@std@@@std@@QBEIXZ 100aefd0 f i dll.obj
 0002:00027040       ?max_size@?$list@U?$pair@$$CBV?$basic_string@DU?$char_traits@D@std@@V?$allocator@D@2@@std@@VDEVICE@@@std@@V?$allocator@U?$pair@$$CBV?$basic_string@DU?$char_traits@D@std@@V?$allocator@D@2@@std@@VDEVICE@@@std@@@2@@std@@QBEIXZ 100af040 f i dll.obj
 0002:000270b0       ?max_size@?$vector@V?$_List_unchecked_iterator@V?$_List_val@U?$_List_simple_types@U?$pair@$$CBV?$basic_string@DU?$char_traits@D@std@@V?$allocator@D@2@@std@@VDEVICE@@@std@@@std@@@std@@@std@@U?$_Wrap_alloc@V?$allocator@V?$_List_unchecked_iterator@V?$_List_val@U?$_List_simple_types@U?$pair@$$CBV?$basic_string@DU?$char_traits@D@std@@V?$allocator@D@2@@std@@VDEVICE@@@std@@@std@@@std@@@std@@@std@@@2@@std@@QBEIXZ 100af0b0 f i dll.obj
 0002:00027120       ?move@?$char_traits@D@std@@SAPADPADPBDI@Z 100af120 f i dll.obj
 0002:000271b0       ?pointer_to@?$pointer_traits@PAU?$pair@$$CBV?$basic_string@DU?$char_traits@D@std@@V?$allocator@D@2@@std@@VDEVICE@@@std@@@std@@SAPAU?$pair@$$CBV?$basic_string@DU?$char_traits@D@std@@V?$allocator@D@2@@std@@VDEVICE@@@2@AAU32@@Z 100af1b0 f i dll.obj
 0002:00027200       ?pop_back@?$deque@UFORMULA_PAIR@@V?$allocator@UFORMULA_PAIR@@@std@@@std@@QAEXXZ 100af200 f i dll.obj
 0002:00027350       ?pop_front@?$deque@UFORMULA_PAIR@@V?$allocator@UFORMULA_PAIR@@@std@@@std@@QAEXXZ 100af350 f i dll.obj
 0002:000274d0       ?push_back@?$deque@UFORMULA_PAIR@@V?$allocator@UFORMULA_PAIR@@@std@@@std@@QAEXABUFORMULA_PAIR@@@Z 100af4d0 f i dll.obj
 0002:000276a0       ?push_front@?$deque@UFORMULA_PAIR@@V?$allocator@UFORMULA_PAIR@@@std@@@std@@QAEXABUFORMULA_PAIR@@@Z 100af6a0 f i dll.obj
 0002:000278a0       ?reserve@?$vector@V?$_List_unchecked_iterator@V?$_List_val@U?$_List_simple_types@U?$pair@$$CBV?$basic_string@DU?$char_traits@D@std@@V?$allocator@D@2@@std@@VDEVICE@@@std@@@std@@@std@@@std@@U?$_Wrap_alloc@V?$allocator@V?$_List_unchecked_iterator@V?$_List_val@U?$_List_simple_types@U?$pair@$$CBV?$basic_string@DU?$char_traits@D@std@@V?$allocator@D@2@@std@@VDEVICE@@@std@@@std@@@std@@@std@@@std@@@2@@std@@QAEXI@Z 100af8a0 f i dll.obj
 0002:00027920       ?select_on_container_copy_construction@?$_Wrap_alloc@V?$allocator@UFORMULA_PAIR@@@std@@@std@@QBE?AU12@U_Nil@2@@Z 100af920 f i dll.obj
 0002:00027990       ?select_on_container_copy_construction@?$allocator_traits@V?$allocator@UFORMULA_PAIR@@@std@@@std@@SA?AV?$allocator@UFORMULA_PAIR@@@2@ABV32@@Z 100af990 f i dll.obj
 0002:000279f0       ?set_file_mode_x@EV@@QAEX_N@Z 100af9f0 f i dll.obj
 0002:00027a40       ?set_ftp@Formula@@QAEXM@Z  100afa40 f i dll.obj
 0002:00027a90       ?set_paused@Physics@@QAEX_N@Z 100afa90 f i dll.obj
 0002:00027ae0       ?set_watts_factor@Physics@@QAEXN@Z 100afae0 f i dll.obj
 0002:00027bf0       ?setflip@Physics@@QAEX_N@Z 100afbf0 f i dll.obj
 0002:00027c40       ?setifgain@Physics@@QAEXN@Z 100afc40 f i dll.obj
 0002:00027c90       ?setwgif@Physics@@QAEX_N@Z 100afc90 f i dll.obj
 0002:00027ce0       ?size@?$_Hash@V?$_Umap_traits@V?$basic_string@DU?$char_traits@D@std@@V?$allocator@D@2@@std@@VDEVICE@@V?$_Uhash_compare@V?$basic_string@DU?$char_traits@D@std@@V?$allocator@D@2@@std@@U?$hash@V?$basic_string@DU?$char_traits@D@std@@V?$allocator@D@2@@std@@@2@U?$equal_to@V?$basic_string@DU?$char_traits@D@std@@V?$allocator@D@2@@std@@@2@@2@V?$allocator@U?$pair@$$CBV?$basic_string@DU?$char_traits@D@std@@V?$allocator@D@2@@std@@VDEVICE@@@std@@@2@$0A@@std@@@std@@QBEIXZ 100afce0 f i dll.obj
 0002:00027d40       ?size@?$basic_string@DU?$char_traits@D@std@@V?$allocator@D@2@@std@@QBEIXZ 100afd40 f i dll.obj
 0002:00027da0       ?size@?$list@U?$pair@$$CBV?$basic_string@DU?$char_traits@D@std@@V?$allocator@D@2@@std@@VDEVICE@@@std@@V?$allocator@U?$pair@$$CBV?$basic_string@DU?$char_traits@D@std@@V?$allocator@D@2@@std@@VDEVICE@@@std@@@2@@std@@QBEIXZ 100afda0 f i dll.obj
 0002:00027e00       ?size@?$vector@V?$_List_unchecked_iterator@V?$_List_val@U?$_List_simple_types@U?$pair@$$CBV?$basic_string@DU?$char_traits@D@std@@V?$allocator@D@2@@std@@VDEVICE@@@std@@@std@@@std@@@std@@U?$_Wrap_alloc@V?$allocator@V?$_List_unchecked_iterator@V?$_List_val@U?$_List_simple_types@U?$pair@$$CBV?$basic_string@DU?$char_traits@D@std@@V?$allocator@D@2@@std@@VDEVICE@@@std@@@std@@@std@@@std@@@std@@@2@@std@@QBEIXZ 100afe00 f i dll.obj
 0002:00027e70       ?size@?$vector@V?$basic_string@DU?$char_traits@D@std@@V?$allocator@D@2@@std@@V?$allocator@V?$basic_string@DU?$char_traits@D@std@@V?$allocator@D@2@@std@@@2@@std@@QBEIXZ 100afe70 f i dll.obj
 0002:00027ee0       ?strstr@@YAPADQADQBD@Z     100afee0 f i dll.obj
 0002:00027f40       ?tr@Ctsrv@RACERMATE@@SA?AVQString@@PBD0H@Z 100aff40 f i dll.obj
 0002:00027fd0       ?trUtf8@Ctsrv@RACERMATE@@SA?AVQString@@PBD0H@Z 100affd0 f i dll.obj
 0002:00028060       ?update_velotron_current@@YAHPBDG@Z 100b0060 f   dll.obj
 0002:00028270       _Enablelogs                100b0270 f   dll.obj
 0002:000283c0       _EndRecalibrationMode      100b03c0 f   dll.obj
 0002:00028910       _GetAPIVersion             100b0910 f   dll.obj
 0002:00028950       _GetCalibration            100b0950 f   dll.obj
 0002:00028e20       _GetCurrentVTGear          100b0e20 f   dll.obj
 0002:00029100       _GetFirmWareVersion        100b1100 f   dll.obj
 0002:00029400       _GetHandleBarButtons       100b1400 f i dll.obj
 0002:00029950       _GetIsCalibrated           100b1950 f   dll.obj
 0002:00029ab0       _GetPortNames              100b1ab0 f   dll.obj
 0002:00029e60       _GetRacerMateDeviceID      100b1e60 f   dll.obj
 0002:0002a9a0       _GetTrainerData            100b29a0 f i dll.obj
 0002:0002b030       _ResetAlltoIdle            100b3030 f   dll.obj
 0002:0002b060       _ResetAverages             100b3060 f   dll.obj
 0002:0002b190       _ResettoIdle               100b3190 f   dll.obj
 0002:0002b510       _SetErgModeLoad            100b3510 f   dll.obj
 0002:0002b540       _SetHRBeepBounds           100b3540 f   dll.obj
 0002:0002b8c0       _SetRecalibrationMode      100b38c0 f   dll.obj
 0002:0002bd50       _SetSlope                  100b3d50 f   dll.obj
 0002:0002bfb0       _SetVelotronParameters     100b3fb0 f   dll.obj
 0002:0002c450       _Setlogfilepath            100b4450 f   dll.obj
 0002:0002c520       ___local_stdio_printf_options 100b4520 f i dll.obj
 0002:0002c560       ___local_stdio_scanf_options 100b4560 f i dll.obj
 0002:0002c5a0       __vsnprintf_l              100b45a0 f i dll.obj
 0002:0002c650       __vsprintf_l               100b4650 f i dll.obj
 0002:0002c6b0       __vsscanf_l                100b46b0 f i dll.obj
 0002:0002c730       _get_average_bars          100b4730 f i dll.obj
 0002:0002c9e0       _get_bars                  100b49e0 f i dll.obj
 0002:0002cc70       _get_build_date            100b4c70 f   dll.obj
 0002:0002cce0       _get_calories              100b4ce0 f i dll.obj
 0002:0002ce10       _get_computrainer_mode     100b4e10 f   dll.obj
 0002:0002cfa0       _get_dll_version           100b4fa0 f   dll.obj
 0002:0002cfe0       _get_errstr                100b4fe0 f   dll.obj
 0002:0002d0e0       _get_if                    100b50e0 f i dll.obj
 0002:0002d210       _get_np                    100b5210 f i dll.obj
 0002:0002d340       _get_pp                    100b5340 f i dll.obj
 0002:0002d470       _get_ss_data               100b5470 f i dll.obj
 0002:0002d9f0       _get_state                 100b59f0 f   dll.obj
 0002:0002db00       _get_status_bits           100b5b00 f   dll.obj
 0002:0002dd90       _get_trainer_type          100b5d90 f   dll.obj
 0002:0002ddd0       _get_tss                   100b5dd0 f i dll.obj
 0002:0002df00       _get_udp_clients           100b5f00 f   dll.obj
 0002:0002df60       _get_udpkey                100b5f60 f   dll.obj
 0002:0002e110       _racermate_close           100b6110 f   dll.obj
 0002:0002e200       _racermate_init            100b6200 f   dll.obj
 0002:0002e2b0       _resetTrainer              100b62b0 f   dll.obj
 0002:0002e3a0       _setGear                   100b63a0 f   dll.obj
 0002:0002e4d0       _setPause                  100b64d0 f   dll.obj
 0002:0002e610       _set_draftwind             100b6610 f   dll.obj
 0002:0002e750       _set_ftp                   100b6750 f i dll.obj
 0002:0002e850       _set_wind                  100b6850 f   dll.obj
 0002:0002e990       _sprintf                   100b6990 f i dll.obj
 0002:0002ea10       _sscanf                    100b6a10 f i dll.obj
 0002:0002ea90       _startTrainer              100b6a90 f   dll.obj
 0002:0002fe00       _start_server              100b7e00 f   dll.obj
 0002:0002ffe0       _start_trainer             100b7fe0 f   dll.obj
 0002:00030310       _stopTrainer               100b8310 f   dll.obj
 0002:000306c0       _stop_server               100b86c0 f   dll.obj
 0002:00030780       ??$?0AAU?$_Wrap_alloc@U?$_Wrap_alloc@V?$allocator@V?$_List_unchecked_iterator@V?$_List_val@U?$_List_simple_types@U?$pair@$$CBV?$basic_string@DU?$char_traits@D@std@@V?$allocator@D@2@@std@@VDEVICE@@@std@@@std@@@std@@@std@@@std@@@std@@@std@@@?$_Wrap_alloc@U?$_Wrap_alloc@V?$allocator@U_Container_proxy@std@@@std@@@std@@@std@@QAE@AAU?$_Wrap_alloc@U?$_Wrap_alloc@V?$allocator@V?$_List_unchecked_iterator@V?$_List_val@U?$_List_simple_types@U?$pair@$$CBV?$basic_string@DU?$char_traits@D@std@@V?$allocator@D@2@@std@@VDEVICE@@@std@@@std@@@std@@@std@@@std@@@std@@@1@@Z 100b8780 f i dll_globals.obj
 0002:000307f0       ??$?0AAU?$_Wrap_alloc@U?$_Wrap_alloc@V?$allocator@V?$_List_unchecked_iterator@V?$_List_val@U?$_List_simple_types@U?$pair@$$CBV?$basic_string@DU?$char_traits@D@std@@V?$allocator@D@2@@std@@VDEVICE@@@std@@@std@@@std@@@std@@@std@@@std@@@std@@@?$_Wrap_alloc@V?$allocator@U_Container_proxy@std@@@std@@@std@@QAE@AAU?$_Wrap_alloc@U?$_Wrap_alloc@V?$allocator@V?$_List_unchecked_iterator@V?$_List_val@U?$_List_simple_types@U?$pair@$$CBV?$basic_string@DU?$char_traits@D@std@@V?$allocator@D@2@@std@@VDEVICE@@@std@@@std@@@std@@@std@@@std@@@std@@@1@@Z 100b87f0 f i dll_globals.obj
 0002:00030860       ??$?0AAU?$_Wrap_alloc@V?$allocator@U?$_List_node@U?$pair@$$CBV?$basic_string@DU?$char_traits@D@std@@V?$allocator@D@2@@std@@VDEVICE@@@std@@PAX@std@@@std@@@std@@@?$_Wrap_alloc@V?$allocator@U_Container_proxy@std@@@std@@@std@@QAE@AAU?$_Wrap_alloc@V?$allocator@U?$_List_node@U?$pair@$$CBV?$basic_string@DU?$char_traits@D@std@@V?$allocator@D@2@@std@@VDEVICE@@@std@@PAX@std@@@std@@@1@@Z 100b8860 f i dll_globals.obj
 0002:000308d0       ??$?0AAU?$equal_to@V?$basic_string@DU?$char_traits@D@std@@V?$allocator@D@2@@std@@@std@@M@?$_Compressed_pair@U?$equal_to@V?$basic_string@DU?$char_traits@D@std@@V?$allocator@D@2@@std@@@std@@M$00@std@@QAE@U_One_then_variadic_args_t@1@AAU?$equal_to@V?$basic_string@DU?$char_traits@D@std@@V?$allocator@D@2@@std@@@1@$$QAM@Z 100b88d0 f i dll_globals.obj
 0002:00030950       ??$?0AAU?$hash@V?$basic_string@DU?$char_traits@D@std@@V?$allocator@D@2@@std@@@std@@U_One_then_variadic_args_t@1@AAU?$equal_to@V?$basic_string@DU?$char_traits@D@std@@V?$allocator@D@2@@std@@@1@M@?$_Compressed_pair@U?$hash@V?$basic_string@DU?$char_traits@D@std@@V?$allocator@D@2@@std@@@std@@V?$_Compressed_pair@U?$equal_to@V?$basic_string@DU?$char_traits@D@std@@V?$allocator@D@2@@std@@@std@@M$00@2@$00@std@@QAE@U_One_then_variadic_args_t@1@AAU?$hash@V?$basic_string@DU?$char_traits@D@std@@V?$allocator@D@2@@std@@@1@$$QAU21@AAU?$equal_to@V?$basic_string@DU?$char_traits@D@std@@V?$allocator@D@2@@std@@@1@$$QAM@Z 100b8950 f i dll_globals.obj
 0002:000309f0       ??$?0ABU?$_Wrap_alloc@V?$allocator@V?$_List_unchecked_iterator@V?$_List_val@U?$_List_simple_types@U?$pair@$$CBV?$basic_string@DU?$char_traits@D@std@@V?$allocator@D@2@@std@@VDEVICE@@@std@@@std@@@std@@@std@@@std@@@std@@$$V@?$_Compressed_pair@U?$_Wrap_alloc@U?$_Wrap_alloc@V?$allocator@V?$_List_unchecked_iterator@V?$_List_val@U?$_List_simple_types@U?$pair@$$CBV?$basic_string@DU?$char_traits@D@std@@V?$allocator@D@2@@std@@VDEVICE@@@std@@@std@@@std@@@std@@@std@@@std@@@std@@V?$_Vector_val@U?$_Simple_types@V?$_List_unchecked_iterator@V?$_List_val@U?$_List_simple_types@U?$pair@$$CBV?$basic_string@DU?$char_traits@D@std@@V?$allocator@D@2@@std@@VDEVICE@@@std@@@std@@@std@@@std@@@std@@@2@$00@std@@QAE@U_One_then_variadic_args_t@1@ABU?$_Wrap_alloc@V?$allocator@V?$_List_unchecked_iterator@V?$_List_val@U?$_List_simple_types@U?$pair@$$CBV?$basic_string@DU?$char_traits@D@std@@V?$allocator@D@2@@std@@VDEVICE@@@std@@@std@@@std@@@std@@@std@@@1@@Z 100b89f0 f i dll_globals.obj
 0002:00030a60       ??$?0ABU?$_Wrap_alloc@V?$allocator@V?$_List_unchecked_iterator@V?$_List_val@U?$_List_simple_types@U?$pair@$$CBV?$basic_string@DU?$char_traits@D@std@@V?$allocator@D@2@@std@@VDEVICE@@@std@@@std@@@std@@@std@@@std@@@std@@@?$_Vector_alloc@U?$_Vec_base_types@V?$_List_unchecked_iterator@V?$_List_val@U?$_List_simple_types@U?$pair@$$CBV?$basic_string@DU?$char_traits@D@std@@V?$allocator@D@2@@std@@VDEVICE@@@std@@@std@@@std@@@std@@U?$_Wrap_alloc@V?$allocator@V?$_List_unchecked_iterator@V?$_List_val@U?$_List_simple_types@U?$pair@$$CBV?$basic_string@DU?$char_traits@D@std@@V?$allocator@D@2@@std@@VDEVICE@@@std@@@std@@@std@@@std@@@std@@@2@@std@@@std@@QAE@ABU?$_Wrap_alloc@V?$allocator@V?$_List_unchecked_iterator@V?$_List_val@U?$_List_simple_types@U?$pair@$$CBV?$basic_string@DU?$char_traits@D@std@@V?$allocator@D@2@@std@@VDEVICE@@@std@@@std@@@std@@@std@@@std@@@1@@Z 100b8a60 f i dll_globals.obj
 0002:00030b20       ??$?0ABU?$_Wrap_alloc@V?$allocator@V?$_List_unchecked_iterator@V?$_List_val@U?$_List_simple_types@U?$pair@$$CBV?$basic_string@DU?$char_traits@D@std@@V?$allocator@D@2@@std@@VDEVICE@@@std@@@std@@@std@@@std@@@std@@@std@@@?$_Wrap_alloc@U?$_Wrap_alloc@V?$allocator@V?$_List_unchecked_iterator@V?$_List_val@U?$_List_simple_types@U?$pair@$$CBV?$basic_string@DU?$char_traits@D@std@@V?$allocator@D@2@@std@@VDEVICE@@@std@@@std@@@std@@@std@@@std@@@std@@@std@@QAE@ABU?$_Wrap_alloc@V?$allocator@V?$_List_unchecked_iterator@V?$_List_val@U?$_List_simple_types@U?$pair@$$CBV?$basic_string@DU?$char_traits@D@std@@V?$allocator@D@2@@std@@VDEVICE@@@std@@@std@@@std@@@std@@@std@@@1@@Z 100b8b20 f i dll_globals.obj
 0002:00030b90       ??$?0ABV?$allocator@U?$pair@$$CBV?$basic_string@DU?$char_traits@D@std@@V?$allocator@D@2@@std@@VDEVICE@@@std@@@std@@$$V@?$_Compressed_pair@U?$_Wrap_alloc@V?$allocator@U?$_List_node@U?$pair@$$CBV?$basic_string@DU?$char_traits@D@std@@V?$allocator@D@2@@std@@VDEVICE@@@std@@PAX@std@@@std@@@std@@V?$_List_val@U?$_List_simple_types@U?$pair@$$CBV?$basic_string@DU?$char_traits@D@std@@V?$allocator@D@2@@std@@VDEVICE@@@std@@@std@@@2@$00@std@@QAE@U_One_then_variadic_args_t@1@ABV?$allocator@U?$pair@$$CBV?$basic_string@DU?$char_traits@D@std@@V?$allocator@D@2@@std@@VDEVICE@@@std@@@1@@Z 100b8b90 f i dll_globals.obj
 0002:00030c00       ??$?0ABV?$allocator@U?$pair@$$CBV?$basic_string@DU?$char_traits@D@std@@V?$allocator@D@2@@std@@VDEVICE@@@std@@@std@@@?$_List_alloc@U?$_List_base_types@U?$pair@$$CBV?$basic_string@DU?$char_traits@D@std@@V?$allocator@D@2@@std@@VDEVICE@@@std@@V?$allocator@U?$pair@$$CBV?$basic_string@DU?$char_traits@D@std@@V?$allocator@D@2@@std@@VDEVICE@@@std@@@2@@std@@@std@@QAE@ABV?$allocator@U?$pair@$$CBV?$basic_string@DU?$char_traits@D@std@@V?$allocator@D@2@@std@@VDEVICE@@@std@@@1@@Z 100b8c00 f i dll_globals.obj
 0002:00030d30       ??$?0ABV?$allocator@U?$pair@$$CBV?$basic_string@DU?$char_traits@D@std@@V?$allocator@D@2@@std@@VDEVICE@@@std@@@std@@@?$_List_buy@U?$pair@$$CBV?$basic_string@DU?$char_traits@D@std@@V?$allocator@D@2@@std@@VDEVICE@@@std@@V?$allocator@U?$pair@$$CBV?$basic_string@DU?$char_traits@D@std@@V?$allocator@D@2@@std@@VDEVICE@@@std@@@2@@std@@QAE@ABV?$allocator@U?$pair@$$CBV?$basic_string@DU?$char_traits@D@std@@V?$allocator@D@2@@std@@VDEVICE@@@std@@@1@@Z 100b8d30 f i dll_globals.obj
 0002:00030da0       ??$?0ABV?$allocator@U?$pair@$$CBV?$basic_string@DU?$char_traits@D@std@@V?$allocator@D@2@@std@@VDEVICE@@@std@@@std@@@?$_Wrap_alloc@V?$allocator@U?$_List_node@U?$pair@$$CBV?$basic_string@DU?$char_traits@D@std@@V?$allocator@D@2@@std@@VDEVICE@@@std@@PAX@std@@@std@@@std@@QAE@ABV?$allocator@U?$pair@$$CBV?$basic_string@DU?$char_traits@D@std@@V?$allocator@D@2@@std@@VDEVICE@@@std@@@1@@Z 100b8da0 f i dll_globals.obj
 0002:00030e10       ??$?0ABV?$allocator@U?$pair@$$CBV?$basic_string@DU?$char_traits@D@std@@V?$allocator@D@2@@std@@VDEVICE@@@std@@@std@@@?$_Wrap_alloc@V?$allocator@V?$_List_unchecked_iterator@V?$_List_val@U?$_List_simple_types@U?$pair@$$CBV?$basic_string@DU?$char_traits@D@std@@V?$allocator@D@2@@std@@VDEVICE@@@std@@@std@@@std@@@std@@@std@@@std@@QAE@ABV?$allocator@U?$pair@$$CBV?$basic_string@DU?$char_traits@D@std@@V?$allocator@D@2@@std@@VDEVICE@@@std@@@1@@Z 100b8e10 f i dll_globals.obj
 0002:00030e80       ??$?0U?$_List_node@U?$pair@$$CBV?$basic_string@DU?$char_traits@D@std@@V?$allocator@D@2@@std@@VDEVICE@@@std@@PAX@std@@@?$allocator@U_Container_proxy@std@@@std@@QAE@ABV?$allocator@U?$_List_node@U?$pair@$$CBV?$basic_string@DU?$char_traits@D@std@@V?$allocator@D@2@@std@@VDEVICE@@@std@@PAX@std@@@1@@Z 100b8e80 f i dll_globals.obj
 0002:00030ec0       ??$?0U?$pair@$$CBV?$basic_string@DU?$char_traits@D@std@@V?$allocator@D@2@@std@@VDEVICE@@@std@@@?$allocator@U?$_List_node@U?$pair@$$CBV?$basic_string@DU?$char_traits@D@std@@V?$allocator@D@2@@std@@VDEVICE@@@std@@PAX@std@@@std@@QAE@ABV?$allocator@U?$pair@$$CBV?$basic_string@DU?$char_traits@D@std@@V?$allocator@D@2@@std@@VDEVICE@@@std@@@1@@Z 100b8ec0 f i dll_globals.obj
 0002:00030f00       ??$?0U?$pair@$$CBV?$basic_string@DU?$char_traits@D@std@@V?$allocator@D@2@@std@@VDEVICE@@@std@@@?$allocator@V?$_List_unchecked_iterator@V?$_List_val@U?$_List_simple_types@U?$pair@$$CBV?$basic_string@DU?$char_traits@D@std@@V?$allocator@D@2@@std@@VDEVICE@@@std@@@std@@@std@@@std@@@std@@QAE@ABV?$allocator@U?$pair@$$CBV?$basic_string@DU?$char_traits@D@std@@V?$allocator@D@2@@std@@VDEVICE@@@std@@@1@@Z 100b8f00 f i dll_globals.obj
 0002:00030f40       ??$?0V?$_List_unchecked_iterator@V?$_List_val@U?$_List_simple_types@U?$pair@$$CBV?$basic_string@DU?$char_traits@D@std@@V?$allocator@D@2@@std@@VDEVICE@@@std@@@std@@@std@@@std@@@?$allocator@U_Container_proxy@std@@@std@@QAE@ABV?$allocator@V?$_List_unchecked_iterator@V?$_List_val@U?$_List_simple_types@U?$pair@$$CBV?$basic_string@DU?$char_traits@D@std@@V?$allocator@D@2@@std@@VDEVICE@@@std@@@std@@@std@@@std@@@1@@Z 100b8f40 f i dll_globals.obj
 0002:00030f80       ??$_Fn@U?$_Wrap_alloc@V?$allocator@U_Container_proxy@std@@@std@@@std@@U_Container_proxy@2@@_Alloc_destroy@std@@SAXHAAU?$_Wrap_alloc@V?$allocator@U_Container_proxy@std@@@std@@@1@PAU_Container_proxy@1@@Z 100b8f80 f i dll_globals.obj
 0002:00030fd0       ??$_Fn@U?$_Wrap_alloc@V?$allocator@U_Container_proxy@std@@@std@@@std@@U_Container_proxy@2@U32@@_Alloc_construct@std@@SAXHAAU?$_Wrap_alloc@V?$allocator@U_Container_proxy@std@@@std@@@1@PAU_Container_proxy@1@$$QAU31@@Z 100b8fd0 f i dll_globals.obj
 0002:00031030       ??$construct@U_Container_proxy@std@@U12@@?$_Wrap_alloc@U?$_Wrap_alloc@V?$allocator@U_Container_proxy@std@@@std@@@std@@@std@@QAEXPAU_Container_proxy@1@$$QAU21@@Z 100b9030 f i dll_globals.obj
 0002:000310a0       ??$construct@U_Container_proxy@std@@U12@@?$allocator_traits@U?$_Wrap_alloc@V?$allocator@U_Container_proxy@std@@@std@@@std@@@std@@SAXAAU?$_Wrap_alloc@V?$allocator@U_Container_proxy@std@@@std@@@1@PAU_Container_proxy@1@$$QAU31@@Z 100b90a0 f i dll_globals.obj
 0002:00031110       ??$destroy@U_Container_proxy@std@@@?$_Wrap_alloc@U?$_Wrap_alloc@V?$allocator@U_Container_proxy@std@@@std@@@std@@@std@@QAEXPAU_Container_proxy@1@@Z 100b9110 f i dll_globals.obj
 0002:00031170       ??$destroy@U_Container_proxy@std@@@?$allocator_traits@U?$_Wrap_alloc@V?$allocator@U_Container_proxy@std@@@std@@@std@@@std@@SAXAAU?$_Wrap_alloc@V?$allocator@U_Container_proxy@std@@@std@@@1@PAU_Container_proxy@1@@Z 100b9170 f i dll_globals.obj
 0002:000311d0       ??$forward@AAU?$_Wrap_alloc@U?$_Wrap_alloc@V?$allocator@V?$_List_unchecked_iterator@V?$_List_val@U?$_List_simple_types@U?$pair@$$CBV?$basic_string@DU?$char_traits@D@std@@V?$allocator@D@2@@std@@VDEVICE@@@std@@@std@@@std@@@std@@@std@@@std@@@std@@@std@@YAAAU?$_Wrap_alloc@U?$_Wrap_alloc@V?$allocator@V?$_List_unchecked_iterator@V?$_List_val@U?$_List_simple_types@U?$pair@$$CBV?$basic_string@DU?$char_traits@D@std@@V?$allocator@D@2@@std@@VDEVICE@@@std@@@std@@@std@@@std@@@std@@@std@@@0@AAU10@@Z 100b91d0 f i dll_globals.obj
 0002:00031210       ??$forward@AAU?$_Wrap_alloc@V?$allocator@U?$_List_node@U?$pair@$$CBV?$basic_string@DU?$char_traits@D@std@@V?$allocator@D@2@@std@@VDEVICE@@@std@@PAX@std@@@std@@@std@@@std@@YAAAU?$_Wrap_alloc@V?$allocator@U?$_List_node@U?$pair@$$CBV?$basic_string@DU?$char_traits@D@std@@V?$allocator@D@2@@std@@VDEVICE@@@std@@PAX@std@@@std@@@0@AAU10@@Z 100b9210 f i dll_globals.obj
 0002:00031250       ??$forward@AAU?$equal_to@V?$basic_string@DU?$char_traits@D@std@@V?$allocator@D@2@@std@@@std@@@std@@YAAAU?$equal_to@V?$basic_string@DU?$char_traits@D@std@@V?$allocator@D@2@@std@@@0@AAU10@@Z 100b9250 f i dll_globals.obj
 0002:00031290       ??$forward@AAU?$hash@V?$basic_string@DU?$char_traits@D@std@@V?$allocator@D@2@@std@@@std@@@std@@YAAAU?$hash@V?$basic_string@DU?$char_traits@D@std@@V?$allocator@D@2@@std@@@0@AAU10@@Z 100b9290 f i dll_globals.obj
 0002:000312d0       ??$forward@ABU?$_Wrap_alloc@V?$allocator@V?$_List_unchecked_iterator@V?$_List_val@U?$_List_simple_types@U?$pair@$$CBV?$basic_string@DU?$char_traits@D@std@@V?$allocator@D@2@@std@@VDEVICE@@@std@@@std@@@std@@@std@@@std@@@std@@@std@@YAABU?$_Wrap_alloc@V?$allocator@V?$_List_unchecked_iterator@V?$_List_val@U?$_List_simple_types@U?$pair@$$CBV?$basic_string@DU?$char_traits@D@std@@V?$allocator@D@2@@std@@VDEVICE@@@std@@@std@@@std@@@std@@@std@@@0@ABU10@@Z 100b92d0 f i dll_globals.obj
 0002:00031310       ??$forward@ABV?$allocator@U?$pair@$$CBV?$basic_string@DU?$char_traits@D@std@@V?$allocator@D@2@@std@@VDEVICE@@@std@@@std@@@std@@YAABV?$allocator@U?$pair@$$CBV?$basic_string@DU?$char_traits@D@std@@V?$allocator@D@2@@std@@VDEVICE@@@std@@@0@ABV10@@Z 100b9310 f i dll_globals.obj
 0002:00031350       ??$forward@M@std@@YA$$QAMAAM@Z 100b9350 f i dll_globals.obj
 0002:00031390       ??$forward@U_One_then_variadic_args_t@std@@@std@@YA$$QAU_One_then_variadic_args_t@0@AAU10@@Z 100b9390 f i dll_globals.obj
 0002:000313d0       ??0?$_Hash@V?$_Umap_traits@V?$basic_string@DU?$char_traits@D@std@@V?$allocator@D@2@@std@@VDEVICE@@V?$_Uhash_compare@V?$basic_string@DU?$char_traits@D@std@@V?$allocator@D@2@@std@@U?$hash@V?$basic_string@DU?$char_traits@D@std@@V?$allocator@D@2@@std@@@2@U?$equal_to@V?$basic_string@DU?$char_traits@D@std@@V?$allocator@D@2@@std@@@2@@2@V?$allocator@U?$pair@$$CBV?$basic_string@DU?$char_traits@D@std@@V?$allocator@D@2@@std@@VDEVICE@@@std@@@2@$0A@@std@@@std@@QAE@ABV?$_Uhash_compare@V?$basic_string@DU?$char_traits@D@std@@V?$allocator@D@2@@std@@U?$hash@V?$basic_string@DU?$char_traits@D@std@@V?$allocator@D@2@@std@@@2@U?$equal_to@V?$basic_string@DU?$char_traits@D@std@@V?$allocator@D@2@@std@@@2@@1@ABV?$allocator@U?$pair@$$CBV?$basic_string@DU?$char_traits@D@std@@V?$allocator@D@2@@std@@VDEVICE@@@std@@@1@@Z 100b93d0 f i dll_globals.obj
 0002:000314e0       ??0?$_List_val@U?$_List_simple_types@U?$pair@$$CBV?$basic_string@DU?$char_traits@D@std@@V?$allocator@D@2@@std@@VDEVICE@@@std@@@std@@@std@@QAE@XZ 100b94e0 f i dll_globals.obj
 0002:00031550       ??0?$_Uhash_compare@V?$basic_string@DU?$char_traits@D@std@@V?$allocator@D@2@@std@@U?$hash@V?$basic_string@DU?$char_traits@D@std@@V?$allocator@D@2@@std@@@2@U?$equal_to@V?$basic_string@DU?$char_traits@D@std@@V?$allocator@D@2@@std@@@2@@std@@QAE@U?$hash@V?$basic_string@DU?$char_traits@D@std@@V?$allocator@D@2@@std@@@1@U?$equal_to@V?$basic_string@DU?$char_traits@D@std@@V?$allocator@D@2@@std@@@1@@Z 100b9550 f i dll_globals.obj
 0002:000315e0       ??0?$_Umap_traits@V?$basic_string@DU?$char_traits@D@std@@V?$allocator@D@2@@std@@VDEVICE@@V?$_Uhash_compare@V?$basic_string@DU?$char_traits@D@std@@V?$allocator@D@2@@std@@U?$hash@V?$basic_string@DU?$char_traits@D@std@@V?$allocator@D@2@@std@@@2@U?$equal_to@V?$basic_string@DU?$char_traits@D@std@@V?$allocator@D@2@@std@@@2@@2@V?$allocator@U?$pair@$$CBV?$basic_string@DU?$char_traits@D@std@@V?$allocator@D@2@@std@@VDEVICE@@@std@@@2@$0A@@std@@QAE@ABV?$_Uhash_compare@V?$basic_string@DU?$char_traits@D@std@@V?$allocator@D@2@@std@@U?$hash@V?$basic_string@DU?$char_traits@D@std@@V?$allocator@D@2@@std@@@2@U?$equal_to@V?$basic_string@DU?$char_traits@D@std@@V?$allocator@D@2@@std@@@2@@1@@Z 100b95e0 f i dll_globals.obj
 0002:00031630       ??0?$_Vector_val@U?$_Simple_types@V?$_List_unchecked_iterator@V?$_List_val@U?$_List_simple_types@U?$pair@$$CBV?$basic_string@DU?$char_traits@D@std@@V?$allocator@D@2@@std@@VDEVICE@@@std@@@std@@@std@@@std@@@std@@@std@@QAE@XZ 100b9630 f i dll_globals.obj
 0002:000316b0       ??0?$_Wrap_alloc@V?$allocator@V?$_List_unchecked_iterator@V?$_List_val@U?$_List_simple_types@U?$pair@$$CBV?$basic_string@DU?$char_traits@D@std@@V?$allocator@D@2@@std@@VDEVICE@@@std@@@std@@@std@@@std@@@std@@@std@@QAE@ABU01@@Z 100b96b0 f i dll_globals.obj
 0002:00031710       ??0?$allocator@U?$pair@$$CBV?$basic_string@DU?$char_traits@D@std@@V?$allocator@D@2@@std@@VDEVICE@@@std@@@std@@QAE@XZ 100b9710 f i dll_globals.obj
 0002:00031750       ??0?$allocator@V?$_List_unchecked_iterator@V?$_List_val@U?$_List_simple_types@U?$pair@$$CBV?$basic_string@DU?$char_traits@D@std@@V?$allocator@D@2@@std@@VDEVICE@@@std@@@std@@@std@@@std@@@std@@QAE@ABV01@@Z 100b9750 f i dll_globals.obj
 0002:00031790       ??0?$list@U?$pair@$$CBV?$basic_string@DU?$char_traits@D@std@@V?$allocator@D@2@@std@@VDEVICE@@@std@@V?$allocator@U?$pair@$$CBV?$basic_string@DU?$char_traits@D@std@@V?$allocator@D@2@@std@@VDEVICE@@@std@@@2@@std@@QAE@ABV?$allocator@U?$pair@$$CBV?$basic_string@DU?$char_traits@D@std@@V?$allocator@D@2@@std@@VDEVICE@@@std@@@1@@Z 100b9790 f i dll_globals.obj
 0002:000317f0       ??0?$unordered_map@V?$basic_string@DU?$char_traits@D@std@@V?$allocator@D@2@@std@@VDEVICE@@U?$hash@V?$basic_string@DU?$char_traits@D@std@@V?$allocator@D@2@@std@@@2@U?$equal_to@V?$basic_string@DU?$char_traits@D@std@@V?$allocator@D@2@@std@@@2@V?$allocator@U?$pair@$$CBV?$basic_string@DU?$char_traits@D@std@@V?$allocator@D@2@@std@@VDEVICE@@@std@@@2@@std@@QAE@XZ 100b97f0 f i dll_globals.obj
 0002:00031880       ??0?$vector@V?$_List_unchecked_iterator@V?$_List_val@U?$_List_simple_types@U?$pair@$$CBV?$basic_string@DU?$char_traits@D@std@@V?$allocator@D@2@@std@@VDEVICE@@@std@@@std@@@std@@@std@@U?$_Wrap_alloc@V?$allocator@V?$_List_unchecked_iterator@V?$_List_val@U?$_List_simple_types@U?$pair@$$CBV?$basic_string@DU?$char_traits@D@std@@V?$allocator@D@2@@std@@VDEVICE@@@std@@@std@@@std@@@std@@@std@@@2@@std@@QAE@ABU?$_Wrap_alloc@V?$allocator@V?$_List_unchecked_iterator@V?$_List_val@U?$_List_simple_types@U?$pair@$$CBV?$basic_string@DU?$char_traits@D@std@@V?$allocator@D@2@@std@@VDEVICE@@@std@@@std@@@std@@@std@@@std@@@1@@Z 100b9880 f i dll_globals.obj
 0002:00031910       ??1?$_Compressed_pair@U?$_Wrap_alloc@U?$_Wrap_alloc@V?$allocator@V?$_List_unchecked_iterator@V?$_List_val@U?$_List_simple_types@U?$pair@$$CBV?$basic_string@DU?$char_traits@D@std@@V?$allocator@D@2@@std@@VDEVICE@@@std@@@std@@@std@@@std@@@std@@@std@@@std@@V?$_Vector_val@U?$_Simple_types@V?$_List_unchecked_iterator@V?$_List_val@U?$_List_simple_types@U?$pair@$$CBV?$basic_string@DU?$char_traits@D@std@@V?$allocator@D@2@@std@@VDEVICE@@@std@@@std@@@std@@@std@@@std@@@2@$00@std@@QAE@XZ 100b9910 f i dll_globals.obj
 0002:00031960       ??1?$_Compressed_pair@U?$_Wrap_alloc@V?$allocator@U?$_List_node@U?$pair@$$CBV?$basic_string@DU?$char_traits@D@std@@V?$allocator@D@2@@std@@VDEVICE@@@std@@PAX@std@@@std@@@std@@V?$_List_val@U?$_List_simple_types@U?$pair@$$CBV?$basic_string@DU?$char_traits@D@std@@V?$allocator@D@2@@std@@VDEVICE@@@std@@@std@@@2@$00@std@@QAE@XZ 100b9960 f i dll_globals.obj
 0002:000319b0       ??1?$_Hash@V?$_Umap_traits@V?$basic_string@DU?$char_traits@D@std@@V?$allocator@D@2@@std@@VDEVICE@@V?$_Uhash_compare@V?$basic_string@DU?$char_traits@D@std@@V?$allocator@D@2@@std@@U?$hash@V?$basic_string@DU?$char_traits@D@std@@V?$allocator@D@2@@std@@@2@U?$equal_to@V?$basic_string@DU?$char_traits@D@std@@V?$allocator@D@2@@std@@@2@@2@V?$allocator@U?$pair@$$CBV?$basic_string@DU?$char_traits@D@std@@V?$allocator@D@2@@std@@VDEVICE@@@std@@@2@$0A@@std@@@std@@QAE@XZ 100b99b0 f i dll_globals.obj
 0002:00031a10       ??1?$_List_alloc@U?$_List_base_types@U?$pair@$$CBV?$basic_string@DU?$char_traits@D@std@@V?$allocator@D@2@@std@@VDEVICE@@@std@@V?$allocator@U?$pair@$$CBV?$basic_string@DU?$char_traits@D@std@@V?$allocator@D@2@@std@@VDEVICE@@@std@@@2@@std@@@std@@QAE@XZ 100b9a10 f i dll_globals.obj
 0002:00031ac0       ??1?$_List_buy@U?$pair@$$CBV?$basic_string@DU?$char_traits@D@std@@V?$allocator@D@2@@std@@VDEVICE@@@std@@V?$allocator@U?$pair@$$CBV?$basic_string@DU?$char_traits@D@std@@V?$allocator@D@2@@std@@VDEVICE@@@std@@@2@@std@@QAE@XZ 100b9ac0 f i dll_globals.obj
 0002:00031b10       ??1?$_List_val@U?$_List_simple_types@U?$pair@$$CBV?$basic_string@DU?$char_traits@D@std@@V?$allocator@D@2@@std@@VDEVICE@@@std@@@std@@@std@@QAE@XZ 100b9b10 f i dll_globals.obj
 0002:00031b60       ??1?$_Vector_alloc@U?$_Vec_base_types@V?$_List_unchecked_iterator@V?$_List_val@U?$_List_simple_types@U?$pair@$$CBV?$basic_string@DU?$char_traits@D@std@@V?$allocator@D@2@@std@@VDEVICE@@@std@@@std@@@std@@@std@@U?$_Wrap_alloc@V?$allocator@V?$_List_unchecked_iterator@V?$_List_val@U?$_List_simple_types@U?$pair@$$CBV?$basic_string@DU?$char_traits@D@std@@V?$allocator@D@2@@std@@VDEVICE@@@std@@@std@@@std@@@std@@@std@@@2@@std@@@std@@QAE@XZ 100b9b60 f i dll_globals.obj
 0002:00031bf0       ??1?$_Vector_val@U?$_Simple_types@V?$_List_unchecked_iterator@V?$_List_val@U?$_List_simple_types@U?$pair@$$CBV?$basic_string@DU?$char_traits@D@std@@V?$allocator@D@2@@std@@VDEVICE@@@std@@@std@@@std@@@std@@@std@@@std@@QAE@XZ 100b9bf0 f i dll_globals.obj
 0002:00031c40       ??1?$list@U?$pair@$$CBV?$basic_string@DU?$char_traits@D@std@@V?$allocator@D@2@@std@@VDEVICE@@@std@@V?$allocator@U?$pair@$$CBV?$basic_string@DU?$char_traits@D@std@@V?$allocator@D@2@@std@@VDEVICE@@@std@@@2@@std@@QAE@XZ 100b9c40 f i dll_globals.obj
 0002:00031cd0       ??1?$unordered_map@V?$basic_string@DU?$char_traits@D@std@@V?$allocator@D@2@@std@@VDEVICE@@U?$hash@V?$basic_string@DU?$char_traits@D@std@@V?$allocator@D@2@@std@@@2@U?$equal_to@V?$basic_string@DU?$char_traits@D@std@@V?$allocator@D@2@@std@@@2@V?$allocator@U?$pair@$$CBV?$basic_string@DU?$char_traits@D@std@@V?$allocator@D@2@@std@@VDEVICE@@@std@@@2@@std@@QAE@XZ 100b9cd0 f i dll_globals.obj
 0002:00031d20       ??1?$vector@V?$_List_unchecked_iterator@V?$_List_val@U?$_List_simple_types@U?$pair@$$CBV?$basic_string@DU?$char_traits@D@std@@V?$allocator@D@2@@std@@VDEVICE@@@std@@@std@@@std@@@std@@U?$_Wrap_alloc@V?$allocator@V?$_List_unchecked_iterator@V?$_List_val@U?$_List_simple_types@U?$pair@$$CBV?$basic_string@DU?$char_traits@D@std@@V?$allocator@D@2@@std@@VDEVICE@@@std@@@std@@@std@@@std@@@std@@@2@@std@@QAE@XZ 100b9d20 f i dll_globals.obj
 0002:00031db0       ?_Alloc_proxy@?$_List_alloc@U?$_List_base_types@U?$pair@$$CBV?$basic_string@DU?$char_traits@D@std@@V?$allocator@D@2@@std@@VDEVICE@@@std@@V?$allocator@U?$pair@$$CBV?$basic_string@DU?$char_traits@D@std@@V?$allocator@D@2@@std@@VDEVICE@@@std@@@2@@std@@@std@@QAEXXZ 100b9db0 f i dll_globals.obj
 0002:00031eb0       ?_Alloc_proxy@?$_Vector_alloc@U?$_Vec_base_types@V?$_List_unchecked_iterator@V?$_List_val@U?$_List_simple_types@U?$pair@$$CBV?$basic_string@DU?$char_traits@D@std@@V?$allocator@D@2@@std@@VDEVICE@@@std@@@std@@@std@@@std@@U?$_Wrap_alloc@V?$allocator@V?$_List_unchecked_iterator@V?$_List_val@U?$_List_simple_types@U?$pair@$$CBV?$basic_string@DU?$char_traits@D@std@@V?$allocator@D@2@@std@@VDEVICE@@@std@@@std@@@std@@@std@@@std@@@2@@std@@@std@@QAEXXZ 100b9eb0 f i dll_globals.obj
 0002:00031fb0       ?_Buyheadnode@?$_List_alloc@U?$_List_base_types@U?$pair@$$CBV?$basic_string@DU?$char_traits@D@std@@V?$allocator@D@2@@std@@VDEVICE@@@std@@V?$allocator@U?$pair@$$CBV?$basic_string@DU?$char_traits@D@std@@V?$allocator@D@2@@std@@VDEVICE@@@std@@@2@@std@@@std@@QAEPAU?$_List_node@U?$pair@$$CBV?$basic_string@DU?$char_traits@D@std@@V?$allocator@D@2@@std@@VDEVICE@@@std@@PAX@2@XZ 100b9fb0 f i dll_globals.obj
 0002:000320a0       ?_Free_proxy@?$_List_alloc@U?$_List_base_types@U?$pair@$$CBV?$basic_string@DU?$char_traits@D@std@@V?$allocator@D@2@@std@@VDEVICE@@@std@@V?$allocator@U?$pair@$$CBV?$basic_string@DU?$char_traits@D@std@@V?$allocator@D@2@@std@@VDEVICE@@@std@@@2@@std@@@std@@QAEXXZ 100ba0a0 f i dll_globals.obj
 0002:00032190       ?_Free_proxy@?$_Vector_alloc@U?$_Vec_base_types@V?$_List_unchecked_iterator@V?$_List_val@U?$_List_simple_types@U?$pair@$$CBV?$basic_string@DU?$char_traits@D@std@@V?$allocator@D@2@@std@@VDEVICE@@@std@@@std@@@std@@@std@@U?$_Wrap_alloc@V?$allocator@V?$_List_unchecked_iterator@V?$_List_val@U?$_List_simple_types@U?$pair@$$CBV?$basic_string@DU?$char_traits@D@std@@V?$allocator@D@2@@std@@VDEVICE@@@std@@@std@@@std@@@std@@@std@@@2@@std@@@std@@QAEXXZ 100ba190 f i dll_globals.obj
 0002:00032280       ?_Freeheadnode@?$_List_alloc@U?$_List_base_types@U?$pair@$$CBV?$basic_string@DU?$char_traits@D@std@@V?$allocator@D@2@@std@@VDEVICE@@@std@@V?$allocator@U?$pair@$$CBV?$basic_string@DU?$char_traits@D@std@@V?$allocator@D@2@@std@@VDEVICE@@@std@@@2@@std@@@std@@QAEXPAU?$_List_node@U?$pair@$$CBV?$basic_string@DU?$char_traits@D@std@@V?$allocator@D@2@@std@@VDEVICE@@@std@@PAX@2@@Z 100ba280 f i dll_globals.obj
 0002:00032340       ?_Get_max_bucket_size@?$_Uhash_compare@V?$basic_string@DU?$char_traits@D@std@@V?$allocator@D@2@@std@@U?$hash@V?$basic_string@DU?$char_traits@D@std@@V?$allocator@D@2@@std@@@2@U?$equal_to@V?$basic_string@DU?$char_traits@D@std@@V?$allocator@D@2@@std@@@2@@std@@QAEAAMXZ 100ba340 f i dll_globals.obj
 0002:000323a0       ?_Get_second@?$_Compressed_pair@U?$equal_to@V?$basic_string@DU?$char_traits@D@std@@V?$allocator@D@2@@std@@@std@@M$00@std@@QAEAAMXZ 100ba3a0 f i dll_globals.obj
 0002:000323e0       ?_Get_second@?$_Compressed_pair@U?$hash@V?$basic_string@DU?$char_traits@D@std@@V?$allocator@D@2@@std@@@std@@V?$_Compressed_pair@U?$equal_to@V?$basic_string@DU?$char_traits@D@std@@V?$allocator@D@2@@std@@@std@@M$00@2@$00@std@@QAEAAV?$_Compressed_pair@U?$equal_to@V?$basic_string@DU?$char_traits@D@std@@V?$allocator@D@2@@std@@@std@@M$00@2@XZ 100ba3e0 f i dll_globals.obj
 0002:00032420       ?_Max_bucket_size@?$_Hash@V?$_Umap_traits@V?$basic_string@DU?$char_traits@D@std@@V?$allocator@D@2@@std@@VDEVICE@@V?$_Uhash_compare@V?$basic_string@DU?$char_traits@D@std@@V?$allocator@D@2@@std@@U?$hash@V?$basic_string@DU?$char_traits@D@std@@V?$allocator@D@2@@std@@@2@U?$equal_to@V?$basic_string@DU?$char_traits@D@std@@V?$allocator@D@2@@std@@@2@@2@V?$allocator@U?$pair@$$CBV?$basic_string@DU?$char_traits@D@std@@V?$allocator@D@2@@std@@VDEVICE@@@std@@@2@$0A@@std@@@std@@IAEAAMXZ 100ba420 f i dll_globals.obj
 0002:00032470       ?_Myproxy@?$_List_alloc@U?$_List_base_types@U?$pair@$$CBV?$basic_string@DU?$char_traits@D@std@@V?$allocator@D@2@@std@@VDEVICE@@@std@@V?$allocator@U?$pair@$$CBV?$basic_string@DU?$char_traits@D@std@@V?$allocator@D@2@@std@@VDEVICE@@@std@@@2@@std@@@std@@QAEAAPAU_Container_proxy@2@XZ 100ba470 f i dll_globals.obj
 0002:000324c0       ?_Myproxy@?$_Vector_alloc@U?$_Vec_base_types@V?$_List_unchecked_iterator@V?$_List_val@U?$_List_simple_types@U?$pair@$$CBV?$basic_string@DU?$char_traits@D@std@@V?$allocator@D@2@@std@@VDEVICE@@@std@@@std@@@std@@@std@@U?$_Wrap_alloc@V?$allocator@V?$_List_unchecked_iterator@V?$_List_val@U?$_List_simple_types@U?$pair@$$CBV?$basic_string@DU?$char_traits@D@std@@V?$allocator@D@2@@std@@VDEVICE@@@std@@@std@@@std@@@std@@@std@@@2@@std@@@std@@QAEAAPAU_Container_proxy@2@XZ 100ba4c0 f i dll_globals.obj
 0002:00032510       ?_Orphan_all@?$_List_alloc@U?$_List_base_types@U?$pair@$$CBV?$basic_string@DU?$char_traits@D@std@@V?$allocator@D@2@@std@@VDEVICE@@@std@@V?$allocator@U?$pair@$$CBV?$basic_string@DU?$char_traits@D@std@@V?$allocator@D@2@@std@@VDEVICE@@@std@@@2@@std@@@std@@QAEXXZ 100ba510 f i dll_globals.obj
 0002:00032570       ?_Tidy@?$list@U?$pair@$$CBV?$basic_string@DU?$char_traits@D@std@@V?$allocator@D@2@@std@@VDEVICE@@@std@@V?$allocator@U?$pair@$$CBV?$basic_string@DU?$char_traits@D@std@@V?$allocator@D@2@@std@@VDEVICE@@@std@@@2@@std@@QAEXXZ 100ba570 f i dll_globals.obj
 0002:000325c0       ?_Tidy@?$vector@V?$_List_unchecked_iterator@V?$_List_val@U?$_List_simple_types@U?$pair@$$CBV?$basic_string@DU?$char_traits@D@std@@V?$allocator@D@2@@std@@VDEVICE@@@std@@@std@@@std@@@std@@U?$_Wrap_alloc@V?$allocator@V?$_List_unchecked_iterator@V?$_List_val@U?$_List_simple_types@U?$pair@$$CBV?$basic_string@DU?$char_traits@D@std@@V?$allocator@D@2@@std@@VDEVICE@@@std@@@std@@@std@@@std@@@std@@@2@@std@@IAEXXZ 100ba5c0 f i dll_globals.obj
 0002:000326c0       ?allocate@?$_Wrap_alloc@U?$_Wrap_alloc@V?$allocator@U_Container_proxy@std@@@std@@@std@@@std@@QAEPAU_Container_proxy@2@I@Z 100ba6c0 f i dll_globals.obj
 0002:00032720       ?clear@?$list@U?$pair@$$CBV?$basic_string@DU?$char_traits@D@std@@V?$allocator@D@2@@std@@VDEVICE@@@std@@V?$allocator@U?$pair@$$CBV?$basic_string@DU?$char_traits@D@std@@V?$allocator@D@2@@std@@VDEVICE@@@std@@@2@@std@@QAEXXZ 100ba720 f i dll_globals.obj
 0002:00032870       ?deallocate@?$_Wrap_alloc@U?$_Wrap_alloc@V?$allocator@U_Container_proxy@std@@@std@@@std@@@std@@QAEXPAU_Container_proxy@2@I@Z 100ba870 f i dll_globals.obj
 0002:000328d0       ??$?0AAU?$_Wrap_alloc@V?$allocator@N@std@@@std@@@?$_Wrap_alloc@V?$allocator@PAN@std@@@std@@QAE@AAU?$_Wrap_alloc@V?$allocator@N@std@@@1@@Z 100ba8d0 f i ev.obj
 0002:00032940       ??$?0AAU?$_Wrap_alloc@V?$allocator@N@std@@@std@@@?$_Wrap_alloc@V?$allocator@U_Container_proxy@std@@@std@@@std@@QAE@AAU?$_Wrap_alloc@V?$allocator@N@std@@@1@@Z 100ba940 f i ev.obj
 0002:000329b0       ??$?0N@?$allocator@PAN@std@@QAE@ABV?$allocator@N@1@@Z 100ba9b0 f i ev.obj
 0002:000329f0       ??$?0N@?$allocator@U_Container_proxy@std@@@std@@QAE@ABV?$allocator@N@1@@Z 100ba9f0 f i ev.obj
 0002:00032a30       ??$?0U?$_Wrap_alloc@V?$allocator@N@std@@@std@@$$V@?$_Compressed_pair@U?$_Wrap_alloc@V?$allocator@N@std@@@std@@V?$_Deque_val@U?$_Deque_simple_types@N@std@@@2@$00@std@@QAE@U_One_then_variadic_args_t@1@$$QAU?$_Wrap_alloc@V?$allocator@N@std@@@1@@Z 100baa30 f i ev.obj
 0002:00032aa0       ??$?0U?$_Wrap_alloc@V?$allocator@N@std@@@std@@@?$_Deque_alloc@U?$_Deque_base_types@NV?$allocator@N@std@@@std@@@std@@QAE@$$QAU?$_Wrap_alloc@V?$allocator@N@std@@@1@@Z 100baaa0 f i ev.obj
 0002:00032b60       ??$?0V?$allocator@N@std@@@?$_Wrap_alloc@V?$allocator@N@std@@@std@@QAE@$$QAV?$allocator@N@1@@Z 100bab60 f i ev.obj
 0002:00032bd0       ??$?8NN@std@@YA_NABV?$allocator@N@0@0@Z 100babd0 f i ev.obj
 0002:00032c00       ??$?8V?$allocator@N@std@@V01@@std@@YA_NABU?$_Wrap_alloc@V?$allocator@N@std@@@0@0@Z 100bac00 f i ev.obj
 0002:00032c60       ??$?9V?$allocator@N@std@@V01@@std@@YA_NABU?$_Wrap_alloc@V?$allocator@N@std@@@0@0@Z 100bac60 f i ev.obj
 0002:00032ce0       ??$_Addressof@PAN@std@@YAPAPANAAPANU?$integral_constant@_N$0A@@0@@Z 100bace0 f i ev.obj
 0002:00032d20       ??$_Construct@V?$_Deque_const_iterator@V?$_Deque_val@U?$_Deque_simple_types@N@std@@@std@@@std@@@?$deque@NV?$allocator@N@std@@@std@@QAEXV?$_Deque_const_iterator@V?$_Deque_val@U?$_Deque_simple_types@N@std@@@std@@@1@0@Z 100bad20 f i ev.obj
 0002:00032e60       ??$_Copy_memmove@PAPANPAPAN@std@@YAPAPANPAPAN00@Z 100bae60 f i ev.obj
 0002:00032ef0       ??$_Copy_no_deprecate1@V?$_Deque_unchecked_const_iterator@V?$_Deque_val@U?$_Deque_simple_types@N@std@@@std@@@std@@V?$_Deque_iterator@V?$_Deque_val@U?$_Deque_simple_types@N@std@@@std@@@2@@std@@YA?AV?$_Deque_iterator@V?$_Deque_val@U?$_Deque_simple_types@N@std@@@std@@@0@V?$_Deque_unchecked_const_iterator@V?$_Deque_val@U?$_Deque_simple_types@N@std@@@std@@@0@0V10@Urandom_access_iterator_tag@0@2@Z 100baef0 f i ev.obj
 0002:00033070       ??$_Copy_no_deprecate@V?$_Deque_const_iterator@V?$_Deque_val@U?$_Deque_simple_types@N@std@@@std@@@std@@V?$_Deque_iterator@V?$_Deque_val@U?$_Deque_simple_types@N@std@@@std@@@2@@std@@YA?AV?$_Deque_iterator@V?$_Deque_val@U?$_Deque_simple_types@N@std@@@std@@@0@V?$_Deque_const_iterator@V?$_Deque_val@U?$_Deque_simple_types@N@std@@@std@@@0@0V10@@Z 100bb070 f i ev.obj
 0002:000332e0       ??$_Copy_unchecked1@V?$_Deque_unchecked_const_iterator@V?$_Deque_val@U?$_Deque_simple_types@N@std@@@std@@@std@@V?$_Deque_unchecked_iterator@V?$_Deque_val@U?$_Deque_simple_types@N@std@@@std@@@2@@std@@YA?AV?$_Deque_unchecked_iterator@V?$_Deque_val@U?$_Deque_simple_types@N@std@@@std@@@0@V?$_Deque_unchecked_const_iterator@V?$_Deque_val@U?$_Deque_simple_types@N@std@@@std@@@0@0V10@U_General_ptr_iterator_tag@0@@Z 100bb2e0 f i ev.obj
 0002:00033390       ??$_Copy_unchecked@V?$_Deque_unchecked_const_iterator@V?$_Deque_val@U?$_Deque_simple_types@N@std@@@std@@@std@@V?$_Deque_unchecked_iterator@V?$_Deque_val@U?$_Deque_simple_types@N@std@@@std@@@2@@std@@YA?AV?$_Deque_unchecked_iterator@V?$_Deque_val@U?$_Deque_simple_types@N@std@@@std@@@0@V?$_Deque_unchecked_const_iterator@V?$_Deque_val@U?$_Deque_simple_types@N@std@@@std@@@0@0V10@@Z 100bb390 f i ev.obj
 0002:00033430       ??$_Debug_pointer@V?$_Deque_const_iterator@V?$_Deque_val@U?$_Deque_simple_types@N@std@@@std@@@std@@@std@@YAXAAV?$_Deque_const_iterator@V?$_Deque_val@U?$_Deque_simple_types@N@std@@@std@@@0@PB_WI@Z 100bb430 f i ev.obj
 0002:00033460       ??$_Debug_pointer@V?$_Deque_iterator@V?$_Deque_val@U?$_Deque_simple_types@N@std@@@std@@@std@@@std@@YAXAAV?$_Deque_iterator@V?$_Deque_val@U?$_Deque_simple_types@N@std@@@std@@@0@PB_WI@Z 100bb460 f i ev.obj
 0002:00033490       ??$_Debug_pointer@V?$_Deque_unchecked_iterator@V?$_Deque_val@U?$_Deque_simple_types@N@std@@@std@@@std@@@std@@YAXAAV?$_Deque_unchecked_iterator@V?$_Deque_val@U?$_Deque_simple_types@N@std@@@std@@@0@PB_WI@Z 100bb490 f i ev.obj
 0002:000334c0       ??$_Debug_range2@V?$_Deque_const_iterator@V?$_Deque_val@U?$_Deque_simple_types@N@std@@@std@@@std@@@std@@YAXV?$_Deque_const_iterator@V?$_Deque_val@U?$_Deque_simple_types@N@std@@@std@@@0@0PB_WIUrandom_access_iterator_tag@0@@Z 100bb4c0 f i ev.obj
 0002:000335f0       ??$_Debug_range2@V?$_Deque_iterator@V?$_Deque_val@U?$_Deque_simple_types@N@std@@@std@@@std@@@std@@YAXV?$_Deque_iterator@V?$_Deque_val@U?$_Deque_simple_types@N@std@@@std@@@0@0PB_WIUrandom_access_iterator_tag@0@@Z 100bb5f0 f i ev.obj
 0002:00033720       ??$_Debug_range2@V?$_Deque_unchecked_iterator@V?$_Deque_val@U?$_Deque_simple_types@N@std@@@std@@@std@@@std@@YAXV?$_Deque_unchecked_iterator@V?$_Deque_val@U?$_Deque_simple_types@N@std@@@std@@@0@0PB_WIUrandom_access_iterator_tag@0@@Z 100bb720 f i ev.obj
 0002:000337f0       ??$_Debug_range@V?$_Deque_const_iterator@V?$_Deque_val@U?$_Deque_simple_types@N@std@@@std@@@std@@@std@@YAXV?$_Deque_const_iterator@V?$_Deque_val@U?$_Deque_simple_types@N@std@@@std@@@0@0PB_WI@Z 100bb7f0 f i ev.obj
 0002:00033920       ??$_Debug_range@V?$_Deque_iterator@V?$_Deque_val@U?$_Deque_simple_types@N@std@@@std@@@std@@@std@@YAXV?$_Deque_iterator@V?$_Deque_val@U?$_Deque_simple_types@N@std@@@std@@@0@0PB_WI@Z 100bb920 f i ev.obj
 0002:00033a50       ??$_Debug_range@V?$_Deque_unchecked_iterator@V?$_Deque_val@U?$_Deque_simple_types@N@std@@@std@@@std@@@std@@YAXV?$_Deque_unchecked_iterator@V?$_Deque_val@U?$_Deque_simple_types@N@std@@@std@@@0@0PB_WI@Z 100bba50 f i ev.obj
 0002:00033ae0       ??$_Debug_range_ptr2@V?$_Deque_const_iterator@V?$_Deque_val@U?$_Deque_simple_types@N@std@@@std@@@std@@V?$_Deque_iterator@V?$_Deque_val@U?$_Deque_simple_types@N@std@@@std@@@2@@std@@YAXV?$_Deque_const_iterator@V?$_Deque_val@U?$_Deque_simple_types@N@std@@@std@@@0@0AAV?$_Deque_iterator@V?$_Deque_val@U?$_Deque_simple_types@N@std@@@std@@@0@PB_WIUrandom_access_iterator_tag@0@@Z 100bbae0 f i ev.obj
 0002:00033c20       ??$_Debug_range_ptr2@V?$_Deque_iterator@V?$_Deque_val@U?$_Deque_simple_types@N@std@@@std@@@std@@V12@@std@@YAXV?$_Deque_iterator@V?$_Deque_val@U?$_Deque_simple_types@N@std@@@std@@@0@0AAV10@PB_WIUrandom_access_iterator_tag@0@@Z 100bbc20 f i ev.obj
 0002:00033d60       ??$_Debug_range_ptr@V?$_Deque_const_iterator@V?$_Deque_val@U?$_Deque_simple_types@N@std@@@std@@@std@@V?$_Deque_iterator@V?$_Deque_val@U?$_Deque_simple_types@N@std@@@std@@@2@@std@@YAXV?$_Deque_const_iterator@V?$_Deque_val@U?$_Deque_simple_types@N@std@@@std@@@0@0AAV?$_Deque_iterator@V?$_Deque_val@U?$_Deque_simple_types@N@std@@@std@@@0@PB_WI@Z 100bbd60 f i ev.obj
 0002:00033e90       ??$_Debug_range_ptr@V?$_Deque_iterator@V?$_Deque_val@U?$_Deque_simple_types@N@std@@@std@@@std@@V12@@std@@YAXV?$_Deque_iterator@V?$_Deque_val@U?$_Deque_simple_types@N@std@@@std@@@0@0AAV10@PB_WI@Z 100bbe90 f i ev.obj
 0002:00033fc0       ??$_Destroy_range@U?$_Wrap_alloc@V?$allocator@PAN@std@@@std@@@std@@YAXPAPAN0AAU?$_Wrap_alloc@V?$allocator@PAN@std@@@0@@Z 100bbfc0 f i ev.obj
 0002:00034040       ??$_Is_checked@V?$_Deque_iterator@V?$_Deque_val@U?$_Deque_simple_types@N@std@@@std@@@std@@@std@@YA?AU?$integral_constant@_N$00@0@V?$_Deque_iterator@V?$_Deque_val@U?$_Deque_simple_types@N@std@@@std@@@0@@Z 100bc040 f i ev.obj
 0002:000340b0       ??$_Iter_cat@V?$_Deque_const_iterator@V?$_Deque_val@U?$_Deque_simple_types@N@std@@@std@@@std@@@std@@YA?AUrandom_access_iterator_tag@0@ABV?$_Deque_const_iterator@V?$_Deque_val@U?$_Deque_simple_types@N@std@@@std@@@0@@Z 100bc0b0 f i ev.obj
 0002:000340f0       ??$_Iter_cat@V?$_Deque_iterator@V?$_Deque_val@U?$_Deque_simple_types@N@std@@@std@@@std@@@std@@YA?AUrandom_access_iterator_tag@0@ABV?$_Deque_iterator@V?$_Deque_val@U?$_Deque_simple_types@N@std@@@std@@@0@@Z 100bc0f0 f i ev.obj
 0002:00034130       ??$_Iter_cat@V?$_Deque_unchecked_iterator@V?$_Deque_val@U?$_Deque_simple_types@N@std@@@std@@@std@@@std@@YA?AUrandom_access_iterator_tag@0@ABV?$_Deque_unchecked_iterator@V?$_Deque_val@U?$_Deque_simple_types@N@std@@@std@@@0@@Z 100bc130 f i ev.obj
 0002:00034170       ??$_Move_backward1@V?$_Deque_unchecked_iterator@V?$_Deque_val@U?$_Deque_simple_types@N@std@@@std@@@std@@V?$_Deque_iterator@V?$_Deque_val@U?$_Deque_simple_types@N@std@@@std@@@2@@std@@YA?AV?$_Deque_iterator@V?$_Deque_val@U?$_Deque_simple_types@N@std@@@std@@@0@V?$_Deque_unchecked_iterator@V?$_Deque_val@U?$_Deque_simple_types@N@std@@@std@@@0@0V10@Urandom_access_iterator_tag@0@2@Z 100bc170 f i ev.obj
 0002:000342f0       ??$_Move_backward_unchecked1@V?$_Deque_unchecked_iterator@V?$_Deque_val@U?$_Deque_simple_types@N@std@@@std@@@std@@V12@@std@@YA?AV?$_Deque_unchecked_iterator@V?$_Deque_val@U?$_Deque_simple_types@N@std@@@std@@@0@V10@00U_General_ptr_iterator_tag@0@@Z 100bc2f0 f i ev.obj
 0002:000343a0       ??$_Move_backward_unchecked@V?$_Deque_unchecked_iterator@V?$_Deque_val@U?$_Deque_simple_types@N@std@@@std@@@std@@V12@@std@@YA?AV?$_Deque_unchecked_iterator@V?$_Deque_val@U?$_Deque_simple_types@N@std@@@std@@@0@V10@00@Z 100bc3a0 f i ev.obj
 0002:00034440       ??$_Move_no_deprecate1@V?$_Deque_unchecked_iterator@V?$_Deque_val@U?$_Deque_simple_types@N@std@@@std@@@std@@V?$_Deque_iterator@V?$_Deque_val@U?$_Deque_simple_types@N@std@@@std@@@2@@std@@YA?AV?$_Deque_iterator@V?$_Deque_val@U?$_Deque_simple_types@N@std@@@std@@@0@V?$_Deque_unchecked_iterator@V?$_Deque_val@U?$_Deque_simple_types@N@std@@@std@@@0@0V10@Urandom_access_iterator_tag@0@2@Z 100bc440 f i ev.obj
 0002:000345c0       ??$_Move_no_deprecate@V?$_Deque_iterator@V?$_Deque_val@U?$_Deque_simple_types@N@std@@@std@@@std@@V12@@std@@YA?AV?$_Deque_iterator@V?$_Deque_val@U?$_Deque_simple_types@N@std@@@std@@@0@V10@00@Z 100bc5c0 f i ev.obj
 0002:00034830       ??$_Move_unchecked1@V?$_Deque_unchecked_iterator@V?$_Deque_val@U?$_Deque_simple_types@N@std@@@std@@@std@@V12@@std@@YA?AV?$_Deque_unchecked_iterator@V?$_Deque_val@U?$_Deque_simple_types@N@std@@@std@@@0@V10@00U_General_ptr_iterator_tag@0@@Z 100bc830 f i ev.obj
 0002:000348e0       ??$_Move_unchecked@V?$_Deque_unchecked_iterator@V?$_Deque_val@U?$_Deque_simple_types@N@std@@@std@@@std@@V12@@std@@YA?AV?$_Deque_unchecked_iterator@V?$_Deque_val@U?$_Deque_simple_types@N@std@@@std@@@0@V10@00@Z 100bc8e0 f i ev.obj
 0002:00034980       ??$_Pocca@U?$_Wrap_alloc@V?$allocator@N@std@@@std@@@std@@YAXAAU?$_Wrap_alloc@V?$allocator@N@std@@@0@ABU10@@Z 100bc980 f i ev.obj
 0002:00034a10       ??$_Pocca@U?$_Wrap_alloc@V?$allocator@N@std@@@std@@@std@@YAXAAU?$_Wrap_alloc@V?$allocator@N@std@@@0@ABU10@U?$integral_constant@_N$0A@@0@@Z 100bca10 f i ev.obj
 0002:00034a40       ??$_Ptr_copy_cat@PANPAN@std@@YA?AU_Really_trivial_ptr_iterator_tag@0@ABQAPAN0@Z 100bca40 f i ev.obj
 0002:00034a80       ??$_Ptr_copy_cat@V?$_Deque_unchecked_const_iterator@V?$_Deque_val@U?$_Deque_simple_types@N@std@@@std@@@std@@V?$_Deque_unchecked_iterator@V?$_Deque_val@U?$_Deque_simple_types@N@std@@@std@@@2@@std@@YA?AU_General_ptr_iterator_tag@0@ABV?$_Deque_unchecked_const_iterator@V?$_Deque_val@U?$_Deque_simple_types@N@std@@@std@@@0@ABV?$_Deque_unchecked_iterator@V?$_Deque_val@U?$_Deque_simple_types@N@std@@@std@@@0@@Z 100bca80 f i ev.obj
 0002:00034ac0       ??$_Ptr_move_cat@V?$_Deque_unchecked_iterator@V?$_Deque_val@U?$_Deque_simple_types@N@std@@@std@@@std@@V12@@std@@YA?AU_General_ptr_iterator_tag@0@ABV?$_Deque_unchecked_iterator@V?$_Deque_val@U?$_Deque_simple_types@N@std@@@std@@@0@0@Z 100bcac0 f i ev.obj
 0002:00034b00       ??$_Rechecked@PAPANPAPAN@std@@YAAAPAPANAAPAPANPAPAN@Z 100bcb00 f i ev.obj
 0002:00034b40       ??$_Rechecked@V?$_Deque_val@U?$_Deque_simple_types@N@std@@@std@@@std@@YAAAV?$_Deque_iterator@V?$_Deque_val@U?$_Deque_simple_types@N@std@@@std@@@0@AAV10@V?$_Deque_unchecked_iterator@V?$_Deque_val@U?$_Deque_simple_types@N@std@@@std@@@0@@Z 100bcb40 f i ev.obj
 0002:00034ba0       ??$_Reverse@V?$_Deque_unchecked_iterator@V?$_Deque_val@U?$_Deque_simple_types@N@std@@@std@@@std@@@std@@YAXV?$_Deque_unchecked_iterator@V?$_Deque_val@U?$_Deque_simple_types@N@std@@@std@@@0@0Ubidirectional_iterator_tag@0@@Z 100bcba0 f i ev.obj
 0002:00034c50       ??$_Rotate@V?$_Deque_unchecked_iterator@V?$_Deque_val@U?$_Deque_simple_types@N@std@@@std@@@std@@@std@@YA?AV?$_Deque_unchecked_iterator@V?$_Deque_val@U?$_Deque_simple_types@N@std@@@std@@@0@V10@00Urandom_access_iterator_tag@0@@Z 100bcc50 f i ev.obj
 0002:00034d10       ??$_Unchecked@PAPAN@std@@YAPAPANPAPAN@Z 100bcd10 f i ev.obj
 0002:00034d50       ??$_Unchecked@V?$_Deque_unchecked_iterator@V?$_Deque_val@U?$_Deque_simple_types@N@std@@@std@@@std@@@std@@YA?AV?$_Deque_unchecked_iterator@V?$_Deque_val@U?$_Deque_simple_types@N@std@@@std@@@0@V10@@Z 100bcd50 f i ev.obj
 0002:00034da0       ??$_Unchecked@V?$_Deque_val@U?$_Deque_simple_types@N@std@@@std@@@std@@YA?AV?$_Deque_unchecked_const_iterator@V?$_Deque_val@U?$_Deque_simple_types@N@std@@@std@@@0@V?$_Deque_const_iterator@V?$_Deque_val@U?$_Deque_simple_types@N@std@@@std@@@0@@Z 100bcda0 f i ev.obj
 0002:00034e50       ??$_Unchecked@V?$_Deque_val@U?$_Deque_simple_types@N@std@@@std@@@std@@YA?AV?$_Deque_unchecked_iterator@V?$_Deque_val@U?$_Deque_simple_types@N@std@@@std@@@0@V?$_Deque_iterator@V?$_Deque_val@U?$_Deque_simple_types@N@std@@@std@@@0@@Z 100bce50 f i ev.obj
 0002:00034f00       ??$_Uninitialized_copy@PAPANPAPANU?$_Wrap_alloc@V?$allocator@PAN@std@@@std@@@std@@YAPAPANPAPAN00AAU?$_Wrap_alloc@V?$allocator@PAN@std@@@0@@Z 100bcf00 f i ev.obj
 0002:00034fa0       ??$_Uninitialized_copy_al_unchecked1@PANPAN@std@@YAPAPANPAPAN00AAU?$_Wrap_alloc@V?$allocator@PAN@std@@@0@U_Really_trivial_ptr_iterator_tag@0@@Z 100bcfa0 f i ev.obj
 0002:00035000       ??$_Uninitialized_copy_al_unchecked@PAPANPAPANU?$_Wrap_alloc@V?$allocator@PAN@std@@@std@@@std@@YAPAPANPAPAN00AAU?$_Wrap_alloc@V?$allocator@PAN@std@@@0@@Z 100bd000 f i ev.obj
 0002:00035080       ??$_Uninitialized_default_fill_n1@PAPANI@std@@YAXPAPANIAAU?$_Wrap_alloc@V?$allocator@PAN@std@@@0@U?$integral_constant@_N$00@0@@Z 100bd080 f i ev.obj
 0002:000350e0       ??$_Uninitialized_default_fill_n@PAPANIU?$_Wrap_alloc@V?$allocator@PAN@std@@@std@@@std@@YAXPAPANIAAU?$_Wrap_alloc@V?$allocator@PAN@std@@@0@@Z 100bd0e0 f i ev.obj
 0002:00035150       ??$addressof@PAN@std@@YAPAPANAAPAN@Z 100bd150 f i ev.obj
 0002:000351b0       ??$construct@NABN@?$_Wrap_alloc@V?$allocator@N@std@@@std@@QAEXPANABN@Z 100bd1b0 f i ev.obj
 0002:00035220       ??$construct@NABN@?$allocator@N@std@@QAEXPANABN@Z 100bd220 f i ev.obj
 0002:000352d0       ??$construct@NABN@?$allocator_traits@V?$allocator@N@std@@@std@@SAXAAV?$allocator@N@1@PANABN@Z 100bd2d0 f i ev.obj
 0002:00035330       ??$copy@V?$_Deque_const_iterator@V?$_Deque_val@U?$_Deque_simple_types@N@std@@@std@@@std@@V?$_Deque_iterator@V?$_Deque_val@U?$_Deque_simple_types@N@std@@@std@@@2@@std@@YA?AV?$_Deque_iterator@V?$_Deque_val@U?$_Deque_simple_types@N@std@@@std@@@0@V?$_Deque_const_iterator@V?$_Deque_val@U?$_Deque_simple_types@N@std@@@std@@@0@0V10@@Z 100bd330 f i ev.obj
 0002:00035500       ??$destroy@N@?$_Wrap_alloc@V?$allocator@N@std@@@std@@QAEXPAN@Z 100bd500 f i ev.obj
 0002:00035560       ??$destroy@N@?$allocator@N@std@@QAEXPAN@Z 100bd560 f i ev.obj
 0002:000355a0       ??$destroy@N@?$allocator_traits@V?$allocator@N@std@@@std@@SAXAAV?$allocator@N@1@PAN@Z 100bd5a0 f i ev.obj
 0002:000355f0       ??$destroy@PAN@?$_Wrap_alloc@V?$allocator@N@std@@@std@@QAEXPAPAN@Z 100bd5f0 f i ev.obj
 0002:00035650       ??$destroy@PAN@?$_Wrap_alloc@V?$allocator@PAN@std@@@std@@QAEXPAPAN@Z 100bd650 f i ev.obj
 0002:000356b0       ??$destroy@PAN@?$allocator@N@std@@QAEXPAPAN@Z 100bd6b0 f i ev.obj
 0002:000356f0       ??$destroy@PAN@?$allocator@PAN@std@@QAEXPAPAN@Z 100bd6f0 f i ev.obj
 0002:00035730       ??$destroy@PAN@?$allocator_traits@V?$allocator@N@std@@@std@@SAXAAV?$allocator@N@1@PAPAN@Z 100bd730 f i ev.obj
 0002:00035780       ??$destroy@PAN@?$allocator_traits@V?$allocator@PAN@std@@@std@@SAXAAV?$allocator@PAN@1@PAPAN@Z 100bd780 f i ev.obj
 0002:000357d0       ??$emplace_back@ABN@?$deque@NV?$allocator@N@std@@@std@@QAEXABN@Z 100bd7d0 f i ev.obj
 0002:000359b0       ??$forward@AAU?$_Wrap_alloc@V?$allocator@N@std@@@std@@@std@@YAAAU?$_Wrap_alloc@V?$allocator@N@std@@@0@AAU10@@Z 100bd9b0 f i ev.obj
 0002:000359f0       ??$forward@ABN@std@@YAABNABN@Z 100bd9f0 f i ev.obj
 0002:00035a30       ??$forward@U?$_Wrap_alloc@V?$allocator@N@std@@@std@@@std@@YA$$QAU?$_Wrap_alloc@V?$allocator@N@std@@@0@AAU10@@Z 100bda30 f i ev.obj
 0002:00035a70       ??$forward@V?$allocator@N@std@@@std@@YA$$QAV?$allocator@N@0@AAV10@@Z 100bda70 f i ev.obj
 0002:00035ab0       ??$insert@V?$_Deque_const_iterator@V?$_Deque_val@U?$_Deque_simple_types@N@std@@@std@@@std@@@?$deque@NV?$allocator@N@std@@@std@@QAE?AV?$_Deque_iterator@V?$_Deque_val@U?$_Deque_simple_types@N@std@@@std@@@1@V?$_Deque_const_iterator@V?$_Deque_val@U?$_Deque_simple_types@N@std@@@std@@@1@00@Z 100bdab0 f i ev.obj
 0002:00036200       ??$iter_swap@V?$_Deque_unchecked_iterator@V?$_Deque_val@U?$_Deque_simple_types@N@std@@@std@@@std@@V12@@std@@YAXV?$_Deque_unchecked_iterator@V?$_Deque_val@U?$_Deque_simple_types@N@std@@@std@@@0@0@Z 100be200 f i ev.obj
 0002:00036260       ??$move@AAN@std@@YA$$QANAAN@Z 100be260 f i ev.obj
 0002:000362a0       ??$move@AAU?$_Wrap_alloc@V?$allocator@N@std@@@std@@@std@@YA$$QAU?$_Wrap_alloc@V?$allocator@N@std@@@0@AAU10@@Z 100be2a0 f i ev.obj
 0002:000362e0       ??$move@V?$_Deque_iterator@V?$_Deque_val@U?$_Deque_simple_types@N@std@@@std@@@std@@V12@@std@@YA?AV?$_Deque_iterator@V?$_Deque_val@U?$_Deque_simple_types@N@std@@@std@@@0@V10@00@Z 100be2e0 f i ev.obj
 0002:000364b0       ??$move_backward@V?$_Deque_iterator@V?$_Deque_val@U?$_Deque_simple_types@N@std@@@std@@@std@@V12@@std@@YA?AV?$_Deque_iterator@V?$_Deque_val@U?$_Deque_simple_types@N@std@@@std@@@0@V10@00@Z 100be4b0 f i ev.obj
 0002:00036770       ??$reverse@V?$_Deque_iterator@V?$_Deque_val@U?$_Deque_simple_types@N@std@@@std@@@std@@@std@@YAXV?$_Deque_iterator@V?$_Deque_val@U?$_Deque_simple_types@N@std@@@std@@@0@0@Z 100be770 f i ev.obj
 0002:00036950       ??$reverse@V?$_Deque_unchecked_iterator@V?$_Deque_val@U?$_Deque_simple_types@N@std@@@std@@@std@@@std@@YAXV?$_Deque_unchecked_iterator@V?$_Deque_val@U?$_Deque_simple_types@N@std@@@std@@@0@0@Z 100be950 f i ev.obj
 0002:00036a40       ??$rotate@V?$_Deque_iterator@V?$_Deque_val@U?$_Deque_simple_types@N@std@@@std@@@std@@@std@@YA?AV?$_Deque_iterator@V?$_Deque_val@U?$_Deque_simple_types@N@std@@@std@@@0@V10@00@Z 100bea40 f i ev.obj
 0002:00036e30       ??$swap@N@std@@YAXAAN0@Z   100bee30 f i ev.obj
 0002:00036f00       ??0?$_Deque_const_iterator@V?$_Deque_val@U?$_Deque_simple_types@N@std@@@std@@@std@@QAE@$$QAV01@@Z 100bef00 f i ev.obj
 0002:00036f70       ??0?$_Deque_const_iterator@V?$_Deque_val@U?$_Deque_simple_types@N@std@@@std@@@std@@QAE@ABV01@@Z 100bef70 f i ev.obj
 0002:00036fe0       ??0?$_Deque_const_iterator@V?$_Deque_val@U?$_Deque_simple_types@N@std@@@std@@@std@@QAE@IPBU_Container_base12@1@@Z 100befe0 f i ev.obj
 0002:000370a0       ??0?$_Deque_iterator@V?$_Deque_val@U?$_Deque_simple_types@N@std@@@std@@@std@@QAE@$$QAV01@@Z 100bf0a0 f i ev.obj
 0002:00037100       ??0?$_Deque_iterator@V?$_Deque_val@U?$_Deque_simple_types@N@std@@@std@@@std@@QAE@ABV01@@Z 100bf100 f i ev.obj
 0002:00037160       ??0?$_Deque_iterator@V?$_Deque_val@U?$_Deque_simple_types@N@std@@@std@@@std@@QAE@IPBU_Container_base12@1@@Z 100bf160 f i ev.obj
 0002:000371c0       ??0?$_Deque_unchecked_const_iterator@V?$_Deque_val@U?$_Deque_simple_types@N@std@@@std@@@std@@QAE@IPBU_Container_base12@1@@Z 100bf1c0 f i ev.obj
 0002:00037210       ??0?$_Deque_unchecked_iterator@V?$_Deque_val@U?$_Deque_simple_types@N@std@@@std@@@std@@QAE@IPBU_Container_base12@1@@Z 100bf210 f i ev.obj
 0002:00037270       ??0?$_Deque_val@U?$_Deque_simple_types@N@std@@@std@@QAE@XZ 100bf270 f i ev.obj
 0002:00037300       ??0?$_Wrap_alloc@V?$allocator@N@std@@@std@@QAE@$$QAU01@@Z 100bf300 f i ev.obj
 0002:00037370       ??0?$allocator@N@std@@QAE@ABV01@@Z 100bf370 f i ev.obj
 0002:000373b0       ??0?$deque@NV?$allocator@N@std@@@std@@QAE@ABV01@@Z 100bf3b0 f i ev.obj
 0002:000374c0       ??0EV@@QAE@PBD@Z           100bf4c0 f   ev.obj
 0002:00038170       ??0EV@@QAE@PBDW4EnumDeviceType@@VRIDER_DATA@@PAUPARAMS@Bike@@PAVCourse@@W4LoggingType@@@Z 100c0170 f   ev.obj
 0002:00038e20       ??0Heartrate@@QAE@ABV0@@Z  100c0e20 f i ev.obj
 0002:00039290       ??0mutex@tthread@@QAE@XZ   100c1290 f i ev.obj
 0002:00039300       ??1?$_Compressed_pair@U?$_Wrap_alloc@V?$allocator@N@std@@@std@@V?$_Deque_val@U?$_Deque_simple_types@N@std@@@2@$00@std@@QAE@XZ 100c1300 f i ev.obj
 0002:00039350       ??1?$_Deque_alloc@U?$_Deque_base_types@NV?$allocator@N@std@@@std@@@std@@QAE@XZ 100c1350 f i ev.obj
 0002:000393e0       ??1?$_Deque_const_iterator@V?$_Deque_val@U?$_Deque_simple_types@N@std@@@std@@@std@@QAE@XZ 100c13e0 f i ev.obj
 0002:00039430       ??1?$_Deque_iterator@V?$_Deque_val@U?$_Deque_simple_types@N@std@@@std@@@std@@QAE@XZ 100c1430 f i ev.obj
 0002:00039480       ??1?$_Deque_val@U?$_Deque_simple_types@N@std@@@std@@QAE@XZ 100c1480 f i ev.obj
 0002:000394d0       ??1EV@@QAE@XZ              100c14d0 f   ev.obj
 0002:00039950       ??1mutex@tthread@@QAE@XZ   100c1950 f i ev.obj
 0002:000399b0       ??4?$deque@NV?$allocator@N@std@@@std@@QAEAAV01@ABV01@@Z 100c19b0 f i ev.obj
 0002:00039ea0       ??4Heartrate@@QAEAAV0@ABV0@@Z 100c1ea0 f i ev.obj
 0002:0003a320       ??4RIDER_DATA@@QAEAAV0@ABV0@@Z 100c2320 f i ev.obj
 0002:0003a460       ??8?$_Deque_const_iterator@V?$_Deque_val@U?$_Deque_simple_types@N@std@@@std@@@std@@QBE_NABV01@@Z 100c2460 f i ev.obj
 0002:0003a4f0       ??8?$_Deque_unchecked_const_iterator@V?$_Deque_val@U?$_Deque_simple_types@N@std@@@std@@@std@@QBE_NABV01@@Z 100c24f0 f i ev.obj
 0002:0003a560       ??9?$_Deque_const_iterator@V?$_Deque_val@U?$_Deque_simple_types@N@std@@@std@@@std@@QBE_NABV01@@Z 100c2560 f i ev.obj
 0002:0003a5f0       ??9?$_Deque_unchecked_const_iterator@V?$_Deque_val@U?$_Deque_simple_types@N@std@@@std@@@std@@QBE_NABV01@@Z 100c25f0 f i ev.obj
 0002:0003a680       ??D?$_Deque_const_iterator@V?$_Deque_val@U?$_Deque_simple_types@N@std@@@std@@@std@@QBEABNXZ 100c2680 f i ev.obj
 0002:0003a800       ??D?$_Deque_unchecked_const_iterator@V?$_Deque_val@U?$_Deque_simple_types@N@std@@@std@@@std@@QBEABNXZ 100c2800 f i ev.obj
 0002:0003a890       ??D?$_Deque_unchecked_iterator@V?$_Deque_val@U?$_Deque_simple_types@N@std@@@std@@@std@@QBEAANXZ 100c2890 f i ev.obj
 0002:0003a8e0       ??E?$_Deque_const_iterator@V?$_Deque_val@U?$_Deque_simple_types@N@std@@@std@@@std@@QAEAAV01@XZ 100c28e0 f i ev.obj
 0002:0003aa20       ??E?$_Deque_unchecked_const_iterator@V?$_Deque_val@U?$_Deque_simple_types@N@std@@@std@@@std@@QAEAAV01@XZ 100c2a20 f i ev.obj
 0002:0003aa70       ??E?$_Deque_unchecked_iterator@V?$_Deque_val@U?$_Deque_simple_types@N@std@@@std@@@std@@QAEAAV01@XZ 100c2a70 f i ev.obj
 0002:0003aad0       ??F?$_Deque_unchecked_const_iterator@V?$_Deque_val@U?$_Deque_simple_types@N@std@@@std@@@std@@QAEAAV01@XZ 100c2ad0 f i ev.obj
 0002:0003ab20       ??F?$_Deque_unchecked_iterator@V?$_Deque_val@U?$_Deque_simple_types@N@std@@@std@@@std@@QAEAAV01@XZ 100c2b20 f i ev.obj
 0002:0003ab80       ??G?$_Deque_const_iterator@V?$_Deque_val@U?$_Deque_simple_types@N@std@@@std@@@std@@QBEHABV01@@Z 100c2b80 f i ev.obj
 0002:0003ac30       ??G?$_Deque_iterator@V?$_Deque_val@U?$_Deque_simple_types@N@std@@@std@@@std@@QBE?AV01@H@Z 100c2c30 f i ev.obj
 0002:0003ad50       ??G?$_Deque_iterator@V?$_Deque_val@U?$_Deque_simple_types@N@std@@@std@@@std@@QBEHABV?$_Deque_const_iterator@V?$_Deque_val@U?$_Deque_simple_types@N@std@@@std@@@1@@Z 100c2d50 f i ev.obj
 0002:0003adb0       ??G?$_Deque_unchecked_const_iterator@V?$_Deque_val@U?$_Deque_simple_types@N@std@@@std@@@std@@QBEHABV01@@Z 100c2db0 f i ev.obj
 0002:0003ae40       ??G?$_Deque_unchecked_iterator@V?$_Deque_val@U?$_Deque_simple_types@N@std@@@std@@@std@@QBEHABV?$_Deque_unchecked_const_iterator@V?$_Deque_val@U?$_Deque_simple_types@N@std@@@std@@@1@@Z 100c2e40 f i ev.obj
 0002:0003aea0       ??H?$_Deque_const_iterator@V?$_Deque_val@U?$_Deque_simple_types@N@std@@@std@@@std@@QBE?AV01@H@Z 100c2ea0 f i ev.obj
 0002:0003afc0       ??H?$_Deque_iterator@V?$_Deque_val@U?$_Deque_simple_types@N@std@@@std@@@std@@QBE?AV01@H@Z 100c2fc0 f i ev.obj
 0002:0003b0e0       ??H?$_Deque_unchecked_iterator@V?$_Deque_val@U?$_Deque_simple_types@N@std@@@std@@@std@@QBE?AV01@H@Z 100c30e0 f i ev.obj
 0002:0003b190       ??M?$_Deque_const_iterator@V?$_Deque_val@U?$_Deque_simple_types@N@std@@@std@@@std@@QBE_NABV01@@Z 100c3190 f i ev.obj
 0002:0003b220       ??M?$_Deque_unchecked_const_iterator@V?$_Deque_val@U?$_Deque_simple_types@N@std@@@std@@@std@@QBE_NABV01@@Z 100c3220 f i ev.obj
 0002:0003b290       ??Y?$_Deque_const_iterator@V?$_Deque_val@U?$_Deque_simple_types@N@std@@@std@@@std@@QAEAAV01@H@Z 100c3290 f i ev.obj
 0002:0003b3f0       ??Y?$_Deque_iterator@V?$_Deque_val@U?$_Deque_simple_types@N@std@@@std@@@std@@QAEAAV01@H@Z 100c33f0 f i ev.obj
 0002:0003b440       ??Y?$_Deque_unchecked_const_iterator@V?$_Deque_val@U?$_Deque_simple_types@N@std@@@std@@@std@@QAEAAV01@H@Z 100c3440 f i ev.obj
 0002:0003b490       ??Y?$_Deque_unchecked_iterator@V?$_Deque_val@U?$_Deque_simple_types@N@std@@@std@@@std@@QAEAAV01@H@Z 100c3490 f i ev.obj
 0002:0003b4f0       ??Z?$_Deque_iterator@V?$_Deque_val@U?$_Deque_simple_types@N@std@@@std@@@std@@QAEAAV01@H@Z 100c34f0 f i ev.obj
 0002:0003b550       ??_Gthread@tthread@@QAEPAXI@Z 100c3550 f i ev.obj
 0002:0003b5c0       ?TimerProc@EV@@CGXIIKKK@Z  100c35c0 f   ev.obj
 0002:0003b690       ?_Alloc_proxy@?$_Deque_alloc@U?$_Deque_base_types@NV?$allocator@N@std@@@std@@@std@@QAEXXZ 100c3690 f i ev.obj
 0002:0003b790       ?_Compat@?$_Deque_const_iterator@V?$_Deque_val@U?$_Deque_simple_types@N@std@@@std@@@std@@QBEXABV12@@Z 100c3790 f i ev.obj
 0002:0003b8b0       ?_Copy_alloc@?$_Deque_alloc@U?$_Deque_base_types@NV?$allocator@N@std@@@std@@@std@@QAEXABU?$_Wrap_alloc@V?$allocator@N@std@@@2@@Z 100c38b0 f i ev.obj
 0002:0003ba50       ?_Free_proxy@?$_Deque_alloc@U?$_Deque_base_types@NV?$allocator@N@std@@@std@@@std@@QAEXXZ 100c3a50 f i ev.obj
 0002:0003bb40       ?_Get_data@?$_Deque_alloc@U?$_Deque_base_types@NV?$allocator@N@std@@@std@@@std@@QAEAAV?$_Deque_val@U?$_Deque_simple_types@N@std@@@2@XZ 100c3b40 f i ev.obj
 0002:0003bb90       ?_Get_data@?$_Deque_alloc@U?$_Deque_base_types@NV?$allocator@N@std@@@std@@@std@@QBEABV?$_Deque_val@U?$_Deque_simple_types@N@std@@@2@XZ 100c3b90 f i ev.obj
 0002:0003bbe0       ?_Get_first@?$_Compressed_pair@U?$_Wrap_alloc@V?$allocator@N@std@@@std@@V?$_Deque_val@U?$_Deque_simple_types@N@std@@@2@$00@std@@QAEAAU?$_Wrap_alloc@V?$allocator@N@std@@@2@XZ 100c3be0 f i ev.obj
 0002:0003bc20       ?_Get_first@?$_Compressed_pair@U?$_Wrap_alloc@V?$allocator@N@std@@@std@@V?$_Deque_val@U?$_Deque_simple_types@N@std@@@2@$00@std@@QBEABU?$_Wrap_alloc@V?$allocator@N@std@@@2@XZ 100c3c20 f i ev.obj
 0002:0003bc60       ?_Get_second@?$_Compressed_pair@U?$_Wrap_alloc@V?$allocator@N@std@@@std@@V?$_Deque_val@U?$_Deque_simple_types@N@std@@@2@$00@std@@QAEAAV?$_Deque_val@U?$_Deque_simple_types@N@std@@@2@XZ 100c3c60 f i ev.obj
 0002:0003bca0       ?_Get_second@?$_Compressed_pair@U?$_Wrap_alloc@V?$allocator@N@std@@@std@@V?$_Deque_val@U?$_Deque_simple_types@N@std@@@2@$00@std@@QBEABV?$_Deque_val@U?$_Deque_simple_types@N@std@@@2@XZ 100c3ca0 f i ev.obj
 0002:0003bce0       ?_Getal@?$_Deque_alloc@U?$_Deque_base_types@NV?$allocator@N@std@@@std@@@std@@QAEAAU?$_Wrap_alloc@V?$allocator@N@std@@@2@XZ 100c3ce0 f i ev.obj
 0002:0003bd30       ?_Getal@?$_Deque_alloc@U?$_Deque_base_types@NV?$allocator@N@std@@@std@@@std@@QBEABU?$_Wrap_alloc@V?$allocator@N@std@@@2@XZ 100c3d30 f i ev.obj
 0002:0003bd80       ?_Getblock@?$_Deque_alloc@U?$_Deque_base_types@NV?$allocator@N@std@@@std@@@std@@QBEII@Z 100c3d80 f i ev.obj
 0002:0003bde0       ?_Getblock@?$_Deque_val@U?$_Deque_simple_types@N@std@@@std@@QBEII@Z 100c3de0 f i ev.obj
 0002:0003be30       ?_Getpfirst@?$_Deque_alloc@U?$_Deque_base_types@NV?$allocator@N@std@@@std@@@std@@QBEPAPAU_Iterator_base12@2@XZ 100c3e30 f i ev.obj
 0002:0003be90       ?_Growmap@?$deque@NV?$allocator@N@std@@@std@@IAEXI@Z 100c3e90 f i ev.obj
 0002:0003c220       ?_Make_iter@?$deque@NV?$allocator@N@std@@@std@@QBE?AV?$_Deque_iterator@V?$_Deque_val@U?$_Deque_simple_types@N@std@@@std@@@2@V?$_Deque_const_iterator@V?$_Deque_val@U?$_Deque_simple_types@N@std@@@std@@@2@@Z 100c4220 f i ev.obj
 0002:0003c300       ?_Map@?$_Deque_alloc@U?$_Deque_base_types@NV?$allocator@N@std@@@std@@@std@@QAEAAPAPANXZ 100c4300 f i ev.obj
 0002:0003c360       ?_Mapsize@?$_Deque_alloc@U?$_Deque_base_types@NV?$allocator@N@std@@@std@@@std@@QAEAAIXZ 100c4360 f i ev.obj
 0002:0003c3c0       ?_Myoff@?$_Deque_alloc@U?$_Deque_base_types@NV?$allocator@N@std@@@std@@@std@@QAEAAIXZ 100c43c0 f i ev.obj
 0002:0003c420       ?_Myoff@?$_Deque_alloc@U?$_Deque_base_types@NV?$allocator@N@std@@@std@@@std@@QBEABIXZ 100c4420 f i ev.obj
 0002:0003c480       ?_Myproxy@?$_Deque_alloc@U?$_Deque_base_types@NV?$allocator@N@std@@@std@@@std@@QAEAAPAU_Container_proxy@2@XZ 100c4480 f i ev.obj
 0002:0003c4d0       ?_Mysize@?$_Deque_alloc@U?$_Deque_base_types@NV?$allocator@N@std@@@std@@@std@@QAEAAIXZ 100c44d0 f i ev.obj
 0002:0003c530       ?_Mysize@?$_Deque_alloc@U?$_Deque_base_types@NV?$allocator@N@std@@@std@@@std@@QBEABIXZ 100c4530 f i ev.obj
 0002:0003c590       ?_Orphan_all@?$_Deque_alloc@U?$_Deque_base_types@NV?$allocator@N@std@@@std@@@std@@QAEXXZ 100c4590 f i ev.obj
 0002:0003c5f0       ?_Orphan_off@?$deque@NV?$allocator@N@std@@@std@@IBEXI@Z 100c45f0 f i ev.obj
 0002:0003c7d0       ?_Rechecked@?$_Deque_iterator@V?$_Deque_val@U?$_Deque_simple_types@N@std@@@std@@@std@@QAEAAV12@V?$_Deque_unchecked_iterator@V?$_Deque_val@U?$_Deque_simple_types@N@std@@@std@@@2@@Z 100c47d0 f i ev.obj
 0002:0003c820       ?_Setcont@?$_Deque_const_iterator@V?$_Deque_val@U?$_Deque_simple_types@N@std@@@std@@@std@@QAEXPBV?$_Deque_val@U?$_Deque_simple_types@N@std@@@2@@Z 100c4820 f i ev.obj
 0002:0003c880       ?_Tidy@?$deque@NV?$allocator@N@std@@@std@@IAEXXZ 100c4880 f i ev.obj
 0002:0003ca20       ?_Unchecked@?$_Deque_const_iterator@V?$_Deque_val@U?$_Deque_simple_types@N@std@@@std@@@std@@QBE?AV?$_Deque_unchecked_const_iterator@V?$_Deque_val@U?$_Deque_simple_types@N@std@@@std@@@2@XZ 100c4a20 f i ev.obj
 0002:0003ca90       ?_Unchecked@?$_Deque_iterator@V?$_Deque_val@U?$_Deque_simple_types@N@std@@@std@@@std@@QBE?AV?$_Deque_unchecked_iterator@V?$_Deque_val@U?$_Deque_simple_types@N@std@@@std@@@2@XZ 100c4a90 f i ev.obj
 0002:0003cb00       ?_Xlen@?$deque@NV?$allocator@N@std@@@std@@IBEXXZ 100c4b00 f i ev.obj
 0002:0003cb60       ?allocate@?$_Wrap_alloc@V?$allocator@N@std@@@std@@QAEPANI@Z 100c4b60 f i ev.obj
 0002:0003cbc0       ?allocate@?$_Wrap_alloc@V?$allocator@PAN@std@@@std@@QAEPAPANI@Z 100c4bc0 f i ev.obj
 0002:0003cc20       ?allocate@?$allocator@N@std@@QAEPANI@Z 100c4c20 f i ev.obj
 0002:0003cc80       ?allocate@?$allocator@PAN@std@@QAEPAPANI@Z 100c4c80 f i ev.obj
 0002:0003cce0       ?begin@?$deque@NV?$allocator@N@std@@@std@@QAE?AV?$_Deque_iterator@V?$_Deque_val@U?$_Deque_simple_types@N@std@@@std@@@2@XZ 100c4ce0 f i ev.obj
 0002:0003cd90       ?begin@?$deque@NV?$allocator@N@std@@@std@@QBE?AV?$_Deque_const_iterator@V?$_Deque_val@U?$_Deque_simple_types@N@std@@@std@@@2@XZ 100c4d90 f i ev.obj
 0002:0003ce40       ?clear@?$deque@NV?$allocator@N@std@@@std@@QAEXXZ 100c4e40 f i ev.obj
 0002:0003ced0       ?clear_accum_tdc_x@EV@@QAEXXZ 100c4ed0 f   ev.obj
 0002:0003cf30       ?deallocate@?$_Wrap_alloc@V?$allocator@N@std@@@std@@QAEXPANI@Z 100c4f30 f i ev.obj
 0002:0003cf90       ?deallocate@?$_Wrap_alloc@V?$allocator@PAN@std@@@std@@QAEXPAPANI@Z 100c4f90 f i ev.obj
 0002:0003cff0       ?deallocate@?$allocator@N@std@@QAEXPANI@Z 100c4ff0 f i ev.obj
 0002:0003d050       ?deallocate@?$allocator@PAN@std@@QAEXPAPANI@Z 100c5050 f i ev.obj
 0002:0003d0b0       ?empty@?$deque@NV?$allocator@N@std@@@std@@QBE_NXZ 100c50b0 f i ev.obj
 0002:0003d130       ?end@?$deque@NV?$allocator@N@std@@@std@@QAE?AV?$_Deque_iterator@V?$_Deque_val@U?$_Deque_simple_types@N@std@@@std@@@2@XZ 100c5130 f i ev.obj
 0002:0003d1f0       ?end@?$deque@NV?$allocator@N@std@@@std@@QBE?AV?$_Deque_const_iterator@V?$_Deque_val@U?$_Deque_simple_types@N@std@@@std@@@2@XZ 100c51f0 f i ev.obj
 0002:0003d2b0       ?endCal@EV@@QAEHXZ         100c52b0 f   ev.obj
 0002:0003d2f0       ?end_cal@EV@@QAEHE@Z       100c52f0 f   ev.obj
 0002:0003d370       ?erase@?$deque@NV?$allocator@N@std@@@std@@QAE?AV?$_Deque_iterator@V?$_Deque_val@U?$_Deque_simple_types@N@std@@@std@@@2@V?$_Deque_const_iterator@V?$_Deque_val@U?$_Deque_simple_types@N@std@@@std@@@2@0@Z 100c5370 f i ev.obj
 0002:0003da80       ?fastread@EV@@QAEPAUTrainerData@RACERMATE@@XZ 100c5a80 f   ev.obj
 0002:0003dc70       ?get_accum_tdc_x@EV@@QAEHXZ 100c5c70 f   ev.obj
 0002:0003dce0       ?get_ant_stick_initialized@EV@@QAE_NXZ 100c5ce0 f   ev.obj
 0002:0003dd20       ?get_average_bars_x@EV@@QAEPAMXZ 100c5d20 f   ev.obj
 0002:0003dd90       ?get_bars_x@EV@@QAEPAMXZ   100c5d90 f   ev.obj
 0002:0003dde0       ?get_cal_time_x@EV@@QAEHXZ 100c5de0 f   ev.obj
 0002:0003de30       ?get_calibration_x@EV@@QAEHXZ 100c5e30 f   ev.obj
 0002:0003deb0       ?get_calories_x@EV@@QAEMXZ 100c5eb0 f   ev.obj
 0002:0003df00       ?get_computrainer_cal@EV@@QAEPBDXZ 100c5f00 f   ev.obj
 0002:0003e100       ?get_computrainer_mode_x@EV@@QAEHXZ 100c6100 f   ev.obj
 0002:0003e180       ?get_finished@Decoder@@QAE_NXZ 100c6180 f i ev.obj
 0002:0003e1c0       ?get_formula@Decoder@@QAEPAVFormula@@XZ 100c61c0 f i ev.obj
 0002:0003e200       ?get_gear_indices_x@EV@@QAE?AUGEARPAIR@Bike@@XZ 100c6200 f   ev.obj
 0002:0003e2c0       ?get_gear_pair@EV@@QAE?AUGEARPAIR@Bike@@XZ 100c62c0 f   ev.obj
 0002:0003e380       ?get_hr_beep_enabled_x@EV@@QAEHXZ 100c6380 f   ev.obj
 0002:0003e3e0       ?get_hr_beep_enabled_x@dataSource@@QAEHXZ 100c63e0 f i ev.obj
 0002:0003e450       ?get_if_x@EV@@QAEMXZ       100c6450 f   ev.obj
 0002:0003e4c0       ?get_keys@EV@@QAEHXZ       100c64c0 f   ev.obj
 0002:0003e530       ?get_kgs@Bike@@QAENXZ      100c6530 f i ev.obj
 0002:0003e570       ?get_lower_hr_x@EV@@QAEHXZ 100c6570 f   ev.obj
 0002:0003e5d0       ?get_lower_hr_x@dataSource@@QAEHXZ 100c65d0 f i ev.obj
 0002:0003e670       ?get_paused@Decoder@@QAE_NXZ 100c6670 f i ev.obj
 0002:0003e6b0       ?get_pp_x@EV@@QAEMXZ       100c66b0 f   ev.obj
 0002:0003e700       ?get_started@Decoder@@QAE_NXZ 100c6700 f i ev.obj
 0002:0003e740       ?get_status_bits_x@EV@@QAEHXZ 100c6740 f   ev.obj
 0002:0003e7b0       ?get_tss_x@EV@@QAEMXZ      100c67b0 f   ev.obj
 0002:0003e820       ?get_upper_hr_x@EV@@QAEHXZ 100c6820 f   ev.obj
 0002:0003e880       ?get_upper_hr_x@dataSource@@QAEHXZ 100c6880 f i ev.obj
 0002:0003e920       ?get_x_bars2@SS@@QAEPAMXZ  100c6920 f i ev.obj
 0002:0003e960       ?get_x_np@EV@@QAEMXZ       100c6960 f   ev.obj
 0002:0003e9d0       ?is_finished_x@dataSource@@QAE_NXZ 100c69d0 f i ev.obj
 0002:0003ea30       ?is_initialized@dataSource@@QAE_NXZ 100c6a30 f i ev.obj
 0002:0003ea70       ?is_paused_x@dataSource@@QAE_NXZ 100c6a70 f i ev.obj
 0002:0003ead0       ?is_started_x@dataSource@@QAE_NXZ 100c6ad0 f i ev.obj
 0002:0003eb30       ?keydownfunc@EV@@SAXPAXHH@Z 100c6b30 f   ev.obj
 0002:0003ed20       ?keyupfunc@EV@@SAXPAXHH@Z  100c6d20 f   ev.obj
 0002:0003ef10       ?max_size@?$_Wrap_alloc@V?$allocator@N@std@@@std@@QBEIU_Nil@2@@Z 100c6f10 f i ev.obj
 0002:0003ef70       ?max_size@?$allocator@N@std@@QBEIXZ 100c6f70 f i ev.obj
 0002:0003efb0       ?max_size@?$allocator_traits@V?$allocator@N@std@@@std@@SAIABV?$allocator@N@2@@Z 100c6fb0 f i ev.obj
 0002:0003f000       ?max_size@?$deque@NV?$allocator@N@std@@@std@@QBEIXZ 100c7000 f i ev.obj
 0002:0003f070       ?myread@EV@@QAEPAUTrainerData@RACERMATE@@XZ 100c7070 f   ev.obj
 0002:0003f3c0       ?pop_back@?$deque@NV?$allocator@N@std@@@std@@QAEXXZ 100c73c0 f i ev.obj
 0002:0003f510       ?pop_front@?$deque@NV?$allocator@N@std@@@std@@QAEXXZ 100c7510 f i ev.obj
 0002:0003f690       ?push_back@?$deque@NV?$allocator@N@std@@@std@@QAEXABN@Z 100c7690 f i ev.obj
 0002:0003f860       ?push_front@?$deque@NV?$allocator@N@std@@@std@@QAEXABN@Z 100c7860 f i ev.obj
 0002:0003fa60       ?read_ss@EV@@QAEPAUSSDATA@@XZ 100c7a60 f   ev.obj
 0002:0003fb50       ?reset@EV@@QAEHXZ          100c7b50 f   ev.obj
 0002:0003fc10       ?reset_averages@EV@@QAEHXZ 100c7c10 f   ev.obj
 0002:0003fc90       ?select_on_container_copy_construction@?$_Wrap_alloc@V?$allocator@N@std@@@std@@QBE?AU12@U_Nil@2@@Z 100c7c90 f i ev.obj
 0002:0003fd00       ?select_on_container_copy_construction@?$allocator_traits@V?$allocator@N@std@@@std@@SA?AV?$allocator@N@2@ABV32@@Z 100c7d00 f i ev.obj
 0002:0003fd60       ?send_current@EV@@QAEHG@Z  100c7d60 f   ev.obj
 0002:0003fdd0       ?serverthreadproc@EV@@CAXPAX@Z 100c7dd0 f   ev.obj
 0002:00040040       ?setFinished@dataSource@@QAEXXZ 100c8040 f i ev.obj
 0002:000400a0       ?set_calibrating_x@EV@@QAEX_N@Z 100c80a0 f   ev.obj
 0002:00040130       ?set_circumference_x@EV@@QAEXM@Z 100c8130 f   ev.obj
 0002:00040170       ?set_constant_force_x@EV@@QAEHM@Z 100c8170 f   ev.obj
 0002:000401f0       ?set_draft_wind_x@EV@@QAEHM@Z 100c81f0 f   ev.obj
 0002:000402a0       ?set_export@EV@@QAEXPBDH@Z 100c82a0 f   ev.obj
 0002:00040340       ?set_finished@Decoder@@QAEX_N@Z 100c8340 f i ev.obj
 0002:00040390       ?set_finished@EV@@QAEX_N@Z 100c8390 f   ev.obj
 0002:000403f0       ?set_ftp_x@EV@@QAEHM@Z     100c83f0 f   ev.obj
 0002:00040480       ?set_gear@EV@@QAEHHH@Z     100c8480 f   ev.obj
 0002:000404f0       ?set_hr_bounds_x@EV@@QAEHHH_N@Z 100c84f0 f   ev.obj
 0002:000405a0       ?set_id@Decoder@@QAEXH@Z   100c85a0 f i ev.obj
 0002:000405f0       ?set_kgs@Bike@@QAEXM@Z     100c85f0 f i ev.obj
 0002:00040640       ?set_logging_x@EV@@QAEXW4LoggingType@@@Z 100c8640 f   ev.obj
 0002:000406a0       ?set_paused@EV@@QAEH_N@Z   100c86a0 f   ev.obj
 0002:00040760       ?set_performance_file_name_x@EV@@QAEXPBD@Z 100c8760 f   ev.obj
 0002:000407e0       ?set_slope@EV@@QAEHMMHM@Z  100c87e0 f   ev.obj
 0002:00040aa0       ?set_version@Decoder@@QAEXG@Z 100c8aa0 f i ev.obj
 0002:00040af0       ?set_watts@EV@@QAEHM@Z     100c8af0 f   ev.obj
 0002:00040b80       ?set_wind_x@EV@@QAEHM@Z    100c8b80 f   ev.obj
 0002:00040c20       ?start@EV@@QAEX_N@Z        100c8c20 f   ev.obj
 0002:00040cd0       ?startCal_x@EV@@QAEHXZ     100c8cd0 f   ev.obj
 0002:00040d50       ?start_cal@EV@@QAEHXZ      100c8d50 f   ev.obj
 0002:00040dd0       ?start_collection_thread@EV@@AAEHXZ 100c8dd0 f   ev.obj
 0002:00040fe0       ?stop@EV@@QAEXXZ           100c8fe0 f   ev.obj
 0002:000411d0       ??$_Addressof@V?$basic_string@DU?$char_traits@D@std@@V?$allocator@D@2@@std@@@std@@YAPAV?$basic_string@DU?$char_traits@D@std@@V?$allocator@D@2@@0@AAV10@U?$integral_constant@_N$0A@@0@@Z 100c91d0 f i internal.obj
 0002:00041210       ??$_Destroy_range@U?$_Wrap_alloc@V?$allocator@V?$basic_string@DU?$char_traits@D@std@@V?$allocator@D@2@@std@@@std@@@std@@@std@@YAXPAV?$basic_string@DU?$char_traits@D@std@@V?$allocator@D@2@@0@0AAU?$_Wrap_alloc@V?$allocator@V?$basic_string@DU?$char_traits@D@std@@V?$allocator@D@2@@std@@@std@@@0@@Z 100c9210 f i internal.obj
 0002:00041290       ??$_Ptr_move_cat@V?$basic_string@DU?$char_traits@D@std@@V?$allocator@D@2@@std@@V12@@std@@YA?AU_General_ptr_iterator_tag@0@ABQAV?$basic_string@DU?$char_traits@D@std@@V?$allocator@D@2@@0@0@Z 100c9290 f i internal.obj
 0002:000412d0       ??$_Rechecked@PAV?$basic_string@DU?$char_traits@D@std@@V?$allocator@D@2@@std@@PAV12@@std@@YAAAPAV?$basic_string@DU?$char_traits@D@std@@V?$allocator@D@2@@0@AAPAV10@PAV10@@Z 100c92d0 f i internal.obj
 0002:00041310       ??$_Umove@PAV?$basic_string@DU?$char_traits@D@std@@V?$allocator@D@2@@std@@@?$vector@V?$basic_string@DU?$char_traits@D@std@@V?$allocator@D@2@@std@@V?$allocator@V?$basic_string@DU?$char_traits@D@std@@V?$allocator@D@2@@std@@@2@@std@@IAEPAV?$basic_string@DU?$char_traits@D@std@@V?$allocator@D@2@@1@PAV21@00@Z 100c9310 f i internal.obj
 0002:00041380       ??$_Unchecked@PAV?$basic_string@DU?$char_traits@D@std@@V?$allocator@D@2@@std@@@std@@YAPAV?$basic_string@DU?$char_traits@D@std@@V?$allocator@D@2@@0@PAV10@@Z 100c9380 f i internal.obj
 0002:000413c0       ??$_Uninitialized_move@PAV?$basic_string@DU?$char_traits@D@std@@V?$allocator@D@2@@std@@PAV12@U?$_Wrap_alloc@V?$allocator@V?$basic_string@DU?$char_traits@D@std@@V?$allocator@D@2@@std@@@std@@@2@@std@@YAPAV?$basic_string@DU?$char_traits@D@std@@V?$allocator@D@2@@0@PAV10@00AAU?$_Wrap_alloc@V?$allocator@V?$basic_string@DU?$char_traits@D@std@@V?$allocator@D@2@@std@@@std@@@0@@Z 100c93c0 f i internal.obj
 0002:00041460       ??$_Uninitialized_move_al_unchecked1@PAV?$basic_string@DU?$char_traits@D@std@@V?$allocator@D@2@@std@@PAV12@V?$allocator@V?$basic_string@DU?$char_traits@D@std@@V?$allocator@D@2@@std@@@2@@std@@YAPAV?$basic_string@DU?$char_traits@D@std@@V?$allocator@D@2@@0@PAV10@00AAU?$_Wrap_alloc@V?$allocator@V?$basic_string@DU?$char_traits@D@std@@V?$allocator@D@2@@std@@@std@@@0@U_General_ptr_iterator_tag@0@@Z 100c9460 f i internal.obj
 0002:00041590       ??$_Uninitialized_move_al_unchecked@PAV?$basic_string@DU?$char_traits@D@std@@V?$allocator@D@2@@std@@PAV12@U?$_Wrap_alloc@V?$allocator@V?$basic_string@DU?$char_traits@D@std@@V?$allocator@D@2@@std@@@std@@@2@@std@@YAPAV?$basic_string@DU?$char_traits@D@std@@V?$allocator@D@2@@0@PAV10@00AAU?$_Wrap_alloc@V?$allocator@V?$basic_string@DU?$char_traits@D@std@@V?$allocator@D@2@@std@@@std@@@0@@Z 100c9590 f i internal.obj
 0002:00041620       ??$addressof@V?$basic_string@DU?$char_traits@D@std@@V?$allocator@D@2@@std@@@std@@YAPAV?$basic_string@DU?$char_traits@D@std@@V?$allocator@D@2@@0@AAV10@@Z 100c9620 f i internal.obj
 0002:00041680       ??$construct@V?$basic_string@DU?$char_traits@D@std@@V?$allocator@D@2@@std@@V12@@?$_Wrap_alloc@V?$allocator@V?$basic_string@DU?$char_traits@D@std@@V?$allocator@D@2@@std@@@std@@@std@@QAEXPAV?$basic_string@DU?$char_traits@D@std@@V?$allocator@D@2@@1@$$QAV21@@Z 100c9680 f i internal.obj
 0002:000416f0       ??$construct@V?$basic_string@DU?$char_traits@D@std@@V?$allocator@D@2@@std@@V12@@?$allocator@V?$basic_string@DU?$char_traits@D@std@@V?$allocator@D@2@@std@@@std@@QAEXPAV?$basic_string@DU?$char_traits@D@std@@V?$allocator@D@2@@1@$$QAV21@@Z 100c96f0 f i internal.obj
 0002:00041790       ??$construct@V?$basic_string@DU?$char_traits@D@std@@V?$allocator@D@2@@std@@V12@@?$allocator_traits@V?$allocator@V?$basic_string@DU?$char_traits@D@std@@V?$allocator@D@2@@std@@@std@@@std@@SAXAAV?$allocator@V?$basic_string@DU?$char_traits@D@std@@V?$allocator@D@2@@std@@@1@PAV?$basic_string@DU?$char_traits@D@std@@V?$allocator@D@2@@1@$$QAV31@@Z 100c9790 f i internal.obj
 0002:000417f0       ??$destroy@V?$basic_string@DU?$char_traits@D@std@@V?$allocator@D@2@@std@@@?$_Wrap_alloc@V?$allocator@V?$basic_string@DU?$char_traits@D@std@@V?$allocator@D@2@@std@@@std@@@std@@QAEXPAV?$basic_string@DU?$char_traits@D@std@@V?$allocator@D@2@@1@@Z 100c97f0 f i internal.obj
 0002:00041850       ??$destroy@V?$basic_string@DU?$char_traits@D@std@@V?$allocator@D@2@@std@@@?$allocator@V?$basic_string@DU?$char_traits@D@std@@V?$allocator@D@2@@std@@@std@@QAEXPAV?$basic_string@DU?$char_traits@D@std@@V?$allocator@D@2@@1@@Z 100c9850 f i internal.obj
 0002:000418b0       ??$destroy@V?$basic_string@DU?$char_traits@D@std@@V?$allocator@D@2@@std@@@?$allocator_traits@V?$allocator@V?$basic_string@DU?$char_traits@D@std@@V?$allocator@D@2@@std@@@std@@@std@@SAXAAV?$allocator@V?$basic_string@DU?$char_traits@D@std@@V?$allocator@D@2@@std@@@1@PAV?$basic_string@DU?$char_traits@D@std@@V?$allocator@D@2@@1@@Z 100c98b0 f i internal.obj
 0002:00041900       ??4DEVICE@@QAEAAV0@ABV0@@Z 100c9900 f i internal.obj
 0002:00041b20       ??9?$_List_const_iterator@V?$_List_val@U?$_List_simple_types@U?$pair@$$CBV?$basic_string@DU?$char_traits@D@std@@V?$allocator@D@2@@std@@VDEVICE@@@std@@@std@@@std@@@std@@QBE_NABV01@@Z 100c9b20 f i internal.obj
 0002:00041bb0       ??E?$_List_iterator@V?$_List_val@U?$_List_simple_types@U?$pair@$$CBV?$basic_string@DU?$char_traits@D@std@@V?$allocator@D@2@@std@@VDEVICE@@@std@@@std@@@std@@@std@@QAEAAV01@XZ 100c9bb0 f i internal.obj
 0002:00041c10       ??_G?$basic_string@DU?$char_traits@D@std@@V?$allocator@D@2@@std@@QAEPAXI@Z 100c9c10 f i internal.obj
 0002:00041d10       ?_Destroy@?$vector@V?$basic_string@DU?$char_traits@D@std@@V?$allocator@D@2@@std@@V?$allocator@V?$basic_string@DU?$char_traits@D@std@@V?$allocator@D@2@@std@@@2@@std@@IAEXPAV?$basic_string@DU?$char_traits@D@std@@V?$allocator@D@2@@2@0@Z 100c9d10 f i internal.obj
 0002:00041d80       ?_Get_first@?$_Compressed_pair@U?$_Wrap_alloc@V?$allocator@V?$basic_string@DU?$char_traits@D@std@@V?$allocator@D@2@@std@@@std@@@std@@V?$_Vector_val@U?$_Simple_types@V?$basic_string@DU?$char_traits@D@std@@V?$allocator@D@2@@std@@@std@@@2@$00@std@@QAEAAU?$_Wrap_alloc@V?$allocator@V?$basic_string@DU?$char_traits@D@std@@V?$allocator@D@2@@std@@@std@@@2@XZ 100c9d80 f i internal.obj
 0002:00041dc0       ?_Get_first@?$_Compressed_pair@U?$_Wrap_alloc@V?$allocator@V?$basic_string@DU?$char_traits@D@std@@V?$allocator@D@2@@std@@@std@@@std@@V?$_Vector_val@U?$_Simple_types@V?$basic_string@DU?$char_traits@D@std@@V?$allocator@D@2@@std@@@std@@@2@$00@std@@QBEABU?$_Wrap_alloc@V?$allocator@V?$basic_string@DU?$char_traits@D@std@@V?$allocator@D@2@@std@@@std@@@2@XZ 100c9dc0 f i internal.obj
 0002:00041e00       ?_Getal@?$_Vector_alloc@U?$_Vec_base_types@V?$basic_string@DU?$char_traits@D@std@@V?$allocator@D@2@@std@@V?$allocator@V?$basic_string@DU?$char_traits@D@std@@V?$allocator@D@2@@std@@@2@@std@@@std@@QAEAAU?$_Wrap_alloc@V?$allocator@V?$basic_string@DU?$char_traits@D@std@@V?$allocator@D@2@@std@@@std@@@2@XZ 100c9e00 f i internal.obj
 0002:00041e50       ?_Getal@?$_Vector_alloc@U?$_Vec_base_types@V?$basic_string@DU?$char_traits@D@std@@V?$allocator@D@2@@std@@V?$allocator@V?$basic_string@DU?$char_traits@D@std@@V?$allocator@D@2@@std@@@2@@std@@@std@@QBEABU?$_Wrap_alloc@V?$allocator@V?$basic_string@DU?$char_traits@D@std@@V?$allocator@D@2@@std@@@std@@@2@XZ 100c9e50 f i internal.obj
 0002:00041ea0       ?_Getpfirst@?$_Vector_alloc@U?$_Vec_base_types@V?$basic_string@DU?$char_traits@D@std@@V?$allocator@D@2@@std@@V?$allocator@V?$basic_string@DU?$char_traits@D@std@@V?$allocator@D@2@@std@@@2@@std@@@std@@QBEPAPAU_Iterator_base12@2@XZ 100c9ea0 f i internal.obj
 0002:00041f00       ?_Grow_to@?$vector@V?$basic_string@DU?$char_traits@D@std@@V?$allocator@D@2@@std@@V?$allocator@V?$basic_string@DU?$char_traits@D@std@@V?$allocator@D@2@@std@@@2@@std@@IBEII@Z 100c9f00 f i internal.obj
 0002:00041fb0       ?_Inside@?$vector@V?$basic_string@DU?$char_traits@D@std@@V?$allocator@D@2@@std@@V?$allocator@V?$basic_string@DU?$char_traits@D@std@@V?$allocator@D@2@@std@@@2@@std@@IBE_NPBV?$basic_string@DU?$char_traits@D@std@@V?$allocator@D@2@@2@@Z 100c9fb0 f i internal.obj
 0002:00042040       ?_Myend@?$_Vector_alloc@U?$_Vec_base_types@V?$basic_string@DU?$char_traits@D@std@@V?$allocator@D@2@@std@@V?$allocator@V?$basic_string@DU?$char_traits@D@std@@V?$allocator@D@2@@std@@@2@@std@@@std@@QAEAAPAV?$basic_string@DU?$char_traits@D@std@@V?$allocator@D@2@@2@XZ 100ca040 f i internal.obj
 0002:000420a0       ?_Myend@?$_Vector_alloc@U?$_Vec_base_types@V?$basic_string@DU?$char_traits@D@std@@V?$allocator@D@2@@std@@V?$allocator@V?$basic_string@DU?$char_traits@D@std@@V?$allocator@D@2@@std@@@2@@std@@@std@@QBEABQAV?$basic_string@DU?$char_traits@D@std@@V?$allocator@D@2@@2@XZ 100ca0a0 f i internal.obj
 0002:00042100       ?_Mylast@?$_Vector_alloc@U?$_Vec_base_types@V?$basic_string@DU?$char_traits@D@std@@V?$allocator@D@2@@std@@V?$allocator@V?$basic_string@DU?$char_traits@D@std@@V?$allocator@D@2@@std@@@2@@std@@@std@@QAEAAPAV?$basic_string@DU?$char_traits@D@std@@V?$allocator@D@2@@2@XZ 100ca100 f i internal.obj
 0002:00042160       ?_Orphan_all@?$_Vector_alloc@U?$_Vec_base_types@V?$basic_string@DU?$char_traits@D@std@@V?$allocator@D@2@@std@@V?$allocator@V?$basic_string@DU?$char_traits@D@std@@V?$allocator@D@2@@std@@@2@@std@@@std@@QAEXXZ 100ca160 f i internal.obj
 0002:000421c0       ?_Orphan_range@?$vector@V?$basic_string@DU?$char_traits@D@std@@V?$allocator@D@2@@std@@V?$allocator@V?$basic_string@DU?$char_traits@D@std@@V?$allocator@D@2@@std@@@2@@std@@IBEXPAV?$basic_string@DU?$char_traits@D@std@@V?$allocator@D@2@@2@0@Z 100ca1c0 f i internal.obj
 0002:00042330       ?_Reallocate@?$vector@V?$basic_string@DU?$char_traits@D@std@@V?$allocator@D@2@@std@@V?$allocator@V?$basic_string@DU?$char_traits@D@std@@V?$allocator@D@2@@std@@@2@@std@@IAEXI@Z 100ca330 f i internal.obj
 0002:00042520       ?_Reserve@?$vector@V?$basic_string@DU?$char_traits@D@std@@V?$allocator@D@2@@std@@V?$allocator@V?$basic_string@DU?$char_traits@D@std@@V?$allocator@D@2@@std@@@2@@std@@IAEXI@Z 100ca520 f i internal.obj
 0002:000425d0       ?_Unused_capacity@?$vector@V?$basic_string@DU?$char_traits@D@std@@V?$allocator@D@2@@std@@V?$allocator@V?$basic_string@DU?$char_traits@D@std@@V?$allocator@D@2@@std@@@2@@std@@QBEIXZ 100ca5d0 f i internal.obj
 0002:00042640       ?_Xlen@?$vector@V?$basic_string@DU?$char_traits@D@std@@V?$allocator@D@2@@std@@V?$allocator@V?$basic_string@DU?$char_traits@D@std@@V?$allocator@D@2@@std@@@2@@std@@IBEXXZ 100ca640 f i internal.obj
 0002:000426a0       ?adjust@@YA?AW4ADJCODE@@PBD0@Z 100ca6a0 f   internal.obj
 0002:00042aa0       ?allocate@?$_Wrap_alloc@V?$allocator@V?$basic_string@DU?$char_traits@D@std@@V?$allocator@D@2@@std@@@std@@@std@@QAEPAV?$basic_string@DU?$char_traits@D@std@@V?$allocator@D@2@@2@I@Z 100caaa0 f i internal.obj
 0002:00042b00       ?allocate@?$allocator@V?$basic_string@DU?$char_traits@D@std@@V?$allocator@D@2@@std@@@std@@QAEPAV?$basic_string@DU?$char_traits@D@std@@V?$allocator@D@2@@2@I@Z 100cab00 f i internal.obj
 0002:00042b60       ?begin@?$_Hash@V?$_Umap_traits@V?$basic_string@DU?$char_traits@D@std@@V?$allocator@D@2@@std@@VDEVICE@@V?$_Uhash_compare@V?$basic_string@DU?$char_traits@D@std@@V?$allocator@D@2@@std@@U?$hash@V?$basic_string@DU?$char_traits@D@std@@V?$allocator@D@2@@std@@@2@U?$equal_to@V?$basic_string@DU?$char_traits@D@std@@V?$allocator@D@2@@std@@@2@@2@V?$allocator@U?$pair@$$CBV?$basic_string@DU?$char_traits@D@std@@V?$allocator@D@2@@std@@VDEVICE@@@std@@@2@$0A@@std@@@std@@QAE?AV?$_List_iterator@V?$_List_val@U?$_List_simple_types@U?$pair@$$CBV?$basic_string@DU?$char_traits@D@std@@V?$allocator@D@2@@std@@VDEVICE@@@std@@@std@@@std@@@2@XZ 100cab60 f i internal.obj
 0002:00042bc0       ?capacity@?$vector@V?$basic_string@DU?$char_traits@D@std@@V?$allocator@D@2@@std@@V?$allocator@V?$basic_string@DU?$char_traits@D@std@@V?$allocator@D@2@@std@@@2@@std@@QBEIXZ 100cabc0 f i internal.obj
 0002:00042c30       ?check_dirs@@YAXPBD@Z      100cac30 f   internal.obj
 0002:00042d40       ?check_for_trainers@@YA?AW4EnumDeviceType@@PBD@Z 100cad40 f   internal.obj
 0002:00043000       ?check_for_windows_rs232_computrainer@@YA?AW4EnumDeviceType@@PBD@Z 100cb000 f   internal.obj
 0002:00043a60       ?check_for_windows_rs232_velotron@@YA?AW4EnumDeviceType@@PBD@Z 100cba60 f   internal.obj
 0002:000443b0       ?check_for_windows_server_computrainer@@YA?AW4EnumDeviceType@@PBD@Z 100cc3b0 f   internal.obj
 0002:00044590       ?check_maps@@YAHPBD@Z      100cc590 f   internal.obj
 0002:000447e0       ?deallocate@?$_Wrap_alloc@V?$allocator@V?$basic_string@DU?$char_traits@D@std@@V?$allocator@D@2@@std@@@std@@@std@@QAEXPAV?$basic_string@DU?$char_traits@D@std@@V?$allocator@D@2@@2@I@Z 100cc7e0 f i internal.obj
 0002:00044840       ?deallocate@?$allocator@V?$basic_string@DU?$char_traits@D@std@@V?$allocator@D@2@@std@@@std@@QAEXPAV?$basic_string@DU?$char_traits@D@std@@V?$allocator@D@2@@2@I@Z 100cc840 f i internal.obj
 0002:000448a0       ?dump_devices@@YAXXZ       100cc8a0 f   internal.obj
 0002:000448d0       ?empty@?$vector@V?$basic_string@DU?$char_traits@D@std@@V?$allocator@D@2@@std@@V?$allocator@V?$basic_string@DU?$char_traits@D@std@@V?$allocator@D@2@@std@@@2@@std@@QBE_NXZ 100cc8d0 f i internal.obj
 0002:00044960       ?endCal@@YAHPBDH@Z         100cc960 f   internal.obj
 0002:00044b80       ?export_flag_file@@YA_NXZ  100ccb80 f   internal.obj
 0002:00044c10       ?flush@@YAXPAVLogger@@PAVClient@@KH@Z 100ccc10 f   internal.obj
 0002:00044c60       ?flush@@YAXPBDPAVLogger@@PAVCtsrv@RACERMATE@@KH@Z 100ccc60 f   internal.obj
 0002:00044c90       ?getBuf@NVRAM@@QAEPATU@1@XZ 100ccc90 f i internal.obj
 0002:00044cd0       ?get_cal_time@@YAHPBDH@Z   100cccd0 f   internal.obj
 0002:00044eb0       ?get_calibration@@YAHPBD@Z 100cceb0 f   internal.obj
 0002:000450c0       ?get_computrainer_cal@@YAPBDPBD@Z 100cd0c0 f   internal.obj
 0002:000456f0       ?get_computrainer_cal_from_thread@@YAPBDPBDH@Z 100cd6f0 f   internal.obj
 0002:000458d0       ?get_computrainer_firmware@@YAPBDPBD@Z 100cd8d0 f   internal.obj
 0002:00045ea0       ?get_computrainer_nv@@YAHPAVDEVICE@@@Z 100cdea0 f   internal.obj
 0002:000465f0       ?get_errstr2@@YAPBDH@Z     100ce5f0 f   internal.obj
 0002:000466f0       ?get_hr_beep_enabled@@YAHPBD@Z 100ce6f0 f   internal.obj
 0002:000469c0       ?get_lower_hr@@YAHPBD@Z    100ce9c0 f   internal.obj
 0002:00046d00       ?get_upper_hr@@YAHPBD@Z    100ced00 f   internal.obj
 0002:00047040       ?get_velotron_cal@@YAPBDPBD@Z 100cf040 f   internal.obj
 0002:000472f0       ?get_velotron_cal_from_thread@@YAPBDPBDH@Z 100cf2f0 f   internal.obj
 0002:00047470       ?get_velotron_firmware@@YAPBDPBD@Z 100cf470 f   internal.obj
 0002:00047760       ?get_version@Decoder@@QAEGXZ 100cf760 f i internal.obj
 0002:000477a0       ?get_what@@YA?AW4EnumDeviceType@@PBD@Z 100cf7a0 f   internal.obj
 0002:00047880       ?haveDevice@@YA_NW4EnumDeviceType@@PBD@Z 100cf880 f   internal.obj
 0002:000480e0       ?init_dll@@YAHXZ           100d00e0 f   internal.obj
 0002:00048180       ?isVelotron@@YA_NPAVSerial@@K@Z 100d0180 f   internal.obj
 0002:00048360       ?iscal@@YA_NW4EnumDeviceType@@PBD@Z 100d0360 f   internal.obj
 0002:00048490       ?max_size@?$_Wrap_alloc@V?$allocator@V?$basic_string@DU?$char_traits@D@std@@V?$allocator@D@2@@std@@@std@@@std@@QBEIU_Nil@2@@Z 100d0490 f i internal.obj
 0002:000484f0       ?max_size@?$allocator@V?$basic_string@DU?$char_traits@D@std@@V?$allocator@D@2@@std@@@std@@QBEIXZ 100d04f0 f i internal.obj
 0002:00048530       ?max_size@?$allocator_traits@V?$allocator@V?$basic_string@DU?$char_traits@D@std@@V?$allocator@D@2@@std@@@std@@@std@@SAIABV?$allocator@V?$basic_string@DU?$char_traits@D@std@@V?$allocator@D@2@@std@@@2@@Z 100d0530 f i internal.obj
 0002:00048580       ?max_size@?$vector@V?$basic_string@DU?$char_traits@D@std@@V?$allocator@D@2@@std@@V?$allocator@V?$basic_string@DU?$char_traits@D@std@@V?$allocator@D@2@@std@@@2@@std@@QBEIXZ 100d0580 f i internal.obj
 0002:000485f0       ?pop_back@?$vector@V?$basic_string@DU?$char_traits@D@std@@V?$allocator@D@2@@std@@V?$allocator@V?$basic_string@DU?$char_traits@D@std@@V?$allocator@D@2@@std@@@2@@std@@QAEXXZ 100d05f0 f i internal.obj
 0002:000486f0       ?push_back@?$vector@V?$basic_string@DU?$char_traits@D@std@@V?$allocator@D@2@@std@@V?$allocator@V?$basic_string@DU?$char_traits@D@std@@V?$allocator@D@2@@std@@@2@@std@@QAEX$$QAV?$basic_string@DU?$char_traits@D@std@@V?$allocator@D@2@@2@@Z 100d06f0 f i internal.obj
 0002:00048900       ?read_computrainer@@YAHPBDPAVClient@@@Z 100d0900 f   internal.obj
 0002:00049050       ?read_computrainer@@YAHPBDPAVSerial@@@Z 100d1050 f   internal.obj
 0002:000497c0       ?read_server_computrainer@@YAHPBD@Z 100d17c0 f   internal.obj
 0002:000499a0       ?read_velotron@@YAHPAVSerial@@@Z 100d19a0 f   internal.obj
 0002:00049d20       ?setShutDownDelay@Serial@@QAEXK@Z 100d1d20 f i internal.obj
 0002:00049d70       ?set_calibrating@@YAHPBDH@Z 100d1d70 f   internal.obj
 0002:00049ee0       ?setup_standard_dirs@@YAXPBD@Z 100d1ee0 f   internal.obj
 0002:0004a6f0       ?startCal@@YAHPBDH@Z       100d26f0 f   internal.obj
 0002:0004a910       ?stop_dll@@YAHXZ           100d2910 f   internal.obj
 0002:0004a990       ?velotron_exists@@YA_NPBD@Z 100d2990 f   internal.obj
 0002:0004adaa       _timeGetTime@0             100d2daa f   winmm:WINMM.dll
 0002:0004adb0       _timeSetEvent@20           100d2db0 f   winmm:WINMM.dll
 0002:0004adb6       _timeKillEvent@4           100d2db6 f   winmm:WINMM.dll
 0002:0004adbc       ??0QString@@QAE@PBD@Z      100d2dbc f   qt5core:Qt5Core.dll
 0002:0004adc2       ?tr@QMetaObject@@QBE?AVQString@@PBD0H@Z 100d2dc2 f   qt5core:Qt5Core.dll
 0002:0004add0       ??$?0$$V@?$_Compressed_pair@U?$_Wrap_alloc@V?$allocator@V?$basic_string@DU?$char_traits@D@std@@V?$allocator@D@2@@std@@@std@@@std@@V?$_Vector_val@U?$_Simple_types@V?$basic_string@DU?$char_traits@D@std@@V?$allocator@D@2@@std@@@std@@@2@$00@std@@QAE@U_Zero_then_variadic_args_t@1@@Z 100d2dd0 f i rmg:comglobs.obj
 0002:0004ae00       ??$?0AAU?$_Wrap_alloc@V?$allocator@V?$basic_string@DU?$char_traits@D@std@@V?$allocator@D@2@@std@@@std@@@std@@@?$_Wrap_alloc@V?$allocator@U_Container_proxy@std@@@std@@@std@@QAE@AAU?$_Wrap_alloc@V?$allocator@V?$basic_string@DU?$char_traits@D@std@@V?$allocator@D@2@@std@@@std@@@1@@Z 100d2e00 f i rmg:comglobs.obj
 0002:0004ae30       ??$?0V?$basic_string@DU?$char_traits@D@std@@V?$allocator@D@2@@std@@@?$allocator@U_Container_proxy@std@@@std@@QAE@ABV?$allocator@V?$basic_string@DU?$char_traits@D@std@@V?$allocator@D@2@@std@@@1@@Z 100d2e30 f i rmg:comglobs.obj
 0002:0004ae50       ??$forward@AAU?$_Wrap_alloc@V?$allocator@V?$basic_string@DU?$char_traits@D@std@@V?$allocator@D@2@@std@@@std@@@std@@@std@@YAAAU?$_Wrap_alloc@V?$allocator@V?$basic_string@DU?$char_traits@D@std@@V?$allocator@D@2@@std@@@std@@@0@AAU10@@Z 100d2e50 f i rmg:comglobs.obj
 0002:0004ae60       ??0?$_Vector_alloc@U?$_Vec_base_types@V?$basic_string@DU?$char_traits@D@std@@V?$allocator@D@2@@std@@V?$allocator@V?$basic_string@DU?$char_traits@D@std@@V?$allocator@D@2@@std@@@2@@std@@@std@@QAE@XZ 100d2e60 f i rmg:comglobs.obj
 0002:0004aee0       ??0?$_Vector_val@U?$_Simple_types@V?$basic_string@DU?$char_traits@D@std@@V?$allocator@D@2@@std@@@std@@@std@@QAE@XZ 100d2ee0 f i rmg:comglobs.obj
 0002:0004af30       ??0?$_Wrap_alloc@V?$allocator@V?$basic_string@DU?$char_traits@D@std@@V?$allocator@D@2@@std@@@std@@@std@@QAE@XZ 100d2f30 f i rmg:comglobs.obj
 0002:0004af50       ??0?$allocator@V?$basic_string@DU?$char_traits@D@std@@V?$allocator@D@2@@std@@@std@@QAE@XZ 100d2f50 f i rmg:comglobs.obj
 0002:0004af70       ??0?$vector@V?$basic_string@DU?$char_traits@D@std@@V?$allocator@D@2@@std@@V?$allocator@V?$basic_string@DU?$char_traits@D@std@@V?$allocator@D@2@@std@@@2@@std@@QAE@XZ 100d2f70 f i rmg:comglobs.obj
 0002:0004afc0       ??1?$_Compressed_pair@U?$_Wrap_alloc@V?$allocator@V?$basic_string@DU?$char_traits@D@std@@V?$allocator@D@2@@std@@@std@@@std@@V?$_Vector_val@U?$_Simple_types@V?$basic_string@DU?$char_traits@D@std@@V?$allocator@D@2@@std@@@std@@@2@$00@std@@QAE@XZ 100d2fc0 f i rmg:comglobs.obj
 0002:0004afe0       ??1?$_Vector_alloc@U?$_Vec_base_types@V?$basic_string@DU?$char_traits@D@std@@V?$allocator@D@2@@std@@V?$allocator@V?$basic_string@DU?$char_traits@D@std@@V?$allocator@D@2@@std@@@2@@std@@@std@@QAE@XZ 100d2fe0 f i rmg:comglobs.obj
 0002:0004b040       ??1?$_Vector_val@U?$_Simple_types@V?$basic_string@DU?$char_traits@D@std@@V?$allocator@D@2@@std@@@std@@@std@@QAE@XZ 100d3040 f i rmg:comglobs.obj
 0002:0004b060       ??1?$vector@V?$basic_string@DU?$char_traits@D@std@@V?$allocator@D@2@@std@@V?$allocator@V?$basic_string@DU?$char_traits@D@std@@V?$allocator@D@2@@std@@@2@@std@@QAE@XZ 100d3060 f i rmg:comglobs.obj
 0002:0004b0c0       ?_Alloc_proxy@?$_Vector_alloc@U?$_Vec_base_types@V?$basic_string@DU?$char_traits@D@std@@V?$allocator@D@2@@std@@V?$allocator@V?$basic_string@DU?$char_traits@D@std@@V?$allocator@D@2@@std@@@2@@std@@@std@@QAEXXZ 100d30c0 f i rmg:comglobs.obj
 0002:0004b150       ?_Free_proxy@?$_Vector_alloc@U?$_Vec_base_types@V?$basic_string@DU?$char_traits@D@std@@V?$allocator@D@2@@std@@V?$allocator@V?$basic_string@DU?$char_traits@D@std@@V?$allocator@D@2@@std@@@2@@std@@@std@@QAEXXZ 100d3150 f i rmg:comglobs.obj
 0002:0004b1d0       ?_Myproxy@?$_Vector_alloc@U?$_Vec_base_types@V?$basic_string@DU?$char_traits@D@std@@V?$allocator@D@2@@std@@V?$allocator@V?$basic_string@DU?$char_traits@D@std@@V?$allocator@D@2@@std@@@2@@std@@@std@@QAEAAPAU_Container_proxy@2@XZ 100d31d0 f i rmg:comglobs.obj
 0002:0004b1f0       ?_Tidy@?$vector@V?$basic_string@DU?$char_traits@D@std@@V?$allocator@D@2@@std@@V?$allocator@V?$basic_string@DU?$char_traits@D@std@@V?$allocator@D@2@@std@@@2@@std@@IAEXXZ 100d31f0 f i rmg:comglobs.obj
 0002:0004b2d0       ??0CRF@@QAE@_N@Z           100d32d0 f   rmg:crf.obj
 0002:0004b300       ??1CRF@@UAE@XZ             100d3300 f   rmg:crf.obj
 0002:0004b320       ?init@CRF@@QAEXPAE0@Z      100d3320 f   rmg:crf.obj
 0002:0004b550       ?init@CRF@@QAEXXZ          100d3550 f   rmg:crf.obj
 0002:0004b900       ?generate_seedstr@CRF@@QAEXXZ 100d3900 f   rmg:crf.obj
 0002:0004b910       ?doo@CRF@@QAEXPAEH@Z       100d3910 f   rmg:crf.obj
 0002:0004ba50       ?unwind@CRF@@QAEXH@Z       100d3a50 f   rmg:crf.obj
 0002:0004bb10       ?do_file@CRF@@QAE_NPAD0@Z  100d3b10 f   rmg:crf.obj
 0002:0004bbe0       ?initialized@CRF@@QAE_NXZ  100d3be0 f   rmg:crf.obj
 0002:0004bc10       ?save_encrypt_state@CRF@@QAEXXZ 100d3c10 f   rmg:crf.obj
 0002:0004bc30       ?restore_encrypt_state@CRF@@QAEXXZ 100d3c30 f   rmg:crf.obj
 0002:0004bc70       ?geti@CRF@@QAEHXZ          100d3c70 f   rmg:crf.obj
 0002:0004bc90       ?getj@CRF@@QAEHXZ          100d3c90 f   rmg:crf.obj
 0002:0004bcb0       ?getstate@CRF@@QAEXPAUTCRF@@@Z 100d3cb0 f   rmg:crf.obj
 0002:0004bce0       ?setstate@CRF@@QAEXPAUTCRF@@@Z 100d3ce0 f   rmg:crf.obj
 0002:0004bfa0       ??$?0$$V@?$_Compressed_pair@U?$_Wrap_alloc@V?$allocator@UTCRF@@@std@@@std@@V?$_Deque_val@U?$_Deque_simple_types@UTCRF@@@std@@@2@$00@std@@QAE@U_Zero_then_variadic_args_t@1@@Z 100d3fa0 f i rmg:crf.obj
 0002:0004bfd0       ??$?0AAU?$_Wrap_alloc@V?$allocator@UTCRF@@@std@@@std@@@?$_Wrap_alloc@V?$allocator@PAUTCRF@@@std@@@std@@QAE@AAU?$_Wrap_alloc@V?$allocator@UTCRF@@@std@@@1@@Z 100d3fd0 f i rmg:crf.obj
 0002:0004c000       ??$?0AAU?$_Wrap_alloc@V?$allocator@UTCRF@@@std@@@std@@@?$_Wrap_alloc@V?$allocator@U_Container_proxy@std@@@std@@@std@@QAE@AAU?$_Wrap_alloc@V?$allocator@UTCRF@@@std@@@1@@Z 100d4000 f i rmg:crf.obj
 0002:0004c030       ??$?0UTCRF@@@?$allocator@PAUTCRF@@@std@@QAE@ABV?$allocator@UTCRF@@@1@@Z 100d4030 f i rmg:crf.obj
 0002:0004c050       ??$?0UTCRF@@@?$allocator@U_Container_proxy@std@@@std@@QAE@ABV?$allocator@UTCRF@@@1@@Z 100d4050 f i rmg:crf.obj
 0002:0004c070       ??$_Addressof@PAUTCRF@@@std@@YAPAPAUTCRF@@AAPAU1@U?$integral_constant@_N$0A@@0@@Z 100d4070 f i rmg:crf.obj
 0002:0004c080       ??$_Copy_memmove@PAPAUTCRF@@PAPAU1@@std@@YAPAPAUTCRF@@PAPAU1@00@Z 100d4080 f i rmg:crf.obj
 0002:0004c0d0       ??$_Destroy_range@U?$_Wrap_alloc@V?$allocator@PAUTCRF@@@std@@@std@@@std@@YAXPAPAUTCRF@@0AAU?$_Wrap_alloc@V?$allocator@PAUTCRF@@@std@@@0@@Z 100d40d0 f i rmg:crf.obj
 0002:0004c110       ??$_Ptr_copy_cat@PAUTCRF@@PAU1@@std@@YA?AU_Really_trivial_ptr_iterator_tag@0@ABQAPAUTCRF@@0@Z 100d4110 f i rmg:crf.obj
 0002:0004c120       ??$_Rechecked@PAPAUTCRF@@PAPAU1@@std@@YAAAPAPAUTCRF@@AAPAPAU1@PAPAU1@@Z 100d4120 f i rmg:crf.obj
 0002:0004c140       ??$_Unchecked@PAPAUTCRF@@@std@@YAPAPAUTCRF@@PAPAU1@@Z 100d4140 f i rmg:crf.obj
 0002:0004c150       ??$_Uninitialized_copy@PAPAUTCRF@@PAPAU1@U?$_Wrap_alloc@V?$allocator@PAUTCRF@@@std@@@std@@@std@@YAPAPAUTCRF@@PAPAU1@00AAU?$_Wrap_alloc@V?$allocator@PAUTCRF@@@std@@@0@@Z 100d4150 f i rmg:crf.obj
 0002:0004c1b0       ??$_Uninitialized_copy_al_unchecked1@PAUTCRF@@PAU1@@std@@YAPAPAUTCRF@@PAPAU1@00AAU?$_Wrap_alloc@V?$allocator@PAUTCRF@@@std@@@0@U_Really_trivial_ptr_iterator_tag@0@@Z 100d41b0 f i rmg:crf.obj
 0002:0004c1d0       ??$_Uninitialized_copy_al_unchecked@PAPAUTCRF@@PAPAU1@U?$_Wrap_alloc@V?$allocator@PAUTCRF@@@std@@@std@@@std@@YAPAPAUTCRF@@PAPAU1@00AAU?$_Wrap_alloc@V?$allocator@PAUTCRF@@@std@@@0@@Z 100d41d0 f i rmg:crf.obj
 0002:0004c220       ??$_Uninitialized_default_fill_n1@PAPAUTCRF@@I@std@@YAXPAPAUTCRF@@IAAU?$_Wrap_alloc@V?$allocator@PAUTCRF@@@std@@@0@U?$integral_constant@_N$00@0@@Z 100d4220 f i rmg:crf.obj
 0002:0004c240       ??$_Uninitialized_default_fill_n@PAPAUTCRF@@IU?$_Wrap_alloc@V?$allocator@PAUTCRF@@@std@@@std@@@std@@YAXPAPAUTCRF@@IAAU?$_Wrap_alloc@V?$allocator@PAUTCRF@@@std@@@0@@Z 100d4240 f i rmg:crf.obj
 0002:0004c270       ??$addressof@PAUTCRF@@@std@@YAPAPAUTCRF@@AAPAU1@@Z 100d4270 f i rmg:crf.obj
 0002:0004c290       ??$construct@UTCRF@@ABU1@@?$_Wrap_alloc@V?$allocator@UTCRF@@@std@@@std@@QAEXPAUTCRF@@ABU2@@Z 100d4290 f i rmg:crf.obj
 0002:0004c2d0       ??$construct@UTCRF@@ABU1@@?$allocator@UTCRF@@@std@@QAEXPAUTCRF@@ABU2@@Z 100d42d0 f i rmg:crf.obj
 0002:0004c340       ??$construct@UTCRF@@ABU1@@?$allocator_traits@V?$allocator@UTCRF@@@std@@@std@@SAXAAV?$allocator@UTCRF@@@1@PAUTCRF@@ABU3@@Z 100d4340 f i rmg:crf.obj
 0002:0004c370       ??$destroy@PAUTCRF@@@?$_Wrap_alloc@V?$allocator@PAUTCRF@@@std@@@std@@QAEXPAPAUTCRF@@@Z 100d4370 f i rmg:crf.obj
 0002:0004c3a0       ??$destroy@PAUTCRF@@@?$_Wrap_alloc@V?$allocator@UTCRF@@@std@@@std@@QAEXPAPAUTCRF@@@Z 100d43a0 f i rmg:crf.obj
 0002:0004c3d0       ??$destroy@PAUTCRF@@@?$allocator@PAUTCRF@@@std@@QAEXPAPAUTCRF@@@Z 100d43d0 f i rmg:crf.obj
 0002:0004c3e0       ??$destroy@PAUTCRF@@@?$allocator@UTCRF@@@std@@QAEXPAPAUTCRF@@@Z 100d43e0 f i rmg:crf.obj
 0002:0004c3f0       ??$destroy@PAUTCRF@@@?$allocator_traits@V?$allocator@PAUTCRF@@@std@@@std@@SAXAAV?$allocator@PAUTCRF@@@1@PAPAUTCRF@@@Z 100d43f0 f i rmg:crf.obj
 0002:0004c410       ??$destroy@PAUTCRF@@@?$allocator_traits@V?$allocator@UTCRF@@@std@@@std@@SAXAAV?$allocator@UTCRF@@@1@PAPAUTCRF@@@Z 100d4410 f i rmg:crf.obj
 0002:0004c430       ??$destroy@UTCRF@@@?$_Wrap_alloc@V?$allocator@UTCRF@@@std@@@std@@QAEXPAUTCRF@@@Z 100d4430 f i rmg:crf.obj
 0002:0004c460       ??$destroy@UTCRF@@@?$allocator@UTCRF@@@std@@QAEXPAUTCRF@@@Z 100d4460 f i rmg:crf.obj
 0002:0004c470       ??$destroy@UTCRF@@@?$allocator_traits@V?$allocator@UTCRF@@@std@@@std@@SAXAAV?$allocator@UTCRF@@@1@PAUTCRF@@@Z 100d4470 f i rmg:crf.obj
 0002:0004c490       ??$forward@AAU?$_Wrap_alloc@V?$allocator@UTCRF@@@std@@@std@@@std@@YAAAU?$_Wrap_alloc@V?$allocator@UTCRF@@@std@@@0@AAU10@@Z 100d4490 f i rmg:crf.obj
 0002:0004c4a0       ??$forward@ABUTCRF@@@std@@YAABUTCRF@@ABU1@@Z 100d44a0 f i rmg:crf.obj
 0002:0004c4b0       ??0?$_Deque_alloc@U?$_Deque_base_types@UTCRF@@V?$allocator@UTCRF@@@std@@@std@@@std@@QAE@XZ 100d44b0 f i rmg:crf.obj
 0002:0004c530       ??0?$_Deque_const_iterator@V?$_Deque_val@U?$_Deque_simple_types@UTCRF@@@std@@@std@@@std@@QAE@ABV01@@Z 100d4530 f i rmg:crf.obj
 0002:0004c570       ??0?$_Deque_const_iterator@V?$_Deque_val@U?$_Deque_simple_types@UTCRF@@@std@@@std@@@std@@QAE@IPBU_Container_base12@1@@Z 100d4570 f i rmg:crf.obj
 0002:0004c5f0       ??0?$_Deque_iterator@V?$_Deque_val@U?$_Deque_simple_types@UTCRF@@@std@@@std@@@std@@QAE@ABV01@@Z 100d45f0 f i rmg:crf.obj
 0002:0004c620       ??0?$_Deque_iterator@V?$_Deque_val@U?$_Deque_simple_types@UTCRF@@@std@@@std@@@std@@QAE@IPBU_Container_base12@1@@Z 100d4620 f i rmg:crf.obj
 0002:0004c650       ??0?$_Deque_val@U?$_Deque_simple_types@UTCRF@@@std@@@std@@QAE@XZ 100d4650 f i rmg:crf.obj
 0002:0004c6a0       ??0?$_Wrap_alloc@V?$allocator@UTCRF@@@std@@@std@@QAE@XZ 100d46a0 f i rmg:crf.obj
 0002:0004c6c0       ??0?$allocator@UTCRF@@@std@@QAE@XZ 100d46c0 f i rmg:crf.obj
 0002:0004c6e0       ??0?$deque@UTCRF@@V?$allocator@UTCRF@@@std@@@std@@QAE@XZ 100d46e0 f i rmg:crf.obj
 0002:0004c700       ??0?$stack@UTCRF@@V?$deque@UTCRF@@V?$allocator@UTCRF@@@std@@@std@@@std@@QAE@XZ 100d4700 f i rmg:crf.obj
 0002:0004c720       ??1?$_Compressed_pair@U?$_Wrap_alloc@V?$allocator@UTCRF@@@std@@@std@@V?$_Deque_val@U?$_Deque_simple_types@UTCRF@@@std@@@2@$00@std@@QAE@XZ 100d4720 f i rmg:crf.obj
 0002:0004c740       ??1?$_Deque_alloc@U?$_Deque_base_types@UTCRF@@V?$allocator@UTCRF@@@std@@@std@@@std@@QAE@XZ 100d4740 f i rmg:crf.obj
 0002:0004c7a0       ??1?$_Deque_const_iterator@V?$_Deque_val@U?$_Deque_simple_types@UTCRF@@@std@@@std@@@std@@QAE@XZ 100d47a0 f i rmg:crf.obj
 0002:0004c7c0       ??1?$_Deque_iterator@V?$_Deque_val@U?$_Deque_simple_types@UTCRF@@@std@@@std@@@std@@QAE@XZ 100d47c0 f i rmg:crf.obj
 0002:0004c7e0       ??1?$_Deque_val@U?$_Deque_simple_types@UTCRF@@@std@@@std@@QAE@XZ 100d47e0 f i rmg:crf.obj
 0002:0004c800       ??1?$deque@UTCRF@@V?$allocator@UTCRF@@@std@@@std@@QAE@XZ 100d4800 f i rmg:crf.obj
 0002:0004c860       ??1?$stack@UTCRF@@V?$deque@UTCRF@@V?$allocator@UTCRF@@@std@@@std@@@std@@QAE@XZ 100d4860 f i rmg:crf.obj
 0002:0004c880       ??D?$_Deque_const_iterator@V?$_Deque_val@U?$_Deque_simple_types@UTCRF@@@std@@@std@@@std@@QBEABUTCRF@@XZ 100d4880 f i rmg:crf.obj
 0002:0004c9a0       ??D?$_Deque_iterator@V?$_Deque_val@U?$_Deque_simple_types@UTCRF@@@std@@@std@@@std@@QBEAAUTCRF@@XZ 100d49a0 f i rmg:crf.obj
 0002:0004c9c0       ??G?$_Deque_iterator@V?$_Deque_val@U?$_Deque_simple_types@UTCRF@@@std@@@std@@@std@@QBE?AV01@H@Z 100d49c0 f i rmg:crf.obj
 0002:0004ca70       ??Y?$_Deque_iterator@V?$_Deque_val@U?$_Deque_simple_types@UTCRF@@@std@@@std@@@std@@QAEAAV01@H@Z 100d4a70 f i rmg:crf.obj
 0002:0004caa0       ??Z?$_Deque_iterator@V?$_Deque_val@U?$_Deque_simple_types@UTCRF@@@std@@@std@@@std@@QAEAAV01@H@Z 100d4aa0 f i rmg:crf.obj
 0002:0004cad0       ??_ECRF@@UAEPAXI@Z         100d4ad0 f i rmg:crf.obj
 0002:0004cad0       ??_GCRF@@UAEPAXI@Z         100d4ad0 f i rmg:crf.obj
 0002:0004cb10       ?_Alloc_proxy@?$_Deque_alloc@U?$_Deque_base_types@UTCRF@@V?$allocator@UTCRF@@@std@@@std@@@std@@QAEXXZ 100d4b10 f i rmg:crf.obj
 0002:0004cba0       ?_Free_proxy@?$_Deque_alloc@U?$_Deque_base_types@UTCRF@@V?$allocator@UTCRF@@@std@@@std@@@std@@QAEXXZ 100d4ba0 f i rmg:crf.obj
 0002:0004cc20       ?_Get_data@?$_Deque_alloc@U?$_Deque_base_types@UTCRF@@V?$allocator@UTCRF@@@std@@@std@@@std@@QAEAAV?$_Deque_val@U?$_Deque_simple_types@UTCRF@@@std@@@2@XZ 100d4c20 f i rmg:crf.obj
 0002:0004cc40       ?_Get_data@?$_Deque_alloc@U?$_Deque_base_types@UTCRF@@V?$allocator@UTCRF@@@std@@@std@@@std@@QBEABV?$_Deque_val@U?$_Deque_simple_types@UTCRF@@@std@@@2@XZ 100d4c40 f i rmg:crf.obj
 0002:0004cc60       ?_Get_first@?$_Compressed_pair@U?$_Wrap_alloc@V?$allocator@UTCRF@@@std@@@std@@V?$_Deque_val@U?$_Deque_simple_types@UTCRF@@@std@@@2@$00@std@@QAEAAU?$_Wrap_alloc@V?$allocator@UTCRF@@@std@@@2@XZ 100d4c60 f i rmg:crf.obj
 0002:0004cc80       ?_Get_first@?$_Compressed_pair@U?$_Wrap_alloc@V?$allocator@UTCRF@@@std@@@std@@V?$_Deque_val@U?$_Deque_simple_types@UTCRF@@@std@@@2@$00@std@@QBEABU?$_Wrap_alloc@V?$allocator@UTCRF@@@std@@@2@XZ 100d4c80 f i rmg:crf.obj
 0002:0004cca0       ?_Get_second@?$_Compressed_pair@U?$_Wrap_alloc@V?$allocator@UTCRF@@@std@@@std@@V?$_Deque_val@U?$_Deque_simple_types@UTCRF@@@std@@@2@$00@std@@QAEAAV?$_Deque_val@U?$_Deque_simple_types@UTCRF@@@std@@@2@XZ 100d4ca0 f i rmg:crf.obj
 0002:0004ccc0       ?_Get_second@?$_Compressed_pair@U?$_Wrap_alloc@V?$allocator@UTCRF@@@std@@@std@@V?$_Deque_val@U?$_Deque_simple_types@UTCRF@@@std@@@2@$00@std@@QBEABV?$_Deque_val@U?$_Deque_simple_types@UTCRF@@@std@@@2@XZ 100d4cc0 f i rmg:crf.obj
 0002:0004cce0       ?_Getal@?$_Deque_alloc@U?$_Deque_base_types@UTCRF@@V?$allocator@UTCRF@@@std@@@std@@@std@@QAEAAU?$_Wrap_alloc@V?$allocator@UTCRF@@@std@@@2@XZ 100d4ce0 f i rmg:crf.obj
 0002:0004cd00       ?_Getal@?$_Deque_alloc@U?$_Deque_base_types@UTCRF@@V?$allocator@UTCRF@@@std@@@std@@@std@@QBEABU?$_Wrap_alloc@V?$allocator@UTCRF@@@std@@@2@XZ 100d4d00 f i rmg:crf.obj
 0002:0004cd20       ?_Getblock@?$_Deque_alloc@U?$_Deque_base_types@UTCRF@@V?$allocator@UTCRF@@@std@@@std@@@std@@QBEII@Z 100d4d20 f i rmg:crf.obj
 0002:0004cd50       ?_Getblock@?$_Deque_val@U?$_Deque_simple_types@UTCRF@@@std@@@std@@QBEII@Z 100d4d50 f i rmg:crf.obj
 0002:0004cd70       ?_Getpfirst@?$_Deque_alloc@U?$_Deque_base_types@UTCRF@@V?$allocator@UTCRF@@@std@@@std@@@std@@QBEPAPAU_Iterator_base12@2@XZ 100d4d70 f i rmg:crf.obj
 0002:0004cd90       ?_Growmap@?$deque@UTCRF@@V?$allocator@UTCRF@@@std@@@std@@IAEXI@Z 100d4d90 f i rmg:crf.obj
 0002:0004d090       ?_Map@?$_Deque_alloc@U?$_Deque_base_types@UTCRF@@V?$allocator@UTCRF@@@std@@@std@@@std@@QAEAAPAPAUTCRF@@XZ 100d5090 f i rmg:crf.obj
 0002:0004d0b0       ?_Mapsize@?$_Deque_alloc@U?$_Deque_base_types@UTCRF@@V?$allocator@UTCRF@@@std@@@std@@@std@@QAEAAIXZ 100d50b0 f i rmg:crf.obj
 0002:0004d0d0       ?_Myoff@?$_Deque_alloc@U?$_Deque_base_types@UTCRF@@V?$allocator@UTCRF@@@std@@@std@@@std@@QAEAAIXZ 100d50d0 f i rmg:crf.obj
 0002:0004d0f0       ?_Myoff@?$_Deque_alloc@U?$_Deque_base_types@UTCRF@@V?$allocator@UTCRF@@@std@@@std@@@std@@QBEABIXZ 100d50f0 f i rmg:crf.obj
 0002:0004d110       ?_Myproxy@?$_Deque_alloc@U?$_Deque_base_types@UTCRF@@V?$allocator@UTCRF@@@std@@@std@@@std@@QAEAAPAU_Container_proxy@2@XZ 100d5110 f i rmg:crf.obj
 0002:0004d130       ?_Mysize@?$_Deque_alloc@U?$_Deque_base_types@UTCRF@@V?$allocator@UTCRF@@@std@@@std@@@std@@QAEAAIXZ 100d5130 f i rmg:crf.obj
 0002:0004d150       ?_Mysize@?$_Deque_alloc@U?$_Deque_base_types@UTCRF@@V?$allocator@UTCRF@@@std@@@std@@@std@@QBEABIXZ 100d5150 f i rmg:crf.obj
 0002:0004d170       ?_Orphan_all@?$_Deque_alloc@U?$_Deque_base_types@UTCRF@@V?$allocator@UTCRF@@@std@@@std@@@std@@QAEXXZ 100d5170 f i rmg:crf.obj
 0002:0004d190       ?_Orphan_off@?$deque@UTCRF@@V?$allocator@UTCRF@@@std@@@std@@IBEXI@Z 100d5190 f i rmg:crf.obj
 0002:0004d2e0       ?_Setcont@?$_Deque_const_iterator@V?$_Deque_val@U?$_Deque_simple_types@UTCRF@@@std@@@std@@@std@@QAEXPBV?$_Deque_val@U?$_Deque_simple_types@UTCRF@@@std@@@2@@Z 100d52e0 f i rmg:crf.obj
 0002:0004d300       ?_Tidy@?$deque@UTCRF@@V?$allocator@UTCRF@@@std@@@std@@IAEXXZ 100d5300 f i rmg:crf.obj
 0002:0004d430       ?_Xlen@?$deque@UTCRF@@V?$allocator@UTCRF@@@std@@@std@@IBEXXZ 100d5430 f i rmg:crf.obj
 0002:0004d450       ?allocate@?$_Wrap_alloc@V?$allocator@PAUTCRF@@@std@@@std@@QAEPAPAUTCRF@@I@Z 100d5450 f i rmg:crf.obj
 0002:0004d470       ?allocate@?$_Wrap_alloc@V?$allocator@UTCRF@@@std@@@std@@QAEPAUTCRF@@I@Z 100d5470 f i rmg:crf.obj
 0002:0004d490       ?allocate@?$allocator@PAUTCRF@@@std@@QAEPAPAUTCRF@@I@Z 100d5490 f i rmg:crf.obj
 0002:0004d4c0       ?allocate@?$allocator@UTCRF@@@std@@QAEPAUTCRF@@I@Z 100d54c0 f i rmg:crf.obj
 0002:0004d4f0       ?back@?$deque@UTCRF@@V?$allocator@UTCRF@@@std@@@std@@QAEAAUTCRF@@XZ 100d54f0 f i rmg:crf.obj
 0002:0004d5b0       ?deallocate@?$_Wrap_alloc@V?$allocator@PAUTCRF@@@std@@@std@@QAEXPAPAUTCRF@@I@Z 100d55b0 f i rmg:crf.obj
 0002:0004d5e0       ?deallocate@?$_Wrap_alloc@V?$allocator@UTCRF@@@std@@@std@@QAEXPAUTCRF@@I@Z 100d55e0 f i rmg:crf.obj
 0002:0004d610       ?deallocate@?$allocator@PAUTCRF@@@std@@QAEXPAPAUTCRF@@I@Z 100d5610 f i rmg:crf.obj
 0002:0004d640       ?deallocate@?$allocator@UTCRF@@@std@@QAEXPAUTCRF@@I@Z 100d5640 f i rmg:crf.obj
 0002:0004d670       ?empty@?$deque@UTCRF@@V?$allocator@UTCRF@@@std@@@std@@QBE_NXZ 100d5670 f i rmg:crf.obj
 0002:0004d6b0       ?end@?$deque@UTCRF@@V?$allocator@UTCRF@@@std@@@std@@QAE?AV?$_Deque_iterator@V?$_Deque_val@U?$_Deque_simple_types@UTCRF@@@std@@@std@@@2@XZ 100d56b0 f i rmg:crf.obj
 0002:0004d730       ?max_size@?$_Wrap_alloc@V?$allocator@UTCRF@@@std@@@std@@QBEIU_Nil@2@@Z 100d5730 f i rmg:crf.obj
 0002:0004d750       ?max_size@?$allocator@UTCRF@@@std@@QBEIXZ 100d5750 f i rmg:crf.obj
 0002:0004d770       ?max_size@?$allocator_traits@V?$allocator@UTCRF@@@std@@@std@@SAIABV?$allocator@UTCRF@@@2@@Z 100d5770 f i rmg:crf.obj
 0002:0004d780       ?max_size@?$deque@UTCRF@@V?$allocator@UTCRF@@@std@@@std@@QBEIXZ 100d5780 f i rmg:crf.obj
 0002:0004d7b0       ?pop@?$stack@UTCRF@@V?$deque@UTCRF@@V?$allocator@UTCRF@@@std@@@std@@@std@@QAEXXZ 100d57b0 f i rmg:crf.obj
 0002:0004d7d0       ?pop_back@?$deque@UTCRF@@V?$allocator@UTCRF@@@std@@@std@@QAEXXZ 100d57d0 f i rmg:crf.obj
 0002:0004d8e0       ?push@?$stack@UTCRF@@V?$deque@UTCRF@@V?$allocator@UTCRF@@@std@@@std@@@std@@QAEXABUTCRF@@@Z 100d58e0 f i rmg:crf.obj
 0002:0004d900       ?push_back@?$deque@UTCRF@@V?$allocator@UTCRF@@@std@@@std@@QAEXABUTCRF@@@Z 100d5900 f i rmg:crf.obj
 0002:0004da80       ?top@?$stack@UTCRF@@V?$deque@UTCRF@@V?$allocator@UTCRF@@@std@@@std@@@std@@QAEAAUTCRF@@XZ 100d5a80 f i rmg:crf.obj
 0002:0004daa0       ?logg@Ctsrv@RACERMATE@@AAAXPBDZZ 100d5aa0 f   ctsrv:ctsrv.obj
 0002:0004dba0       ??0Ctsrv@RACERMATE@@QAE@HHPBDHPAVQObject@@@Z 100d5ba0 f   ctsrv:ctsrv.obj
 0002:0004e270       ??1Ctsrv@RACERMATE@@UAE@XZ 100d6270 f   ctsrv:ctsrv.obj
 0002:0004e730       ?instance@Ctsrv@RACERMATE@@SAPAV12@XZ 100d6730 f   ctsrv:ctsrv.obj
 0002:0004e740       ?doSomeOtherStuff@Ctsrv@RACERMATE@@QAEXH@Z 100d6740 f   ctsrv:ctsrv.obj
 0002:0004e800       ?get_devnums@Ctsrv@RACERMATE@@QAEPBDXZ 100d6800 f   ctsrv:ctsrv.obj
 0002:0004e830       ?get_udpkey_from_devnum@Ctsrv@RACERMATE@@QAEPBDPBD@Z 100d6830 f   ctsrv:ctsrv.obj
 0002:0004ead0       ?get_udpclient_names@Ctsrv@RACERMATE@@QAEPBDXZ 100d6ad0 f   ctsrv:ctsrv.obj
 0002:0004ecc0       ?get_barinfo@Ctsrv@RACERMATE@@QAEPAVBARINFO@qt_SS@2@VQString@@H@Z 100d6cc0 f   ctsrv:ctsrv.obj
 0002:0004eda0       ?send@Ctsrv@RACERMATE@@QAEHHPBEH_N@Z 100d6da0 f   ctsrv:ctsrv.obj
 0002:0004edb0       ?client_is_running@Ctsrv@RACERMATE@@QAE_NH@Z 100d6db0 f   ctsrv:ctsrv.obj
 0002:0004edf0       ?get_nclients@Ctsrv@RACERMATE@@QAEHXZ 100d6df0 f   ctsrv:ctsrv.obj
 0002:0004ee20       ?get_keys@Ctsrv@RACERMATE@@QAE?AV?$QList@VQString@@@@XZ 100d6e20 f   ctsrv:ctsrv.obj
 0002:0004ef50       ?get_devnum@Ctsrv@RACERMATE@@QAEHVQString@@@Z 100d6f50 f   ctsrv:ctsrv.obj
 0002:0004f010       ?have@Ctsrv@RACERMATE@@QAE_NPBD@Z 100d7010 f   ctsrv:ctsrv.obj
 0002:0004f050       ?get_ss_data@Ctsrv@RACERMATE@@QAE?AUSSDATA@@VQString@@H@Z 100d7050 f   ctsrv:ctsrv.obj
 0002:0004f170       ?check_udp_keys@Ctsrv@RACERMATE@@QAEHXZ 100d7170 f   ctsrv:ctsrv.obj
 0002:0004f180       ?setPaused@Ctsrv@RACERMATE@@QAEHVQString@@_N@Z 100d7180 f   ctsrv:ctsrv.obj
 0002:0004f2d0       ?GetTrainerData@Ctsrv@RACERMATE@@QAE?AUTrainerData@2@PBD@Z 100d72d0 f   ctsrv:ctsrv.obj
 0002:0004f420       ?reset_client@Ctsrv@RACERMATE@@QAEHPBD@Z 100d7420 f   ctsrv:ctsrv.obj
 0002:0004f4f0       ?set_ergo_mode@Ctsrv@RACERMATE@@QAEHVQString@@HHM@Z 100d74f0 f   ctsrv:ctsrv.obj
 0002:0004f5a0       ?set_export@Ctsrv@RACERMATE@@QAEXVQString@@PBD@Z 100d75a0 f   ctsrv:ctsrv.obj
 0002:0004f640       ?set_file_mode@Ctsrv@RACERMATE@@QAEHVQString@@_N@Z 100d7640 f   ctsrv:ctsrv.obj
 0002:0004f780       ?get_average_bars@Ctsrv@RACERMATE@@QAEPAMVQString@@@Z 100d7780 f   ctsrv:ctsrv.obj
 0002:0004f860       ?get_bars@Ctsrv@RACERMATE@@QAEPAMVQString@@@Z 100d7860 f   ctsrv:ctsrv.obj
 0002:0004f950       ?get_ftp@Ctsrv@RACERMATE@@QAEMVQString@@@Z 100d7950 f   ctsrv:ctsrv.obj
 0002:0004fa40       ?get_handlebar_buttons@Ctsrv@RACERMATE@@QAEHVQString@@@Z 100d7a40 f   ctsrv:ctsrv.obj
 0002:0004fb20       ?is_client_connected@Ctsrv@RACERMATE@@QAE_NVQString@@@Z 100d7b20 f   ctsrv:ctsrv.obj
 0002:0004fbd0       ?is_paused@Ctsrv@RACERMATE@@QAE_NVQString@@@Z 100d7bd0 f   ctsrv:ctsrv.obj
 0002:0004fc90       ?reset_averages@Ctsrv@RACERMATE@@QAEHVQString@@@Z 100d7c90 f   ctsrv:ctsrv.obj
 0002:0004fdc0       ?set_ftp@Ctsrv@RACERMATE@@QAEHVQString@@M@Z 100d7dc0 f   ctsrv:ctsrv.obj
 0002:0004ff00       ?set_hr_bounds@Ctsrv@RACERMATE@@QAEHVQString@@HH_N@Z 100d7f00 f   ctsrv:ctsrv.obj
 0002:00050040       ?set_paused@Ctsrv@RACERMATE@@QAEHVQString@@_N@Z 100d8040 f   ctsrv:ctsrv.obj
 0002:000500e0       ?set_grade@Ctsrv@RACERMATE@@QAEHVQString@@MMMH@Z 100d80e0 f   ctsrv:ctsrv.obj
 0002:000501a0       ?set_slope@Ctsrv@RACERMATE@@QAEHVQString@@MMHM@Z 100d81a0 f   ctsrv:ctsrv.obj
 0002:00050320       ?start_cal@Ctsrv@RACERMATE@@QAEHVQString@@@Z 100d8320 f   ctsrv:ctsrv.obj
 0002:000503c0       ?end_cal@Ctsrv@RACERMATE@@QAEHVQString@@@Z 100d83c0 f   ctsrv:ctsrv.obj
 0002:00050460       ?get_watts_factor@Ctsrv@RACERMATE@@QAEMVQString@@@Z 100d8460 f   ctsrv:ctsrv.obj
 0002:000505c0       ?setwind@Ctsrv@RACERMATE@@QAEXVQString@@M@Z 100d85c0 f   ctsrv:ctsrv.obj
 0002:000506f0       ?set_draftwind@Ctsrv@RACERMATE@@QAEXVQString@@M@Z 100d86f0 f   ctsrv:ctsrv.obj
 0002:000507e0       ?setlbs@Ctsrv@RACERMATE@@QAEXVQString@@MM@Z 100d87e0 f   ctsrv:ctsrv.obj
 0002:00050890       ?setkgs@Ctsrv@RACERMATE@@QAEXVQString@@MM@Z 100d8890 f   ctsrv:ctsrv.obj
 0002:00050940       ?get_cal@Ctsrv@RACERMATE@@QAEHVQString@@@Z 100d8940 f   ctsrv:ctsrv.obj
 0002:000509e0       ?get_fw@Ctsrv@RACERMATE@@QAEGPBD@Z 100d89e0 f   ctsrv:ctsrv.obj
 0002:00050ab0       ?setStarted@Ctsrv@RACERMATE@@QAEXPBD_N@Z 100d8ab0 f   ctsrv:ctsrv.obj
 0002:00050ac0       ?setFinished@Ctsrv@RACERMATE@@QAEXPBD_N@Z 100d8ac0 f   ctsrv:ctsrv.obj
 0002:00050ad0       ?get_status_bits@Ctsrv@RACERMATE@@QAEHVQString@@@Z 100d8ad0 f   ctsrv:ctsrv.obj
 0002:00050b80       ?handleResults@Ctsrv@RACERMATE@@AAEXABVQString@@@Z 100d8b80 f   ctsrv:ctsrv.obj
 0002:00050c40       ?connected_to_trainer_slot@Ctsrv@RACERMATE@@AAEXVQString@@_N@Z 100d8c40 f   ctsrv:ctsrv.obj
 0002:00050d70       ?data_slot@Ctsrv@RACERMATE@@AAEXVQString@@PAVQT_DATA@2@@Z 100d8d70 f   ctsrv:ctsrv.obj
 0002:00050e00       ?ss_slot@Ctsrv@RACERMATE@@AAEXVQString@@PAVSSD@qt_SS@2@@Z 100d8e00 f   ctsrv:ctsrv.obj
 0002:00050e90       ?rescale_slot@Ctsrv@RACERMATE@@AAEXVQString@@H@Z 100d8e90 f   ctsrv:ctsrv.obj
 0002:00050f20       ?ArrayToInt@RACERMATE@@YAHVQByteArray@@@Z 100d8f20 f   ctsrv:ctsrv.obj
 0002:00051cf0       ??$__vcrt_va_start_verify_argument_type@PBD@@YAXXZ 100d9cf0 f i ctsrv:ctsrv.obj
 0002:00051d00       ??$atomic@H@?$QAtomicOpsBySize@$03@@CAPAJPAH@Z 100d9d00 f i ctsrv:ctsrv.obj
 0002:00051d10       ??$deref@H@?$QAtomicOpsBySize@$03@@SA_NAAH@Z 100d9d10 f i ctsrv:ctsrv.obj
 0002:00051d90       ??$load@H@?$QGenericAtomicOps@U?$QAtomicOpsBySize@$03@@@@SAHABH@Z 100d9d90 f i ctsrv:ctsrv.obj
 0002:00051da0       ??$move@AAPAUData@QListData@@@std@@YA$$QAPAUData@QListData@@AAPAU12@@Z 100d9da0 f i ctsrv:ctsrv.obj
 0002:00051db0       ??$move@AAV?$QList@VQString@@@@@std@@YA$$QAV?$QList@VQString@@@@AAV1@@Z 100d9db0 f i ctsrv:ctsrv.obj
 0002:00051dc0       ??$qMax@H@@YAABHABH0@Z     100d9dc0 f i ctsrv:ctsrv.obj
 0002:00051e00       ??$qSwap@PAUData@QListData@@@@YAXAAPAUData@QListData@@0@Z 100d9e00 f i ctsrv:ctsrv.obj
 0002:00051e20       ??$ref@H@?$QAtomicOpsBySize@$03@@SA_NAAH@Z 100d9e20 f i ctsrv:ctsrv.obj
 0002:00051ea0       ??$swap@PAUData@QListData@@@std@@YAXAAPAUData@QListData@@0@Z 100d9ea0 f i ctsrv:ctsrv.obj
 0002:00051ef0       ??0?$QFlags@W4OpenModeFlag@QIODevice@@@@QAE@W4OpenModeFlag@QIODevice@@@Z 100d9ef0 f i ctsrv:ctsrv.obj
 0002:00051f10       ??0?$QFlags@W4ProcessEventsFlag@QEventLoop@@@@QAE@W4ProcessEventsFlag@QEventLoop@@@Z 100d9f10 f i ctsrv:ctsrv.obj
 0002:00051f30       ??0?$QForeachContainer@V?$QList@VQString@@@@@@QAE@ABV?$QList@VQString@@@@@Z 100d9f30 f i ctsrv:ctsrv.obj
 0002:00051f90       ??0?$QHashNode@VQString@@PAVUDPClient@RACERMATE@@@@QAE@ABVQString@@ABQAVUDPClient@RACERMATE@@IPAU0@@Z 100d9f90 f i ctsrv:ctsrv.obj
 0002:00051fe0       ??0?$QList@VQString@@@@QAE@$$QAV0@@Z 100d9fe0 f i ctsrv:ctsrv.obj
 0002:00052010       ??0?$QList@VQString@@@@QAE@ABV0@@Z 100da010 f i ctsrv:ctsrv.obj
 0002:00052120       ??0?$QList@VQString@@@@QAE@XZ 100da120 f i ctsrv:ctsrv.obj
 0002:00052140       ??0const_iterator@?$QHash@VQString@@PAVUDPClient@RACERMATE@@@@QAE@PAX@Z 100da140 f i ctsrv:ctsrv.obj
 0002:00052160       ??0const_iterator@?$QList@VQString@@@@QAE@PAUNode@1@@Z 100da160 f i ctsrv:ctsrv.obj
 0002:00052180       ??1?$QForeachContainer@V?$QList@VQString@@@@@@QAE@XZ 100da180 f i ctsrv:ctsrv.obj
 0002:000521a0       ??1?$QHashNode@VQString@@PAVUDPClient@RACERMATE@@@@QAE@XZ 100da1a0 f i ctsrv:ctsrv.obj
 0002:000521c0       ??1?$QList@VQString@@@@QAE@XZ 100da1c0 f i ctsrv:ctsrv.obj
 0002:00052240       ??1?$QListSpecialMethods@VQString@@@@IAE@XZ 100da240 f i ctsrv:ctsrv.obj
 0002:00052250       ??4?$QList@VQString@@@@QAEAAV0@$$QAV0@@Z 100da250 f i ctsrv:ctsrv.obj
 0002:000522b0       ??8@YA_NPBDABVQString@@@Z  100da2b0 f i ctsrv:ctsrv.obj
 0002:00052310       ??9const_iterator@?$QHash@VQString@@PAVUDPClient@RACERMATE@@@@QBE_NABV01@@Z 100da310 f i ctsrv:ctsrv.obj
 0002:00052350       ??9const_iterator@?$QList@VQString@@@@QBE_NABV01@@Z 100da350 f i ctsrv:ctsrv.obj
 0002:00052390       ??A?$QHash@VQString@@PAVUDPClient@RACERMATE@@@@QAEAAPAVUDPClient@RACERMATE@@ABVQString@@@Z 100da390 f i ctsrv:ctsrv.obj
 0002:00052440       ??Dconst_iterator@?$QList@VQString@@@@QBEABVQString@@XZ 100da440 f i ctsrv:ctsrv.obj
 0002:00052460       ??Econst_iterator@?$QHash@VQString@@PAVUDPClient@RACERMATE@@@@QAEAAV01@XZ 100da460 f i ctsrv:ctsrv.obj
 0002:00052490       ??Econst_iterator@?$QList@VQString@@@@QAEAAV01@XZ 100da490 f i ctsrv:ctsrv.obj
 0002:000524c0       ??H@YA?BVQString@@ABV0@PBD@Z 100da4c0 f i ctsrv:ctsrv.obj
 0002:000525a0       ??_ECtsrv@RACERMATE@@UAEPAXI@Z 100da5a0 f i ctsrv:ctsrv.obj
 0002:00052680       ??_G?$QHashNode@VQString@@PAVUDPClient@RACERMATE@@@@QAEPAXI@Z 100da680 f i ctsrv:ctsrv.obj
 0002:000526c0       ??_GCtsrv@RACERMATE@@UAEPAXI@Z 100da6c0 f i ctsrv:ctsrv.obj
 0002:00052700       ??_GQCoreApplication@@UAEPAXI@Z 100da700 f i ctsrv:ctsrv.obj
 0002:00052700       ??_EQCoreApplication@@UAEPAXI@Z 100da700 f i ctsrv:ctsrv.obj
 0002:00052740       ??_GQString@@QAEPAXI@Z     100da740 f i ctsrv:ctsrv.obj
 0002:00052780       ??_EQThread@@UAEPAXI@Z     100da780 f i ctsrv:ctsrv.obj
 0002:00052780       ??_GQThread@@UAEPAXI@Z     100da780 f i ctsrv:ctsrv.obj
 0002:000527c0       ??_GTmr@RACERMATE@@QAEPAXI@Z 100da7c0 f i ctsrv:ctsrv.obj
 0002:00052800       ?alignOfNode@?$QHash@VQString@@PAVUDPClient@RACERMATE@@@@CAHXZ 100da800 f i ctsrv:ctsrv.obj
 0002:00052840       ?append@?$QList@VQString@@@@QAEXABVQString@@@Z 100da840 f i ctsrv:ctsrv.obj
 0002:00052a10       ?begin@?$QHash@VQString@@PAVUDPClient@RACERMATE@@@@QBE?AVconst_iterator@1@XZ 100daa10 f i ctsrv:ctsrv.obj
 0002:00052a40       ?begin@?$QList@VQString@@@@QBE?AVconst_iterator@1@XZ 100daa40 f i ctsrv:ctsrv.obj
 0002:00052a70       ?clear@?$QList@VQString@@@@QAEXXZ 100daa70 f i ctsrv:ctsrv.obj
 0002:00052ab0       ?concrete@?$QHash@VQString@@PAVUDPClient@RACERMATE@@@@CAPAU?$QHashNode@VQString@@PAVUDPClient@RACERMATE@@@@PAUNode@QHashData@@@Z 100daab0 f i ctsrv:ctsrv.obj
 0002:00052ac0       ?contains@?$QHash@VQString@@PAVUDPClient@RACERMATE@@@@QBE_NABVQString@@@Z 100daac0 f i ctsrv:ctsrv.obj
 0002:00052b10       ?count@?$QHash@VQString@@PAVUDPClient@RACERMATE@@@@QBEHXZ 100dab10 f i ctsrv:ctsrv.obj
 0002:00052b30       ?createNode@?$QHash@VQString@@PAVUDPClient@RACERMATE@@@@AAEPAU?$QHashNode@VQString@@PAVUDPClient@RACERMATE@@@@IABVQString@@ABQAVUDPClient@RACERMATE@@PAPAU2@@Z 100dab30 f i ctsrv:ctsrv.obj
 0002:00052c30       ?dealloc@?$QList@VQString@@@@AAEXPAUData@QListData@@@Z 100dac30 f i ctsrv:ctsrv.obj
 0002:00052c80       ?deleteNode2@?$QHash@VQString@@PAVUDPClient@RACERMATE@@@@CAXPAUNode@QHashData@@@Z 100dac80 f i ctsrv:ctsrv.obj
 0002:00052ca0       ?deref@?$QBasicAtomicInteger@H@@QAE_NXZ 100daca0 f i ctsrv:ctsrv.obj
 0002:00052cc0       ?deref@RefCount@QtPrivate@@QAE_NXZ 100dacc0 f i ctsrv:ctsrv.obj
 0002:00052d10       ?detach@?$QHash@VQString@@PAVUDPClient@RACERMATE@@@@QAEXXZ 100dad10 f i ctsrv:ctsrv.obj
 0002:00052d40       ?detach_helper@?$QHash@VQString@@PAVUDPClient@RACERMATE@@@@AAEXXZ 100dad40 f i ctsrv:ctsrv.obj
 0002:00052db0       ?detach_helper@?$QList@VQString@@@@AAEXH@Z 100dadb0 f i ctsrv:ctsrv.obj
 0002:00052ec0       ?detach_helper_grow@?$QList@VQString@@@@AAEPAUNode@1@HH@Z 100daec0 f i ctsrv:ctsrv.obj
 0002:000530a0       ?duplicateNode@?$QHash@VQString@@PAVUDPClient@RACERMATE@@@@CAXPAUNode@QHashData@@PAX@Z 100db0a0 f i ctsrv:ctsrv.obj
 0002:00053160       ?end@?$QHash@VQString@@PAVUDPClient@RACERMATE@@@@QBE?AVconst_iterator@1@XZ 100db160 f i ctsrv:ctsrv.obj
 0002:00053190       ?end@?$QList@VQString@@@@QBE?AVconst_iterator@1@XZ 100db190 f i ctsrv:ctsrv.obj
 0002:000531c0       ?findNode@?$QHash@VQString@@PAVUDPClient@RACERMATE@@@@ABEPAPAU?$QHashNode@VQString@@PAVUDPClient@RACERMATE@@@@ABVQString@@I@Z 100db1c0 f i ctsrv:ctsrv.obj
 0002:000532b0       ?findNode@?$QHash@VQString@@PAVUDPClient@RACERMATE@@@@ABEPAPAU?$QHashNode@VQString@@PAVUDPClient@RACERMATE@@@@ABVQString@@PAI@Z 100db2b0 f i ctsrv:ctsrv.obj
 0002:00053330       ?freeData@?$QHash@VQString@@PAVUDPClient@RACERMATE@@@@AAEXPAUQHashData@@@Z 100db330 f i ctsrv:ctsrv.obj
 0002:00053360       ?isShared@RefCount@QtPrivate@@QBE_NXZ 100db360 f i ctsrv:ctsrv.obj
 0002:000533b0       ?is_connected@UDPClient@RACERMATE@@QAE_NXZ 100db3b0 f i ctsrv:ctsrv.obj
 0002:000533d0       ?key@const_iterator@?$QHash@VQString@@PAVUDPClient@RACERMATE@@@@QBEABVQString@@XZ 100db3d0 f i ctsrv:ctsrv.obj
 0002:00053400       ?keys@?$QHash@VQString@@PAVUDPClient@RACERMATE@@@@QBE?AV?$QList@VQString@@@@XZ 100db400 f i ctsrv:ctsrv.obj
 0002:00053500       ?load@?$QBasicAtomicInteger@H@@QBEHXZ 100db500 f i ctsrv:ctsrv.obj
 0002:00053520       ?node_construct@?$QList@VQString@@@@AAEXPAUNode@1@ABVQString@@@Z 100db520 f i ctsrv:ctsrv.obj
 0002:000535e0       ?node_copy@?$QList@VQString@@@@AAEXPAUNode@1@00@Z 100db5e0 f i ctsrv:ctsrv.obj
 0002:00053860       ?node_destruct@?$QList@VQString@@@@AAEXPAUNode@1@0@Z 100db860 f i ctsrv:ctsrv.obj
 0002:00053900       ?node_destruct@?$QList@VQString@@@@AAEXPAUNode@1@@Z 100db900 f i ctsrv:ctsrv.obj
 0002:00053970       ?qRound@@YAHM@Z            100db970 f i ctsrv:ctsrv.obj
 0002:00053a00       ?qt_noop@@YAXXZ            100dba00 f i ctsrv:ctsrv.obj
 0002:00053a10       ?ref@?$QBasicAtomicInteger@H@@QAE_NXZ 100dba10 f i ctsrv:ctsrv.obj
 0002:00053a30       ?ref@RefCount@QtPrivate@@QAE_NXZ 100dba30 f i ctsrv:ctsrv.obj
 0002:00053a70       ?reserve@?$QList@VQString@@@@QAEXH@Z 100dba70 f i ctsrv:ctsrv.obj
 0002:00053ad0       ?same_key@?$QHashNode@VQString@@PAVUDPClient@RACERMATE@@@@QBE_NIABVQString@@@Z 100dbad0 f i ctsrv:ctsrv.obj
 0002:00053b30       ?size@?$QHash@VQString@@PAVUDPClient@RACERMATE@@@@QBEHXZ 100dbb30 f i ctsrv:ctsrv.obj
 0002:00053b50       ?swap@?$QList@VQString@@@@QAEXAAV1@@Z 100dbb50 f i ctsrv:ctsrv.obj
 0002:00053b80       ?t@Node@?$QList@VQString@@@@QAEAAVQString@@XZ 100dbb80 f i ctsrv:ctsrv.obj
 0002:00053bb0       __vfprintf_l               100dbbb0 f i ctsrv:ctsrv.obj
 0002:00053bf0       _fprintf                   100dbbf0 f i ctsrv:ctsrv.obj
 0002:00053c40       _printf                    100dbc40 f i ctsrv:ctsrv.obj
 0002:00053c90       _vsprintf                  100dbc90 f i ctsrv:ctsrv.obj
 0002:00053cc0       ?metaObject@Ctsrv@RACERMATE@@UBEPBUQMetaObject@@XZ 100dbcc0 f   ctsrv:moc_ctsrv.obj
 0002:00053d00       ?qt_metacast@Ctsrv@RACERMATE@@UAEPAXPBD@Z 100dbd00 f   ctsrv:moc_ctsrv.obj
 0002:00053d40       ?qt_metacall@Ctsrv@RACERMATE@@UAEHW4Call@QMetaObject@@HPAPAX@Z 100dbd40 f   ctsrv:moc_ctsrv.obj
 0002:00053dd0       ?qt_static_metacall@Ctsrv@RACERMATE@@CAXPAVQObject@@W4Call@QMetaObject@@HPAPAX@Z 100dbdd0 f   ctsrv:moc_ctsrv.obj
 0002:000540a0       ?ss_signal@Ctsrv@RACERMATE@@QAEXVQString@@PAVSSD@qt_SS@2@@Z 100dc0a0 f   ctsrv:moc_ctsrv.obj
 0002:00054130       ?data_signal@Ctsrv@RACERMATE@@QAEXVQString@@PAVQT_DATA@2@@Z 100dc130 f   ctsrv:moc_ctsrv.obj
 0002:000541c0       ?rescale_signal@Ctsrv@RACERMATE@@QAEXVQString@@H@Z 100dc1c0 f   ctsrv:moc_ctsrv.obj
 0002:00054250       ?connected_to_trainer_signal@Ctsrv@RACERMATE@@QAEXVQString@@_N@Z 100dc250 f   ctsrv:moc_ctsrv.obj
 0002:00054460       ??C?$QScopedPointer@VQObjectData@@U?$QScopedPointerDeleter@VQObjectData@@@@@@QBEPAVQObjectData@@XZ 100dc460 f i ctsrv:moc_ctsrv.obj
 0002:000544c0       ??0UDPClient@RACERMATE@@QAE@VQString@@HPAVQObject@@@Z 100dc4c0 f   ctsrv:udp_client.obj
 0002:00054630       ??1UDPClient@RACERMATE@@UAE@XZ 100dc630 f   ctsrv:udp_client.obj
 0002:00054780       ?close_log_file@UDPClient@RACERMATE@@QAEXXZ 100dc780 f   ctsrv:udp_client.obj
 0002:00054790       ?process@UDPClient@RACERMATE@@QAEXXZ 100dc790 f   ctsrv:udp_client.obj
 0002:00054ed0       ?get_watts_factor@UDPClient@RACERMATE@@QAEMXZ 100dced0 f   ctsrv:udp_client.obj
 0002:00054f00       ?end_cal@UDPClient@RACERMATE@@QAEHXZ 100dcf00 f   ctsrv:udp_client.obj
 0002:00054f20       ?get_average_bars@UDPClient@RACERMATE@@QAEPAMXZ 100dcf20 f   ctsrv:udp_client.obj
 0002:00054f60       ?get_bars@UDPClient@RACERMATE@@QAEPAMXZ 100dcf60 f   ctsrv:udp_client.obj
 0002:00054fa0       ?get_ftp@UDPClient@RACERMATE@@QAEMXZ 100dcfa0 f   ctsrv:udp_client.obj
 0002:00054fb0       ?get_handlebar_buttons@UDPClient@RACERMATE@@QAEHXZ 100dcfb0 f   ctsrv:udp_client.obj
 0002:000550a0       ?is_paused@UDPClient@RACERMATE@@QAE_NXZ 100dd0a0 f   ctsrv:udp_client.obj
 0002:00055110       ?reset_stats@UDPClient@RACERMATE@@QAEHXZ 100dd110 f   ctsrv:udp_client.obj
 0002:00055120       ?reset@UDPClient@RACERMATE@@QAEHXZ 100dd120 f   ctsrv:udp_client.obj
 0002:00055140       ?rx@UDPClient@RACERMATE@@QAEHPAEH@Z 100dd140 f   ctsrv:udp_client.obj
 0002:00055150       ?set_ergo_mode@UDPClient@RACERMATE@@QAEHHGM@Z 100dd150 f   ctsrv:udp_client.obj
 0002:000551c0       ?set_export@UDPClient@RACERMATE@@QAEXPBD@Z 100dd1c0 f   ctsrv:udp_client.obj
 0002:00055250       ?set_file_mode@UDPClient@RACERMATE@@QAEX_N@Z 100dd250 f   ctsrv:udp_client.obj
 0002:00055270       ?set_ftp@UDPClient@RACERMATE@@QAEXM@Z 100dd270 f   ctsrv:udp_client.obj
 0002:00055280       ?set_hr_bounds@UDPClient@RACERMATE@@QAEHHH_N@Z 100dd280 f   ctsrv:udp_client.obj
 0002:000552c0       ?set_paused@UDPClient@RACERMATE@@QAEX_N@Z 100dd2c0 f   ctsrv:udp_client.obj
 0002:00055380       ?start_cal@UDPClient@RACERMATE@@QAEHXZ 100dd380 f   ctsrv:udp_client.obj
 0002:000553c0       ?set_lbs@UDPClient@RACERMATE@@QAEXMM@Z 100dd3c0 f   ctsrv:udp_client.obj
 0002:00055400       ?set_kgs@UDPClient@RACERMATE@@QAEXMM@Z 100dd400 f   ctsrv:udp_client.obj
 0002:00055460       ?get_cal@UDPClient@RACERMATE@@QAEMXZ 100dd460 f   ctsrv:udp_client.obj
 0002:00055480       ?get_fw@UDPClient@RACERMATE@@QAEGXZ 100dd480 f   ctsrv:udp_client.obj
 0002:000554a0       ?get_status_bits@UDPClient@RACERMATE@@QAEHXZ 100dd4a0 f   ctsrv:udp_client.obj
 0002:000554c0       ?set_grade@UDPClient@RACERMATE@@AAEHMMMH@Z 100dd4c0 f   ctsrv:udp_client.obj
 0002:000555e0       ?set_wind@UDPClient@RACERMATE@@AAEXM@Z 100dd5e0 f   ctsrv:udp_client.obj
 0002:000556b0       ?set_draft_wind@UDPClient@RACERMATE@@AAEXM@Z 100dd6b0 f   ctsrv:udp_client.obj
 0002:000556e0       ?GetTrainerData@UDPClient@RACERMATE@@AAE?AUTrainerData@2@H@Z 100dd6e0 f   ctsrv:udp_client.obj
 0002:00055780       ?SETVAL@UDPClient@RACERMATE@@AAEHHHH@Z 100dd780 f   ctsrv:udp_client.obj
 0002:000557d0       ?send_ctlmsg@UDPClient@RACERMATE@@AAEHH@Z 100dd7d0 f   ctsrv:udp_client.obj
 0002:00055a20       ?gen_devnum@UDPClient@RACERMATE@@AAEHPAEH@Z 100dda20 f   ctsrv:udp_client.obj
 0002:00055af0       ?gen_hbctl@UDPClient@RACERMATE@@AAEHPAEH@Z 100ddaf0 f   ctsrv:udp_client.obj
 0002:00055d60       ?get_devnum@UDPClient@RACERMATE@@AAEHH@Z 100ddd60 f   ctsrv:udp_client.obj
 0002:00055e20       ?decode_ss@UDPClient@RACERMATE@@AAEHH@Z 100dde20 f   ctsrv:udp_client.obj
 0002:00055ff0       ?decode_slow@UDPClient@RACERMATE@@AAEXHPAUNHBDATA@12@@Z 100ddff0 f   ctsrv:udp_client.obj
 0002:000561c0       ?decode_fast@UDPClient@RACERMATE@@AAEXHPAUNHBDATA@12@@Z 100de1c0 f   ctsrv:udp_client.obj
 0002:00056320       ?beep@UDPClient@RACERMATE@@AAEXXZ 100de320 f   ctsrv:udp_client.obj
 0002:00056330       ?init@UDPClient@RACERMATE@@AAEHXZ 100de330 f   ctsrv:udp_client.obj
 0002:00056e90       ?updateHardware@UDPClient@RACERMATE@@AAEHXZ 100dee90 f   ctsrv:udp_client.obj
 0002:000570a0       ?hexdump@UDPClient@RACERMATE@@AAEXPAEHVQString@@1@Z 100df0a0 f   ctsrv:udp_client.obj
 0002:00057250       ?get_ss_data@UDPClient@RACERMATE@@AAE?AUSSDATA@@H@Z 100df250 f   ctsrv:udp_client.obj
 0002:00057320       ?get_ubermsg@UDPClient@RACERMATE@@AAEHXZ 100df320 f   ctsrv:udp_client.obj
 0002:000581f0       ??$?0$$V@?$_Compressed_pair@U?$_Wrap_alloc@V?$allocator@M@std@@@std@@V?$_Vector_val@U?$_Simple_types@M@std@@@2@$00@std@@QAE@U_Zero_then_variadic_args_t@1@@Z 100e01f0 f i ctsrv:udp_client.obj
 0002:00058220       ??$?0AAU?$_Wrap_alloc@V?$allocator@M@std@@@std@@@?$_Wrap_alloc@V?$allocator@U_Container_proxy@std@@@std@@@std@@QAE@AAU?$_Wrap_alloc@V?$allocator@M@std@@@1@@Z 100e0220 f i ctsrv:udp_client.obj
 0002:00058250       ??$?0M@?$allocator@U_Container_proxy@std@@@std@@QAE@ABV?$allocator@M@1@@Z 100e0250 f i ctsrv:udp_client.obj
 0002:00058270       ??$_Addressof@M@std@@YAPAMAAMU?$integral_constant@_N$0A@@0@@Z 100e0270 f i ctsrv:udp_client.obj
 0002:00058280       ??$_Destroy_range@U?$_Wrap_alloc@V?$allocator@M@std@@@std@@@std@@YAXPAM0AAU?$_Wrap_alloc@V?$allocator@M@std@@@0@@Z 100e0280 f i ctsrv:udp_client.obj
 0002:000582c0       ??$addressof@M@std@@YAPAMAAM@Z 100e02c0 f i ctsrv:udp_client.obj
 0002:000582e0       ??$destroy@M@?$_Wrap_alloc@V?$allocator@M@std@@@std@@QAEXPAM@Z 100e02e0 f i ctsrv:udp_client.obj
 0002:00058310       ??$destroy@M@?$allocator@M@std@@QAEXPAM@Z 100e0310 f i ctsrv:udp_client.obj
 0002:00058320       ??$destroy@M@?$allocator_traits@V?$allocator@M@std@@@std@@SAXAAV?$allocator@M@1@PAM@Z 100e0320 f i ctsrv:udp_client.obj
 0002:00058340       ??$forward@AAU?$_Wrap_alloc@V?$allocator@M@std@@@std@@@std@@YAAAU?$_Wrap_alloc@V?$allocator@M@std@@@0@AAU10@@Z 100e0340 f i ctsrv:udp_client.obj
 0002:00058350       ??0?$_Vector_alloc@U?$_Vec_base_types@MV?$allocator@M@std@@@std@@@std@@QAE@XZ 100e0350 f i ctsrv:udp_client.obj
 0002:000583d0       ??0?$_Vector_val@U?$_Simple_types@M@std@@@std@@QAE@XZ 100e03d0 f i ctsrv:udp_client.obj
 0002:00058420       ??0?$_Wrap_alloc@V?$allocator@M@std@@@std@@QAE@XZ 100e0420 f i ctsrv:udp_client.obj
 0002:00058440       ??0?$allocator@M@std@@QAE@XZ 100e0440 f i ctsrv:udp_client.obj
 0002:00058460       ??0?$vector@MV?$allocator@M@std@@@std@@QAE@XZ 100e0460 f i ctsrv:udp_client.obj
 0002:000584b0       ??0Rider2@@QAE@XZ          100e04b0 f i ctsrv:udp_client.obj
 0002:00058630       ??1?$_Compressed_pair@U?$_Wrap_alloc@V?$allocator@M@std@@@std@@V?$_Vector_val@U?$_Simple_types@M@std@@@2@$00@std@@QAE@XZ 100e0630 f i ctsrv:udp_client.obj
 0002:00058650       ??1?$_Vector_alloc@U?$_Vec_base_types@MV?$allocator@M@std@@@std@@@std@@QAE@XZ 100e0650 f i ctsrv:udp_client.obj
 0002:000586b0       ??1?$_Vector_val@U?$_Simple_types@M@std@@@std@@QAE@XZ 100e06b0 f i ctsrv:udp_client.obj
 0002:000586d0       ??1?$vector@MV?$allocator@M@std@@@std@@QAE@XZ 100e06d0 f i ctsrv:udp_client.obj
 0002:00058730       ??1QT_DATA@RACERMATE@@QAE@XZ 100e0730 f i ctsrv:udp_client.obj
 0002:00058750       ??1Rider2@@UAE@XZ          100e0750 f i ctsrv:udp_client.obj
 0002:00058790       ??H@YA?BVQString@@ABV0@0@Z 100e0790 f i ctsrv:udp_client.obj
 0002:00058840       ??_GRider2@@UAEPAXI@Z      100e0840 f i ctsrv:udp_client.obj
 0002:00058840       ??_ERider2@@UAEPAXI@Z      100e0840 f i ctsrv:udp_client.obj
 0002:00058880       ??_GUDPClient@RACERMATE@@UAEPAXI@Z 100e0880 f i ctsrv:udp_client.obj
 0002:00058880       ??_EUDPClient@RACERMATE@@UAEPAXI@Z 100e0880 f i ctsrv:udp_client.obj
 0002:000588c0       ??_Gqt_SS@RACERMATE@@QAEPAXI@Z 100e08c0 f i ctsrv:udp_client.obj
 0002:00058900       ?_Alloc_proxy@?$_Vector_alloc@U?$_Vec_base_types@MV?$allocator@M@std@@@std@@@std@@QAEXXZ 100e0900 f i ctsrv:udp_client.obj
 0002:00058990       ?_Destroy@?$vector@MV?$allocator@M@std@@@std@@IAEXPAM0@Z 100e0990 f i ctsrv:udp_client.obj
 0002:000589c0       ?_Free_proxy@?$_Vector_alloc@U?$_Vec_base_types@MV?$allocator@M@std@@@std@@@std@@QAEXXZ 100e09c0 f i ctsrv:udp_client.obj
 0002:00058a40       ?_Get_data@?$_Vector_alloc@U?$_Vec_base_types@MV?$allocator@M@std@@@std@@@std@@QAEAAV?$_Vector_val@U?$_Simple_types@M@std@@@2@XZ 100e0a40 f i ctsrv:udp_client.obj
 0002:00058a60       ?_Get_first@?$_Compressed_pair@U?$_Wrap_alloc@V?$allocator@M@std@@@std@@V?$_Vector_val@U?$_Simple_types@M@std@@@2@$00@std@@QAEAAU?$_Wrap_alloc@V?$allocator@M@std@@@2@XZ 100e0a60 f i ctsrv:udp_client.obj
 0002:00058a80       ?_Get_second@?$_Compressed_pair@U?$_Wrap_alloc@V?$allocator@M@std@@@std@@V?$_Vector_val@U?$_Simple_types@M@std@@@2@$00@std@@QAEAAV?$_Vector_val@U?$_Simple_types@M@std@@@2@XZ 100e0a80 f i ctsrv:udp_client.obj
 0002:00058aa0       ?_Getal@?$_Vector_alloc@U?$_Vec_base_types@MV?$allocator@M@std@@@std@@@std@@QAEAAU?$_Wrap_alloc@V?$allocator@M@std@@@2@XZ 100e0aa0 f i ctsrv:udp_client.obj
 0002:00058ac0       ?_Myend@?$_Vector_alloc@U?$_Vec_base_types@MV?$allocator@M@std@@@std@@@std@@QAEAAPAMXZ 100e0ac0 f i ctsrv:udp_client.obj
 0002:00058ae0       ?_Myfirst@?$_Vector_alloc@U?$_Vec_base_types@MV?$allocator@M@std@@@std@@@std@@QAEAAPAMXZ 100e0ae0 f i ctsrv:udp_client.obj
 0002:00058b00       ?_Mylast@?$_Vector_alloc@U?$_Vec_base_types@MV?$allocator@M@std@@@std@@@std@@QAEAAPAMXZ 100e0b00 f i ctsrv:udp_client.obj
 0002:00058b20       ?_Myproxy@?$_Vector_alloc@U?$_Vec_base_types@MV?$allocator@M@std@@@std@@@std@@QAEAAPAU_Container_proxy@2@XZ 100e0b20 f i ctsrv:udp_client.obj
 0002:00058b40       ?_Orphan_all@?$_Vector_alloc@U?$_Vec_base_types@MV?$allocator@M@std@@@std@@@std@@QAEXXZ 100e0b40 f i ctsrv:udp_client.obj
 0002:00058b60       ?_Tidy@?$vector@MV?$allocator@M@std@@@std@@IAEXXZ 100e0b60 f i ctsrv:udp_client.obj
 0002:00058c30       ?deallocate@?$_Wrap_alloc@V?$allocator@M@std@@@std@@QAEXPAMI@Z 100e0c30 f i ctsrv:udp_client.obj
 0002:00058c60       ?deallocate@?$allocator@M@std@@QAEXPAMI@Z 100e0c60 f i ctsrv:udp_client.obj
 0002:00058c90       ?get_debug_dir@SDIRS@RACERMATE@@QBE?AVQString@@XZ 100e0c90 f i ctsrv:udp_client.obj
 0002:00058cd0       ?get_max_force@qt_SS@RACERMATE@@QAEMXZ 100e0cd0 f i ctsrv:udp_client.obj
 0002:00058cf0       ?getavglss@qt_SS@RACERMATE@@QAEMXZ 100e0cf0 f i ctsrv:udp_client.obj
 0002:00058d10       ?getavgrss@qt_SS@RACERMATE@@QAEMXZ 100e0d10 f i ctsrv:udp_client.obj
 0002:00058d30       ?getavgss@qt_SS@RACERMATE@@QAEMXZ 100e0d30 f i ctsrv:udp_client.obj
 0002:00058d50       ?getlata@qt_SS@RACERMATE@@QAEMXZ 100e0d50 f i ctsrv:udp_client.obj
 0002:00058d70       ?getlss@qt_SS@RACERMATE@@QAEMXZ 100e0d70 f i ctsrv:udp_client.obj
 0002:00058d90       ?getlwatts@qt_SS@RACERMATE@@QAEMXZ 100e0d90 f i ctsrv:udp_client.obj
 0002:00058db0       ?getrata@qt_SS@RACERMATE@@QAEMXZ 100e0db0 f i ctsrv:udp_client.obj
 0002:00058dd0       ?getrss@qt_SS@RACERMATE@@QAEMXZ 100e0dd0 f i ctsrv:udp_client.obj
 0002:00058df0       ?getrwatts@qt_SS@RACERMATE@@QAEMXZ 100e0df0 f i ctsrv:udp_client.obj
 0002:00058e10       ?getss@qt_SS@RACERMATE@@QAEMXZ 100e0e10 f i ctsrv:udp_client.obj
 0002:00058e30       ??0Worker@RACERMATE@@QAE@FFVQString@@HPAVQObject@@@Z 100e0e30 f   ctsrv:worker.obj
 0002:0005a810       ?set_devnums@Worker@RACERMATE@@AAEXXZ 100e2810 f   ctsrv:worker.obj
 0002:0005a980       ?get_barinfo@Worker@RACERMATE@@AAEPAVBARINFO@qt_SS@2@VQString@@H@Z 100e2980 f   ctsrv:worker.obj
 0002:0005aa00       ?create_udp_server_socket@Worker@RACERMATE@@AAEHXZ 100e2a00 f   ctsrv:worker.obj
 0002:0005af00       ?have@Worker@RACERMATE@@AAE_NPBD@Z 100e2f00 f   ctsrv:worker.obj
 0002:0005af80       ?start@Worker@RACERMATE@@QAEXXZ 100e2f80 f   ctsrv:worker.obj
 0002:0005b0c0       ?stop@Worker@RACERMATE@@QAEXXZ 100e30c0 f   ctsrv:worker.obj
 0002:0005b4a0       ?timeout@Worker@RACERMATE@@AAEXXZ 100e34a0 f   ctsrv:worker.obj
 0002:0005b5a0       ?disconnected@Worker@RACERMATE@@AAEXXZ 100e35a0 f   ctsrv:worker.obj
 0002:0005b5b0       ?hostFound@Worker@RACERMATE@@AAEXXZ 100e35b0 f   ctsrv:worker.obj
 0002:0005b5d0       ?processPendingDatagrams@Worker@RACERMATE@@AAEXXZ 100e35d0 f   ctsrv:worker.obj
 0002:0005bf00       ?bc_timeout@Worker@RACERMATE@@AAEXXZ 100e3f00 f   ctsrv:worker.obj
 0002:0005c430       ?connected_to_trainer_slot@Worker@RACERMATE@@AAEXVQString@@_N@Z 100e4430 f   ctsrv:worker.obj
 0002:0005c570       ?ctlmsg_slot@Worker@RACERMATE@@AAEXVQString@@PAEH@Z 100e4570 f   ctsrv:worker.obj
 0002:0005d4b0       ??$move@AAPAUQHashData@@@std@@YA$$QAPAUQHashData@@AAPAU1@@Z 100e54b0 f i ctsrv:worker.obj
 0002:0005d4c0       ??$move@AAV?$QHash@VQString@@PAVUDPClient@RACERMATE@@@@@std@@YA$$QAV?$QHash@VQString@@PAVUDPClient@RACERMATE@@@@AAV1@@Z 100e54c0 f i ctsrv:worker.obj
 0002:0005d4d0       ??$move@AAV?$QHash@VQString@@VIPrintDialogServices@Worker@RACERMATE@@@@@std@@YA$$QAV?$QHash@VQString@@VIPrintDialogServices@Worker@RACERMATE@@@@AAV1@@Z 100e54d0 f i ctsrv:worker.obj
 0002:0005d4e0       ??$move@AAV?$QList@VQNetworkAddressEntry@@@@@std@@YA$$QAV?$QList@VQNetworkAddressEntry@@@@AAV1@@Z 100e54e0 f i ctsrv:worker.obj
 0002:0005d4f0       ??$qSwap@PAUQHashData@@@@YAXAAPAUQHashData@@0@Z 100e54f0 f i ctsrv:worker.obj
 0002:0005d510       ??$swap@PAUQHashData@@@std@@YAXAAPAUQHashData@@0@Z 100e5510 f i ctsrv:worker.obj
 0002:0005d560       ??0?$QFlags@W4BindFlag@QAbstractSocket@@@@QAE@VQFlag@@@Z 100e5560 f i ctsrv:worker.obj
 0002:0005d590       ??0?$QFlags@W4BindFlag@QAbstractSocket@@@@QAE@W4BindFlag@QAbstractSocket@@@Z 100e5590 f i ctsrv:worker.obj
 0002:0005d5b0       ??0?$QForeachContainer@V?$QList@VQNetworkAddressEntry@@@@@@QAE@ABV?$QList@VQNetworkAddressEntry@@@@@Z 100e55b0 f i ctsrv:worker.obj
 0002:0005d610       ??0?$QForeachContainer@V?$QList@VQNetworkInterface@@@@@@QAE@ABV?$QList@VQNetworkInterface@@@@@Z 100e5610 f i ctsrv:worker.obj
 0002:0005d670       ??0?$QHash@VQString@@PAVUDPClient@RACERMATE@@@@QAE@$$QAV0@@Z 100e5670 f i ctsrv:worker.obj
 0002:0005d6a0       ??0?$QHash@VQString@@PAVUDPClient@RACERMATE@@@@QAE@XZ 100e56a0 f i ctsrv:worker.obj
 0002:0005d6c0       ??0?$QHash@VQString@@VBCINF@Worker@RACERMATE@@@@QAE@XZ 100e56c0 f i ctsrv:worker.obj
 0002:0005d6e0       ??0?$QHash@VQString@@VIPrintDialogServices@Worker@RACERMATE@@@@QAE@$$QAV0@@Z 100e56e0 f i ctsrv:worker.obj
 0002:0005d710       ??0?$QHash@VQString@@VIPrintDialogServices@Worker@RACERMATE@@@@QAE@XZ 100e5710 f i ctsrv:worker.obj
 0002:0005d730       ??0?$QHashNode@VQString@@VBCINF@Worker@RACERMATE@@@@QAE@ABVQString@@ABVBCINF@Worker@RACERMATE@@IPAU0@@Z 100e5730 f i ctsrv:worker.obj
 0002:0005d7d0       ??0?$QHashNode@VQString@@VIPrintDialogServices@Worker@RACERMATE@@@@QAE@ABVQString@@ABVIPrintDialogServices@Worker@RACERMATE@@IPAU0@@Z 100e57d0 f i ctsrv:worker.obj
 0002:0005d870       ??0?$QList@VQNetworkAddressEntry@@@@QAE@$$QAV0@@Z 100e5870 f i ctsrv:worker.obj
 0002:0005d8a0       ??0?$QList@VQNetworkAddressEntry@@@@QAE@ABV0@@Z 100e58a0 f i ctsrv:worker.obj
 0002:0005d9b0       ??0?$QList@VQNetworkAddressEntry@@@@QAE@XZ 100e59b0 f i ctsrv:worker.obj
 0002:0005d9d0       ??0?$QList@VQNetworkInterface@@@@QAE@ABV0@@Z 100e59d0 f i ctsrv:worker.obj
 0002:0005dae0       ??0BCINF@Worker@RACERMATE@@QAE@ABV012@@Z 100e5ae0 f i ctsrv:worker.obj
 0002:0005db80       ??0BCINF@Worker@RACERMATE@@QAE@XZ 100e5b80 f i ctsrv:worker.obj
 0002:0005dc20       ??0IPrintDialogServices@Worker@RACERMATE@@QAE@ABV012@@Z 100e5c20 f i ctsrv:worker.obj
 0002:0005dd20       ??0IPrintDialogServices@Worker@RACERMATE@@QAE@XZ 100e5d20 f i ctsrv:worker.obj
 0002:0005ddf0       ??0QFlag@@QAE@H@Z          100e5df0 f i ctsrv:worker.obj
 0002:0005de10       ??0const_iterator@?$QHash@VQString@@VBCINF@Worker@RACERMATE@@@@QAE@PAX@Z 100e5e10 f i ctsrv:worker.obj
 0002:0005de30       ??0const_iterator@?$QList@VQNetworkAddressEntry@@@@QAE@PAUNode@1@@Z 100e5e30 f i ctsrv:worker.obj
 0002:0005de50       ??0const_iterator@?$QList@VQNetworkInterface@@@@QAE@PAUNode@1@@Z 100e5e50 f i ctsrv:worker.obj
 0002:0005de70       ??1?$QForeachContainer@V?$QList@VQNetworkAddressEntry@@@@@@QAE@XZ 100e5e70 f i ctsrv:worker.obj
 0002:0005de90       ??1?$QForeachContainer@V?$QList@VQNetworkInterface@@@@@@QAE@XZ 100e5e90 f i ctsrv:worker.obj
 0002:0005deb0       ??1?$QHash@VQString@@PAVUDPClient@RACERMATE@@@@QAE@XZ 100e5eb0 f i ctsrv:worker.obj
 0002:0005df20       ??1?$QHash@VQString@@VBCINF@Worker@RACERMATE@@@@QAE@XZ 100e5f20 f i ctsrv:worker.obj
 0002:0005df90       ??1?$QHash@VQString@@VIPrintDialogServices@Worker@RACERMATE@@@@QAE@XZ 100e5f90 f i ctsrv:worker.obj
 0002:0005e000       ??1?$QHashNode@VQString@@VBCINF@Worker@RACERMATE@@@@QAE@XZ 100e6000 f i ctsrv:worker.obj
 0002:0005e030       ??1?$QHashNode@VQString@@VIPrintDialogServices@Worker@RACERMATE@@@@QAE@XZ 100e6030 f i ctsrv:worker.obj
 0002:0005e060       ??1?$QList@VQNetworkAddressEntry@@@@QAE@XZ 100e6060 f i ctsrv:worker.obj
 0002:0005e0e0       ??1?$QList@VQNetworkInterface@@@@QAE@XZ 100e60e0 f i ctsrv:worker.obj
 0002:0005e160       ??1?$QListSpecialMethods@VQNetworkAddressEntry@@@@IAE@XZ 100e6160 f i ctsrv:worker.obj
 0002:0005e170       ??1?$QListSpecialMethods@VQNetworkInterface@@@@IAE@XZ 100e6170 f i ctsrv:worker.obj
 0002:0005e180       ??1BCINF@Worker@RACERMATE@@QAE@XZ 100e6180 f i ctsrv:worker.obj
 0002:0005e1c0       ??1IPrintDialogServices@Worker@RACERMATE@@QAE@XZ 100e61c0 f i ctsrv:worker.obj
 0002:0005e230       ??1Worker@RACERMATE@@UAE@XZ 100e6230 f i ctsrv:worker.obj
 0002:0005e2b0       ??4?$QHash@VQString@@PAVUDPClient@RACERMATE@@@@QAEAAV0@$$QAV0@@Z 100e62b0 f i ctsrv:worker.obj
 0002:0005e310       ??4?$QHash@VQString@@VIPrintDialogServices@Worker@RACERMATE@@@@QAEAAV0@$$QAV0@@Z 100e6310 f i ctsrv:worker.obj
 0002:0005e370       ??4?$QList@VQNetworkAddressEntry@@@@QAEAAV0@$$QAV0@@Z 100e6370 f i ctsrv:worker.obj
 0002:0005e3d0       ??4BCINF@Worker@RACERMATE@@QAEAAV012@ABV012@@Z 100e63d0 f i ctsrv:worker.obj
 0002:0005e430       ??9@YA_NABVQString@@0@Z    100e6430 f i ctsrv:worker.obj
 0002:0005e470       ??9const_iterator@?$QHash@VQString@@VBCINF@Worker@RACERMATE@@@@QBE_NABV01@@Z 100e6470 f i ctsrv:worker.obj
 0002:0005e4b0       ??9const_iterator@?$QList@VQNetworkAddressEntry@@@@QBE_NABV01@@Z 100e64b0 f i ctsrv:worker.obj
 0002:0005e4f0       ??9const_iterator@?$QList@VQNetworkInterface@@@@QBE_NABV01@@Z 100e64f0 f i ctsrv:worker.obj
 0002:0005e530       ??A?$QHash@VQString@@VBCINF@Worker@RACERMATE@@@@QAEAAVBCINF@Worker@RACERMATE@@ABVQString@@@Z 100e6530 f i ctsrv:worker.obj
 0002:0005e640       ??A?$QHash@VQString@@VIPrintDialogServices@Worker@RACERMATE@@@@QAEAAVIPrintDialogServices@Worker@RACERMATE@@ABVQString@@@Z 100e6640 f i ctsrv:worker.obj
 0002:0005e750       ??BQFlag@@QBEHXZ           100e6750 f i ctsrv:worker.obj
 0002:0005e770       ??Dconst_iterator@?$QList@VQNetworkAddressEntry@@@@QBEABVQNetworkAddressEntry@@XZ 100e6770 f i ctsrv:worker.obj
 0002:0005e790       ??Dconst_iterator@?$QList@VQNetworkInterface@@@@QBEABVQNetworkInterface@@XZ 100e6790 f i ctsrv:worker.obj
 0002:0005e7b0       ??Econst_iterator@?$QHash@VQString@@VBCINF@Worker@RACERMATE@@@@QAEAAV01@XZ 100e67b0 f i ctsrv:worker.obj
 0002:0005e7e0       ??Econst_iterator@?$QList@VQNetworkAddressEntry@@@@QAEAAV01@XZ 100e67e0 f i ctsrv:worker.obj
 0002:0005e810       ??Econst_iterator@?$QList@VQNetworkInterface@@@@QAEAAV01@XZ 100e6810 f i ctsrv:worker.obj
 0002:0005e840       ??U?$QFlags@W4BindFlag@QAbstractSocket@@@@QBE?AV0@W4BindFlag@QAbstractSocket@@@Z 100e6840 f i ctsrv:worker.obj
 0002:0005e880       ??U@YA?AV?$QFlags@W4BindFlag@QAbstractSocket@@@@W4BindFlag@QAbstractSocket@@0@Z 100e6880 f i ctsrv:worker.obj
 0002:0005e8b0       ??_G?$QHashNode@VQString@@VBCINF@Worker@RACERMATE@@@@QAEPAXI@Z 100e68b0 f i ctsrv:worker.obj
 0002:0005e8f0       ??_G?$QHashNode@VQString@@VIPrintDialogServices@Worker@RACERMATE@@@@QAEPAXI@Z 100e68f0 f i ctsrv:worker.obj
 0002:0005e930       ??_GQNetworkAddressEntry@@QAEPAXI@Z 100e6930 f i ctsrv:worker.obj
 0002:0005e970       ??_GQNetworkInterface@@QAEPAXI@Z 100e6970 f i ctsrv:worker.obj
 0002:0005e9b0       ??_EQTimer@@UAEPAXI@Z      100e69b0 f i ctsrv:worker.obj
 0002:0005e9b0       ??_GQTimer@@UAEPAXI@Z      100e69b0 f i ctsrv:worker.obj
 0002:0005e9f0       ??_EQUdpSocket@@UAEPAXI@Z  100e69f0 f i ctsrv:worker.obj
 0002:0005e9f0       ??_GQUdpSocket@@UAEPAXI@Z  100e69f0 f i ctsrv:worker.obj
 0002:0005ea30       ??_GSDIRS@RACERMATE@@QAEPAXI@Z 100e6a30 f i ctsrv:worker.obj
 0002:0005ea70       ??_EWorker@RACERMATE@@UAEPAXI@Z 100e6a70 f i ctsrv:worker.obj
 0002:0005ea70       ??_GWorker@RACERMATE@@UAEPAXI@Z 100e6a70 f i ctsrv:worker.obj
 0002:0005eab0       ?alignOfNode@?$QHash@VQString@@VBCINF@Worker@RACERMATE@@@@CAHXZ 100e6ab0 f i ctsrv:worker.obj
 0002:0005eaf0       ?alignOfNode@?$QHash@VQString@@VIPrintDialogServices@Worker@RACERMATE@@@@CAHXZ 100e6af0 f i ctsrv:worker.obj
 0002:0005eb30       ?append@?$QList@VQNetworkAddressEntry@@@@QAEXABVQNetworkAddressEntry@@@Z 100e6b30 f i ctsrv:worker.obj
 0002:0005ed00       ?begin@?$QHash@VQString@@VBCINF@Worker@RACERMATE@@@@QBE?AVconst_iterator@1@XZ 100e6d00 f i ctsrv:worker.obj
 0002:0005ed30       ?begin@?$QList@VQNetworkAddressEntry@@@@QBE?AVconst_iterator@1@XZ 100e6d30 f i ctsrv:worker.obj
 0002:0005ed60       ?begin@?$QList@VQNetworkInterface@@@@QBE?AVconst_iterator@1@XZ 100e6d60 f i ctsrv:worker.obj
 0002:0005ed90       ?clear@?$QHash@VQString@@PAVUDPClient@RACERMATE@@@@QAEXXZ 100e6d90 f i ctsrv:worker.obj
 0002:0005edd0       ?clear@?$QHash@VQString@@VIPrintDialogServices@Worker@RACERMATE@@@@QAEXXZ 100e6dd0 f i ctsrv:worker.obj
 0002:0005ee10       ?clear@?$QList@VQNetworkAddressEntry@@@@QAEXXZ 100e6e10 f i ctsrv:worker.obj
 0002:0005ee50       ?clear@BCINF@Worker@RACERMATE@@QAEXXZ 100e6e50 f i ctsrv:worker.obj
 0002:0005ee90       ?clear@IPrintDialogServices@Worker@RACERMATE@@QAEXXZ 100e6e90 f i ctsrv:worker.obj
 0002:0005eef0       ?clear_dg@BCINF@Worker@RACERMATE@@QAEXXZ 100e6ef0 f i ctsrv:worker.obj
 0002:0005ef10       ?concrete@?$QHash@VQString@@VBCINF@Worker@RACERMATE@@@@CAPAU?$QHashNode@VQString@@VBCINF@Worker@RACERMATE@@@@PAUNode@QHashData@@@Z 100e6f10 f i ctsrv:worker.obj
 0002:0005ef20       ?concrete@?$QHash@VQString@@VIPrintDialogServices@Worker@RACERMATE@@@@CAPAU?$QHashNode@VQString@@VIPrintDialogServices@Worker@RACERMATE@@@@PAUNode@QHashData@@@Z 100e6f20 f i ctsrv:worker.obj
 0002:0005ef30       ?contains@?$QHash@VQString@@VBCINF@Worker@RACERMATE@@@@QBE_NABVQString@@@Z 100e6f30 f i ctsrv:worker.obj
 0002:0005ef80       ?contains@?$QHash@VQString@@VIPrintDialogServices@Worker@RACERMATE@@@@QBE_NABVQString@@@Z 100e6f80 f i ctsrv:worker.obj
 0002:0005efd0       ?createNode@?$QHash@VQString@@VBCINF@Worker@RACERMATE@@@@AAEPAU?$QHashNode@VQString@@VBCINF@Worker@RACERMATE@@@@IABVQString@@ABVBCINF@Worker@RACERMATE@@PAPAU2@@Z 100e6fd0 f i ctsrv:worker.obj
 0002:0005f0d0       ?createNode@?$QHash@VQString@@VIPrintDialogServices@Worker@RACERMATE@@@@AAEPAU?$QHashNode@VQString@@VIPrintDialogServices@Worker@RACERMATE@@@@IABVQString@@ABVIPrintDialogServices@Worker@RACERMATE@@PAPAU2@@Z 100e70d0 f i ctsrv:worker.obj
 0002:0005f1d0       ?dealloc@?$QList@VQNetworkAddressEntry@@@@AAEXPAUData@QListData@@@Z 100e71d0 f i ctsrv:worker.obj
 0002:0005f220       ?dealloc@?$QList@VQNetworkInterface@@@@AAEXPAUData@QListData@@@Z 100e7220 f i ctsrv:worker.obj
 0002:0005f270       ?deleteNode2@?$QHash@VQString@@VBCINF@Worker@RACERMATE@@@@CAXPAUNode@QHashData@@@Z 100e7270 f i ctsrv:worker.obj
 0002:0005f290       ?deleteNode2@?$QHash@VQString@@VIPrintDialogServices@Worker@RACERMATE@@@@CAXPAUNode@QHashData@@@Z 100e7290 f i ctsrv:worker.obj
 0002:0005f2b0       ?deleteNode@?$QHash@VQString@@PAVUDPClient@RACERMATE@@@@AAEXPAU?$QHashNode@VQString@@PAVUDPClient@RACERMATE@@@@@Z 100e72b0 f i ctsrv:worker.obj
 0002:0005f2f0       ?detach@?$QHash@VQString@@VBCINF@Worker@RACERMATE@@@@QAEXXZ 100e72f0 f i ctsrv:worker.obj
 0002:0005f320       ?detach@?$QHash@VQString@@VIPrintDialogServices@Worker@RACERMATE@@@@QAEXXZ 100e7320 f i ctsrv:worker.obj
 0002:0005f350       ?detach_helper@?$QHash@VQString@@VBCINF@Worker@RACERMATE@@@@AAEXXZ 100e7350 f i ctsrv:worker.obj
 0002:0005f3c0       ?detach_helper@?$QHash@VQString@@VIPrintDialogServices@Worker@RACERMATE@@@@AAEXXZ 100e73c0 f i ctsrv:worker.obj
 0002:0005f430       ?detach_helper_grow@?$QList@VQNetworkAddressEntry@@@@AAEPAUNode@1@HH@Z 100e7430 f i ctsrv:worker.obj
 0002:0005f610       ?duplicateNode@?$QHash@VQString@@VBCINF@Worker@RACERMATE@@@@CAXPAUNode@QHashData@@PAX@Z 100e7610 f i ctsrv:worker.obj
 0002:0005f6d0       ?duplicateNode@?$QHash@VQString@@VIPrintDialogServices@Worker@RACERMATE@@@@CAXPAUNode@QHashData@@PAX@Z 100e76d0 f i ctsrv:worker.obj
 0002:0005f790       ?end@?$QHash@VQString@@VBCINF@Worker@RACERMATE@@@@QBE?AVconst_iterator@1@XZ 100e7790 f i ctsrv:worker.obj
 0002:0005f7c0       ?end@?$QList@VQNetworkAddressEntry@@@@QBE?AVconst_iterator@1@XZ 100e77c0 f i ctsrv:worker.obj
 0002:0005f7f0       ?end@?$QList@VQNetworkInterface@@@@QBE?AVconst_iterator@1@XZ 100e77f0 f i ctsrv:worker.obj
 0002:0005f820       ?findNode@?$QHash@VQString@@VBCINF@Worker@RACERMATE@@@@ABEPAPAU?$QHashNode@VQString@@VBCINF@Worker@RACERMATE@@@@ABVQString@@I@Z 100e7820 f i ctsrv:worker.obj
 0002:0005f910       ?findNode@?$QHash@VQString@@VBCINF@Worker@RACERMATE@@@@ABEPAPAU?$QHashNode@VQString@@VBCINF@Worker@RACERMATE@@@@ABVQString@@PAI@Z 100e7910 f i ctsrv:worker.obj
 0002:0005f990       ?findNode@?$QHash@VQString@@VIPrintDialogServices@Worker@RACERMATE@@@@ABEPAPAU?$QHashNode@VQString@@VIPrintDialogServices@Worker@RACERMATE@@@@ABVQString@@I@Z 100e7990 f i ctsrv:worker.obj
 0002:0005fa80       ?findNode@?$QHash@VQString@@VIPrintDialogServices@Worker@RACERMATE@@@@ABEPAPAU?$QHashNode@VQString@@VIPrintDialogServices@Worker@RACERMATE@@@@ABVQString@@PAI@Z 100e7a80 f i ctsrv:worker.obj
 0002:0005fb00       ?freeData@?$QHash@VQString@@VBCINF@Worker@RACERMATE@@@@AAEXPAUQHashData@@@Z 100e7b00 f i ctsrv:worker.obj
 0002:0005fb30       ?freeData@?$QHash@VQString@@VIPrintDialogServices@Worker@RACERMATE@@@@AAEXPAUQHashData@@@Z 100e7b30 f i ctsrv:worker.obj
 0002:0005fb60       ?get_rc@SDIRS@RACERMATE@@QBEHXZ 100e7b60 f i ctsrv:worker.obj
 0002:0005fb80       ?isEmpty@?$QHash@VQString@@PAVUDPClient@RACERMATE@@@@QBE_NXZ 100e7b80 f i ctsrv:worker.obj
 0002:0005fbc0       ?key@const_iterator@?$QHash@VQString@@VBCINF@Worker@RACERMATE@@@@QBEABVQString@@XZ 100e7bc0 f i ctsrv:worker.obj
 0002:0005fbf0       ?keys@?$QHash@VQString@@VBCINF@Worker@RACERMATE@@@@QBE?AV?$QList@VQString@@@@XZ 100e7bf0 f i ctsrv:worker.obj
 0002:0005fcf0       ?node_construct@?$QList@VQNetworkAddressEntry@@@@AAEXPAUNode@1@ABVQNetworkAddressEntry@@@Z 100e7cf0 f i ctsrv:worker.obj
 0002:0005fe10       ?node_copy@?$QList@VQNetworkAddressEntry@@@@AAEXPAUNode@1@00@Z 100e7e10 f i ctsrv:worker.obj
 0002:000600c0       ?node_copy@?$QList@VQNetworkInterface@@@@AAEXPAUNode@1@00@Z 100e80c0 f i ctsrv:worker.obj
 0002:00060370       ?node_destruct@?$QList@VQNetworkAddressEntry@@@@AAEXPAUNode@1@0@Z 100e8370 f i ctsrv:worker.obj
 0002:00060410       ?node_destruct@?$QList@VQNetworkAddressEntry@@@@AAEXPAUNode@1@@Z 100e8410 f i ctsrv:worker.obj
 0002:00060480       ?node_destruct@?$QList@VQNetworkInterface@@@@AAEXPAUNode@1@0@Z 100e8480 f i ctsrv:worker.obj
 0002:00060520       ?remove@?$QHash@VQString@@PAVUDPClient@RACERMATE@@@@QAEHABVQString@@@Z 100e8520 f i ctsrv:worker.obj
 0002:00060650       ?same_key@?$QHashNode@VQString@@VBCINF@Worker@RACERMATE@@@@QBE_NIABVQString@@@Z 100e8650 f i ctsrv:worker.obj
 0002:000606b0       ?same_key@?$QHashNode@VQString@@VIPrintDialogServices@Worker@RACERMATE@@@@QBE_NIABVQString@@@Z 100e86b0 f i ctsrv:worker.obj
 0002:00060710       ?size@?$QHash@VQString@@VBCINF@Worker@RACERMATE@@@@QBEHXZ 100e8710 f i ctsrv:worker.obj
 0002:00060730       ?swap@?$QHash@VQString@@PAVUDPClient@RACERMATE@@@@QAEXAAV1@@Z 100e8730 f i ctsrv:worker.obj
 0002:00060760       ?swap@?$QHash@VQString@@VIPrintDialogServices@Worker@RACERMATE@@@@QAEXAAV1@@Z 100e8760 f i ctsrv:worker.obj
 0002:00060790       ?swap@?$QList@VQNetworkAddressEntry@@@@QAEXAAV1@@Z 100e8790 f i ctsrv:worker.obj
 0002:000607c0       ?t@Node@?$QList@VQNetworkAddressEntry@@@@QAEAAVQNetworkAddressEntry@@XZ 100e87c0 f i ctsrv:worker.obj
 0002:000607f0       ?t@Node@?$QList@VQNetworkInterface@@@@QAEAAVQNetworkInterface@@XZ 100e87f0 f i ctsrv:worker.obj
 0002:00060820       ?testFlag@?$QFlags@W4InterfaceFlag@QNetworkInterface@@@@QBE_NW4InterfaceFlag@QNetworkInterface@@@Z 100e8820 f i ctsrv:worker.obj
 0002:00060870       ?value@?$QHash@VQString@@PAVUDPClient@RACERMATE@@@@QBEQAVUDPClient@RACERMATE@@ABVQString@@@Z 100e8870 f i ctsrv:worker.obj
 0002:000608d0       ??0SDIRS@RACERMATE@@QAE@HVQString@@@Z 100e88d0 f   ctsrv:sdirs.obj
 0002:00060f20       ??1SDIRS@RACERMATE@@QAE@XZ 100e8f20 f   ctsrv:sdirs.obj
 0002:00061100       ??H@YA?BVQString@@PBDABV0@@Z 100e9100 f i ctsrv:sdirs.obj
 0002:000611b0       ?metaObject@UDPClient@RACERMATE@@UBEPBUQMetaObject@@XZ 100e91b0 f   ctsrv:moc_udp_client.obj
 0002:000611f0       ?qt_metacast@UDPClient@RACERMATE@@UAEPAXPBD@Z 100e91f0 f   ctsrv:moc_udp_client.obj
 0002:00061230       ?qt_metacall@UDPClient@RACERMATE@@UAEHW4Call@QMetaObject@@HPAPAX@Z 100e9230 f   ctsrv:moc_udp_client.obj
 0002:000612c0       ?qt_static_metacall@UDPClient@RACERMATE@@CAXPAVQObject@@W4Call@QMetaObject@@HPAPAX@Z 100e92c0 f   ctsrv:moc_udp_client.obj
 0002:00061510       ?connected_to_trainer_signal@UDPClient@RACERMATE@@QAEXVQString@@_N@Z 100e9510 f   ctsrv:moc_udp_client.obj
 0002:000615a0       ?ctlmsg_signal@UDPClient@RACERMATE@@QAEXVQString@@PAEH@Z 100e95a0 f   ctsrv:moc_udp_client.obj
 0002:00061630       ?data_signal@UDPClient@RACERMATE@@QAEXVQString@@PAVQT_DATA@2@@Z 100e9630 f   ctsrv:moc_udp_client.obj
 0002:000616c0       ?ss_signal@UDPClient@RACERMATE@@QAEXVQString@@PAVSSD@qt_SS@2@@Z 100e96c0 f   ctsrv:moc_udp_client.obj
 0002:00061750       ?rescale_signal@UDPClient@RACERMATE@@QAEHVQString@@H@Z 100e9750 f   ctsrv:moc_udp_client.obj
 0002:00061980       ?metaObject@Worker@RACERMATE@@UBEPBUQMetaObject@@XZ 100e9980 f   ctsrv:moc_worker.obj
 0002:000619c0       ?qt_metacast@Worker@RACERMATE@@UAEPAXPBD@Z 100e99c0 f   ctsrv:moc_worker.obj
 0002:00061a00       ?qt_metacall@Worker@RACERMATE@@UAEHW4Call@QMetaObject@@HPAPAX@Z 100e9a00 f   ctsrv:moc_worker.obj
 0002:00061a90       ?qt_static_metacall@Worker@RACERMATE@@CAXPAVQObject@@W4Call@QMetaObject@@HPAPAX@Z 100e9a90 f   ctsrv:moc_worker.obj
 0002:00061db0       ?finished@Worker@RACERMATE@@QAEXXZ 100e9db0 f   ctsrv:moc_worker.obj
 0002:00061de0       ?resultReady@Worker@RACERMATE@@QAEXABVQString@@@Z 100e9de0 f   ctsrv:moc_worker.obj
 0002:00061e20       ?connected_to_trainer_signal@Worker@RACERMATE@@QAEXVQString@@_N@Z 100e9e20 f   ctsrv:moc_worker.obj
 0002:00061eb0       ?data_signal@Worker@RACERMATE@@QAEXVQString@@PAVQT_DATA@2@@Z 100e9eb0 f   ctsrv:moc_worker.obj
 0002:00061f40       ?ss_signal@Worker@RACERMATE@@QAEXVQString@@PAVSSD@qt_SS@2@@Z 100e9f40 f   ctsrv:moc_worker.obj
 0002:00061fd0       ?rescale_signal@Worker@RACERMATE@@QAEXVQString@@H@Z 100e9fd0 f   ctsrv:moc_worker.obj
 0002:0006220e       _CreateDirectoryA@8        100ea20e f   kernel32:KERNEL32.dll
 0002:00062214       _Sleep@4                   100ea214 f   kernel32:KERNEL32.dll
 0002:0006221a       _GetCurrentThreadId@0      100ea21a f   kernel32:KERNEL32.dll
 0002:00062220       _OutputDebugStringA@4      100ea220 f   kernel32:KERNEL32.dll
 0002:00062226       _InitializeCriticalSection@4 100ea226 f   kernel32:KERNEL32.dll
 0002:0006222c       _DeleteCriticalSection@4   100ea22c f   kernel32:KERNEL32.dll
 0002:00062232       _HeapValidate@12           100ea232 f   kernel32:KERNEL32.dll
 0002:00062238       _GetProcessHeap@0          100ea238 f   kernel32:KERNEL32.dll
 0002:0006223e       _MessageBoxA@16            100ea23e f   user32:USER32.dll
 0002:00062244       _RegCloseKey@4             100ea244 f   advapi32:ADVAPI32.dll
 0002:0006224a       _RegEnumValueA@32          100ea24a f   advapi32:ADVAPI32.dll
 0002:00062250       _RegOpenKeyExA@20          100ea250 f   advapi32:ADVAPI32.dll
 0002:00062256       _SHGetFolderPathA@20       100ea256 f   shell32:SHELL32.dll
 0002:0006225c       _SHGetFolderPathW@20       100ea25c f   shell32:SHELL32.dll
 0002:00062270       ??0ANT@@QAE@XZ             100ea270 f   glib:aunt.obj
 0002:000622d0       ??0CAD@@QAE@XZ             100ea2d0 f   glib:aunt.obj
 0002:00062380       ??0HR@@QAE@XZ              100ea380 f i glib:aunt.obj
 0002:00062430       ??0PAGE_SENSOR@@IAE@XZ     100ea430 f   glib:aunt.obj
 0002:000624e0       ??0SC@@QAE@XZ              100ea4e0 f i glib:aunt.obj
 0002:00062590       ??1ANT@@QAE@XZ             100ea590 f i glib:aunt.obj
 0002:000625d0       ??1CAD@@QAE@XZ             100ea5d0 f i glib:aunt.obj
 0002:00062620       ??1HR@@QAE@XZ              100ea620 f i glib:aunt.obj
 0002:00062670       ??1PAGE_SENSOR@@IAE@XZ     100ea670 f i glib:aunt.obj
 0002:000626c0       ??1SC@@QAE@XZ              100ea6c0 f i glib:aunt.obj
 0002:00062710       ?MessageThread@@YAXXZ      100ea710 f   glib:aunt.obj
 0002:00062fa0       ?ant_WaitAck@@YA_NEK@Z     100eafa0 f   glib:aunt.obj
 0002:000630c0       ?ant_close@@YAHXZ          100eb0c0 f   glib:aunt.obj
 0002:00063320       ?ant_init@@YAHP6AXXZ@Z     100eb320 f   glib:aunt.obj
 0002:00064390       ?ant_log@@YAXPAD_N@Z       100ec390 f   glib:aunt.obj
 0002:00064420       ?ant_process@@YAXUANT_MESSAGE@@G@Z 100ec420 f   glib:aunt.obj
 0002:00067490       ?ant_run@@YAXXZ            100ef490 f   glib:aunt.obj
 0002:00067670       ?ant_set_circumference@@YAXM@Z 100ef670 f   glib:aunt.obj
 0002:00067730       ?ant_start_cad@@YAHXZ      100ef730 f   glib:aunt.obj
 0002:000677a0       ?ant_start_heartrate@@YAHXZ 100ef7a0 f   glib:aunt.obj
 0002:00067810       ?ant_start_sc@@YAHXZ       100ef810 f   glib:aunt.obj
 0002:00067880       ?decode@CAD@@QAEHXZ        100ef880 f   glib:aunt.obj
 0002:00067e20       ?decode@HR@@QAEHXZ         100efe20 f   glib:aunt.obj
 0002:00068510       ?decode@SC@@QAEHXZ         100f0510 f   glib:aunt.obj
 0002:00068cc0       ?gen_start@@YAHPAVANT@@@Z  100f0cc0 f   glib:aunt.obj
 0002:00069930       ?get_decode_time@ANT@@QAEKXZ 100f1930 f i glib:aunt.obj
 0002:00069970       ?get_val@CAD@@QAEMXZ       100f1970 f   glib:aunt.obj
 0002:00069a60       ?get_val@HR@@QAEMXZ        100f1a60 f   glib:aunt.obj
 0002:00069b50       ?init@ANT@@AAEHXZ          100f1b50 f   glib:aunt.obj
 0002:00069ce0       ?init@CAD@@AAEHXZ          100f1ce0 f   glib:aunt.obj
 0002:00069d40       ?init@PAGE_SENSOR@@AAEHXZ  100f1d40 f   glib:aunt.obj
 0002:00069da0       ?reset@ANT@@IAEHXZ         100f1da0 f   glib:aunt.obj
 0002:00069f10       ?reset@CAD@@QAEHXZ         100f1f10 f   glib:aunt.obj
 0002:00069f70       ?reset@HR@@QAEHXZ          100f1f70 f   glib:aunt.obj
 0002:00069fd0       ?reset@PAGE_SENSOR@@IAEHXZ 100f1fd0 f   glib:aunt.obj
 0002:0006a0d0       ?reset@SC@@QAEHXZ          100f20d0 f   glib:aunt.obj
 0002:0006a2d0       ?set_cadence@SC@@QAEXM@Z   100f22d0 f i glib:aunt.obj
 0002:0006a320       ?set_circum@SC@@QAEXE@Z    100f2320 f   glib:aunt.obj
 0002:0006a370       ??0Logger@@QAE@PBD0@Z      100f2370 f   glib:logger.obj
 0002:0006a7b0       ??1Logger@@UAE@XZ          100f27b0 f   glib:logger.obj
 0002:0006a890       ??_ELogger@@UAEPAXI@Z      100f2890 f i glib:logger.obj
 0002:0006a890       ??_GLogger@@UAEPAXI@Z      100f2890 f i glib:logger.obj
 0002:0006a910       ?cleanup_logfiles@Logger@@AAEXXZ 100f2910 f   glib:logger.obj
 0002:0006ae20       ?close@Logger@@QAEXXZ      100f2e20 f   glib:logger.obj
 0002:0006afa0       ?dump@Logger@@QAEXPAEH@Z   100f2fa0 f   glib:logger.obj
 0002:0006b2d0       ?flush@Logger@@QAEXXZ      100f32d0 f   glib:logger.obj
 0002:0006b370       ?import_file@Logger@@QAEHPBD@Z 100f3370 f   glib:logger.obj
 0002:0006b4a0       ?sort_function@@YAHPBX0@Z  100f34a0 f   glib:logger.obj
 0002:0006b500       ?write@Logger@@QAAXHHHPBDZZ 100f3500 f   glib:logger.obj
 0002:0006b980       ?write@Logger@@QAAXPBDZZ   100f3980 f   glib:logger.obj
 0002:0006bab0       ??0fastTimer@@QAE@PAD@Z    100f3ab0 f   glib:fasttimer.obj
 0002:0006bba0       ??1fastTimer@@UAE@XZ       100f3ba0 f   glib:fasttimer.obj
 0002:0006bd50       ??_EfastTimer@@UAEPAXI@Z   100f3d50 f i glib:fasttimer.obj
 0002:0006be60       ??_GfastTimer@@UAEPAXI@Z   100f3e60 f i glib:fasttimer.obj
 0002:0006bee0       ?average@fastTimer@@QAEXXZ 100f3ee0 f   glib:fasttimer.obj
 0002:0006c180       ?delay@fastTimer@@QAEXK@Z  100f4180 f   glib:fasttimer.obj
 0002:0006c290       ?getAverageSeconds@fastTimer@@QAENXZ 100f4290 f   glib:fasttimer.obj
 0002:0006c330       ?getCycles@fastTimer@@QAEKXZ 100f4330 f   glib:fasttimer.obj
 0002:0006c370       ?getFreq@fastTimer@@QAE_JXZ 100f4370 f   glib:fasttimer.obj
 0002:0006c3b0       ?getSeconds@fastTimer@@QAENXZ 100f43b0 f   glib:fasttimer.obj
 0002:0006c490       ?getTotalSeconds@fastTimer@@QAENXZ 100f4490 f   glib:fasttimer.obj
 0002:0006c4d0       ?getms@fastTimer@@QAEKXZ   100f44d0 f   glib:fasttimer.obj
 0002:0006c5d0       ?getseconds@fastTimer@@QAENXZ 100f45d0 f   glib:fasttimer.obj
 0002:0006c6b0       ?getus@fastTimer@@QAEMXZ   100f46b0 f   glib:fasttimer.obj
 0002:0006c790       ?print@fastTimer@@QAEXXZ   100f4790 f   glib:fasttimer.obj
 0002:0006c910       ?read@fastTimer@@QAE_JXZ   100f4910 f   glib:fasttimer.obj
 0002:0006c9a0       ?reset@fastTimer@@QAEXXZ   100f49a0 f   glib:fasttimer.obj
 0002:0006ca90       ?start@fastTimer@@QAEXXZ   100f4a90 f   glib:fasttimer.obj
 0002:0006cb10       ?stop@fastTimer@@QAEXXZ    100f4b10 f   glib:fasttimer.obj
 0002:0006cc10       ??$MAX@H@@YAHHH@Z          100f4c10 f i glib:win_utils.obj
 0002:0006cc60       ??$pow@HN@@YANHN@Z         100f4c60 f i glib:win_utils.obj
 0002:0006ccd0       ?BitmapToRegion@@YAPAUHRGN__@@PAUHBITMAP__@@KK@Z 100f4cd0 f   glib:win_utils.obj
 0002:0006d810       ?DeleteFolder@@YAHPAD@Z    100f5810 f   glib:win_utils.obj
 0002:0006db20       ?GetMachineCaps@@YAXPAVLogger@@@Z 100f5b20 f   glib:win_utils.obj
 0002:0006de20       ?MessageName@@YAPBDI@Z     100f5e20 f   glib:win_utils.obj
 0002:0006f020       ?OutputHeading@@YAXPBD@Z   100f7020 f   glib:win_utils.obj
 0002:0006f0a0       ?SetBValue@@YAXPAKE@Z      100f70a0 f   glib:win_utils.obj
 0002:0006f0f0       ?SetClientRect@@YAXPAUHWND__@@PAUtagRECT@@@Z 100f70f0 f   glib:win_utils.obj
 0002:0006f3b0       ?SetClientSize@@YAXPAUHWND__@@HH@Z 100f73b0 f   glib:win_utils.obj
 0002:0006f4e0       ?SetGValue@@YAXPAKE@Z      100f74e0 f   glib:win_utils.obj
 0002:0006f530       ?SetRValue@@YAXPAKE@Z      100f7530 f   glib:win_utils.obj
 0002:0006f580       ?TransparentStretchBlt@@YAXPAUHDC__@@JJJJPAUHBITMAP__@@JJJJK@Z 100f7580 f   glib:win_utils.obj
 0002:0006f8c0       ?alert@@YAXXZ              100f78c0 f   glib:win_utils.obj
 0002:0006f8f0       ?avgfps@@YAMM@Z            100f78f0 f   glib:win_utils.obj
 0002:0006f9d0       ?bang@@YAXXZ               100f79d0 f   glib:win_utils.obj
 0002:0006fa00       ?beep@@YAXXZ               100f7a00 f   glib:win_utils.obj
 0002:0006fa30       ?box@@YAXPAUHDC__@@UtagRECT@@K_NPAUHPEN__@@@Z 100f7a30 f   glib:win_utils.obj
 0002:0006fcf0       ?brand@@YA_NXZ             100f7cf0 f   glib:win_utils.obj
 0002:0006fd70       ?buzz@@YAXXZ               100f7d70 f   glib:win_utils.obj
 0002:0006fdd0       ?center_window@@YAXPAUHWND__@@@Z 100f7dd0 f   glib:win_utils.obj
 0002:0006ff00       ?charToW@@YAXPBDHPA_W@Z    100f7f00 f   glib:win_utils.obj
 0002:0006ff70       ?checkMsg@@YAXIPAU_iobuf@@@Z 100f7f70 f   glib:win_utils.obj
 0002:00070be0       ?circle@@YAXPAUHDC__@@HHH_N@Z 100f8be0 f   glib:win_utils.obj
 0002:00070cf0       ?convertAnsiStringToWide@@YAXPA_WPBDH@Z 100f8cf0 f   glib:win_utils.obj
 0002:00070da0       ?convertWideStringToAnsi@@YAXPADPB_WH@Z 100f8da0 f   glib:win_utils.obj
 0002:00070e60       ?cos@@YAMM@Z               100f8e60 f i glib:win_utils.obj
 0002:00070ec0       ?crand@@YAXPADH@Z          100f8ec0 f   glib:win_utils.obj
 0002:00070fb0       ?csv_add@@YAHPADHHPAXH_N@Z 100f8fb0 f   glib:win_utils.obj
 0002:000711e0       ?delay@@YAXK@Z             100f91e0 f   glib:win_utils.obj
 0002:00071270       ?direxists@@YA_NPBD@Z      100f9270 f   glib:win_utils.obj
 0002:000712f0       ?dlerp@@YANNNN@Z           100f92f0 f   glib:win_utils.obj
 0002:00071350       ?dround@@YANNH@Z           100f9350 f   glib:win_utils.obj
 0002:00071400       ?ellipse@@YAXPAUHDC__@@HHHH_N@Z 100f9400 f   glib:win_utils.obj
 0002:00071510       ?expect@@YAHPAVLogger@@PADPAVSerial@@K@Z 100f9510 f   glib:win_utils.obj
 0002:000717c0       ?fcompare@@YAHPBX0@Z       100f97c0 f   glib:win_utils.obj
 0002:00071840       ?filesize_from_name@@YAKPBD@Z 100f9840 f   glib:win_utils.obj
 0002:000718f0       ?filetime@@YA?AU_SYSTEMTIME@@PAD@Z 100f98f0 f   glib:win_utils.obj
 0002:00071ae0       ?fround@@YAMMH@Z           100f9ae0 f   glib:win_utils.obj
 0002:00071bc0       ?generate_log_file_name@@YAXPAD@Z 100f9bc0 f   glib:win_utils.obj
 0002:00071c90       ?getClientRect@@YAXPAUHWND__@@PAUtagRECT@@@Z 100f9c90 f   glib:win_utils.obj
 0002:00071e10       ?getUniqueFileName@@YAXPADH@Z 100f9e10 f   glib:win_utils.obj
 0002:00072040       ?get_os_serial_number@@YAXPAEK@Z 100fa040 f   glib:win_utils.obj
 0002:00072360       ?get_system_drive@@YADXZ   100fa360 f   glib:win_utils.obj
 0002:000723d0       ?gettimeofday@@YAHPAUtimeval@@PAUtimezone@@@Z 100fa3d0 f   glib:win_utils.obj
 0002:000725b0       ?heapdump@@YAXXZ           100fa5b0 f   glib:win_utils.obj
 0002:000727f0       ?hide@@YAXPAD@Z            100fa7f0 f   glib:win_utils.obj
 0002:00072880       ?irand@@YAHHH@Z            100fa880 f   glib:win_utils.obj
 0002:00072920       ?is_open@@YA_NPBD@Z        100fa920 f   glib:win_utils.obj
 0002:000729f0       ?linaxspec@@YA?AUTICKSUMMARY@@NHHPAN@Z 100fa9f0 f   glib:win_utils.obj
 0002:00072cd0       ?line@@YAXPAUHDC__@@HHHH@Z 100facd0 f   glib:win_utils.obj
 0002:00072d60       ?loose_label@@YAXNN@Z      100fad60 f   glib:win_utils.obj
 0002:00072fa0       ?lpwAlign@@YAPAGPAG@Z      100fafa0 f   glib:win_utils.obj
 0002:00073000       ?nCopyAnsiToWideChar@@YAHPAGPAD@Z 100fb000 f   glib:win_utils.obj
 0002:000730a0       ?nicenum@@YANNH@Z          100fb0a0 f   glib:win_utils.obj
 0002:000732c0       ?pow@@YANNH@Z              100fb2c0 f i glib:win_utils.obj
 0002:00073360       ?printfile@@YAHPADH_N11H@Z 100fb360 f   glib:win_utils.obj
 0002:00073d90       ?repaintNow@@YAXPAUHWND__@@@Z 100fbd90 f   glib:win_utils.obj
 0002:00073e10       ?rotate@@YAXAAM0M@Z        100fbe10 f   glib:win_utils.obj
 0002:00073f60       ?select_color@@YAXPAUHWND__@@AAKPAVIni@@@Z 100fbf60 f   glib:win_utils.obj
 0002:00074230       ?send@@YAXPAVLogger@@PAVSerial@@PADH@Z 100fc230 f   glib:win_utils.obj
 0002:00074350       ?sin@@YAMM@Z               100fc350 f i glib:win_utils.obj
 0002:000743b0       ?to_narrow@@YAXPA_WPADH@Z  100fc3b0 f   glib:win_utils.obj
 0002:00074490       ?to_wide@@YAPA_WPBD@Z      100fc490 f   glib:win_utils.obj
 0002:00074550       ?unhide@@YAXPAD@Z          100fc550 f   glib:win_utils.obj
 0002:000745f0       _cosf                      100fc5f0 f i glib:win_utils.obj
 0002:00074660       _sinf                      100fc660 f i glib:win_utils.obj
 0002:00074730       ??$?0$$V@?$_Compressed_pair@U?$_Wrap_alloc@V?$allocator@H@std@@@std@@V?$_Vector_val@U?$_Simple_types@H@std@@@2@$00@std@@QAE@U_Zero_then_variadic_args_t@1@@Z 100fc730 f i glib:utils.obj
 0002:00074790       ??$?0AAU?$_Wrap_alloc@V?$allocator@H@std@@@std@@@?$_Wrap_alloc@V?$allocator@U_Container_proxy@std@@@std@@@std@@QAE@AAU?$_Wrap_alloc@V?$allocator@H@std@@@1@@Z 100fc790 f i glib:utils.obj
 0002:00074800       ??$?0H@?$allocator@U_Container_proxy@std@@@std@@QAE@ABV?$allocator@H@1@@Z 100fc800 f i glib:utils.obj
 0002:00074840       ??$?0V?$allocator@D@std@@@?$_Wrap_alloc@V?$allocator@D@std@@@std@@QAE@$$QAV?$allocator@D@1@@Z 100fc840 f i glib:utils.obj
 0002:000748b0       ??$_Addressof@$$CBH@std@@YAPBHABHU?$integral_constant@_N$0A@@0@@Z 100fc8b0 f i glib:utils.obj
 0002:000748f0       ??$_Addressof@$$CBV?$basic_string@DU?$char_traits@D@std@@V?$allocator@D@2@@std@@@std@@YAPBV?$basic_string@DU?$char_traits@D@std@@V?$allocator@D@2@@0@ABV10@U?$integral_constant@_N$0A@@0@@Z 100fc8f0 f i glib:utils.obj
 0002:00074930       ??$_Addressof@H@std@@YAPAHAAHU?$integral_constant@_N$0A@@0@@Z 100fc930 f i glib:utils.obj
 0002:00074970       ??$_Copy_memmove@PAHPAH@std@@YAPAHPAH00@Z 100fc970 f i glib:utils.obj
 0002:00074a00       ??$_Debug_pointer@V?$_Vector_iterator@V?$_Vector_val@U?$_Simple_types@V?$basic_string@DU?$char_traits@D@std@@V?$allocator@D@2@@std@@@std@@@std@@@std@@@std@@YAXAAV?$_Vector_iterator@V?$_Vector_val@U?$_Simple_types@V?$basic_string@DU?$char_traits@D@std@@V?$allocator@D@2@@std@@@std@@@std@@@0@PB_WI@Z 100fca00 f i glib:utils.obj
 0002:00074a30       ??$_Debug_range2@V?$_Vector_iterator@V?$_Vector_val@U?$_Simple_types@V?$basic_string@DU?$char_traits@D@std@@V?$allocator@D@2@@std@@@std@@@std@@@std@@@std@@YAXV?$_Vector_iterator@V?$_Vector_val@U?$_Simple_types@V?$basic_string@DU?$char_traits@D@std@@V?$allocator@D@2@@std@@@std@@@std@@@0@0PB_WIUrandom_access_iterator_tag@0@@Z 100fca30 f i glib:utils.obj
 0002:00074b60       ??$_Debug_range@V?$_Vector_iterator@V?$_Vector_val@U?$_Simple_types@V?$basic_string@DU?$char_traits@D@std@@V?$allocator@D@2@@std@@@std@@@std@@@std@@@std@@YAXV?$_Vector_iterator@V?$_Vector_val@U?$_Simple_types@V?$basic_string@DU?$char_traits@D@std@@V?$allocator@D@2@@std@@@std@@@std@@@0@0PB_WI@Z 100fcb60 f i glib:utils.obj
 0002:00074c90       ??$_Destroy_range@U?$_Wrap_alloc@V?$allocator@H@std@@@std@@@std@@YAXPAH0AAU?$_Wrap_alloc@V?$allocator@H@std@@@0@@Z 100fcc90 f i glib:utils.obj
 0002:00074d10       ??$_Iter_cat@V?$_Vector_iterator@V?$_Vector_val@U?$_Simple_types@V?$basic_string@DU?$char_traits@D@std@@V?$allocator@D@2@@std@@@std@@@std@@@std@@@std@@YA?AUrandom_access_iterator_tag@0@ABV?$_Vector_iterator@V?$_Vector_val@U?$_Simple_types@V?$basic_string@DU?$char_traits@D@std@@V?$allocator@D@2@@std@@@std@@@std@@@0@@Z 100fcd10 f i glib:utils.obj
 0002:00074d50       ??$_Pocs@U?$_Wrap_alloc@V?$allocator@D@std@@@std@@@std@@YAXAAU?$_Wrap_alloc@V?$allocator@D@std@@@0@0@Z 100fcd50 f i glib:utils.obj
 0002:00074de0       ??$_Pocs@U?$_Wrap_alloc@V?$allocator@D@std@@@std@@@std@@YAXAAU?$_Wrap_alloc@V?$allocator@D@std@@@0@0U?$integral_constant@_N$0A@@0@@Z 100fcde0 f i glib:utils.obj
 0002:00074e10       ??$_Ptr_move_cat@HH@std@@YA?AU_Really_trivial_ptr_iterator_tag@0@ABQAH0@Z 100fce10 f i glib:utils.obj
 0002:00074e50       ??$_Rechecked@PAHPAH@std@@YAAAPAHAAPAHPAH@Z 100fce50 f i glib:utils.obj
 0002:00074e90       ??$_Reverse@PAV?$basic_string@DU?$char_traits@D@std@@V?$allocator@D@2@@std@@@std@@YAXPAV?$basic_string@DU?$char_traits@D@std@@V?$allocator@D@2@@0@0Ubidirectional_iterator_tag@0@@Z 100fce90 f i glib:utils.obj
 0002:00074f20       ??$_Swap_adl@PAD@std@@YAXAAPAD0@Z 100fcf20 f i glib:utils.obj
 0002:00074f80       ??$_Swap_adl@PAU_Container_proxy@std@@@std@@YAXAAPAU_Container_proxy@0@0@Z 100fcf80 f i glib:utils.obj
 0002:00074fe0       ??$_Umove@PAH@?$vector@HV?$allocator@H@std@@@std@@IAEPAHPAH00@Z 100fcfe0 f i glib:utils.obj
 0002:00075050       ??$_Unchecked@PAH@std@@YAPAHPAH@Z 100fd050 f i glib:utils.obj
 0002:00075090       ??$_Unchecked@V?$_Vector_val@U?$_Simple_types@V?$basic_string@DU?$char_traits@D@std@@V?$allocator@D@2@@std@@@std@@@std@@@std@@YAPAV?$basic_string@DU?$char_traits@D@std@@V?$allocator@D@2@@0@V?$_Vector_iterator@V?$_Vector_val@U?$_Simple_types@V?$basic_string@DU?$char_traits@D@std@@V?$allocator@D@2@@std@@@std@@@std@@@0@@Z 100fd090 f i glib:utils.obj
 0002:00075140       ??$_Uninitialized_move@PAHPAHU?$_Wrap_alloc@V?$allocator@H@std@@@std@@@std@@YAPAHPAH00AAU?$_Wrap_alloc@V?$allocator@H@std@@@0@@Z 100fd140 f i glib:utils.obj
 0002:000751e0       ??$_Uninitialized_move_al_unchecked1@HH@std@@YAPAHPAH00AAU?$_Wrap_alloc@V?$allocator@H@std@@@0@U_Really_trivial_ptr_iterator_tag@0@@Z 100fd1e0 f i glib:utils.obj
 0002:00075240       ??$_Uninitialized_move_al_unchecked@PAHPAHU?$_Wrap_alloc@V?$allocator@H@std@@@std@@@std@@YAPAHPAH00AAU?$_Wrap_alloc@V?$allocator@H@std@@@0@@Z 100fd240 f i glib:utils.obj
 0002:000752c0       ??$addressof@$$CBH@std@@YAPBHABH@Z 100fd2c0 f i glib:utils.obj
 0002:00075320       ??$addressof@$$CBV?$basic_string@DU?$char_traits@D@std@@V?$allocator@D@2@@std@@@std@@YAPBV?$basic_string@DU?$char_traits@D@std@@V?$allocator@D@2@@0@ABV10@@Z 100fd320 f i glib:utils.obj
 0002:00075380       ??$addressof@H@std@@YAPAHAAH@Z 100fd380 f i glib:utils.obj
 0002:000753e0       ??$construct@HAAH@?$_Wrap_alloc@V?$allocator@H@std@@@std@@QAEXPAHAAH@Z 100fd3e0 f i glib:utils.obj
 0002:00075450       ??$construct@HAAH@?$allocator@H@std@@QAEXPAHAAH@Z 100fd450 f i glib:utils.obj
 0002:00075500       ??$construct@HAAH@?$allocator_traits@V?$allocator@H@std@@@std@@SAXAAV?$allocator@H@1@PAHAAH@Z 100fd500 f i glib:utils.obj
 0002:00075560       ??$construct@HABH@?$_Wrap_alloc@V?$allocator@H@std@@@std@@QAEXPAHABH@Z 100fd560 f i glib:utils.obj
 0002:000755d0       ??$construct@HABH@?$allocator@H@std@@QAEXPAHABH@Z 100fd5d0 f i glib:utils.obj
 0002:00075680       ??$construct@HABH@?$allocator_traits@V?$allocator@H@std@@@std@@SAXAAV?$allocator@H@1@PAHABH@Z 100fd680 f i glib:utils.obj
 0002:000756e0       ??$construct@V?$basic_string@DU?$char_traits@D@std@@V?$allocator@D@2@@std@@AAV12@@?$_Wrap_alloc@V?$allocator@V?$basic_string@DU?$char_traits@D@std@@V?$allocator@D@2@@std@@@std@@@std@@QAEXPAV?$basic_string@DU?$char_traits@D@std@@V?$allocator@D@2@@1@AAV21@@Z 100fd6e0 f i glib:utils.obj
 0002:00075750       ??$construct@V?$basic_string@DU?$char_traits@D@std@@V?$allocator@D@2@@std@@AAV12@@?$allocator@V?$basic_string@DU?$char_traits@D@std@@V?$allocator@D@2@@std@@@std@@QAEXPAV?$basic_string@DU?$char_traits@D@std@@V?$allocator@D@2@@1@AAV21@@Z 100fd750 f i glib:utils.obj
 0002:00075850       ??$construct@V?$basic_string@DU?$char_traits@D@std@@V?$allocator@D@2@@std@@AAV12@@?$allocator_traits@V?$allocator@V?$basic_string@DU?$char_traits@D@std@@V?$allocator@D@2@@std@@@std@@@std@@SAXAAV?$allocator@V?$basic_string@DU?$char_traits@D@std@@V?$allocator@D@2@@std@@@1@PAV?$basic_string@DU?$char_traits@D@std@@V?$allocator@D@2@@1@AAV31@@Z 100fd850 f i glib:utils.obj
 0002:000758b0       ??$construct@V?$basic_string@DU?$char_traits@D@std@@V?$allocator@D@2@@std@@ABV12@@?$_Wrap_alloc@V?$allocator@V?$basic_string@DU?$char_traits@D@std@@V?$allocator@D@2@@std@@@std@@@std@@QAEXPAV?$basic_string@DU?$char_traits@D@std@@V?$allocator@D@2@@1@ABV21@@Z 100fd8b0 f i glib:utils.obj
 0002:00075920       ??$construct@V?$basic_string@DU?$char_traits@D@std@@V?$allocator@D@2@@std@@ABV12@@?$allocator@V?$basic_string@DU?$char_traits@D@std@@V?$allocator@D@2@@std@@@std@@QAEXPAV?$basic_string@DU?$char_traits@D@std@@V?$allocator@D@2@@1@ABV21@@Z 100fd920 f i glib:utils.obj
 0002:00075a20       ??$construct@V?$basic_string@DU?$char_traits@D@std@@V?$allocator@D@2@@std@@ABV12@@?$allocator_traits@V?$allocator@V?$basic_string@DU?$char_traits@D@std@@V?$allocator@D@2@@std@@@std@@@std@@SAXAAV?$allocator@V?$basic_string@DU?$char_traits@D@std@@V?$allocator@D@2@@std@@@1@PAV?$basic_string@DU?$char_traits@D@std@@V?$allocator@D@2@@1@ABV31@@Z 100fda20 f i glib:utils.obj
 0002:00075a80       ??$destroy@H@?$_Wrap_alloc@V?$allocator@H@std@@@std@@QAEXPAH@Z 100fda80 f i glib:utils.obj
 0002:00075ae0       ??$destroy@H@?$allocator@H@std@@QAEXPAH@Z 100fdae0 f i glib:utils.obj
 0002:00075b20       ??$destroy@H@?$allocator_traits@V?$allocator@H@std@@@std@@SAXAAV?$allocator@H@1@PAH@Z 100fdb20 f i glib:utils.obj
 0002:00075b70       ??$forward@AAH@std@@YAAAHAAH@Z 100fdb70 f i glib:utils.obj
 0002:00075bb0       ??$forward@AAU?$_Wrap_alloc@V?$allocator@H@std@@@std@@@std@@YAAAU?$_Wrap_alloc@V?$allocator@H@std@@@0@AAU10@@Z 100fdbb0 f i glib:utils.obj
 0002:00075bf0       ??$forward@AAV?$basic_string@DU?$char_traits@D@std@@V?$allocator@D@2@@std@@@std@@YAAAV?$basic_string@DU?$char_traits@D@std@@V?$allocator@D@2@@0@AAV10@@Z 100fdbf0 f i glib:utils.obj
 0002:00075c30       ??$forward@ABH@std@@YAABHABH@Z 100fdc30 f i glib:utils.obj
 0002:00075c70       ??$forward@ABV?$basic_string@DU?$char_traits@D@std@@V?$allocator@D@2@@std@@@std@@YAABV?$basic_string@DU?$char_traits@D@std@@V?$allocator@D@2@@0@ABV10@@Z 100fdc70 f i glib:utils.obj
 0002:00075cb0       ??$forward@V?$allocator@D@std@@@std@@YA$$QAV?$allocator@D@0@AAV10@@Z 100fdcb0 f i glib:utils.obj
 0002:00075cf0       ??$iter_swap@PADPAD@std@@YAXPAD0@Z 100fdcf0 f i glib:utils.obj
 0002:00075d50       ??$iter_swap@PAV?$basic_string@DU?$char_traits@D@std@@V?$allocator@D@2@@std@@PAV12@@std@@YAXPAV?$basic_string@DU?$char_traits@D@std@@V?$allocator@D@2@@0@0@Z 100fdd50 f i glib:utils.obj
 0002:00075db0       ??$move@AAD@std@@YA$$QADAAD@Z 100fddb0 f i glib:utils.obj
 0002:00075df0       ??$move@AAI@std@@YA$$QAIAAI@Z 100fddf0 f i glib:utils.obj
 0002:00075e30       ??$move@AAPAD@std@@YA$$QAPADAAPAD@Z 100fde30 f i glib:utils.obj
 0002:00075e70       ??$move@AAPAU_Container_proxy@std@@@std@@YA$$QAPAU_Container_proxy@0@AAPAU10@@Z 100fde70 f i glib:utils.obj
 0002:00075eb0       ??$move@AAT_Bxty@?$_String_val@U?$_Simple_types@D@std@@@std@@@std@@YA$$QAT_Bxty@?$_String_val@U?$_Simple_types@D@std@@@0@AAT120@@Z 100fdeb0 f i glib:utils.obj
 0002:00075ef0       ??$reverse@V?$_Vector_iterator@V?$_Vector_val@U?$_Simple_types@V?$basic_string@DU?$char_traits@D@std@@V?$allocator@D@2@@std@@@std@@@std@@@std@@@std@@YAXV?$_Vector_iterator@V?$_Vector_val@U?$_Simple_types@V?$basic_string@DU?$char_traits@D@std@@V?$allocator@D@2@@std@@@std@@@std@@@0@0@Z 100fdef0 f i glib:utils.obj
 0002:000760b0       ??$swap@D$0BA@@std@@YAXAAY0BA@D0@Z 100fe0b0 f i glib:utils.obj
 0002:00076180       ??$swap@D@std@@YAXAAD0@Z   100fe180 f i glib:utils.obj
 0002:00076240       ??$swap@DU?$char_traits@D@std@@V?$allocator@D@2@@std@@YAXAAV?$basic_string@DU?$char_traits@D@std@@V?$allocator@D@2@@0@0@Z 100fe240 f i glib:utils.obj
 0002:00076290       ??$swap@I@std@@YAXAAI0@Z   100fe290 f i glib:utils.obj
 0002:00076350       ??$swap@PAD@std@@YAXAAPAD0@Z 100fe350 f i glib:utils.obj
 0002:00076410       ??$swap@PAU_Container_proxy@std@@@std@@YAXAAPAU_Container_proxy@0@0@Z 100fe410 f i glib:utils.obj
 0002:000764d0       ??$swap@T_Bxty@?$_String_val@U?$_Simple_types@D@std@@@std@@@std@@YAXAAT_Bxty@?$_String_val@U?$_Simple_types@D@std@@@0@0@Z 100fe4d0 f i glib:utils.obj
 0002:000765f0       ??0?$_Iterator012@Urandom_access_iterator_tag@std@@V?$basic_string@DU?$char_traits@D@std@@V?$allocator@D@2@@2@HPBV32@ABV32@U_Iterator_base12@2@@std@@QAE@ABU01@@Z 100fe5f0 f i glib:utils.obj
 0002:00076650       ??0?$_Iterator012@Urandom_access_iterator_tag@std@@V?$basic_string@DU?$char_traits@D@std@@V?$allocator@D@2@@2@HPBV32@ABV32@U_Iterator_base12@2@@std@@QAE@XZ 100fe650 f i glib:utils.obj
 0002:000766b0       ??0?$_Vector_alloc@U?$_Vec_base_types@HV?$allocator@H@std@@@std@@@std@@QAE@XZ 100fe6b0 f i glib:utils.obj
 0002:00076760       ??0?$_Vector_const_iterator@V?$_Vector_val@U?$_Simple_types@V?$basic_string@DU?$char_traits@D@std@@V?$allocator@D@2@@std@@@std@@@std@@@std@@QAE@ABV01@@Z 100fe760 f i glib:utils.obj
 0002:000767d0       ??0?$_Vector_const_iterator@V?$_Vector_val@U?$_Simple_types@V?$basic_string@DU?$char_traits@D@std@@V?$allocator@D@2@@std@@@std@@@std@@@std@@QAE@PAV?$basic_string@DU?$char_traits@D@std@@V?$allocator@D@2@@1@PBU_Container_base12@1@@Z 100fe7d0 f i glib:utils.obj
 0002:00076890       ??0?$_Vector_iterator@V?$_Vector_val@U?$_Simple_types@V?$basic_string@DU?$char_traits@D@std@@V?$allocator@D@2@@std@@@std@@@std@@@std@@QAE@ABV01@@Z 100fe890 f i glib:utils.obj
 0002:000768f0       ??0?$_Vector_iterator@V?$_Vector_val@U?$_Simple_types@V?$basic_string@DU?$char_traits@D@std@@V?$allocator@D@2@@std@@@std@@@std@@@std@@QAE@PAV?$basic_string@DU?$char_traits@D@std@@V?$allocator@D@2@@1@PBU_Container_base12@1@@Z 100fe8f0 f i glib:utils.obj
 0002:00076950       ??0?$_Vector_val@U?$_Simple_types@H@std@@@std@@QAE@XZ 100fe950 f i glib:utils.obj
 0002:000769d0       ??0?$_Wrap_alloc@V?$allocator@H@std@@@std@@QAE@XZ 100fe9d0 f i glib:utils.obj
 0002:00076a30       ??0?$allocator@H@std@@QAE@XZ 100fea30 f i glib:utils.obj
 0002:00076a70       ??0?$basic_string@DU?$char_traits@D@std@@V?$allocator@D@2@@std@@QAE@ABV01@@Z 100fea70 f i glib:utils.obj
 0002:00076b60       ??0?$vector@HV?$allocator@H@std@@@std@@QAE@XZ 100feb60 f i glib:utils.obj
 0002:00076bf0       ??1?$_Compressed_pair@U?$_Wrap_alloc@V?$allocator@H@std@@@std@@V?$_Vector_val@U?$_Simple_types@H@std@@@2@$00@std@@QAE@XZ 100febf0 f i glib:utils.obj
 0002:00076c40       ??1?$_Iterator012@Urandom_access_iterator_tag@std@@V?$basic_string@DU?$char_traits@D@std@@V?$allocator@D@2@@2@HPBV32@ABV32@U_Iterator_base12@2@@std@@QAE@XZ 100fec40 f i glib:utils.obj
 0002:00076c90       ??1?$_Vector_alloc@U?$_Vec_base_types@HV?$allocator@H@std@@@std@@@std@@QAE@XZ 100fec90 f i glib:utils.obj
 0002:00076d20       ??1?$_Vector_const_iterator@V?$_Vector_val@U?$_Simple_types@V?$basic_string@DU?$char_traits@D@std@@V?$allocator@D@2@@std@@@std@@@std@@@std@@QAE@XZ 100fed20 f i glib:utils.obj
 0002:00076d70       ??1?$_Vector_iterator@V?$_Vector_val@U?$_Simple_types@V?$basic_string@DU?$char_traits@D@std@@V?$allocator@D@2@@std@@@std@@@std@@@std@@QAE@XZ 100fed70 f i glib:utils.obj
 0002:00076dc0       ??1?$_Vector_val@U?$_Simple_types@H@std@@@std@@QAE@XZ 100fedc0 f i glib:utils.obj
 0002:00076e10       ??1?$vector@HV?$allocator@H@std@@@std@@QAE@XZ 100fee10 f i glib:utils.obj
 0002:00076ea0       ??8?$_Vector_const_iterator@V?$_Vector_val@U?$_Simple_types@V?$basic_string@DU?$char_traits@D@std@@V?$allocator@D@2@@std@@@std@@@std@@@std@@QBE_NABV01@@Z 100feea0 f i glib:utils.obj
 0002:00076f30       ??9?$_Vector_const_iterator@V?$_Vector_val@U?$_Simple_types@V?$basic_string@DU?$char_traits@D@std@@V?$allocator@D@2@@std@@@std@@@std@@@std@@QBE_NABV01@@Z 100fef30 f i glib:utils.obj
 0002:00076fc0       ??A?$vector@HV?$allocator@H@std@@@std@@QAEAAHI@Z 100fefc0 f i glib:utils.obj
 0002:000770e0       ??A?$vector@MV?$allocator@M@std@@@std@@QAEAAMI@Z 100ff0e0 f i glib:utils.obj
 0002:00077200       ??M?$_Vector_const_iterator@V?$_Vector_val@U?$_Simple_types@V?$basic_string@DU?$char_traits@D@std@@V?$allocator@D@2@@std@@@std@@@std@@@std@@QBE_NABV01@@Z 100ff200 f i glib:utils.obj
 0002:00077290       ?Checksum@@YAKPAD@Z        100ff290 f   glib:utils.obj
 0002:00077370       ?CopyFRect@@YAXPAUFRECT@@0@Z 100ff370 f   glib:utils.obj
 0002:000773d0       ?CopyRect@@YAXPAUFRECT@@0@Z 100ff3d0 f   glib:utils.obj
 0002:00077440       ?CopyRect@@YAXPAUFRECT@@PAUtagRECT@@@Z 100ff440 f   glib:utils.obj
 0002:000774c0       ?CopyRect@@YAXPAUtagRECT@@0@Z 100ff4c0 f   glib:utils.obj
 0002:00077520       ?_Alloc_proxy@?$_Vector_alloc@U?$_Vec_base_types@HV?$allocator@H@std@@@std@@@std@@QAEXXZ 100ff520 f i glib:utils.obj
 0002:00077620       ?_Compat@?$_Vector_const_iterator@V?$_Vector_val@U?$_Simple_types@V?$basic_string@DU?$char_traits@D@std@@V?$allocator@D@2@@std@@@std@@@std@@@std@@QBEXABV12@@Z 100ff620 f i glib:utils.obj
 0002:00077730       ?_Destroy@?$vector@HV?$allocator@H@std@@@std@@IAEXPAH0@Z 100ff730 f i glib:utils.obj
 0002:000777a0       ?_Free_proxy@?$_Vector_alloc@U?$_Vec_base_types@HV?$allocator@H@std@@@std@@@std@@QAEXXZ 100ff7a0 f i glib:utils.obj
 0002:00077890       ?_Get_data@?$_Vector_alloc@U?$_Vec_base_types@HV?$allocator@H@std@@@std@@@std@@QAEAAV?$_Vector_val@U?$_Simple_types@H@std@@@2@XZ 100ff890 f i glib:utils.obj
 0002:000778e0       ?_Get_data@?$_Vector_alloc@U?$_Vec_base_types@HV?$allocator@H@std@@@std@@@std@@QBEABV?$_Vector_val@U?$_Simple_types@H@std@@@2@XZ 100ff8e0 f i glib:utils.obj
 0002:00077930       ?_Get_data@?$_Vector_alloc@U?$_Vec_base_types@MV?$allocator@M@std@@@std@@@std@@QBEABV?$_Vector_val@U?$_Simple_types@M@std@@@2@XZ 100ff930 f i glib:utils.obj
 0002:00077980       ?_Get_first@?$_Compressed_pair@U?$_Wrap_alloc@V?$allocator@H@std@@@std@@V?$_Vector_val@U?$_Simple_types@H@std@@@2@$00@std@@QAEAAU?$_Wrap_alloc@V?$allocator@H@std@@@2@XZ 100ff980 f i glib:utils.obj
 0002:000779c0       ?_Get_first@?$_Compressed_pair@U?$_Wrap_alloc@V?$allocator@H@std@@@std@@V?$_Vector_val@U?$_Simple_types@H@std@@@2@$00@std@@QBEABU?$_Wrap_alloc@V?$allocator@H@std@@@2@XZ 100ff9c0 f i glib:utils.obj
 0002:00077a00       ?_Get_second@?$_Compressed_pair@U?$_Wrap_alloc@V?$allocator@H@std@@@std@@V?$_Vector_val@U?$_Simple_types@H@std@@@2@$00@std@@QAEAAV?$_Vector_val@U?$_Simple_types@H@std@@@2@XZ 100ffa00 f i glib:utils.obj
 0002:00077a40       ?_Get_second@?$_Compressed_pair@U?$_Wrap_alloc@V?$allocator@H@std@@@std@@V?$_Vector_val@U?$_Simple_types@H@std@@@2@$00@std@@QBEABV?$_Vector_val@U?$_Simple_types@H@std@@@2@XZ 100ffa40 f i glib:utils.obj
 0002:00077a80       ?_Get_second@?$_Compressed_pair@U?$_Wrap_alloc@V?$allocator@M@std@@@std@@V?$_Vector_val@U?$_Simple_types@M@std@@@2@$00@std@@QBEABV?$_Vector_val@U?$_Simple_types@M@std@@@2@XZ 100ffa80 f i glib:utils.obj
 0002:00077ac0       ?_Getal@?$_Vector_alloc@U?$_Vec_base_types@HV?$allocator@H@std@@@std@@@std@@QAEAAU?$_Wrap_alloc@V?$allocator@H@std@@@2@XZ 100ffac0 f i glib:utils.obj
 0002:00077b10       ?_Getal@?$_Vector_alloc@U?$_Vec_base_types@HV?$allocator@H@std@@@std@@@std@@QBEABU?$_Wrap_alloc@V?$allocator@H@std@@@2@XZ 100ffb10 f i glib:utils.obj
 0002:00077b60       ?_Getpfirst@?$_Vector_alloc@U?$_Vec_base_types@HV?$allocator@H@std@@@std@@@std@@QBEPAPAU_Iterator_base12@2@XZ 100ffb60 f i glib:utils.obj
 0002:00077bc0       ?_Grow_to@?$vector@HV?$allocator@H@std@@@std@@IBEII@Z 100ffbc0 f i glib:utils.obj
 0002:00077c70       ?_Inside@?$vector@HV?$allocator@H@std@@@std@@IBE_NPBH@Z 100ffc70 f i glib:utils.obj
 0002:00077d00       ?_Myend@?$_Vector_alloc@U?$_Vec_base_types@HV?$allocator@H@std@@@std@@@std@@QAEAAPAHXZ 100ffd00 f i glib:utils.obj
 0002:00077d60       ?_Myend@?$_Vector_alloc@U?$_Vec_base_types@HV?$allocator@H@std@@@std@@@std@@QBEABQAHXZ 100ffd60 f i glib:utils.obj
 0002:00077dc0       ?_Myfirst@?$_Vector_alloc@U?$_Vec_base_types@HV?$allocator@H@std@@@std@@@std@@QAEAAPAHXZ 100ffdc0 f i glib:utils.obj
 0002:00077e20       ?_Myfirst@?$_Vector_alloc@U?$_Vec_base_types@HV?$allocator@H@std@@@std@@@std@@QBEABQAHXZ 100ffe20 f i glib:utils.obj
 0002:00077e80       ?_Myfirst@?$_Vector_alloc@U?$_Vec_base_types@MV?$allocator@M@std@@@std@@@std@@QBEABQAMXZ 100ffe80 f i glib:utils.obj
 0002:00077ee0       ?_Mylast@?$_Vector_alloc@U?$_Vec_base_types@HV?$allocator@H@std@@@std@@@std@@QAEAAPAHXZ 100ffee0 f i glib:utils.obj
 0002:00077f40       ?_Mylast@?$_Vector_alloc@U?$_Vec_base_types@HV?$allocator@H@std@@@std@@@std@@QBEABQAHXZ 100fff40 f i glib:utils.obj
 0002:00077fa0       ?_Mylast@?$_Vector_alloc@U?$_Vec_base_types@MV?$allocator@M@std@@@std@@@std@@QBEABQAMXZ 100fffa0 f i glib:utils.obj
 0002:00078000       ?_Myproxy@?$_Vector_alloc@U?$_Vec_base_types@HV?$allocator@H@std@@@std@@@std@@QAEAAPAU_Container_proxy@2@XZ 10100000 f i glib:utils.obj
 0002:00078050       ?_Orphan_all@?$_Vector_alloc@U?$_Vec_base_types@HV?$allocator@H@std@@@std@@@std@@QAEXXZ 10100050 f i glib:utils.obj
 0002:000780b0       ?_Orphan_range@?$vector@HV?$allocator@H@std@@@std@@IBEXPAH0@Z 101000b0 f i glib:utils.obj
 0002:00078220       ?_Reallocate@?$vector@HV?$allocator@H@std@@@std@@IAEXI@Z 10100220 f i glib:utils.obj
 0002:00078410       ?_Reserve@?$vector@HV?$allocator@H@std@@@std@@IAEXI@Z 10100410 f i glib:utils.obj
 0002:000784c0       ?_Swap_all@?$_String_alloc@U?$_String_base_types@DV?$allocator@D@std@@@std@@@std@@QAEXAAV12@@Z 101004c0 f i glib:utils.obj
 0002:00078530       ?_Swap_all@_Container_base12@std@@QAEXAAU12@@Z 10100530 f i glib:utils.obj
 0002:00078630       ?_Swap_alloc@?$_String_alloc@U?$_String_base_types@DV?$allocator@D@std@@@std@@@std@@QAEXAAV12@@Z 10100630 f i glib:utils.obj
 0002:000786c0       ?_Swap_bx@?$basic_string@DU?$char_traits@D@std@@V?$allocator@D@2@@std@@QAEXAAV12@@Z 101006c0 f i glib:utils.obj
 0002:000788e0       ?_Tidy@?$vector@HV?$allocator@H@std@@@std@@IAEXXZ 101008e0 f i glib:utils.obj
 0002:000789e0       ?_Unchecked@?$_Vector_iterator@V?$_Vector_val@U?$_Simple_types@V?$basic_string@DU?$char_traits@D@std@@V?$allocator@D@2@@std@@@std@@@std@@@std@@QBEPAV?$basic_string@DU?$char_traits@D@std@@V?$allocator@D@2@@2@XZ 101009e0 f i glib:utils.obj
 0002:00078a20       ?_Unused_capacity@?$vector@HV?$allocator@H@std@@@std@@QBEIXZ 10100a20 f i glib:utils.obj
 0002:00078a90       ?_Xlen@?$vector@HV?$allocator@H@std@@@std@@IBEXXZ 10100a90 f i glib:utils.obj
 0002:00078af0       ?allocate@?$_Wrap_alloc@V?$allocator@H@std@@@std@@QAEPAHI@Z 10100af0 f i glib:utils.obj
 0002:00078b50       ?allocate@?$allocator@H@std@@QAEPAHI@Z 10100b50 f i glib:utils.obj
 0002:00078bb0       ?append@?$basic_string@DU?$char_traits@D@std@@V?$allocator@D@2@@std@@QAEAAV12@ABV12@II@Z 10100bb0 f i glib:utils.obj
 0002:00078cd0       ?append@?$basic_string@DU?$char_traits@D@std@@V?$allocator@D@2@@std@@QAEAAV12@PBD@Z 10100cd0 f i glib:utils.obj
 0002:00078d60       ?append@?$basic_string@DU?$char_traits@D@std@@V?$allocator@D@2@@std@@QAEAAV12@PBDI@Z 10100d60 f i glib:utils.obj
 0002:00078ed0       ?backup@@YAHPAU_iobuf@@J@Z 10100ed0 f   glib:utils.obj
 0002:00078fd0       ?begin@?$vector@V?$basic_string@DU?$char_traits@D@std@@V?$allocator@D@2@@std@@V?$allocator@V?$basic_string@DU?$char_traits@D@std@@V?$allocator@D@2@@std@@@2@@std@@QAE?AV?$_Vector_iterator@V?$_Vector_val@U?$_Simple_types@V?$basic_string@DU?$char_traits@D@std@@V?$allocator@D@2@@std@@@std@@@std@@@2@XZ 10100fd0 f i glib:utils.obj
 0002:00079080       ?binbuf_to_hexbuf@@YAHPAEPADHH@Z 10101080 f   glib:utils.obj
 0002:00079120       ?bit_reverse@@YAXPAE@Z     10101120 f   glib:utils.obj
 0002:000791d0       ?bmr@@YAMMMMDH@Z           101011d0 f   glib:utils.obj
 0002:000793f0       ?capacity@?$vector@HV?$allocator@H@std@@@std@@QBEIXZ 101013f0 f i glib:utils.obj
 0002:00079460       ?change_extension@@YA_NPAD00H0@Z 10101460 f   glib:utils.obj
 0002:00079530       ?checksum@@YAGPAEH@Z       10101530 f   glib:utils.obj
 0002:000795b0       ?clear@?$vector@V?$basic_string@DU?$char_traits@D@std@@V?$allocator@D@2@@std@@V?$allocator@V?$basic_string@DU?$char_traits@D@std@@V?$allocator@D@2@@std@@@2@@std@@QAEXXZ 101015b0 f i glib:utils.obj
 0002:00079680       ?compute_payment@@YAMMMH@Z 10101680 f   glib:utils.obj
 0002:00079740       ?compute_remaining_principal@@YANNNHH@Z 10101740 f   glib:utils.obj
 0002:00079860       ?compute_sine@@YAXPAMHH@Z  10101860 f   glib:utils.obj
 0002:000799f0       ?convtime@@YAXKAAH000@Z    101019f0 f   glib:utils.obj
 0002:00079b30       ?count_strings@@YAHPAPAD@Z 10101b30 f   glib:utils.obj
 0002:00079ba0       ?countbits@@YAHJ@Z         10101ba0 f   glib:utils.obj
 0002:00079c70       ?countlines@@YAJPBD_N@Z    10101c70 f   glib:utils.obj
 0002:00079e00       ?deallocate@?$_Wrap_alloc@V?$allocator@H@std@@@std@@QAEXPAHI@Z 10101e00 f i glib:utils.obj
 0002:00079e60       ?deallocate@?$allocator@H@std@@QAEXPAHI@Z 10101e60 f i glib:utils.obj
 0002:00079ec0       ?deq@@YA_NNNN@Z            10101ec0 f   glib:utils.obj
 0002:00079f40       ?doof@@YAHPBD@Z            10101f40 f   glib:utils.obj
 0002:0007a2a0       ?dprintf@@YAXPBDZZ         101022a0 f   glib:utils.obj
 0002:0007a3a0       ?dump2@@YAXPAU_iobuf@@PAEH@Z 101023a0 f   glib:utils.obj
 0002:0007a6b0       ?dump@@YAXPAD0K@Z          101026b0 f   glib:utils.obj
 0002:0007ab90       ?dump@@YAXPAEH@Z           10102b90 f   glib:utils.obj
 0002:0007ae30       ?dump@@YAXPAEHPAU_iobuf@@PAD@Z 10102e30 f   glib:utils.obj
 0002:0007b140       ?end@?$vector@V?$basic_string@DU?$char_traits@D@std@@V?$allocator@D@2@@std@@V?$allocator@V?$basic_string@DU?$char_traits@D@std@@V?$allocator@D@2@@std@@@2@@std@@QAE?AV?$_Vector_iterator@V?$_Vector_val@U?$_Simple_types@V?$basic_string@DU?$char_traits@D@std@@V?$allocator@D@2@@std@@@std@@@std@@@2@XZ 10103140 f i glib:utils.obj
 0002:0007b1f0       ?ends_with@@YA_NPBD0@Z     101031f0 f   glib:utils.obj
 0002:0007b2c0       ?equals@@YA_NPAD0@Z        101032c0 f   glib:utils.obj
 0002:0007b360       ?equalsIgnoreCase@@YA_NPAD0@Z 10103360 f   glib:utils.obj
 0002:0007b430       ?exists@@YA_NPBD@Z         10103430 f   glib:utils.obj
 0002:0007b570       ?explode2@@YAXPADPBDAAV?$vector@V?$basic_string@DU?$char_traits@D@std@@V?$allocator@D@2@@std@@V?$allocator@V?$basic_string@DU?$char_traits@D@std@@V?$allocator@D@2@@std@@@2@@std@@@Z 10103570 f   glib:utils.obj
 0002:0007b790       ?fcmp@@YAHMMH@Z            10103790 f   glib:utils.obj
 0002:0007bbc0       ?file_get_contents@@YA?AV?$basic_string@DU?$char_traits@D@std@@V?$allocator@D@2@@std@@PBD@Z 10103bc0 f   glib:utils.obj
 0002:0007bdd0       ?filesize_from_stream@@YAKPAU_iobuf@@@Z 10103dd0 f   glib:utils.obj
 0002:0007bea0       ?finterp@@YANNNNNN@Z       10103ea0 f   glib:utils.obj
 0002:0007bf30       ?fix_crlf@@YAXPAD@Z        10103f30 f   glib:utils.obj
 0002:0007c200       ?fix_date@@YAHPAD0@Z       10104200 f   glib:utils.obj
 0002:0007c9c0       ?float_is_integer@@YA_NM@Z 101049c0 f   glib:utils.obj
 0002:0007ca80       ?flush@@YAXPAVLogger@@PAVSerial@@KH@Z 10104a80 f   glib:utils.obj
 0002:0007cda0       ?fourcc@@YAIPBD@Z          10104da0 f   glib:utils.obj
 0002:0007ce30       ?fourcc@@YAPBDI@Z          10104e30 f   glib:utils.obj
 0002:0007cee0       ?frand@@YAMMM@Z            10104ee0 f   glib:utils.obj
 0002:0007cf80       ?fulltrim@@YAPADPAD@Z      10104f80 f   glib:utils.obj
 0002:0007d030       ?gaussfit@@YAXPAMF@Z       10105030 f   glib:utils.obj
 0002:0007d2a0       ?geometric_mean@@YANPAMF@Z 101052a0 f   glib:utils.obj
 0002:0007d380       ?getFileBuf@@YA_NPADJJ0H@Z 10105380 f   glib:utils.obj
 0002:0007d4f0       ?getRandomNumber@@YAGXZ    101054f0 f   glib:utils.obj
 0002:0007d570       ?get_angle@@YANNNNNNN_N@Z  10105570 f   glib:utils.obj
 0002:0007d750       ?get_extension@@YAXPAD@Z   10105750 f   glib:utils.obj
 0002:0007d7e0       ?get_last_line@@YAXPAD0H@Z 101057e0 f   glib:utils.obj
 0002:0007d940       ?getbit@@YAHEH@Z           10105940 f   glib:utils.obj
 0002:0007d9c0       ?gethex@@YAHPAE@Z          101059c0 f   glib:utils.obj
 0002:0007dc10       ?getmonth@@YAHPAD@Z        10105c10 f   glib:utils.obj
 0002:0007de40       ?getmonth@@YAHPBD@Z        10105e40 f   glib:utils.obj
 0002:0007dee0       ?getmonth@@YAPBDH_N@Z      10105ee0 f   glib:utils.obj
 0002:0007df50       ?harmonic_mean@@YANPAMF@Z  10105f50 f   glib:utils.obj
 0002:0007e010       ?has_extension@@YA_NPAD@Z  10106010 f   glib:utils.obj
 0002:0007e080       ?hexbuf_to_binbuf@@YAHPADPAEHH@Z 10106080 f   glib:utils.obj
 0002:0007e1f0       ?high@@YAEG@Z              101061f0 f   glib:utils.obj
 0002:0007e230       ?hot@@YAXXZ                10106230 f   glib:utils.obj
 0002:0007e860       ?indexCharFromEnd@@YAHPADD@Z 10106860 f   glib:utils.obj
 0002:0007e900       ?indexIgnoreCase@@YAHPBD0H_N@Z 10106900 f   glib:utils.obj
 0002:0007ead0       ?insert@@YAHPADPBDH@Z      10106ad0 f   glib:utils.obj
 0002:0007ec50       ?isNumericString@@YA_NPBD@Z 10106c50 f   glib:utils.obj
 0002:0007ed50       ?isodd@@YA_NH@Z            10106d50 f   glib:utils.obj
 0002:0007edb0       ?leastsquare@@YAXAAV?$vector@MV?$allocator@M@std@@@std@@PAM1@Z 10106db0 f   glib:utils.obj
 0002:0007efd0       ?leastsquare@@YAXPAM0F00@Z 10106fd0 f   glib:utils.obj
 0002:0007f200       ?leastsquares@@YAXPAM0F00@Z 10107200 f   glib:utils.obj
 0002:0007f380       ?low@@YAEG@Z               10107380 f   glib:utils.obj
 0002:0007f3c0       ?lshift@@YAXPAEHH@Z        101073c0 f   glib:utils.obj
 0002:0007f460       ?ltrim@@YAXPADH0@Z         10107460 f   glib:utils.obj
 0002:0007f660       ?ltrimcrlf@@YAXPAD@Z       10107660 f   glib:utils.obj
 0002:0007f770       ?max_size@?$_Wrap_alloc@V?$allocator@H@std@@@std@@QBEIU_Nil@2@@Z 10107770 f i glib:utils.obj
 0002:0007f7d0       ?max_size@?$allocator@H@std@@QBEIXZ 101077d0 f i glib:utils.obj
 0002:0007f810       ?max_size@?$allocator_traits@V?$allocator@H@std@@@std@@SAIABV?$allocator@H@2@@Z 10107810 f i glib:utils.obj
 0002:0007f860       ?max_size@?$vector@HV?$allocator@H@std@@@std@@QBEIXZ 10107860 f i glib:utils.obj
 0002:0007f8d0       ?mean@@YANPAMF@Z           101078d0 f   glib:utils.obj
 0002:0007f980       ?move_to@@YAHPAU_iobuf@@H@Z 10107980 f   glib:utils.obj
 0002:0007fab0       ?mybasename@@YAPADPBD@Z    10107ab0 f   glib:utils.obj
 0002:0007fb30       ?mycopy@@YAHPBD0@Z         10107b30 f   glib:utils.obj
 0002:0007fe00       ?myexplode@@YAXPBD0AAV?$vector@V?$basic_string@DU?$char_traits@D@std@@V?$allocator@D@2@@std@@V?$allocator@V?$basic_string@DU?$char_traits@D@std@@V?$allocator@D@2@@std@@@2@@std@@@Z 10107e00 f   glib:utils.obj
 0002:00080150       ?myindex@@YAHPADPBDAAV?$vector@HV?$allocator@H@std@@@std@@@Z 10108150 f   glib:utils.obj
 0002:00080280       ?myindex@@YAHPBD0H@Z       10108280 f   glib:utils.obj
 0002:00080360       ?myremove@@YAXPBDPAD@Z     10108360 f   glib:utils.obj
 0002:00080450       ?mystrcasecmp@@YAHPBD0@Z   10108450 f   glib:utils.obj
 0002:00080560       ?pad@@YAXPADHD@Z           10108560 f   glib:utils.obj
 0002:00080610       ?ph@@YAHUtagRECT@@M@Z      10108610 f   glib:utils.obj
 0002:00080720       ?pow@@YAMMH@Z              10108720 f i glib:utils.obj
 0002:000807b0       ?print_amortization_table@@YAXMMHH@Z 101087b0 f   glib:utils.obj
 0002:00080990       ?push_back@?$vector@HV?$allocator@H@std@@@std@@QAEXABH@Z 10108990 f i glib:utils.obj
 0002:00080b80       ?push_back@?$vector@V?$basic_string@DU?$char_traits@D@std@@V?$allocator@D@2@@std@@V?$allocator@V?$basic_string@DU?$char_traits@D@std@@V?$allocator@D@2@@std@@@2@@std@@QAEXABV?$basic_string@DU?$char_traits@D@std@@V?$allocator@D@2@@2@@Z 10108b80 f i glib:utils.obj
 0002:00080d70       ?pv@@YAHUtagRECT@@M@Z      10108d70 f   glib:utils.obj
 0002:00080e80       ?read_chars@@YAHPAU_iobuf@@PADH@Z 10108e80 f   glib:utils.obj
 0002:00080f20       ?read_chars_bin@@YAHPAU_iobuf@@PADH@Z 10108f20 f   glib:utils.obj
 0002:00080fb0       ?read_long@@YAHPAU_iobuf@@@Z 10108fb0 f   glib:utils.obj
 0002:00081090       ?read_until_char@@YAJPADJD0H@Z 10109090 f   glib:utils.obj
 0002:00081250       ?read_word@@YAHPAU_iobuf@@@Z 10109250 f   glib:utils.obj
 0002:000812e0       ?remove_empty_lines@@YAXPAD@Z 101092e0 f   glib:utils.obj
 0002:000814d0       ?replace@@YAHPADPBD1H@Z    101094d0 f   glib:utils.obj
 0002:000816f0       ?replace_extension@@YA_NPADPBD@Z 101096f0 f   glib:utils.obj
 0002:000817d0       ?reverse_file@@YAXPAD@Z    101097d0 f   glib:utils.obj
 0002:00081b70       ?reverse_long_bytes@@YAXPAK@Z 10109b70 f   glib:utils.obj
 0002:00081c20       ?rm@@YA_NPBD@Z             10109c20 f   glib:utils.obj
 0002:00081d20       ?rms@@YANPAMF@Z            10109d20 f   glib:utils.obj
 0002:00081dd0       ?round_a@@YAHHH@Z          10109dd0 f   glib:utils.obj
 0002:00081e30       ?round_af@@YAHMH@Z         10109e30 f   glib:utils.obj
 0002:00081ea0       ?roundmod@@YAHMH@Z         10109ea0 f   glib:utils.obj
 0002:00081f30       ?searchFile@@YAJPADJ0H@Z   10109f30 f   glib:utils.obj
 0002:000821d0       ?select_on_container_copy_construction@?$_Wrap_alloc@V?$allocator@D@std@@@std@@QBE?AU12@U_Nil@2@@Z 1010a1d0 f i glib:utils.obj
 0002:00082240       ?select_on_container_copy_construction@?$allocator_traits@V?$allocator@D@std@@@std@@SA?AV?$allocator@D@2@ABV32@@Z 1010a240 f i glib:utils.obj
 0002:000822a0       ?sign@@YAHM@Z              1010a2a0 f   glib:utils.obj
 0002:00082310       ?size@?$vector@HV?$allocator@H@std@@@std@@QBEIXZ 1010a310 f i glib:utils.obj
 0002:00082380       ?size@?$vector@MV?$allocator@M@std@@@std@@QBEIXZ 1010a380 f i glib:utils.obj
 0002:000823f0       ?startsWith@@YA_NPAD0@Z    1010a3f0 f   glib:utils.obj
 0002:00082490       ?startsWithIgnoreCase@@YA_NPAD0@Z 1010a490 f   glib:utils.obj
 0002:00082560       ?statmode@@YANPAMF@Z       1010a560 f   glib:utils.obj
 0002:00082880       ?strEqual@@YA_NPAD0@Z      1010a880 f   glib:utils.obj
 0002:00082940       ?strip_extension@@YAXPAD@Z 1010a940 f   glib:utils.obj
 0002:000829c0       ?strip_filename@@YAXPAD@Z  1010a9c0 f   glib:utils.obj
 0002:00082a60       ?strip_path@@YAXPAD@Z      1010aa60 f   glib:utils.obj
 0002:00082c10       ?strtolower@@YAXPAD@Z      1010ac10 f   glib:utils.obj
 0002:00082cc0       ?strtoupper@@YAXPAD@Z      1010acc0 f   glib:utils.obj
 0002:00082d70       ?substr@@YA_NPADDD_N0HPAH2@Z 1010ad70 f   glib:utils.obj
 0002:00082f40       ?substring@@YAXPBDHHPAD@Z  1010af40 f   glib:utils.obj
 0002:00082fd0       ?swap@?$basic_string@DU?$char_traits@D@std@@V?$allocator@D@2@@std@@QAEXAAV12@@Z 1010afd0 f i glib:utils.obj
 0002:000831f0       ?swap@@YAXPAH0@Z           1010b1f0 f   glib:utils.obj
 0002:00083260       ?swap_floats@@YAXPAM0@Z    1010b260 f   glib:utils.obj
 0002:000832c0       ?timeBeginPeriod@@YAXK@Z   1010b2c0 f   glib:utils.obj
 0002:000832f0       ?timeEndPeriod@@YAXK@Z     1010b2f0 f   glib:utils.obj
 0002:00083320       ?time_format2@@YAXKPAD@Z   1010b320 f   glib:utils.obj
 0002:00083410       ?time_format@@YAXKPAD@Z    1010b410 f   glib:utils.obj
 0002:00083510       ?timestamp@@YAXPAD@Z       1010b510 f   glib:utils.obj
 0002:000835f0       ?tobin2@@YAGPAD@Z          1010b5f0 f   glib:utils.obj
 0002:000837b0       ?tobin@@YAGPAD@Z           1010b7b0 f   glib:utils.obj
 0002:000838a0       ?trim@@YAXPADPBD@Z         1010b8a0 f   glib:utils.obj
 0002:00083a10       ?trimcrlf@@YAXPAD@Z        1010ba10 f   glib:utils.obj
 0002:00083ae0       ?unpack@@YAKK@Z            1010bae0 f   glib:utils.obj
 0002:00083b80       ?valid_filename@@YA_NPBD@Z 1010bb80 f   glib:utils.obj
 0002:00083c20       ?vmag@@YANNNN@Z            1010bc20 f   glib:utils.obj
 0002:00083cb0       ?write_chars@@YAHPAU_iobuf@@PAD@Z 1010bcb0 f   glib:utils.obj
 0002:00083d60       ?write_chars_bin@@YAHPAU_iobuf@@PADH@Z 1010bd60 f   glib:utils.obj
 0002:00083df0       ?write_long@@YAHPAU_iobuf@@H@Z 1010bdf0 f   glib:utils.obj
 0002:00083ee0       ?write_word@@YAHPAU_iobuf@@H@Z 1010bee0 f   glib:utils.obj
 0002:00083f80       _powf                      1010bf80 f i glib:utils.obj
 0002:00084060       ??0fatalError@@QAE@PBDH0@Z 1010c060 f   glib:fatalerror.obj
 0002:00084240       ??1fatalError@@UAE@XZ      1010c240 f   glib:fatalerror.obj
 0002:00084280       ??$MAX@K@@YAKKK@Z          1010c280 f i glib:averagetimer.obj
 0002:000842d0       ??$MIN@K@@YAKKK@Z          1010c2d0 f i glib:averagetimer.obj
 0002:00084320       ??0AverageTimer@@QAE@PBD@Z 1010c320 f   glib:averagetimer.obj
 0002:000843b0       ??0AverageTimer@@QAE@XZ    1010c3b0 f   glib:averagetimer.obj
 0002:00084430       ??1AverageTimer@@UAE@XZ    1010c430 f   glib:averagetimer.obj
 0002:00084620       ??_EAverageTimer@@UAEPAXI@Z 1010c620 f i glib:averagetimer.obj
 0002:00084730       ??_GAverageTimer@@UAEPAXI@Z 1010c730 f i glib:averagetimer.obj
 0002:000847a0       ?getAverage@AverageTimer@@QAENXZ 1010c7a0 f   glib:averagetimer.obj
 0002:00084860       ?getms@AverageTimer@@QAENXZ 1010c860 f   glib:averagetimer.obj
 0002:00084920       ?reset@AverageTimer@@QAEXXZ 1010c920 f   glib:averagetimer.obj
 0002:000849b0       ?update@AverageTimer@@QAEXXZ 1010c9b0 f   glib:averagetimer.obj
 0002:00084ac0       ??$MAX@G@@YAGGG@Z          1010cac0 f i glib:serial.obj
 0002:00084b10       ??0Serial@@QAE@PBD00HHHPAVLogger@@@Z 1010cb10 f   glib:serial.obj
 0002:00085050       ??0Serial@@QAE@PBD0PAVLogger@@@Z 1010d050 f   glib:serial.obj
 0002:00085510       ??0Serial@@QAE@XZ          1010d510 f   glib:serial.obj
 0002:000856f0       ??0Serial@@QAE@_NPBD1HPAVLogger@@@Z 1010d6f0 f   glib:serial.obj
 0002:000859a0       ??1Serial@@UAE@XZ          1010d9a0 f   glib:serial.obj
 0002:00085a30       ??_GSerial@@UAEPAXI@Z      1010da30 f i glib:serial.obj
 0002:00085a30       ??_ESerial@@UAEPAXI@Z      1010da30 f i glib:serial.obj
 0002:00085ab0       ?Clear@Serial@@AAEXXZ      1010dab0 f   glib:serial.obj
 0002:00085b30       ?Close@Serial@@AAEXH@Z     1010db30 f   glib:serial.obj
 0002:00086330       ?DisplayOpenError@Serial@@AAEXH@Z 1010e330 f   glib:serial.obj
 0002:00086470       ?FlushBuffers@Serial@@AAEXXZ 1010e470 f   glib:serial.obj
 0002:00086580       ?GetCommError@Serial@@AAEIXZ 1010e580 f   glib:serial.obj
 0002:00086670       ?GetCommErrorStr@Serial@@AAEXIPADH@Z 1010e670 f   glib:serial.obj
 0002:000868f0       ?GetPort@Serial@@AAEXPADH@Z 1010e8f0 f   glib:serial.obj
 0002:00086970       ?IsOpen@Serial@@QAEHXZ     1010e970 f   glib:serial.obj
 0002:000869e0       ?IsWaitingForXon@Serial@@AAEHXZ 1010e9e0 f   glib:serial.obj
 0002:00086ad0       ?Open@Serial@@AAEHPBD0H@Z  1010ead0 f   glib:serial.obj
 0002:000874f0       ?OutQueueLength@Serial@@AAEIXZ 1010f4f0 f   glib:serial.obj
 0002:000875e0       ?StackOverflow@Serial@@QAEXH@Z 1010f5e0 f   glib:serial.obj
 0002:00087620       ?destroy@Serial@@AAEXXZ    1010f620 f   glib:serial.obj
 0002:000879b0       ?expect@Serial@@QAEHPADK@Z 1010f9b0 f   glib:serial.obj
 0002:00087b20       ?flush@Serial@@QAEXXZ      1010fb20 f   glib:serial.obj
 0002:00087b70       ?flush_rawstream@Serial@@QAEXXZ 1010fb70 f   glib:serial.obj
 0002:00087c30       ?flush_tx@Serial@@QAEXXZ   1010fc30 f   glib:serial.obj
 0002:00087ce0       ?flushrx@Serial@@QAEXK@Z   1010fce0 f   glib:serial.obj
 0002:00087e60       ?flushtx@Serial@@QAEXXZ    1010fe60 f   glib:serial.obj
 0002:00087ef0       ?forcetx@Serial@@QAEXXZ    1010fef0 f   glib:serial.obj
 0002:00087f70       ?get_port_name@Serial@@QAEPBDXZ 1010ff70 f   glib:serial.obj
 0002:00087fb0       ?hyperterm@Serial@@QAEXXZ  1010ffb0 f   glib:serial.obj
 0002:000881b0       ?process_events@Serial@@AAEXK@Z 101101b0 f   glib:serial.obj
 0002:00088560       ?rx@Serial@@QAEHPADH@Z     10110560 f   glib:serial.obj
 0002:00088630       ?rxThread@Serial@@CAXPAX@Z 10110630 f   glib:serial.obj
 0002:00088f90       ?send@Serial@@QAEXPADH@Z   10110f90 f   glib:serial.obj
 0002:00089070       ?tx@Serial@@QAEHE@Z        10111070 f   glib:serial.obj
 0002:00089100       ?txThread@Serial@@CAXPAX@Z 10111100 f   glib:serial.obj
 0002:00089a80       ?txi@Serial@@QAEHE@Z       10111a80 f   glib:serial.obj
 0002:00089be0       ?txwake@Serial@@QAEXXZ     10111be0 f   glib:serial.obj
 0002:00089c80       ?txx@Serial@@QAEXPAEH@Z    10111c80 f   glib:serial.obj
 0002:00089d70       ??0Err@@QAE@XZ             10111d70 f   glib:err.obj
 0002:00089e20       ??1Err@@UAE@XZ             10111e20 f   glib:err.obj
 0002:00089e90       ??_EErr@@UAEPAXI@Z         10111e90 f i glib:err.obj
 0002:00089f90       ??_GErr@@UAEPAXI@Z         10111f90 f i glib:err.obj
 0002:0008a000       ?getString@Err@@QAEPADXZ   10112000 f   glib:err.obj
 0002:0008a040       ??0Ini@@QAE@PBD@Z          10112040 f   glib:ini.obj
 0002:0008a250       ??1Ini@@UAE@XZ             10112250 f   glib:ini.obj
 0002:0008a290       ??_EIni@@UAEPAXI@Z         10112290 f i glib:ini.obj
 0002:0008a3a0       ??_GIni@@UAEPAXI@Z         101123a0 f i glib:ini.obj
 0002:0008a420       ?clear_section@Ini@@QAEXPBD@Z 10112420 f   glib:ini.obj
 0002:0008a620       ?getBool@Ini@@QAE_NPBD00@Z 10112620 f   glib:ini.obj
 0002:0008a740       ?getBool@Ini@@QAE_NPBD00_N@Z 10112740 f   glib:ini.obj
 0002:0008a870       ?getBool@Ini@@QAE_NPBD0_N1@Z 10112870 f   glib:ini.obj
 0002:0008a9c0       ?getBool@Ini@@QAE_NPBD0_N@Z 101129c0 f   glib:ini.obj
 0002:0008ab30       ?getBool@Ini@@QAE_NPBD_N@Z 10112b30 f   glib:ini.obj
 0002:0008acd0       ?getFloat@Ini@@QAEMPBD00@Z 10112cd0 f   glib:ini.obj
 0002:0008adc0       ?getFloat@Ini@@QAEMPBD00_N@Z 10112dc0 f   glib:ini.obj
 0002:0008aec0       ?getFloat@Ini@@QAEMPBD0M@Z 10112ec0 f   glib:ini.obj
 0002:0008afe0       ?getFloat@Ini@@QAEMPBDM@Z  10112fe0 f   glib:ini.obj
 0002:0008b140       ?getInt@Ini@@QAEHPBD00@Z   10113140 f   glib:ini.obj
 0002:0008b230       ?getInt@Ini@@QAEHPBD00_N@Z 10113230 f   glib:ini.obj
 0002:0008b330       ?getInt@Ini@@QAEHPBD0@Z    10113330 f   glib:ini.obj
 0002:0008b450       ?getInt@Ini@@QAEHPBD0H_N@Z 10113450 f   glib:ini.obj
 0002:0008b570       ?getInt@Ini@@QAEHPBDH@Z    10113570 f   glib:ini.obj
 0002:0008b660       ?getName@Ini@@QAEPBDXZ     10113660 f   glib:ini.obj
 0002:0008b6a0       ?getString@Ini@@QAEPBDPBD00@Z 101136a0 f   glib:ini.obj
 0002:0008b770       ?getString@Ini@@QAEPBDPBD00_N@Z 10113770 f   glib:ini.obj
 0002:0008b8b0       ?getString@Ini@@QAEPBDPBD0@Z 101138b0 f   glib:ini.obj
 0002:0008b9b0       ?get_long_hex@Ini@@QAEKPBD0K_N@Z 101139b0 f   glib:ini.obj
 0002:0008bb30       ?getul@Ini@@QAEKPBD0K_N@Z  10113b30 f   glib:ini.obj
 0002:0008bc90       ?set_section@Ini@@QAEXPBD@Z 10113c90 f   glib:ini.obj
 0002:0008bd10       ?writeBool@Ini@@QAEXPBD0H@Z 10113d10 f   glib:ini.obj
 0002:0008bdc0       ?writeBool@Ini@@QAEXPBDH@Z 10113dc0 f   glib:ini.obj
 0002:0008bea0       ?writeFloat@Ini@@QAEXPBD0M@Z 10113ea0 f   glib:ini.obj
 0002:0008bf90       ?writeFloat@Ini@@QAEXPBDM@Z 10113f90 f   glib:ini.obj
 0002:0008c080       ?writeInt@Ini@@QAEXPBD0H@Z 10114080 f   glib:ini.obj
 0002:0008c160       ?writeInt@Ini@@QAEXPBDH@Z  10114160 f   glib:ini.obj
 0002:0008c250       ?writeString@Ini@@QAEXPBD00@Z 10114250 f   glib:ini.obj
 0002:0008c2d0       ?write_long_hex@Ini@@QAEXPBD0K@Z 101142d0 f   glib:ini.obj
 0002:0008c3b0       ?writeul@Ini@@QAEXPBD0K@Z  101143b0 f   glib:ini.obj
 0002:0008c490       ??$MAX@E@@YAEEE@Z          10114490 f i glib:bmp.obj
 0002:0008c4e0       ??$MAX@M@@YAMMM@Z          101144e0 f i glib:bmp.obj
 0002:0008c530       ??$MIN@E@@YAEEE@Z          10114530 f i glib:bmp.obj
 0002:0008c580       ??$MIN@M@@YAMMM@Z          10114580 f i glib:bmp.obj
 0002:0008c5d0       ??0BMP@@QAE@HHHPAEPBD@Z    101145d0 f   glib:bmp.obj
 0002:0008ca50       ??0BMP@@QAE@PAD@Z          10114a50 f   glib:bmp.obj
 0002:0008d260       ??1BMP@@UAE@XZ             10115260 f   glib:bmp.obj
 0002:0008d2f0       ??_EBMP@@UAEPAXI@Z         101152f0 f i glib:bmp.obj
 0002:0008d2f0       ??_GBMP@@UAEPAXI@Z         101152f0 f i glib:bmp.obj
 0002:0008d370       ?cleanup@BMP@@AAEXXZ       10115370 f   glib:bmp.obj
 0002:0008d490       ?getpixel@BMP@@QAEXHHPAE00@Z 10115490 f   glib:bmp.obj
 0002:0008d5c0       ?init@BMP@@AAEXXZ          101155c0 f   glib:bmp.obj
 0002:0008d790       ?paint2@BMP@@QAEXPAUHDC__@@PAUtagRECT@@@Z 10115790 f   glib:bmp.obj
 0002:0008d9a0       ?paint@BMP@@QAEXPAUHDC__@@PAUtagRECT@@@Z 101159a0 f   glib:bmp.obj
 0002:0008db30       ?save@BMP@@QAEXPADPAE@Z    10115b30 f   glib:bmp.obj
 0002:0008dcc0       ?save@BMP@@QAEXXZ          10115cc0 f   glib:bmp.obj
 0002:0008de50       ?setpixel@BMP@@QAEXHHEEE@Z 10115e50 f   glib:bmp.obj
 0002:0008df40       ?stats@BMP@@QAEXXZ         10115f40 f   glib:bmp.obj
 0002:0008e230       ??0?$lock_guard@Vmutex@tthread@@@tthread@@QAE@AAVmutex@1@@Z 10116230 f i tinythread++:tinythread.obj
 0002:0008e2a0       ??0condition_variable@tthread@@QAE@XZ 101162a0 f   tinythread++:tinythread.obj
 0002:0008e370       ??0id@thread@tthread@@QAE@K@Z 10116370 f i tinythread++:tinythread.obj
 0002:0008e3c0       ??0id@thread@tthread@@QAE@XZ 101163c0 f i tinythread++:tinythread.obj
 0002:0008e410       ??0thread@tthread@@QAE@P6AXPAX@Z0@Z 10116410 f   tinythread++:tinythread.obj
 0002:0008e5c0       ??1?$lock_guard@Vmutex@tthread@@@tthread@@QAE@XZ 101165c0 f i tinythread++:tinythread.obj
 0002:0008e650       ??1condition_variable@tthread@@QAE@XZ 10116650 f   tinythread++:tinythread.obj
 0002:0008e700       ??1thread@tthread@@QAE@XZ  10116700 f   tinythread++:tinythread.obj
 0002:0008e7b0       ?_wait@condition_variable@tthread@@AAEXXZ 101167b0 f   tinythread++:tinythread.obj
 0002:0008e8d0       ?detach@thread@tthread@@QAEXXZ 101168d0 f   tinythread++:tinythread.obj
 0002:0008e970       ?get_id@this_thread@tthread@@YA?AVid@thread@2@XZ 10116970 f   tinythread++:tinythread.obj
 0002:0008e9d0       ?get_id@thread@tthread@@QBE?AVid@12@XZ 101169d0 f   tinythread++:tinythread.obj
 0002:0008ea50       ?hardware_concurrency@thread@tthread@@SAIXZ 10116a50 f   tinythread++:tinythread.obj
 0002:0008eae0       ?join@thread@tthread@@QAEXXZ 10116ae0 f   tinythread++:tinythread.obj
 0002:0008eb70       ?joinable@thread@tthread@@QBE_NXZ 10116b70 f   tinythread++:tinythread.obj
 0002:0008ec10       ?lock@mutex@tthread@@QAEXXZ 10116c10 f i tinythread++:tinythread.obj
 0002:0008eca0       ?notify_all@condition_variable@tthread@@QAEXXZ 10116ca0 f   tinythread++:tinythread.obj
 0002:0008ed80       ?notify_one@condition_variable@tthread@@QAEXXZ 10116d80 f   tinythread++:tinythread.obj
 0002:0008ee60       ?unlock@mutex@tthread@@QAEXXZ 10116e60 f i tinythread++:tinythread.obj
 0002:0008eed0       ?wrapper_function@thread@tthread@@CGIPAX@Z 10116ed0 f   tinythread++:tinythread.obj
 0002:0008f050       ??$?0$$V@?$_Compressed_pair@U?$_Wrap_alloc@V?$allocator@UFORMULA_PAIR@@@std@@@std@@V?$_Deque_val@U?$_Deque_simple_types@UFORMULA_PAIR@@@std@@@2@$00@std@@QAE@U_Zero_then_variadic_args_t@1@@Z 10117050 f i tlib:formula.obj
 0002:0008f0b0       ??0?$_Deque_alloc@U?$_Deque_base_types@UFORMULA_PAIR@@V?$allocator@UFORMULA_PAIR@@@std@@@std@@@std@@QAE@XZ 101170b0 f i tlib:formula.obj
 0002:0008f160       ??0?$_Wrap_alloc@V?$allocator@UFORMULA_PAIR@@@std@@@std@@QAE@XZ 10117160 f i tlib:formula.obj
 0002:0008f1c0       ??0?$allocator@UFORMULA_PAIR@@@std@@QAE@XZ 101171c0 f i tlib:formula.obj
 0002:0008f200       ??0?$deque@UFORMULA_PAIR@@V?$allocator@UFORMULA_PAIR@@@std@@@std@@QAE@XZ 10117200 f i tlib:formula.obj
 0002:0008f260       ??0Formula@@QAE@M@Z        10117260 f   tlib:formula.obj
 0002:0008f400       ??1?$deque@UFORMULA_PAIR@@V?$allocator@UFORMULA_PAIR@@@std@@@std@@QAE@XZ 10117400 f i tlib:formula.obj
 0002:0008f490       ??1Formula@@UAE@XZ         10117490 f   tlib:formula.obj
 0002:0008f640       ??A?$deque@UFORMULA_PAIR@@V?$allocator@UFORMULA_PAIR@@@std@@@std@@QAEAAUFORMULA_PAIR@@I@Z 10117640 f i tlib:formula.obj
 0002:0008f7b0       ??D?$_Deque_iterator@V?$_Deque_val@U?$_Deque_simple_types@UFORMULA_PAIR@@@std@@@std@@@std@@QBEAAUFORMULA_PAIR@@XZ 101177b0 f i tlib:formula.obj
 0002:0008f890       ?calc@Formula@@QAEXKM@Z    10117890 f   tlib:formula.obj
 0002:0008fcc0       ?reset@Formula@@QAEXXZ     10117cc0 f   tlib:formula.obj
 0002:0008fe20       ?size@?$deque@UFORMULA_PAIR@@V?$allocator@UFORMULA_PAIR@@@std@@@std@@QBEIXZ 10117e20 f i tlib:formula.obj
 0002:0008fe80       ??0Monarch@@QAE@N@Z        10117e80 f   tlib:monarch.obj
 0002:00090180       ??1Monarch@@UAE@XZ         10118180 f   tlib:monarch.obj
 0002:000901c0       ?set_dropped_weight@Monarch@@QAEXN@Z 101181c0 f   tlib:monarch.obj
 0002:00090230       ??$MIN@G@@YAGGG@Z          10118230 f i tlib:physics.obj
 0002:00090280       ??0Physics@@QAE@PAVBike@@NN@Z 10118280 f   tlib:physics.obj
 0002:00091690       ??1Physics@@UAE@XZ         10119690 f   tlib:physics.obj
 0002:00091730       ??A?$basic_string@DU?$char_traits@D@std@@V?$allocator@D@2@@std@@QAEAADI@Z 10119730 f i tlib:physics.obj
 0002:000917d0       ?adjustCurrent@Physics@@AAEXXZ 101197d0 f   tlib:physics.obj
 0002:00091950       ?cleanup@Physics@@AAEXXZ   10119950 f   tlib:physics.obj
 0002:00092000       ?computeAcceleration@Physics@@QAEHXZ 1011a000 f   tlib:physics.obj
 0002:00092640       ?computeMass@Physics@@QAEXXZ 1011a640 f   tlib:physics.obj
 0002:000926a0       ?crowbarRPM@Physics@@QAEXXZ 1011a6a0 f   tlib:physics.obj
 0002:00092730       ?ergoDegauss@Physics@@AAEXXZ 1011a730 f   tlib:physics.obj
 0002:000928a0       ?getAcceleration@Physics@@QAENXZ 1011a8a0 f   tlib:physics.obj
 0002:000928e0       ?getConstantWatts@Physics@@QAEMXZ 1011a8e0 f   tlib:physics.obj
 0002:00092920       ?getDisplayedWatts@Physics@@QAENXZ 1011a920 f   tlib:physics.obj
 0002:00092960       ?getMPH@Physics@@QAENXZ    1011a960 f   tlib:physics.obj
 0002:000929a0       ?getPicCurrent@Physics@@QAENXZ 1011a9a0 f   tlib:physics.obj
 0002:00092a00       ?getRPM@Physics@@QAENXZ    1011aa00 f   tlib:physics.obj
 0002:00092a40       ?getTableCurrent3@Physics@@AAENNN@Z 1011aa40 f   tlib:physics.obj
 0002:000936b0       ?getTableWatts@Physics@@AAENNN@Z 1011b6b0 f   tlib:physics.obj
 0002:00093a00       ?getWatts@Physics@@QAENXZ  1011ba00 f   tlib:physics.obj
 0002:00093a40       ?get_nfront@Bike@@QAEHXZ   1011ba40 f i tlib:physics.obj
 0002:00093a80       ?get_nrear@Bike@@QAEHXZ    1011ba80 f i tlib:physics.obj
 0002:00093ac0       ?getid@Bike@@QAEHXZ        1011bac0 f i tlib:physics.obj
 0002:00093b00       ?gradeDown@Physics@@QAEXXZ 1011bb00 f   tlib:physics.obj
 0002:00093b90       ?gradeUp@Physics@@QAEXXZ   1011bb90 f   tlib:physics.obj
 0002:00093c20       ?logData@Physics@@AAEXXZ   1011bc20 f   tlib:physics.obj
 0002:00093c60       ?lowCurrent@Physics@@AAENNN@Z 1011bc60 f   tlib:physics.obj
 0002:00093fe0       ?manualLoadControl@Physics@@AAEXXZ 1011bfe0 f   tlib:physics.obj
 0002:000945a0       ?map@Physics@@AAEHNNNNPAN0@Z 1011c5a0 f   tlib:physics.obj
 0002:00094680       ?pause@Physics@@QAEXXZ     1011c680 f   tlib:physics.obj
 0002:000946f0       ?readState@Physics@@QAEXPAU_iobuf@@@Z 1011c6f0 f   tlib:physics.obj
 0002:00094ab0       ?reset@Physics@@QAEXXZ     1011cab0 f   tlib:physics.obj
 0002:00094f80       ?resetIntegrators@Physics@@QAEXXZ 1011cf80 f   tlib:physics.obj
 0002:00095180       ?resume@Physics@@QAEXXZ    1011d180 f   tlib:physics.obj
 0002:00095210       ?run@Physics@@QAEXXZ       1011d210 f   tlib:physics.obj
 0002:00095470       ?runConstantCurrent@Physics@@AAEXXZ 1011d470 f   tlib:physics.obj
 0002:000955c0       ?runWindLoad@Physics@@AAEXXZ 1011d5c0 f   tlib:physics.obj
 0002:00096100       ?run_constant_force@Physics@@AAEXXZ 1011e100 f   tlib:physics.obj
 0002:00096700       ?setConstantCurrent@Physics@@QAEXM@Z 1011e700 f   tlib:physics.obj
 0002:00096760       ?setConstantWatts@Physics@@QAEXM@Z 1011e760 f   tlib:physics.obj
 0002:000967c0       ?setDistance@Physics@@QAEXN@Z 1011e7c0 f   tlib:physics.obj
 0002:00096860       ?setMode@Physics@@QAEXW4MODE@1@@Z 1011e860 f   tlib:physics.obj
 0002:000968b0       ?set_constant_force@Physics@@QAEXN@Z 1011e8b0 f   tlib:physics.obj
 0002:00096c40       ?set_grade@Physics@@QAEXM@Z 1011ec40 f   tlib:physics.obj
 0002:00096cb0       ?set_weight_lbs@Physics@@QAEXN@Z 1011ecb0 f   tlib:physics.obj
 0002:00096d60       ?setmiles@Physics@@QAEXN@Z 1011ed60 f   tlib:physics.obj
 0002:00096df0       ?updatePicCurrent@Physics@@QAEXXZ 1011edf0 f   tlib:physics.obj
 0002:00096e70       ?windDegauss@Physics@@AAEXXZ 1011ee70 f   tlib:physics.obj
 0002:00097080       ?writeState@Physics@@QAEXPAU_iobuf@@@Z 1011f080 f   tlib:physics.obj
 0002:000973e0       ??0Bike@@QAE@HPAUPARAMS@0@@Z 1011f3e0 f   tlib:bike.obj
 0002:000978d0       ??1Bike@@UAE@XZ            1011f8d0 f   tlib:bike.obj
 0002:000979b0       ??_GBike@@UAEPAXI@Z        1011f9b0 f i tlib:bike.obj
 0002:000979b0       ??_EBike@@UAEPAXI@Z        1011f9b0 f i tlib:bike.obj
 0002:00097a30       ?computeGearRatio@Bike@@QAEXXZ 1011fa30 f   tlib:bike.obj
 0002:00097ae0       ?downkeydown@Bike@@QAEXXZ  1011fae0 f   tlib:bike.obj
 0002:00097b90       ?downkeyup@Bike@@QAEHXZ    1011fb90 f   tlib:bike.obj
 0002:00097c30       ?frontDown@Bike@@QAEXXZ    1011fc30 f   tlib:bike.obj
 0002:00097d20       ?frontUp@Bike@@QAEXXZ      1011fd20 f   tlib:bike.obj
 0002:00097e20       ?rearDown@Bike@@QAEXXZ     1011fe20 f   tlib:bike.obj
 0002:00097f10       ?rearUp@Bike@@QAEXXZ       1011ff10 f   tlib:bike.obj
 0002:00098010       ?run@Bike@@QAEHXZ          10120010 f   tlib:bike.obj
 0002:00098280       ?set_gear@Bike@@QAEXHH@Z   10120280 f   tlib:bike.obj
 0002:000983f0       ?set_gear@Bike@@QAEXN@Z    101203f0 f   tlib:bike.obj
 0002:00098450       ?setupVirtualGearInches@Bike@@AAEXXZ 10120450 f   tlib:bike.obj
 0002:00098990       ?upkeydown@Bike@@QAEXXZ    10120990 f   tlib:bike.obj
 0002:00098a40       ?upkeyup@Bike@@QAEHXZ      10120a40 f   tlib:bike.obj
 0002:00098ae0       ??0Decoder@@QAE@HPAVCourse@@AAVRIDER_DATA@@H@Z 10120ae0 f   tlib:decoder.obj
 0002:00099810       ??1Decoder@@UAE@XZ         10121810 f   tlib:decoder.obj
 0002:00099ba0       ??_EDecoder@@UAEPAXI@Z     10121ba0 f i tlib:decoder.obj
 0002:00099ba0       ??_GDecoder@@UAEPAXI@Z     10121ba0 f i tlib:decoder.obj
 0002:00099c20       ??_GSS@@QAEPAXI@Z          10121c20 f i tlib:decoder.obj
 0002:00099d30       ?computePP@Decoder@@IAEXXZ 10121d30 f   tlib:decoder.obj
 0002:00099e30       ?compute_armed_rpm@Decoder@@IAEXXZ 10121e30 f   tlib:decoder.obj
 0002:0009a090       ?dec_speed@Decoder@@UAEXXZ 10122090 f i tlib:decoder.obj
 0002:0009a0d0       ?decode@Decoder@@UAEHPAEK@Z 101220d0 f i tlib:decoder.obj
 0002:0009a120       ?fill_in_mma@Decoder@@QAEXXZ 10122120 f   tlib:decoder.obj
 0002:0009a560       ?get_gear_indices@Decoder@@UAE?AUGEARPAIR@Bike@@XZ 10122560 f i tlib:decoder.obj
 0002:0009a5f0       ?get_gear_pair@Decoder@@UAE?AUGEARPAIR@Bike@@XZ 101225f0 f i tlib:decoder.obj
 0002:0009a680       ?get_measured_ergo_watts@Decoder@@UAENXZ 10122680 f i tlib:decoder.obj
 0002:0009a6c0       ?get_physics_pause@Decoder@@UAE_NXZ 101226c0 f i tlib:decoder.obj
 0002:0009a700       ?gradeDown@Decoder@@UAEXXZ 10122700 f i tlib:decoder.obj
 0002:0009a740       ?gradeUp@Decoder@@UAEXXZ   10122740 f i tlib:decoder.obj
 0002:0009a780       ?inc_speed@Decoder@@UAEXXZ 10122780 f i tlib:decoder.obj
 0002:0009a7c0       ?init_course@Decoder@@AAEXXZ 101227c0 f   tlib:decoder.obj
 0002:0009a820       ?integrate@Decoder@@UAEXXZ 10122820 f i tlib:decoder.obj
 0002:0009a860       ?log@Decoder@@QAAXHHHPBDZZ 10122860 f   tlib:decoder.obj
 0002:0009a890       ?logmeta@Decoder@@IAEXXZ   10122890 f   tlib:decoder.obj
 0002:0009a8d0       ?peaks_and_averages@Decoder@@MAEXXZ 101228d0 f   tlib:decoder.obj
 0002:0009bc10       ?reset@Decoder@@UAEXXZ     10123c10 f   tlib:decoder.obj
 0002:0009c190       ?reset_averages@Decoder@@QAEXXZ 10124190 f   tlib:decoder.obj
 0002:0009c590       ?seed_avgs@Decoder@@QAEXXZ 10124590 f   tlib:decoder.obj
 0002:0009c680       ?setDistance@Decoder@@UAEXM@Z 10124680 f i tlib:decoder.obj
 0002:0009c720       ?set_cadence@Decoder@@QAEXM@Z 10124720 f   tlib:decoder.obj
 0002:0009c7a0       ?set_ftp@Decoder@@QAEHM@Z  101247a0 f   tlib:decoder.obj
 0002:0009c840       ?set_hr@Decoder@@QAEXM@Z   10124840 f   tlib:decoder.obj
 0002:0009c890       ?set_lower_hr@Decoder@@UAEXM@Z 10124890 f i tlib:decoder.obj
 0002:0009c8e0       ?set_manual_mph@Decoder@@UAEXM@Z 101248e0 f i tlib:decoder.obj
 0002:0009c920       ?set_minmax@Decoder@@MAEXXZ 10124920 f   tlib:decoder.obj
 0002:0009cbd0       ?set_physics_pause@Decoder@@UAEX_N@Z 10124bd0 f i tlib:decoder.obj
 0002:0009cc10       ?set_speed@Decoder@@QAEXM@Z 10124c10 f   tlib:decoder.obj
 0002:0009cc60       ?set_speed_cadence@Decoder@@QAEXMMM@Z 10124c60 f   tlib:decoder.obj
 0002:0009cd10       ?set_upper_hr@Decoder@@UAEXM@Z 10124d10 f i tlib:decoder.obj
 0002:0009cd60       ?set_watts_factor@Decoder@@UAEXM@Z 10124d60 f   tlib:decoder.obj
 0002:0009cdb0       ?set_weight_kgs@Decoder@@UAEXN@Z 10124db0 f i tlib:decoder.obj
 0002:0009ce00       ?set_weight_lbs@Decoder@@UAEXN@Z 10124e00 f i tlib:decoder.obj
 0002:0009ce60       ?toggle_amplifier@Decoder@@UAEXXZ 10124e60 f i tlib:decoder.obj
 0002:0009cea0       ?update@Decoder@@UAEXM@Z   10124ea0 f i tlib:decoder.obj
 0002:0009cee0       ?update@Decoder@@UAEXXZ    10124ee0 f i tlib:decoder.obj
 0002:0009cf20       ??0RESULT@@QAE@XZ          10124f20 f i tlib:datasource.obj
 0002:0009d1c0       ??0SEC@@QAE@XZ             101251c0 f i tlib:datasource.obj
 0002:0009d260       ??0dataSource@@QAE@AAVRIDER_DATA@@PAVCourse@@PAVBike@@W4LoggingType@@@Z 10125260 f   tlib:datasource.obj
 0002:0009d3f0       ??0dataSource@@QAE@XZ      101253f0 f   tlib:datasource.obj
 0002:0009d4d0       ??1dataSource@@UAE@XZ      101254d0 f   tlib:datasource.obj
 0002:0009d6d0       ??_EdataSource@@UAEPAXI@Z  101256d0 f i tlib:datasource.obj
 0002:0009d6d0       ??_GdataSource@@UAEPAXI@Z  101256d0 f i tlib:datasource.obj
 0002:0009d7e0       ?addcourse@dataSource@@UAEHPBD@Z 101257e0 f i tlib:datasource.obj
 0002:0009d820       ?beep@dataSource@@IAEXXZ   10125820 f   tlib:datasource.obj
 0002:0009d860       ?clear_accum_tdc@dataSource@@QAEXXZ 10125860 f   tlib:datasource.obj
 0002:0009d8c0       ?clear_averages@dataSource@@UAEXXZ 101258c0 f i tlib:datasource.obj
 0002:0009d900       ?dump@dataSource@@UAEXXZ   10125900 f i tlib:datasource.obj
 0002:0009d940       ?emergencyStop@dataSource@@UAEXH@Z 10125940 f i tlib:datasource.obj
 0002:0009d980       ?end_cal@dataSource@@UAEXE@Z 10125980 f i tlib:datasource.obj
 0002:0009d9c0       ?finish@dataSource@@UAEXXZ 101259c0 f i tlib:datasource.obj
 0002:0009da00       ?flush@dataSource@@UAEXXZ  10125a00 f i tlib:datasource.obj
 0002:0009da40       ?getConstantWatts@dataSource@@UAEMXZ 10125a40 f i tlib:datasource.obj
 0002:0009da80       ?getControlByte@dataSource@@UAEEXZ 10125a80 f i tlib:datasource.obj
 0002:0009dac0       ?getFirstName@dataSource@@UAEPADXZ 10125ac0 f i tlib:datasource.obj
 0002:0009db00       ?getGrade@dataSource@@UAENXZ 10125b00 f i tlib:datasource.obj
 0002:0009db40       ?getLastName@dataSource@@UAEPADXZ 10125b40 f i tlib:datasource.obj
 0002:0009db80       ?getNextRecord@dataSource@@UAEHXZ 10125b80 f i tlib:datasource.obj
 0002:0009dbc0       ?getOffset@dataSource@@UAEJXZ 10125bc0 f i tlib:datasource.obj
 0002:0009dc00       ?getPreviousRecord@dataSource@@UAEHK@Z 10125c00 f i tlib:datasource.obj
 0002:0009dc40       ?getRecord@dataSource@@UAEHH@Z 10125c40 f i tlib:datasource.obj
 0002:0009dc80       ?getTotalMiles@dataSource@@UAENXZ 10125c80 f i tlib:datasource.obj
 0002:0009dcc0       ?getWatts@dataSource@@UAENXZ 10125cc0 f i tlib:datasource.obj
 0002:0009dd00       ?get_accum_keys@dataSource@@UAEHXZ 10125d00 f i tlib:datasource.obj
 0002:0009dd40       ?get_avg_formula_watts@dataSource@@QAEMXZ 10125d40 f   tlib:datasource.obj
 0002:0009dd80       ?get_calibration_x@dataSource@@UAEHXZ 10125d80 f i tlib:datasource.obj
 0002:0009ddc0       ?get_computrainer_mode_x@dataSource@@UAEEXZ 10125dc0 f i tlib:datasource.obj
 0002:0009de00       ?get_control_byte_x@dataSource@@UAEEXZ 10125e00 f i tlib:datasource.obj
 0002:0009de40       ?get_draft_wind@dataSource@@UAEMXZ 10125e40 f i tlib:datasource.obj
 0002:0009dea0       ?get_gear_indices_x@dataSource@@UAE?AUGEARPAIR@Bike@@XZ 10125ea0 f i tlib:datasource.obj
 0002:0009df30       ?get_gear_pair@dataSource@@UAE?AUGEARPAIR@Bike@@XZ 10125f30 f i tlib:datasource.obj
 0002:0009dfc0       ?get_if@dataSource@@QAEMXZ 10125fc0 f   tlib:datasource.obj
 0002:0009e000       ?get_keys@dataSource@@UAEHXZ 10126000 f i tlib:datasource.obj
 0002:0009e040       ?get_nRecords@dataSource@@UAEHXZ 10126040 f i tlib:datasource.obj
 0002:0009e080       ?get_np@dataSource@@QAEMXZ 10126080 f   tlib:datasource.obj
 0002:0009e0c0       ?get_perf_file_name_x@dataSource@@UAEPBDXZ 101260c0 f i tlib:datasource.obj
 0002:0009e100       ?get_physics_mode_x@dataSource@@UAE?AW4MODE@Physics@@XZ 10126100 f i tlib:datasource.obj
 0002:0009e140       ?get_physics_x@dataSource@@UAEPAVPhysics@@XZ 10126140 f i tlib:datasource.obj
 0002:0009e180       ?get_result@dataSource@@UAE?AURESULT@@XZ 10126180 f i tlib:datasource.obj
 0002:0009e1e0       ?get_start_miles@dataSource@@UAEMXZ 101261e0 f i tlib:datasource.obj
 0002:0009e220       ?get_tss@dataSource@@QAEMXZ 10126220 f   tlib:datasource.obj
 0002:0009e260       ?get_wind@dataSource@@UAEMXZ 10126260 f i tlib:datasource.obj
 0002:0009e2c0       ?get_x_accum_tdc@dataSource@@UAEHXZ 101262c0 f i tlib:datasource.obj
 0002:0009e300       ?get_x_status_bits@dataSource@@UAEHXZ 10126300 f i tlib:datasource.obj
 0002:0009e340       ?getvidbase@dataSource@@UAEPADXZ 10126340 f i tlib:datasource.obj
 0002:0009e380       ?getvidfile@dataSource@@UAEPADXZ 10126380 f i tlib:datasource.obj
 0002:0009e3c0       ?gradeDown@dataSource@@UAEXXZ 101263c0 f i tlib:datasource.obj
 0002:0009e400       ?gradeUp@dataSource@@UAEXXZ 10126400 f i tlib:datasource.obj
 0002:0009e440       ?init@dataSource@@AAEXXZ   10126440 f   tlib:datasource.obj
 0002:0009e960       ?is_perf@dataSource@@UAE_NXZ 10126960 f i tlib:datasource.obj
 0002:0009e9a0       ?is_realtime@dataSource@@UAE_NXZ 101269a0 f i tlib:datasource.obj
 0002:0009e9e0       ?jumpmiles@dataSource@@UAEHM@Z 101269e0 f i tlib:datasource.obj
 0002:0009ea20       ?keydown@dataSource@@UAEXI@Z 10126a20 f i tlib:datasource.obj
 0002:0009ea60       ?makeMeta@dataSource@@IAEXXZ 10126a60 f   tlib:datasource.obj
 0002:0009f1b0       ?myexport@dataSource@@UAEHPAD@Z 101271b0 f i tlib:datasource.obj
 0002:0009f1f0       ?out_of_data@dataSource@@UAE_NXZ 101271f0 f i tlib:datasource.obj
 0002:0009f230       ?packetsAvailable@dataSource@@UAEHXZ 10127230 f i tlib:datasource.obj
 0002:0009f270       ?pause@dataSource@@UAEXXZ  10127270 f i tlib:datasource.obj
 0002:0009f2d0       ?read@dataSource@@UAEHH@Z  101272d0 f i tlib:datasource.obj
 0002:0009f310       ?remap@dataSource@@UAEXUtagRECT@@MM@Z 10127310 f i tlib:datasource.obj
 0002:0009f350       ?reset@dataSource@@UAEXXZ  10127350 f   tlib:datasource.obj
 0002:0009f390       ?reset_averages@dataSource@@UAEXXZ 10127390 f   tlib:datasource.obj
 0002:0009f3f0       ?resume@dataSource@@UAEXXZ 101273f0 f i tlib:datasource.obj
 0002:0009f450       ?save@dataSource@@UAEPAD_N0@Z 10127450 f i tlib:datasource.obj
 0002:0009f490       ?seek@dataSource@@UAEHJ@Z  10127490 f i tlib:datasource.obj
 0002:0009f4d0       ?setConstantCurrent@dataSource@@UAEXM@Z 101274d0 f i tlib:datasource.obj
 0002:0009f510       ?setConstantWatts@dataSource@@UAEXM@Z 10127510 f i tlib:datasource.obj
 0002:0009f550       ?setPhysicsMode@dataSource@@UAEXH@Z 10127550 f i tlib:datasource.obj
 0002:0009f590       ?setShutDownDelay@dataSource@@UAEXK@Z 10127590 f i tlib:datasource.obj
 0002:0009f5d0       ?setTimeout@dataSource@@UAEXK@Z 101275d0 f i tlib:datasource.obj
 0002:0009f610       ?set_constant_force_x@dataSource@@UAEHM@Z 10127610 f i tlib:datasource.obj
 0002:0009f650       ?set_draft_wind@dataSource@@UAEXM@Z 10127650 f i tlib:datasource.obj
 0002:0009f6a0       ?set_drag_factor@dataSource@@QAEXM@Z 101276a0 f   tlib:datasource.obj
 0002:0009f730       ?set_export@dataSource@@QAEXPBD@Z 10127730 f   tlib:datasource.obj
 0002:0009f7e0       ?set_grade@dataSource@@UAEXM@Z 101277e0 f i tlib:datasource.obj
 0002:0009f820       ?set_hr_bounds@dataSource@@UAEXHH_N@Z 10127820 f i tlib:datasource.obj
 0002:0009f860       ?set_logging_x@dataSource@@QAEXW4LoggingType@@@Z 10127860 f   tlib:datasource.obj
 0002:0009f8b0       ?set_manual_mph@dataSource@@UAEXM@Z 101278b0 f i tlib:datasource.obj
 0002:0009f8f0       ?set_paused@Decoder@@QAEX_N@Z 101278f0 f i tlib:datasource.obj
 0002:0009f940       ?set_performance_file_name_x@dataSource@@UAEXPBD@Z 10127940 f i tlib:datasource.obj
 0002:0009f980       ?set_x_ftp@dataSource@@QAEHM@Z 10127980 f   tlib:datasource.obj
 0002:0009fa10       ?set_x_wind@dataSource@@UAEXM@Z 10127a10 f i tlib:datasource.obj
 0002:0009fa80       ?setkgs@dataSource@@UAEXM@Z 10127a80 f i tlib:datasource.obj
 0002:0009fac0       ?start@dataSource@@UAEXXZ  10127ac0 f i tlib:datasource.obj
 0002:0009fb00       ?startCal_x@dataSource@@UAEXXZ 10127b00 f i tlib:datasource.obj
 0002:0009fb40       ?start_cal@dataSource@@UAEEXZ 10127b40 f i tlib:datasource.obj
 0002:0009fb80       ?test@dataSource@@UAEXXZ   10127b80 f i tlib:datasource.obj
 0002:0009fbc0       ?updateHardware@dataSource@@UAEH_N@Z 10127bc0 f i tlib:datasource.obj
 0002:0009fc00       ??0SS@@QAE@XZ              10127c00 f   tlib:ss.obj
 0002:000a03f0       ??1SS@@QAE@XZ              101283f0 f   tlib:ss.obj
 0002:000a0890       ??_GsMav@@QAEPAXI@Z        10128890 f i tlib:ss.obj
 0002:000a0900       ?do_ten_hz_filter@SS@@QAEXPAUMETADATA@@_N11@Z 10128900 f   tlib:ss.obj
 0002:000a1570       ?filter@SS@@AAEXXZ         10129570 f   tlib:ss.obj
 0002:000a1e10       ?iround@@YAHN@Z            10129e10 f i tlib:ss.obj
 0002:000a1e80       ?load@SS@@AAEXN@Z          10129e80 f   tlib:ss.obj
 0002:000a22d0       ?reset@SS@@QAEXXZ          1012a2d0 f   tlib:ss.obj
 0002:000a27d0       ?reset_averages@SS@@QAEXXZ 1012a7d0 f   tlib:ss.obj
 0002:000a2850       ?run@SS@@QAEMNNNPAUMETADATA@@@Z 1012a850 f   tlib:ss.obj
 0002:000a2d50       ?set_degperseg@SS@@QAEXN@Z 1012ad50 f   tlib:ss.obj
 0002:000a2da0       ?setraw@SS@@QAEXPAM@Z      1012ada0 f   tlib:ss.obj
 0002:000a2e20       ?snapshot@SS@@AAEXPAD@Z    1012ae20 f   tlib:ss.obj
 0002:000a2f40       ?start@SS@@QAEXXZ          1012af40 f   tlib:ss.obj
 0002:000a2f80       ??$_Addressof@$$CBM@std@@YAPBMABMU?$integral_constant@_N$0A@@0@@Z 1012af80 f i tlib:computrainer.obj
 0002:000a2fc0       ??$_Copy_memmove@PAMPAM@std@@YAPAMPAM00@Z 1012afc0 f i tlib:computrainer.obj
 0002:000a3050       ??$_Ptr_move_cat@MM@std@@YA?AU_Really_trivial_ptr_iterator_tag@0@ABQAM0@Z 1012b050 f i tlib:computrainer.obj
 0002:000a3090       ??$_Rechecked@PAMPAM@std@@YAAAPAMAAPAMPAM@Z 1012b090 f i tlib:computrainer.obj
 0002:000a30d0       ??$_Umove@PAM@?$vector@MV?$allocator@M@std@@@std@@IAEPAMPAM00@Z 1012b0d0 f i tlib:computrainer.obj
 0002:000a3140       ??$_Unchecked@PAM@std@@YAPAMPAM@Z 1012b140 f i tlib:computrainer.obj
 0002:000a3180       ??$_Uninitialized_move@PAMPAMU?$_Wrap_alloc@V?$allocator@M@std@@@std@@@std@@YAPAMPAM00AAU?$_Wrap_alloc@V?$allocator@M@std@@@0@@Z 1012b180 f i tlib:computrainer.obj
 0002:000a3220       ??$_Uninitialized_move_al_unchecked1@MM@std@@YAPAMPAM00AAU?$_Wrap_alloc@V?$allocator@M@std@@@0@U_Really_trivial_ptr_iterator_tag@0@@Z 1012b220 f i tlib:computrainer.obj
 0002:000a3280       ??$_Uninitialized_move_al_unchecked@PAMPAMU?$_Wrap_alloc@V?$allocator@M@std@@@std@@@std@@YAPAMPAM00AAU?$_Wrap_alloc@V?$allocator@M@std@@@0@@Z 1012b280 f i tlib:computrainer.obj
 0002:000a3300       ??$addressof@$$CBM@std@@YAPBMABM@Z 1012b300 f i tlib:computrainer.obj
 0002:000a3360       ??$construct@MAAM@?$_Wrap_alloc@V?$allocator@M@std@@@std@@QAEXPAMAAM@Z 1012b360 f i tlib:computrainer.obj
 0002:000a33d0       ??$construct@MAAM@?$allocator@M@std@@QAEXPAMAAM@Z 1012b3d0 f i tlib:computrainer.obj
 0002:000a3480       ??$construct@MAAM@?$allocator_traits@V?$allocator@M@std@@@std@@SAXAAV?$allocator@M@1@PAMAAM@Z 1012b480 f i tlib:computrainer.obj
 0002:000a34e0       ??$construct@MABM@?$_Wrap_alloc@V?$allocator@M@std@@@std@@QAEXPAMABM@Z 1012b4e0 f i tlib:computrainer.obj
 0002:000a3550       ??$construct@MABM@?$allocator@M@std@@QAEXPAMABM@Z 1012b550 f i tlib:computrainer.obj
 0002:000a3600       ??$construct@MABM@?$allocator_traits@V?$allocator@M@std@@@std@@SAXAAV?$allocator@M@1@PAMABM@Z 1012b600 f i tlib:computrainer.obj
 0002:000a3660       ??$forward@AAM@std@@YAAAMAAM@Z 1012b660 f i tlib:computrainer.obj
 0002:000a36a0       ??$forward@ABM@std@@YAABMABM@Z 1012b6a0 f i tlib:computrainer.obj
 0002:000a36e0       ??0Computrainer@@QAE@HPAVCtsrv@RACERMATE@@AAVRIDER_DATA@@PAVCourse@@PAVBike@@W4LoggingType@@@Z 1012b6e0 f   tlib:computrainer.obj
 0002:000a3a10       ??0Computrainer@@QAE@PAVClient@@AAVRIDER_DATA@@PAVCourse@@PAVBike@@W4LoggingType@@@Z 1012ba10 f   tlib:computrainer.obj
 0002:000a3d40       ??0Computrainer@@QAE@PAVSerial@@AAVRIDER_DATA@@PAVCourse@@PAVBike@@W4LoggingType@@@Z 1012bd40 f   tlib:computrainer.obj
 0002:000a4070       ??0Computrainer@@QAE@PBDAAVRIDER_DATA@@PAVCourse@@PAVBike@@W4LoggingType@@0H@Z 1012c070 f   tlib:computrainer.obj
 0002:000a4350       ??1Computrainer@@UAE@XZ    1012c350 f   tlib:computrainer.obj
 0002:000a43f0       ??_EComputrainer@@UAEPAXI@Z 1012c3f0 f i tlib:computrainer.obj
 0002:000a43f0       ??_GComputrainer@@UAEPAXI@Z 1012c3f0 f i tlib:computrainer.obj
 0002:000a4500       ?_Get_first@?$_Compressed_pair@U?$_Wrap_alloc@V?$allocator@M@std@@@std@@V?$_Vector_val@U?$_Simple_types@M@std@@@2@$00@std@@QBEABU?$_Wrap_alloc@V?$allocator@M@std@@@2@XZ 1012c500 f i tlib:computrainer.obj
 0002:000a4540       ?_Getal@?$_Vector_alloc@U?$_Vec_base_types@MV?$allocator@M@std@@@std@@@std@@QBEABU?$_Wrap_alloc@V?$allocator@M@std@@@2@XZ 1012c540 f i tlib:computrainer.obj
 0002:000a4590       ?_Getpfirst@?$_Vector_alloc@U?$_Vec_base_types@MV?$allocator@M@std@@@std@@@std@@QBEPAPAU_Iterator_base12@2@XZ 1012c590 f i tlib:computrainer.obj
 0002:000a45f0       ?_Grow_to@?$vector@MV?$allocator@M@std@@@std@@IBEII@Z 1012c5f0 f i tlib:computrainer.obj
 0002:000a46a0       ?_Inside@?$vector@MV?$allocator@M@std@@@std@@IBE_NPBM@Z 1012c6a0 f i tlib:computrainer.obj
 0002:000a4730       ?_Myend@?$_Vector_alloc@U?$_Vec_base_types@MV?$allocator@M@std@@@std@@@std@@QBEABQAMXZ 1012c730 f i tlib:computrainer.obj
 0002:000a4790       ?_Orphan_range@?$vector@MV?$allocator@M@std@@@std@@IBEXPAM0@Z 1012c790 f i tlib:computrainer.obj
 0002:000a4900       ?_Reallocate@?$vector@MV?$allocator@M@std@@@std@@IAEXI@Z 1012c900 f i tlib:computrainer.obj
 0002:000a4af0       ?_Reserve@?$vector@MV?$allocator@M@std@@@std@@IAEXI@Z 1012caf0 f i tlib:computrainer.obj
 0002:000a4ba0       ?_Unused_capacity@?$vector@MV?$allocator@M@std@@@std@@QBEIXZ 1012cba0 f i tlib:computrainer.obj
 0002:000a4c10       ?_Xlen@?$vector@MV?$allocator@M@std@@@std@@IBEXXZ 1012cc10 f i tlib:computrainer.obj
 0002:000a4c70       ?allocate@?$_Wrap_alloc@V?$allocator@M@std@@@std@@QAEPAMI@Z 1012cc70 f i tlib:computrainer.obj
 0002:000a4cd0       ?allocate@?$allocator@M@std@@QAEPAMI@Z 1012ccd0 f i tlib:computrainer.obj
 0002:000a4d30       ?capacity@?$vector@MV?$allocator@M@std@@@std@@QBEIXZ 1012cd30 f i tlib:computrainer.obj
 0002:000a4da0       ?destroy@Computrainer@@AAEXXZ 1012cda0 f   tlib:computrainer.obj
 0002:000a4f60       ?dorr@Computrainer@@QAEXXZ 1012cf60 f   tlib:computrainer.obj
 0002:000a5030       ?end_cal@Computrainer@@UAEXE@Z 1012d030 f   tlib:computrainer.obj
 0002:000a5080       ?finish@Computrainer@@UAEXXZ 1012d080 f   tlib:computrainer.obj
 0002:000a5130       ?flush@Computrainer@@UAEXXZ 1012d130 f   tlib:computrainer.obj
 0002:000a51d0       ?getConstantWatts@Computrainer@@UAEMXZ 1012d1d0 f i tlib:computrainer.obj
 0002:000a5210       ?getControlByte@Computrainer@@UAEEXZ 1012d210 f i tlib:computrainer.obj
 0002:000a5250       ?getGrade@Computrainer@@UAENXZ 1012d250 f   tlib:computrainer.obj
 0002:000a52a0       ?getNextRecord@Computrainer@@UAEHXZ 1012d2a0 f   tlib:computrainer.obj
 0002:000a6230       ?getPreviousRecord@Computrainer@@UAEHK@Z 1012e230 f   tlib:computrainer.obj
 0002:000a62a0       ?get_accum_keys@Computrainer@@UAEHXZ 1012e2a0 f   tlib:computrainer.obj
 0002:000a6330       ?get_accum_tdc@Computrainer@@UAEHXZ 1012e330 f   tlib:computrainer.obj
 0002:000a6380       ?get_computrainer_mode_x@Computrainer@@UAEEXZ 1012e380 f i tlib:computrainer.obj
 0002:000a63c0       ?get_control_byte_x@Computrainer@@UAEEXZ 1012e3c0 f i tlib:computrainer.obj
 0002:000a6400       ?get_finishEdge@Decoder@@QAE_NXZ 1012e400 f i tlib:computrainer.obj
 0002:000a6440       ?get_keys@Computrainer@@UAEHXZ 1012e440 f   tlib:computrainer.obj
 0002:000a64f0       ?get_max_ss@Decoder@@QAEMXZ 1012e4f0 f i tlib:computrainer.obj
 0002:000a6530       ?get_pause_start_time@Decoder@@QAEKXZ 1012e530 f i tlib:computrainer.obj
 0002:000a6570       ?get_paused_time@Decoder@@QAEKXZ 1012e570 f i tlib:computrainer.obj
 0002:000a65b0       ?get_physics_mode_x@Computrainer@@UAE?AW4MODE@Physics@@XZ 1012e5b0 f i tlib:computrainer.obj
 0002:000a65f0       ?get_result@Computrainer@@UAE?AURESULT@@XZ 1012e5f0 f   tlib:computrainer.obj
 0002:000a6b10       ?get_start_time@Decoder@@QAEKXZ 1012eb10 f i tlib:computrainer.obj
 0002:000a6b50       ?get_status_bits@Computrainer@@UAEHXZ 1012eb50 f   tlib:computrainer.obj
 0002:000a6ba0       ?gradeDown@Computrainer@@UAEXXZ 1012eba0 f   tlib:computrainer.obj
 0002:000a6c10       ?gradeUp@Computrainer@@UAEXXZ 1012ec10 f   tlib:computrainer.obj
 0002:000a6c80       ?hrbeep_enabled@dataSource@@QAE_NXZ 1012ec80 f i tlib:computrainer.obj
 0002:000a6cc0       ?init@Computrainer@@AAEXXZ 1012ecc0 f   tlib:computrainer.obj
 0002:000a7090       ?is_realtime@RTD@@UAE_NXZ  1012f090 f i tlib:computrainer.obj
 0002:000a70d0       ?makelogpacket@RTD@@MAEXXZ 1012f0d0 f i tlib:computrainer.obj
 0002:000a7110       ?max_size@?$_Wrap_alloc@V?$allocator@M@std@@@std@@QBEIU_Nil@2@@Z 1012f110 f i tlib:computrainer.obj
 0002:000a7170       ?max_size@?$allocator@M@std@@QBEIXZ 1012f170 f i tlib:computrainer.obj
 0002:000a71b0       ?max_size@?$allocator_traits@V?$allocator@M@std@@@std@@SAIABV?$allocator@M@2@@Z 1012f1b0 f i tlib:computrainer.obj
 0002:000a7200       ?max_size@?$vector@MV?$allocator@M@std@@@std@@QBEIXZ 1012f200 f i tlib:computrainer.obj
 0002:000a7270       ?pause@Computrainer@@UAEXXZ 1012f270 f   tlib:computrainer.obj
 0002:000a7370       ?push_back@?$vector@MV?$allocator@M@std@@@std@@QAEXABM@Z 1012f370 f i tlib:computrainer.obj
 0002:000a7560       ?reset@Computrainer@@UAEXXZ 1012f560 f   tlib:computrainer.obj
 0002:000a76a0       ?resume@Computrainer@@UAEXXZ 1012f6a0 f   tlib:computrainer.obj
 0002:000a7810       ?save@Computrainer@@UAEPAD_N0@Z 1012f810 f   tlib:computrainer.obj
 0002:000a78a0       ?save@RTD@@MAEPAD_N@Z      1012f8a0 f i tlib:computrainer.obj
 0002:000a78e0       ?setConstantWatts@Computrainer@@UAEXM@Z 1012f8e0 f   tlib:computrainer.obj
 0002:000a7970       ?set_finishEdge@Decoder@@QAEX_N@Z 1012f970 f i tlib:computrainer.obj
 0002:000a79c0       ?set_grade@Computrainer@@UAEXM@Z 1012f9c0 f   tlib:computrainer.obj
 0002:000a7ae0       ?set_hr_bounds@Computrainer@@UAEXHH_N@Z 1012fae0 f   tlib:computrainer.obj
 0002:000a7c20       ?set_pause_start_time@Decoder@@QAEXK@Z 1012fc20 f i tlib:computrainer.obj
 0002:000a7c70       ?set_paused_time@Decoder@@QAEXK@Z 1012fc70 f i tlib:computrainer.obj
 0002:000a7cd0       ?set_startMiles@Decoder@@QAEXM@Z 1012fcd0 f i tlib:computrainer.obj
 0002:000a7d20       ?set_started@Decoder@@QAEX_N@Z 1012fd20 f i tlib:computrainer.obj
 0002:000a7d70       ?setkgs@Computrainer@@UAEXM@Z 1012fd70 f   tlib:computrainer.obj
 0002:000a7e00       ?start@Computrainer@@UAEXXZ 1012fe00 f   tlib:computrainer.obj
 0002:000a7f70       ?start_cal@Computrainer@@UAEEXZ 1012ff70 f   tlib:computrainer.obj
 0002:000a8000       ?updateHardware@Computrainer@@UAEH_N@Z 10130000 f   tlib:computrainer.obj
 0002:000a8930       ??0Simulator@@QAE@AAVRIDER_DATA@@_NPAVCourse@@PBD@Z 10130930 f   tlib:simulator.obj
 0002:000a8b10       ??1Simulator@@UAE@XZ       10130b10 f   tlib:simulator.obj
 0002:000a8bf0       ??_GSimulator@@UAEPAXI@Z   10130bf0 f i tlib:simulator.obj
 0002:000a8bf0       ??_ESimulator@@UAEPAXI@Z   10130bf0 f i tlib:simulator.obj
 0002:000a8d00       ?finish@Simulator@@UAEXXZ  10130d00 f   tlib:simulator.obj
 0002:000a8d40       ?getNextRecord@Simulator@@UAEHXZ 10130d40 f   tlib:simulator.obj
 0002:000a8e10       ?reset@Simulator@@UAEXXZ   10130e10 f   tlib:simulator.obj
 0002:000a8f40       ?set_manual_mph@Simulator@@UAEXM@Z 10130f40 f   tlib:simulator.obj
 0002:000a8fd0       ?set_total_miles@Decoder@@QAEXM@Z 10130fd0 f i tlib:simulator.obj
 0002:000a9020       ?start@Simulator@@UAEXXZ   10131020 f   tlib:simulator.obj
 0002:000a90a0       ??$?0$$V@?$_Compressed_pair@U?$_Wrap_alloc@V?$allocator@UFPOINT@@@std@@@std@@V?$_Vector_val@U?$_Simple_types@UFPOINT@@@std@@@2@$00@std@@QAE@U_Zero_then_variadic_args_t@1@@Z 101310a0 f i tlib:performance.obj
 0002:000a9100       ??$?0$$V@?$_Compressed_pair@U?$_Wrap_alloc@V?$allocator@USEC@@@std@@@std@@V?$_Vector_val@U?$_Simple_types@USEC@@@std@@@2@$00@std@@QAE@U_Zero_then_variadic_args_t@1@@Z 10131100 f i tlib:performance.obj
 0002:000a9160       ??$?0AAU?$_Wrap_alloc@V?$allocator@UFPOINT@@@std@@@std@@@?$_Wrap_alloc@V?$allocator@U_Container_proxy@std@@@std@@@std@@QAE@AAU?$_Wrap_alloc@V?$allocator@UFPOINT@@@std@@@1@@Z 10131160 f i tlib:performance.obj
 0002:000a91d0       ??$?0AAU?$_Wrap_alloc@V?$allocator@USEC@@@std@@@std@@@?$_Wrap_alloc@V?$allocator@U_Container_proxy@std@@@std@@@std@@QAE@AAU?$_Wrap_alloc@V?$allocator@USEC@@@std@@@1@@Z 101311d0 f i tlib:performance.obj
 0002:000a9240       ??$?0U?$_Wrap_alloc@V?$allocator@UFPOINT@@@std@@@std@@$$V@?$_Compressed_pair@U?$_Wrap_alloc@V?$allocator@UFPOINT@@@std@@@std@@V?$_Vector_val@U?$_Simple_types@UFPOINT@@@std@@@2@$00@std@@QAE@U_One_then_variadic_args_t@1@$$QAU?$_Wrap_alloc@V?$allocator@UFPOINT@@@std@@@1@@Z 10131240 f i tlib:performance.obj
 0002:000a92b0       ??$?0U?$_Wrap_alloc@V?$allocator@UFPOINT@@@std@@@std@@@?$_Vector_alloc@U?$_Vec_base_types@UFPOINT@@V?$allocator@UFPOINT@@@std@@@std@@@std@@QAE@$$QAU?$_Wrap_alloc@V?$allocator@UFPOINT@@@std@@@1@@Z 101312b0 f i tlib:performance.obj
 0002:000a9370       ??$?0UFPOINT@@@?$allocator@U_Container_proxy@std@@@std@@QAE@ABV?$allocator@UFPOINT@@@1@@Z 10131370 f i tlib:performance.obj
 0002:000a93b0       ??$?0USEC@@@?$allocator@U_Container_proxy@std@@@std@@QAE@ABV?$allocator@USEC@@@1@@Z 101313b0 f i tlib:performance.obj
 0002:000a93f0       ??$?0V?$allocator@UFPOINT@@@std@@@?$_Wrap_alloc@V?$allocator@UFPOINT@@@std@@@std@@QAE@$$QAV?$allocator@UFPOINT@@@1@@Z 101313f0 f i tlib:performance.obj
 0002:000a9460       ??$_Addressof@$$CBUFPOINT@@@std@@YAPBUFPOINT@@ABU1@U?$integral_constant@_N$0A@@0@@Z 10131460 f i tlib:performance.obj
 0002:000a94a0       ??$_Addressof@$$CBUSEC@@@std@@YAPBUSEC@@ABU1@U?$integral_constant@_N$0A@@0@@Z 101314a0 f i tlib:performance.obj
 0002:000a94e0       ??$_Addressof@UFPOINT@@@std@@YAPAUFPOINT@@AAU1@U?$integral_constant@_N$0A@@0@@Z 101314e0 f i tlib:performance.obj
 0002:000a9520       ??$_Addressof@USEC@@@std@@YAPAUSEC@@AAU1@U?$integral_constant@_N$0A@@0@@Z 10131520 f i tlib:performance.obj
 0002:000a9560       ??$_Copy_memmove@PAUFPOINT@@PAU1@@std@@YAPAUFPOINT@@PAU1@00@Z 10131560 f i tlib:performance.obj
 0002:000a95f0       ??$_Copy_memmove@PBUFPOINT@@PAU1@@std@@YAPAUFPOINT@@PBU1@0PAU1@@Z 101315f0 f i tlib:performance.obj
 0002:000a9680       ??$_Destroy_range@U?$_Wrap_alloc@V?$allocator@UFPOINT@@@std@@@std@@@std@@YAXPAUFPOINT@@0AAU?$_Wrap_alloc@V?$allocator@UFPOINT@@@std@@@0@@Z 10131680 f i tlib:performance.obj
 0002:000a9700       ??$_Destroy_range@U?$_Wrap_alloc@V?$allocator@USEC@@@std@@@std@@@std@@YAXPAUSEC@@0AAU?$_Wrap_alloc@V?$allocator@USEC@@@std@@@0@@Z 10131700 f i tlib:performance.obj
 0002:000a9780       ??$_Ptr_copy_cat@$$CBUFPOINT@@U1@@std@@YA?AU_Really_trivial_ptr_iterator_tag@0@ABQBUFPOINT@@ABQAU2@@Z 10131780 f i tlib:performance.obj
 0002:000a97c0       ??$_Ptr_move_cat@UFPOINT@@U1@@std@@YA?AU_Really_trivial_ptr_iterator_tag@0@ABQAUFPOINT@@0@Z 101317c0 f i tlib:performance.obj
 0002:000a9800       ??$_Ptr_move_cat@USEC@@U1@@std@@YA?AU_Trivially_copyable_ptr_iterator_tag@0@ABQAUSEC@@0@Z 10131800 f i tlib:performance.obj
 0002:000a9840       ??$_Rechecked@PAUFPOINT@@PAU1@@std@@YAAAPAUFPOINT@@AAPAU1@PAU1@@Z 10131840 f i tlib:performance.obj
 0002:000a9880       ??$_Rechecked@PAUSEC@@PAU1@@std@@YAAAPAUSEC@@AAPAU1@PAU1@@Z 10131880 f i tlib:performance.obj
 0002:000a98c0       ??$_Ucopy@V?$_Vector_const_iterator@V?$_Vector_val@U?$_Simple_types@UFPOINT@@@std@@@std@@@std@@@?$vector@UFPOINT@@V?$allocator@UFPOINT@@@std@@@std@@IAEPAUFPOINT@@V?$_Vector_const_iterator@V?$_Vector_val@U?$_Simple_types@UFPOINT@@@std@@@std@@@1@0PAU2@@Z 101318c0 f i tlib:performance.obj
 0002:000a9a00       ??$_Umove@PAUFPOINT@@@?$vector@UFPOINT@@V?$allocator@UFPOINT@@@std@@@std@@IAEPAUFPOINT@@PAU2@00@Z 10131a00 f i tlib:performance.obj
 0002:000a9a70       ??$_Umove@PAUSEC@@@?$vector@USEC@@V?$allocator@USEC@@@std@@@std@@IAEPAUSEC@@PAU2@00@Z 10131a70 f i tlib:performance.obj
 0002:000a9ae0       ??$_Unchecked@PAUFPOINT@@@std@@YAPAUFPOINT@@PAU1@@Z 10131ae0 f i tlib:performance.obj
 0002:000a9b20       ??$_Unchecked@PAUSEC@@@std@@YAPAUSEC@@PAU1@@Z 10131b20 f i tlib:performance.obj
 0002:000a9b60       ??$_Unchecked@V?$_Vector_val@U?$_Simple_types@UFPOINT@@@std@@@std@@@std@@YAPBUFPOINT@@V?$_Vector_const_iterator@V?$_Vector_val@U?$_Simple_types@UFPOINT@@@std@@@std@@@0@@Z 10131b60 f i tlib:performance.obj
 0002:000a9c10       ??$_Uninitialized_copy@V?$_Vector_const_iterator@V?$_Vector_val@U?$_Simple_types@UFPOINT@@@std@@@std@@@std@@PAUFPOINT@@U?$_Wrap_alloc@V?$allocator@UFPOINT@@@std@@@2@@std@@YAPAUFPOINT@@V?$_Vector_const_iterator@V?$_Vector_val@U?$_Simple_types@UFPOINT@@@std@@@std@@@0@0PAU1@AAU?$_Wrap_alloc@V?$allocator@UFPOINT@@@std@@@0@@Z 10131c10 f i tlib:performance.obj
 0002:000a9d80       ??$_Uninitialized_copy_al_unchecked1@$$CBUFPOINT@@U1@@std@@YAPAUFPOINT@@PBU1@0PAU1@AAU?$_Wrap_alloc@V?$allocator@UFPOINT@@@std@@@0@U_Really_trivial_ptr_iterator_tag@0@@Z 10131d80 f i tlib:performance.obj
 0002:000a9de0       ??$_Uninitialized_copy_al_unchecked@PBUFPOINT@@PAU1@U?$_Wrap_alloc@V?$allocator@UFPOINT@@@std@@@std@@@std@@YAPAUFPOINT@@PBU1@0PAU1@AAU?$_Wrap_alloc@V?$allocator@UFPOINT@@@std@@@0@@Z 10131de0 f i tlib:performance.obj
 0002:000a9e60       ??$_Uninitialized_move@PAUFPOINT@@PAU1@U?$_Wrap_alloc@V?$allocator@UFPOINT@@@std@@@std@@@std@@YAPAUFPOINT@@PAU1@00AAU?$_Wrap_alloc@V?$allocator@UFPOINT@@@std@@@0@@Z 10131e60 f i tlib:performance.obj
 0002:000a9f00       ??$_Uninitialized_move@PAUSEC@@PAU1@U?$_Wrap_alloc@V?$allocator@USEC@@@std@@@std@@@std@@YAPAUSEC@@PAU1@00AAU?$_Wrap_alloc@V?$allocator@USEC@@@std@@@0@@Z 10131f00 f i tlib:performance.obj
 0002:000a9fa0       ??$_Uninitialized_move_al_unchecked1@PAUSEC@@PAU1@V?$allocator@USEC@@@std@@@std@@YAPAUSEC@@PAU1@00AAU?$_Wrap_alloc@V?$allocator@USEC@@@std@@@0@U_General_ptr_iterator_tag@0@@Z 10131fa0 f i tlib:performance.obj
 0002:000aa0d0       ??$_Uninitialized_move_al_unchecked1@UFPOINT@@U1@@std@@YAPAUFPOINT@@PAU1@00AAU?$_Wrap_alloc@V?$allocator@UFPOINT@@@std@@@0@U_Really_trivial_ptr_iterator_tag@0@@Z 101320d0 f i tlib:performance.obj
 0002:000aa130       ??$_Uninitialized_move_al_unchecked@PAUFPOINT@@PAU1@U?$_Wrap_alloc@V?$allocator@UFPOINT@@@std@@@std@@@std@@YAPAUFPOINT@@PAU1@00AAU?$_Wrap_alloc@V?$allocator@UFPOINT@@@std@@@0@@Z 10132130 f i tlib:performance.obj
 0002:000aa1b0       ??$_Uninitialized_move_al_unchecked@PAUSEC@@PAU1@U?$_Wrap_alloc@V?$allocator@USEC@@@std@@@std@@@std@@YAPAUSEC@@PAU1@00AAU?$_Wrap_alloc@V?$allocator@USEC@@@std@@@0@@Z 101321b0 f i tlib:performance.obj
 0002:000aa240       ??$addressof@$$CBUFPOINT@@@std@@YAPBUFPOINT@@ABU1@@Z 10132240 f i tlib:performance.obj
 0002:000aa2a0       ??$addressof@$$CBUSEC@@@std@@YAPBUSEC@@ABU1@@Z 101322a0 f i tlib:performance.obj
 0002:000aa300       ??$addressof@UFPOINT@@@std@@YAPAUFPOINT@@AAU1@@Z 10132300 f i tlib:performance.obj
 0002:000aa360       ??$addressof@USEC@@@std@@YAPAUSEC@@AAU1@@Z 10132360 f i tlib:performance.obj
 0002:000aa3c0       ??$construct@UFPOINT@@AAU1@@?$_Wrap_alloc@V?$allocator@UFPOINT@@@std@@@std@@QAEXPAUFPOINT@@AAU2@@Z 101323c0 f i tlib:performance.obj
 0002:000aa430       ??$construct@UFPOINT@@AAU1@@?$allocator@UFPOINT@@@std@@QAEXPAUFPOINT@@AAU2@@Z 10132430 f i tlib:performance.obj
 0002:000aa4e0       ??$construct@UFPOINT@@AAU1@@?$allocator_traits@V?$allocator@UFPOINT@@@std@@@std@@SAXAAV?$allocator@UFPOINT@@@1@PAUFPOINT@@AAU3@@Z 101324e0 f i tlib:performance.obj
 0002:000aa540       ??$construct@UFPOINT@@ABU1@@?$_Wrap_alloc@V?$allocator@UFPOINT@@@std@@@std@@QAEXPAUFPOINT@@ABU2@@Z 10132540 f i tlib:performance.obj
 0002:000aa5b0       ??$construct@UFPOINT@@ABU1@@?$allocator@UFPOINT@@@std@@QAEXPAUFPOINT@@ABU2@@Z 101325b0 f i tlib:performance.obj
 0002:000aa660       ??$construct@UFPOINT@@ABU1@@?$allocator_traits@V?$allocator@UFPOINT@@@std@@@std@@SAXAAV?$allocator@UFPOINT@@@1@PAUFPOINT@@ABU3@@Z 10132660 f i tlib:performance.obj
 0002:000aa6c0       ??$construct@USEC@@AAU1@@?$_Wrap_alloc@V?$allocator@USEC@@@std@@@std@@QAEXPAUSEC@@AAU2@@Z 101326c0 f i tlib:performance.obj
 0002:000aa730       ??$construct@USEC@@AAU1@@?$allocator@USEC@@@std@@QAEXPAUSEC@@AAU2@@Z 10132730 f i tlib:performance.obj
 0002:000aa7e0       ??$construct@USEC@@AAU1@@?$allocator_traits@V?$allocator@USEC@@@std@@@std@@SAXAAV?$allocator@USEC@@@1@PAUSEC@@AAU3@@Z 101327e0 f i tlib:performance.obj
 0002:000aa840       ??$construct@USEC@@ABU1@@?$_Wrap_alloc@V?$allocator@USEC@@@std@@@std@@QAEXPAUSEC@@ABU2@@Z 10132840 f i tlib:performance.obj
 0002:000aa8b0       ??$construct@USEC@@ABU1@@?$allocator@USEC@@@std@@QAEXPAUSEC@@ABU2@@Z 101328b0 f i tlib:performance.obj
 0002:000aa960       ??$construct@USEC@@ABU1@@?$allocator_traits@V?$allocator@USEC@@@std@@@std@@SAXAAV?$allocator@USEC@@@1@PAUSEC@@ABU3@@Z 10132960 f i tlib:performance.obj
 0002:000aa9c0       ??$construct@USEC@@U1@@?$_Wrap_alloc@V?$allocator@USEC@@@std@@@std@@QAEXPAUSEC@@$$QAU2@@Z 101329c0 f i tlib:performance.obj
 0002:000aaa30       ??$construct@USEC@@U1@@?$allocator@USEC@@@std@@QAEXPAUSEC@@$$QAU2@@Z 10132a30 f i tlib:performance.obj
 0002:000aaae0       ??$construct@USEC@@U1@@?$allocator_traits@V?$allocator@USEC@@@std@@@std@@SAXAAV?$allocator@USEC@@@1@PAUSEC@@$$QAU3@@Z 10132ae0 f i tlib:performance.obj
 0002:000aab40       ??$destroy@UFPOINT@@@?$_Wrap_alloc@V?$allocator@UFPOINT@@@std@@@std@@QAEXPAUFPOINT@@@Z 10132b40 f i tlib:performance.obj
 0002:000aaba0       ??$destroy@UFPOINT@@@?$allocator@UFPOINT@@@std@@QAEXPAUFPOINT@@@Z 10132ba0 f i tlib:performance.obj
 0002:000aabe0       ??$destroy@UFPOINT@@@?$allocator_traits@V?$allocator@UFPOINT@@@std@@@std@@SAXAAV?$allocator@UFPOINT@@@1@PAUFPOINT@@@Z 10132be0 f i tlib:performance.obj
 0002:000aac30       ??$destroy@USEC@@@?$_Wrap_alloc@V?$allocator@USEC@@@std@@@std@@QAEXPAUSEC@@@Z 10132c30 f i tlib:performance.obj
 0002:000aac90       ??$destroy@USEC@@@?$allocator@USEC@@@std@@QAEXPAUSEC@@@Z 10132c90 f i tlib:performance.obj
 0002:000aacd0       ??$destroy@USEC@@@?$allocator_traits@V?$allocator@USEC@@@std@@@std@@SAXAAV?$allocator@USEC@@@1@PAUSEC@@@Z 10132cd0 f i tlib:performance.obj
 0002:000aad20       ??$forward@AAU?$_Wrap_alloc@V?$allocator@UFPOINT@@@std@@@std@@@std@@YAAAU?$_Wrap_alloc@V?$allocator@UFPOINT@@@std@@@0@AAU10@@Z 10132d20 f i tlib:performance.obj
 0002:000aad60       ??$forward@AAU?$_Wrap_alloc@V?$allocator@USEC@@@std@@@std@@@std@@YAAAU?$_Wrap_alloc@V?$allocator@USEC@@@std@@@0@AAU10@@Z 10132d60 f i tlib:performance.obj
 0002:000aada0       ??$forward@AAUFPOINT@@@std@@YAAAUFPOINT@@AAU1@@Z 10132da0 f i tlib:performance.obj
 0002:000aade0       ??$forward@AAUSEC@@@std@@YAAAUSEC@@AAU1@@Z 10132de0 f i tlib:performance.obj
 0002:000aae20       ??$forward@ABUFPOINT@@@std@@YAABUFPOINT@@ABU1@@Z 10132e20 f i tlib:performance.obj
 0002:000aae60       ??$forward@ABUSEC@@@std@@YAABUSEC@@ABU1@@Z 10132e60 f i tlib:performance.obj
 0002:000aaea0       ??$forward@U?$_Wrap_alloc@V?$allocator@UFPOINT@@@std@@@std@@@std@@YA$$QAU?$_Wrap_alloc@V?$allocator@UFPOINT@@@std@@@0@AAU10@@Z 10132ea0 f i tlib:performance.obj
 0002:000aaee0       ??$forward@USEC@@@std@@YA$$QAUSEC@@AAU1@@Z 10132ee0 f i tlib:performance.obj
 0002:000aaf20       ??$forward@V?$allocator@UFPOINT@@@std@@@std@@YA$$QAV?$allocator@UFPOINT@@@0@AAV10@@Z 10132f20 f i tlib:performance.obj
 0002:000aaf60       ??$move@AAU?$_Wrap_alloc@V?$allocator@UFPOINT@@@std@@@std@@@std@@YA$$QAU?$_Wrap_alloc@V?$allocator@UFPOINT@@@std@@@0@AAU10@@Z 10132f60 f i tlib:performance.obj
 0002:000aafa0       ??$move@AAUSEC@@@std@@YA$$QAUSEC@@AAU1@@Z 10132fa0 f i tlib:performance.obj
 0002:000aafe0       ??0?$_Iterator012@Urandom_access_iterator_tag@std@@UFPOINT@@HPBU3@ABU3@U_Iterator_base12@2@@std@@QAE@ABU01@@Z 10132fe0 f i tlib:performance.obj
 0002:000ab040       ??0?$_Iterator012@Urandom_access_iterator_tag@std@@UFPOINT@@HPBU3@ABU3@U_Iterator_base12@2@@std@@QAE@XZ 10133040 f i tlib:performance.obj
 0002:000ab0a0       ??0?$_Vector_alloc@U?$_Vec_base_types@UFPOINT@@V?$allocator@UFPOINT@@@std@@@std@@@std@@QAE@XZ 101330a0 f i tlib:performance.obj
 0002:000ab150       ??0?$_Vector_alloc@U?$_Vec_base_types@USEC@@V?$allocator@USEC@@@std@@@std@@@std@@QAE@XZ 10133150 f i tlib:performance.obj
 0002:000ab200       ??0?$_Vector_const_iterator@V?$_Vector_val@U?$_Simple_types@UFPOINT@@@std@@@std@@@std@@QAE@ABV01@@Z 10133200 f i tlib:performance.obj
 0002:000ab270       ??0?$_Vector_const_iterator@V?$_Vector_val@U?$_Simple_types@UFPOINT@@@std@@@std@@@std@@QAE@PAUFPOINT@@PBU_Container_base12@1@@Z 10133270 f i tlib:performance.obj
 0002:000ab330       ??0?$_Vector_val@U?$_Simple_types@UFPOINT@@@std@@@std@@QAE@XZ 10133330 f i tlib:performance.obj
 0002:000ab3b0       ??0?$_Vector_val@U?$_Simple_types@USEC@@@std@@@std@@QAE@XZ 101333b0 f i tlib:performance.obj
 0002:000ab430       ??0?$_Wrap_alloc@V?$allocator@UFPOINT@@@std@@@std@@QAE@$$QAU01@@Z 10133430 f i tlib:performance.obj
 0002:000ab4a0       ??0?$_Wrap_alloc@V?$allocator@UFPOINT@@@std@@@std@@QAE@XZ 101334a0 f i tlib:performance.obj
 0002:000ab500       ??0?$_Wrap_alloc@V?$allocator@USEC@@@std@@@std@@QAE@XZ 10133500 f i tlib:performance.obj
 0002:000ab560       ??0?$allocator@UFPOINT@@@std@@QAE@ABV01@@Z 10133560 f i tlib:performance.obj
 0002:000ab5a0       ??0?$allocator@UFPOINT@@@std@@QAE@XZ 101335a0 f i tlib:performance.obj
 0002:000ab5e0       ??0?$allocator@USEC@@@std@@QAE@XZ 101335e0 f i tlib:performance.obj
 0002:000ab620       ??0?$vector@UFPOINT@@V?$allocator@UFPOINT@@@std@@@std@@QAE@ABV01@@Z 10133620 f i tlib:performance.obj
 0002:000ab7c0       ??0?$vector@UFPOINT@@V?$allocator@UFPOINT@@@std@@@std@@QAE@XZ 101337c0 f i tlib:performance.obj
 0002:000ab850       ??0?$vector@USEC@@V?$allocator@USEC@@@std@@@std@@QAE@XZ 10133850 f i tlib:performance.obj
 0002:000ab8e0       ??0COURSE_HEADER@@QAE@XZ   101338e0 f i tlib:performance.obj
 0002:000ab940       ??0PERF_FILE_HEADER@@QAE@XZ 10133940 f i tlib:performance.obj
 0002:000ab9a0       ??0PERSON_INFO@@QAE@XZ     101339a0 f i tlib:performance.obj
 0002:000aba00       ??0Performance@@QAE@AAVRIDER_DATA@@_NPBD@Z 10133a00 f   tlib:performance.obj
 0002:000abc00       ??0RIDER_INFO@@QAE@XZ      10133c00 f i tlib:performance.obj
 0002:000abc60       ??1?$_Compressed_pair@U?$_Wrap_alloc@V?$allocator@UFPOINT@@@std@@@std@@V?$_Vector_val@U?$_Simple_types@UFPOINT@@@std@@@2@$00@std@@QAE@XZ 10133c60 f i tlib:performance.obj
 0002:000abcb0       ??1?$_Compressed_pair@U?$_Wrap_alloc@V?$allocator@USEC@@@std@@@std@@V?$_Vector_val@U?$_Simple_types@USEC@@@std@@@2@$00@std@@QAE@XZ 10133cb0 f i tlib:performance.obj
 0002:000abd00       ??1?$_Iterator012@Urandom_access_iterator_tag@std@@UFPOINT@@HPBU3@ABU3@U_Iterator_base12@2@@std@@QAE@XZ 10133d00 f i tlib:performance.obj
 0002:000abd50       ??1?$_Vector_alloc@U?$_Vec_base_types@UFPOINT@@V?$allocator@UFPOINT@@@std@@@std@@@std@@QAE@XZ 10133d50 f i tlib:performance.obj
 0002:000abde0       ??1?$_Vector_alloc@U?$_Vec_base_types@USEC@@V?$allocator@USEC@@@std@@@std@@@std@@QAE@XZ 10133de0 f i tlib:performance.obj
 0002:000abe70       ??1?$_Vector_const_iterator@V?$_Vector_val@U?$_Simple_types@UFPOINT@@@std@@@std@@@std@@QAE@XZ 10133e70 f i tlib:performance.obj
 0002:000abec0       ??1?$_Vector_val@U?$_Simple_types@UFPOINT@@@std@@@std@@QAE@XZ 10133ec0 f i tlib:performance.obj
 0002:000abf10       ??1?$_Vector_val@U?$_Simple_types@USEC@@@std@@@std@@QAE@XZ 10133f10 f i tlib:performance.obj
 0002:000abf60       ??1?$vector@UFPOINT@@V?$allocator@UFPOINT@@@std@@@std@@QAE@XZ 10133f60 f i tlib:performance.obj
 0002:000abff0       ??1?$vector@USEC@@V?$allocator@USEC@@@std@@@std@@QAE@XZ 10133ff0 f i tlib:performance.obj
 0002:000ac080       ??1Performance@@UAE@XZ     10134080 f   tlib:performance.obj
 0002:000ac1e0       ??A?$vector@USEC@@V?$allocator@USEC@@@std@@@std@@QAEAAUSEC@@I@Z 101341e0 f i tlib:performance.obj
 0002:000ac300       ??_GPerformance@@UAEPAXI@Z 10134300 f i tlib:performance.obj
 0002:000ac300       ??_EPerformance@@UAEPAXI@Z 10134300 f i tlib:performance.obj
 0002:000ac380       ?_Alloc_proxy@?$_Vector_alloc@U?$_Vec_base_types@UFPOINT@@V?$allocator@UFPOINT@@@std@@@std@@@std@@QAEXXZ 10134380 f i tlib:performance.obj
 0002:000ac480       ?_Alloc_proxy@?$_Vector_alloc@U?$_Vec_base_types@USEC@@V?$allocator@USEC@@@std@@@std@@@std@@QAEXXZ 10134480 f i tlib:performance.obj
 0002:000ac580       ?_Buy@?$vector@UFPOINT@@V?$allocator@UFPOINT@@@std@@@std@@IAE_NI@Z 10134580 f i tlib:performance.obj
 0002:000ac720       ?_Destroy@?$vector@UFPOINT@@V?$allocator@UFPOINT@@@std@@@std@@IAEXPAUFPOINT@@0@Z 10134720 f i tlib:performance.obj
 0002:000ac790       ?_Destroy@?$vector@USEC@@V?$allocator@USEC@@@std@@@std@@IAEXPAUSEC@@0@Z 10134790 f i tlib:performance.obj
 0002:000ac800       ?_Free_proxy@?$_Vector_alloc@U?$_Vec_base_types@UFPOINT@@V?$allocator@UFPOINT@@@std@@@std@@@std@@QAEXXZ 10134800 f i tlib:performance.obj
 0002:000ac8f0       ?_Free_proxy@?$_Vector_alloc@U?$_Vec_base_types@USEC@@V?$allocator@USEC@@@std@@@std@@@std@@QAEXXZ 101348f0 f i tlib:performance.obj
 0002:000ac9e0       ?_Get_data@?$_Vector_alloc@U?$_Vec_base_types@UFPOINT@@V?$allocator@UFPOINT@@@std@@@std@@@std@@QAEAAV?$_Vector_val@U?$_Simple_types@UFPOINT@@@std@@@2@XZ 101349e0 f i tlib:performance.obj
 0002:000aca30       ?_Get_data@?$_Vector_alloc@U?$_Vec_base_types@UFPOINT@@V?$allocator@UFPOINT@@@std@@@std@@@std@@QBEABV?$_Vector_val@U?$_Simple_types@UFPOINT@@@std@@@2@XZ 10134a30 f i tlib:performance.obj
 0002:000aca80       ?_Get_data@?$_Vector_alloc@U?$_Vec_base_types@USEC@@V?$allocator@USEC@@@std@@@std@@@std@@QAEAAV?$_Vector_val@U?$_Simple_types@USEC@@@std@@@2@XZ 10134a80 f i tlib:performance.obj
 0002:000acad0       ?_Get_data@?$_Vector_alloc@U?$_Vec_base_types@USEC@@V?$allocator@USEC@@@std@@@std@@@std@@QBEABV?$_Vector_val@U?$_Simple_types@USEC@@@std@@@2@XZ 10134ad0 f i tlib:performance.obj
 0002:000acb20       ?_Get_first@?$_Compressed_pair@U?$_Wrap_alloc@V?$allocator@UFPOINT@@@std@@@std@@V?$_Vector_val@U?$_Simple_types@UFPOINT@@@std@@@2@$00@std@@QAEAAU?$_Wrap_alloc@V?$allocator@UFPOINT@@@std@@@2@XZ 10134b20 f i tlib:performance.obj
 0002:000acb60       ?_Get_first@?$_Compressed_pair@U?$_Wrap_alloc@V?$allocator@UFPOINT@@@std@@@std@@V?$_Vector_val@U?$_Simple_types@UFPOINT@@@std@@@2@$00@std@@QBEABU?$_Wrap_alloc@V?$allocator@UFPOINT@@@std@@@2@XZ 10134b60 f i tlib:performance.obj
 0002:000acba0       ?_Get_first@?$_Compressed_pair@U?$_Wrap_alloc@V?$allocator@USEC@@@std@@@std@@V?$_Vector_val@U?$_Simple_types@USEC@@@std@@@2@$00@std@@QAEAAU?$_Wrap_alloc@V?$allocator@USEC@@@std@@@2@XZ 10134ba0 f i tlib:performance.obj
 0002:000acbe0       ?_Get_first@?$_Compressed_pair@U?$_Wrap_alloc@V?$allocator@USEC@@@std@@@std@@V?$_Vector_val@U?$_Simple_types@USEC@@@std@@@2@$00@std@@QBEABU?$_Wrap_alloc@V?$allocator@USEC@@@std@@@2@XZ 10134be0 f i tlib:performance.obj
 0002:000acc20       ?_Get_second@?$_Compressed_pair@U?$_Wrap_alloc@V?$allocator@UFPOINT@@@std@@@std@@V?$_Vector_val@U?$_Simple_types@UFPOINT@@@std@@@2@$00@std@@QAEAAV?$_Vector_val@U?$_Simple_types@UFPOINT@@@std@@@2@XZ 10134c20 f i tlib:performance.obj
 0002:000acc60       ?_Get_second@?$_Compressed_pair@U?$_Wrap_alloc@V?$allocator@UFPOINT@@@std@@@std@@V?$_Vector_val@U?$_Simple_types@UFPOINT@@@std@@@2@$00@std@@QBEABV?$_Vector_val@U?$_Simple_types@UFPOINT@@@std@@@2@XZ 10134c60 f i tlib:performance.obj
 0002:000acca0       ?_Get_second@?$_Compressed_pair@U?$_Wrap_alloc@V?$allocator@USEC@@@std@@@std@@V?$_Vector_val@U?$_Simple_types@USEC@@@std@@@2@$00@std@@QAEAAV?$_Vector_val@U?$_Simple_types@USEC@@@std@@@2@XZ 10134ca0 f i tlib:performance.obj
 0002:000acce0       ?_Get_second@?$_Compressed_pair@U?$_Wrap_alloc@V?$allocator@USEC@@@std@@@std@@V?$_Vector_val@U?$_Simple_types@USEC@@@std@@@2@$00@std@@QBEABV?$_Vector_val@U?$_Simple_types@USEC@@@std@@@2@XZ 10134ce0 f i tlib:performance.obj
 0002:000acd20       ?_Getal@?$_Vector_alloc@U?$_Vec_base_types@UFPOINT@@V?$allocator@UFPOINT@@@std@@@std@@@std@@QAEAAU?$_Wrap_alloc@V?$allocator@UFPOINT@@@std@@@2@XZ 10134d20 f i tlib:performance.obj
 0002:000acd70       ?_Getal@?$_Vector_alloc@U?$_Vec_base_types@UFPOINT@@V?$allocator@UFPOINT@@@std@@@std@@@std@@QBEABU?$_Wrap_alloc@V?$allocator@UFPOINT@@@std@@@2@XZ 10134d70 f i tlib:performance.obj
 0002:000acdc0       ?_Getal@?$_Vector_alloc@U?$_Vec_base_types@USEC@@V?$allocator@USEC@@@std@@@std@@@std@@QAEAAU?$_Wrap_alloc@V?$allocator@USEC@@@std@@@2@XZ 10134dc0 f i tlib:performance.obj
 0002:000ace10       ?_Getal@?$_Vector_alloc@U?$_Vec_base_types@USEC@@V?$allocator@USEC@@@std@@@std@@@std@@QBEABU?$_Wrap_alloc@V?$allocator@USEC@@@std@@@2@XZ 10134e10 f i tlib:performance.obj
 0002:000ace60       ?_Getpfirst@?$_Vector_alloc@U?$_Vec_base_types@UFPOINT@@V?$allocator@UFPOINT@@@std@@@std@@@std@@QBEPAPAU_Iterator_base12@2@XZ 10134e60 f i tlib:performance.obj
 0002:000acec0       ?_Getpfirst@?$_Vector_alloc@U?$_Vec_base_types@USEC@@V?$allocator@USEC@@@std@@@std@@@std@@QBEPAPAU_Iterator_base12@2@XZ 10134ec0 f i tlib:performance.obj
 0002:000acf20       ?_Grow_to@?$vector@UFPOINT@@V?$allocator@UFPOINT@@@std@@@std@@IBEII@Z 10134f20 f i tlib:performance.obj
 0002:000acfd0       ?_Grow_to@?$vector@USEC@@V?$allocator@USEC@@@std@@@std@@IBEII@Z 10134fd0 f i tlib:performance.obj
 0002:000ad080       ?_Inside@?$vector@UFPOINT@@V?$allocator@UFPOINT@@@std@@@std@@IBE_NPBUFPOINT@@@Z 10135080 f i tlib:performance.obj
 0002:000ad110       ?_Inside@?$vector@USEC@@V?$allocator@USEC@@@std@@@std@@IBE_NPBUSEC@@@Z 10135110 f i tlib:performance.obj
 0002:000ad1a0       ?_Myend@?$_Vector_alloc@U?$_Vec_base_types@UFPOINT@@V?$allocator@UFPOINT@@@std@@@std@@@std@@QAEAAPAUFPOINT@@XZ 101351a0 f i tlib:performance.obj
 0002:000ad200       ?_Myend@?$_Vector_alloc@U?$_Vec_base_types@UFPOINT@@V?$allocator@UFPOINT@@@std@@@std@@@std@@QBEABQAUFPOINT@@XZ 10135200 f i tlib:performance.obj
 0002:000ad260       ?_Myend@?$_Vector_alloc@U?$_Vec_base_types@USEC@@V?$allocator@USEC@@@std@@@std@@@std@@QAEAAPAUSEC@@XZ 10135260 f i tlib:performance.obj
 0002:000ad2c0       ?_Myend@?$_Vector_alloc@U?$_Vec_base_types@USEC@@V?$allocator@USEC@@@std@@@std@@@std@@QBEABQAUSEC@@XZ 101352c0 f i tlib:performance.obj
 0002:000ad320       ?_Myfirst@?$_Vector_alloc@U?$_Vec_base_types@UFPOINT@@V?$allocator@UFPOINT@@@std@@@std@@@std@@QAEAAPAUFPOINT@@XZ 10135320 f i tlib:performance.obj
 0002:000ad380       ?_Myfirst@?$_Vector_alloc@U?$_Vec_base_types@UFPOINT@@V?$allocator@UFPOINT@@@std@@@std@@@std@@QBEABQAUFPOINT@@XZ 10135380 f i tlib:performance.obj
 0002:000ad3e0       ?_Myfirst@?$_Vector_alloc@U?$_Vec_base_types@USEC@@V?$allocator@USEC@@@std@@@std@@@std@@QAEAAPAUSEC@@XZ 101353e0 f i tlib:performance.obj
 0002:000ad440       ?_Myfirst@?$_Vector_alloc@U?$_Vec_base_types@USEC@@V?$allocator@USEC@@@std@@@std@@@std@@QBEABQAUSEC@@XZ 10135440 f i tlib:performance.obj
 0002:000ad4a0       ?_Mylast@?$_Vector_alloc@U?$_Vec_base_types@UFPOINT@@V?$allocator@UFPOINT@@@std@@@std@@@std@@QAEAAPAUFPOINT@@XZ 101354a0 f i tlib:performance.obj
 0002:000ad500       ?_Mylast@?$_Vector_alloc@U?$_Vec_base_types@UFPOINT@@V?$allocator@UFPOINT@@@std@@@std@@@std@@QBEABQAUFPOINT@@XZ 10135500 f i tlib:performance.obj
 0002:000ad560       ?_Mylast@?$_Vector_alloc@U?$_Vec_base_types@USEC@@V?$allocator@USEC@@@std@@@std@@@std@@QAEAAPAUSEC@@XZ 10135560 f i tlib:performance.obj
 0002:000ad5c0       ?_Mylast@?$_Vector_alloc@U?$_Vec_base_types@USEC@@V?$allocator@USEC@@@std@@@std@@@std@@QBEABQAUSEC@@XZ 101355c0 f i tlib:performance.obj
 0002:000ad620       ?_Myproxy@?$_Vector_alloc@U?$_Vec_base_types@UFPOINT@@V?$allocator@UFPOINT@@@std@@@std@@@std@@QAEAAPAU_Container_proxy@2@XZ 10135620 f i tlib:performance.obj
 0002:000ad670       ?_Myproxy@?$_Vector_alloc@U?$_Vec_base_types@USEC@@V?$allocator@USEC@@@std@@@std@@@std@@QAEAAPAU_Container_proxy@2@XZ 10135670 f i tlib:performance.obj
 0002:000ad6c0       ?_Orphan_all@?$_Vector_alloc@U?$_Vec_base_types@UFPOINT@@V?$allocator@UFPOINT@@@std@@@std@@@std@@QAEXXZ 101356c0 f i tlib:performance.obj
 0002:000ad720       ?_Orphan_all@?$_Vector_alloc@U?$_Vec_base_types@USEC@@V?$allocator@USEC@@@std@@@std@@@std@@QAEXXZ 10135720 f i tlib:performance.obj
 0002:000ad780       ?_Orphan_range@?$vector@UFPOINT@@V?$allocator@UFPOINT@@@std@@@std@@IBEXPAUFPOINT@@0@Z 10135780 f i tlib:performance.obj
 0002:000ad8f0       ?_Orphan_range@?$vector@USEC@@V?$allocator@USEC@@@std@@@std@@IBEXPAUSEC@@0@Z 101358f0 f i tlib:performance.obj
 0002:000ada60       ?_Reallocate@?$vector@UFPOINT@@V?$allocator@UFPOINT@@@std@@@std@@IAEXI@Z 10135a60 f i tlib:performance.obj
 0002:000adc50       ?_Reallocate@?$vector@USEC@@V?$allocator@USEC@@@std@@@std@@IAEXI@Z 10135c50 f i tlib:performance.obj
 0002:000ade40       ?_Reserve@?$vector@UFPOINT@@V?$allocator@UFPOINT@@@std@@@std@@IAEXI@Z 10135e40 f i tlib:performance.obj
 0002:000adef0       ?_Reserve@?$vector@USEC@@V?$allocator@USEC@@@std@@@std@@IAEXI@Z 10135ef0 f i tlib:performance.obj
 0002:000adfa0       ?_Tidy@?$vector@UFPOINT@@V?$allocator@UFPOINT@@@std@@@std@@IAEXXZ 10135fa0 f i tlib:performance.obj
 0002:000ae0a0       ?_Tidy@?$vector@USEC@@V?$allocator@USEC@@@std@@@std@@IAEXXZ 101360a0 f i tlib:performance.obj
 0002:000ae1b0       ?_Unchecked@?$_Vector_const_iterator@V?$_Vector_val@U?$_Simple_types@UFPOINT@@@std@@@std@@@std@@QBEPBUFPOINT@@XZ 101361b0 f i tlib:performance.obj
 0002:000ae1f0       ?_Unused_capacity@?$vector@UFPOINT@@V?$allocator@UFPOINT@@@std@@@std@@QBEIXZ 101361f0 f i tlib:performance.obj
 0002:000ae260       ?_Unused_capacity@?$vector@USEC@@V?$allocator@USEC@@@std@@@std@@QBEIXZ 10136260 f i tlib:performance.obj
 0002:000ae2d0       ?_Xlen@?$vector@UFPOINT@@V?$allocator@UFPOINT@@@std@@@std@@IBEXXZ 101362d0 f i tlib:performance.obj
 0002:000ae330       ?_Xlen@?$vector@USEC@@V?$allocator@USEC@@@std@@@std@@IBEXXZ 10136330 f i tlib:performance.obj
 0002:000ae390       ?allocate@?$_Wrap_alloc@V?$allocator@UFPOINT@@@std@@@std@@QAEPAUFPOINT@@I@Z 10136390 f i tlib:performance.obj
 0002:000ae3f0       ?allocate@?$_Wrap_alloc@V?$allocator@USEC@@@std@@@std@@QAEPAUSEC@@I@Z 101363f0 f i tlib:performance.obj
 0002:000ae450       ?allocate@?$allocator@UFPOINT@@@std@@QAEPAUFPOINT@@I@Z 10136450 f i tlib:performance.obj
 0002:000ae4b0       ?allocate@?$allocator@USEC@@@std@@QAEPAUSEC@@I@Z 101364b0 f i tlib:performance.obj
 0002:000ae510       ?begin@?$vector@UFPOINT@@V?$allocator@UFPOINT@@@std@@@std@@QBE?AV?$_Vector_const_iterator@V?$_Vector_val@U?$_Simple_types@UFPOINT@@@std@@@std@@@2@XZ 10136510 f i tlib:performance.obj
 0002:000ae5c0       ?capacity@?$vector@UFPOINT@@V?$allocator@UFPOINT@@@std@@@std@@QBEIXZ 101365c0 f i tlib:performance.obj
 0002:000ae630       ?capacity@?$vector@USEC@@V?$allocator@USEC@@@std@@@std@@QBEIXZ 10136630 f i tlib:performance.obj
 0002:000ae6a0       ?check_perf@Performance@@QAEHPBDAAK@Z 101366a0 f   tlib:performance.obj
 0002:000af250       ?deallocate@?$_Wrap_alloc@V?$allocator@UFPOINT@@@std@@@std@@QAEXPAUFPOINT@@I@Z 10137250 f i tlib:performance.obj
 0002:000af2b0       ?deallocate@?$_Wrap_alloc@V?$allocator@USEC@@@std@@@std@@QAEXPAUSEC@@I@Z 101372b0 f i tlib:performance.obj
 0002:000af310       ?deallocate@?$allocator@UFPOINT@@@std@@QAEXPAUFPOINT@@I@Z 10137310 f i tlib:performance.obj
 0002:000af370       ?deallocate@?$allocator@USEC@@@std@@QAEXPAUSEC@@I@Z 10137370 f i tlib:performance.obj
 0002:000af3d0       ?end@?$vector@UFPOINT@@V?$allocator@UFPOINT@@@std@@@std@@QBE?AV?$_Vector_const_iterator@V?$_Vector_val@U?$_Simple_types@UFPOINT@@@std@@@std@@@2@XZ 101373d0 f i tlib:performance.obj
 0002:000af480       ?finish@Performance@@UAEXXZ 10137480 f   tlib:performance.obj
 0002:000af4c0       ?getNextRecord@Performance@@UAEHXZ 101374c0 f   tlib:performance.obj
 0002:000af590       ?max_size@?$_Wrap_alloc@V?$allocator@UFPOINT@@@std@@@std@@QBEIU_Nil@2@@Z 10137590 f i tlib:performance.obj
 0002:000af5f0       ?max_size@?$_Wrap_alloc@V?$allocator@USEC@@@std@@@std@@QBEIU_Nil@2@@Z 101375f0 f i tlib:performance.obj
 0002:000af650       ?max_size@?$allocator@UFPOINT@@@std@@QBEIXZ 10137650 f i tlib:performance.obj
 0002:000af690       ?max_size@?$allocator@USEC@@@std@@QBEIXZ 10137690 f i tlib:performance.obj
 0002:000af6d0       ?max_size@?$allocator_traits@V?$allocator@UFPOINT@@@std@@@std@@SAIABV?$allocator@UFPOINT@@@2@@Z 101376d0 f i tlib:performance.obj
 0002:000af720       ?max_size@?$allocator_traits@V?$allocator@USEC@@@std@@@std@@SAIABV?$allocator@USEC@@@2@@Z 10137720 f i tlib:performance.obj
 0002:000af770       ?max_size@?$vector@UFPOINT@@V?$allocator@UFPOINT@@@std@@@std@@QBEIXZ 10137770 f i tlib:performance.obj
 0002:000af7e0       ?max_size@?$vector@USEC@@V?$allocator@USEC@@@std@@@std@@QBEIXZ 101377e0 f i tlib:performance.obj
 0002:000af850       ?push_back@?$vector@UFPOINT@@V?$allocator@UFPOINT@@@std@@@std@@QAEXABUFPOINT@@@Z 10137850 f i tlib:performance.obj
 0002:000afa40       ?push_back@?$vector@USEC@@V?$allocator@USEC@@@std@@@std@@QAEXABUSEC@@@Z 10137a40 f i tlib:performance.obj
 0002:000afc30       ?reset@Performance@@UAEXXZ 10137c30 f   tlib:performance.obj
 0002:000afd60       ?select_on_container_copy_construction@?$_Wrap_alloc@V?$allocator@UFPOINT@@@std@@@std@@QBE?AU12@U_Nil@2@@Z 10137d60 f i tlib:performance.obj
 0002:000afdd0       ?select_on_container_copy_construction@?$allocator_traits@V?$allocator@UFPOINT@@@std@@@std@@SA?AV?$allocator@UFPOINT@@@2@ABV32@@Z 10137dd0 f i tlib:performance.obj
 0002:000afe30       ?set_manual_mph@Performance@@UAEXM@Z 10137e30 f   tlib:performance.obj
 0002:000afec0       ?set_performance_file_name@Performance@@UAEXPBD@Z 10137ec0 f   tlib:performance.obj
 0002:000b02f0       ?size@?$vector@UFPOINT@@V?$allocator@UFPOINT@@@std@@@std@@QBEIXZ 101382f0 f i tlib:performance.obj
 0002:000b0360       ?size@?$vector@USEC@@V?$allocator@USEC@@@std@@@std@@QBEIXZ 10138360 f i tlib:performance.obj
 0002:000b03d0       ?start@Performance@@UAEXXZ 101383d0 f   tlib:performance.obj
 0002:000b0450       ??0Velotron@@QAE@PBDAAVRIDER_DATA@@PAVCourse@@PAVBike@@W4LoggingType@@@Z 10138450 f   tlib:velotron.obj
 0002:000b0610       ??1Velotron@@UAE@XZ        10138610 f   tlib:velotron.obj
 0002:000b06b0       ??_GHeartrate@@QAEPAXI@Z   101386b0 f i tlib:velotron.obj
 0002:000b0730       ??_EVelotron@@UAEPAXI@Z    10138730 f i tlib:velotron.obj
 0002:000b0730       ??_GVelotron@@UAEPAXI@Z    10138730 f i tlib:velotron.obj
 0002:000b08d0       ?destroy@Velotron@@AAEXXZ  101388d0 f   tlib:velotron.obj
 0002:000b0dc0       ?emergencyStop@Velotron@@UAEXH@Z 10138dc0 f   tlib:velotron.obj
 0002:000b0e10       ?end_cal@Velotron@@UAEXE@Z 10138e10 f   tlib:velotron.obj
 0002:000b0ea0       ?flush@Velotron@@UAEXXZ    10138ea0 f   tlib:velotron.obj
 0002:000b0f00       ?getConstantWatts@Velotron@@UAEMXZ 10138f00 f   tlib:velotron.obj
 0002:000b0f60       ?getDisplayedWatts@Velotron@@QAENXZ 10138f60 f   tlib:velotron.obj
 0002:000b0fc0       ?getGrade@Velotron@@UAENXZ 10138fc0 f i tlib:velotron.obj
 0002:000b1020       ?getNextRecord@Velotron@@UAEHXZ 10139020 f   tlib:velotron.obj
 0002:000b14c0       ?getPreviousRecord@Velotron@@UAEHK@Z 101394c0 f   tlib:velotron.obj
 0002:000b1530       ?getWatts@Velotron@@UAENXZ 10139530 f   tlib:velotron.obj
 0002:000b1590       ?get_accum_keys@Velotron@@UAEHXZ 10139590 f   tlib:velotron.obj
 0002:000b1610       ?get_accum_tdc@Velotron@@UAEHXZ 10139610 f   tlib:velotron.obj
 0002:000b1660       ?get_calibration@Velotron@@UAEHXZ 10139660 f i tlib:velotron.obj
 0002:000b16b0       ?get_front_index@Bike@@QAEHXZ 101396b0 f i tlib:velotron.obj
 0002:000b16f0       ?get_gear_indices@Velotron@@UAE?AUGEARPAIR@Bike@@XZ 101396f0 f   tlib:velotron.obj
 0002:000b1770       ?get_gear_pair@Velotron@@UAE?AUGEARPAIR@Bike@@XZ 10139770 f   tlib:velotron.obj
 0002:000b17f0       ?get_keys@Velotron@@UAEHXZ 101397f0 f   tlib:velotron.obj
 0002:000b18d0       ?get_physics_mode@Velotron@@UAE?AW4MODE@Physics@@XZ 101398d0 f i tlib:velotron.obj
 0002:000b1910       ?get_physics_x@Velotron@@UAEPAVPhysics@@XZ 10139910 f   tlib:velotron.obj
 0002:000b1950       ?get_rear_index@Bike@@QAEHXZ 10139950 f i tlib:velotron.obj
 0002:000b1990       ?gradeDown@Velotron@@UAEXXZ 10139990 f   tlib:velotron.obj
 0002:000b1a10       ?gradeUp@Velotron@@UAEXXZ  10139a10 f   tlib:velotron.obj
 0002:000b1a90       ?init@Velotron@@AAEXXZ     10139a90 f   tlib:velotron.obj
 0002:000b2590       ?kill_keys@Velotron@@QAEXXZ 1013a590 f   tlib:velotron.obj
 0002:000b2620       ?packetsAvailable@Velotron@@EAEHXZ 1013a620 f   tlib:velotron.obj
 0002:000b2970       ?pause@Velotron@@UAEXXZ    1013a970 f   tlib:velotron.obj
 0002:000b29e0       ?reset@Velotron@@UAEXXZ    1013a9e0 f   tlib:velotron.obj
 0002:000b2b60       ?resume@Velotron@@UAEXXZ   1013ab60 f   tlib:velotron.obj
 0002:000b2bd0       ?setConstantCurrent@Velotron@@UAEXM@Z 1013abd0 f   tlib:velotron.obj
 0002:000b2c40       ?setConstantForce@Velotron@@QAEXN@Z 1013ac40 f   tlib:velotron.obj
 0002:000b2cc0       ?setConstantWatts@Velotron@@UAEXM@Z 1013acc0 f   tlib:velotron.obj
 0002:000b2d80       ?setGrade@Velotron@@QAEXN@Z 1013ad80 f   tlib:velotron.obj
 0002:000b2de0       ?setPhysicsMode@Velotron@@QAEXW4MODE@Physics@@@Z 1013ade0 f   tlib:velotron.obj
 0002:000b2e40       ?setPicCurrent@Velotron@@AAEXG@Z 1013ae40 f   tlib:velotron.obj
 0002:000b2f60       ?setTimeout@Velotron@@UAEXK@Z 1013af60 f i tlib:velotron.obj
 0002:000b2fb0       ?set_constant_force@Velotron@@UAEHM@Z 1013afb0 f   tlib:velotron.obj
 0002:000b3020       ?set_draft_wind@Velotron@@UAEXM@Z 1013b020 f   tlib:velotron.obj
 0002:000b30a0       ?set_grade@Velotron@@UAEXM@Z 1013b0a0 f   tlib:velotron.obj
 0002:000b3130       ?set_hr_bounds@Velotron@@UAEXHH_N@Z 1013b130 f   tlib:velotron.obj
 0002:000b3270       ?set_start_miles@Velotron@@QAEXN@Z 1013b270 f   tlib:velotron.obj
 0002:000b32e0       ?set_wind@Velotron@@UAEXM@Z 1013b2e0 f   tlib:velotron.obj
 0002:000b3360       ?setkgs@Velotron@@UAEXM@Z  1013b360 f   tlib:velotron.obj
 0002:000b3420       ?setmiles@Velotron@@QAEXN@Z 1013b420 f   tlib:velotron.obj
 0002:000b34a0       ?start@Velotron@@UAEXXZ    1013b4a0 f   tlib:velotron.obj
 0002:000b3580       ?startCal@Velotron@@UAEXXZ 1013b580 f   tlib:velotron.obj
 0002:000b3690       ?start_cal@Velotron@@UAEEXZ 1013b690 f   tlib:velotron.obj
 0002:000b37b0       ?updateHardware@Velotron@@UAEH_N@Z 1013b7b0 f   tlib:velotron.obj
 0002:000b39f0       ??0NVRAM@@QAE@PAD@Z        1013b9f0 f   tlib:nvram.obj
 0002:000b3ac0       ??0NVRAM@@QAE@PAVSerial@@@Z 1013bac0 f   tlib:nvram.obj
 0002:000b3ba0       ??1NVRAM@@UAE@XZ           1013bba0 f   tlib:nvram.obj
 0002:000b3c30       ??_GNVRAM@@UAEPAXI@Z       1013bc30 f i tlib:nvram.obj
 0002:000b3c30       ??_ENVRAM@@UAEPAXI@Z       1013bc30 f i tlib:nvram.obj
 0002:000b3cb0       ?connect@NVRAM@@QAEXXZ     1013bcb0 f   tlib:nvram.obj
 0002:000b3e50       ?disconnect@NVRAM@@QAEXXZ  1013be50 f   tlib:nvram.obj
 0002:000b3f40       ?read@NVRAM@@QAEHXZ        1013bf40 f   tlib:nvram.obj
 0002:000b41e0       ?setFactoryCalibration@NVRAM@@QAEXK@Z 1013c1e0 f   tlib:nvram.obj
 0002:000b4230       ?write@NVRAM@@QAEHXZ       1013c230 f   tlib:nvram.obj
 0002:000b4490       ??$?0$$V@?$_Compressed_pair@U?$_Wrap_alloc@V?$allocator@U_INTERFACE_INFO@@@std@@@std@@V?$_Vector_val@U?$_Simple_types@U_INTERFACE_INFO@@@std@@@2@$00@std@@QAE@U_Zero_then_variadic_args_t@1@@Z 1013c490 f i tlib:client.obj
 0002:000b44f0       ??$?0AAU?$_Wrap_alloc@V?$allocator@U_INTERFACE_INFO@@@std@@@std@@@?$_Wrap_alloc@V?$allocator@U_Container_proxy@std@@@std@@@std@@QAE@AAU?$_Wrap_alloc@V?$allocator@U_INTERFACE_INFO@@@std@@@1@@Z 1013c4f0 f i tlib:client.obj
 0002:000b4560       ??$?0U_INTERFACE_INFO@@@?$allocator@U_Container_proxy@std@@@std@@QAE@ABV?$allocator@U_INTERFACE_INFO@@@1@@Z 1013c560 f i tlib:client.obj
 0002:000b45a0       ??$_Addressof@U_INTERFACE_INFO@@@std@@YAPAU_INTERFACE_INFO@@AAU1@U?$integral_constant@_N$0A@@0@@Z 1013c5a0 f i tlib:client.obj
 0002:000b45e0       ??$_Destroy_range@U?$_Wrap_alloc@V?$allocator@U_INTERFACE_INFO@@@std@@@std@@@std@@YAXPAU_INTERFACE_INFO@@0AAU?$_Wrap_alloc@V?$allocator@U_INTERFACE_INFO@@@std@@@0@@Z 1013c5e0 f i tlib:client.obj
 0002:000b4660       ??$addressof@U_INTERFACE_INFO@@@std@@YAPAU_INTERFACE_INFO@@AAU1@@Z 1013c660 f i tlib:client.obj
 0002:000b46c0       ??$destroy@U_INTERFACE_INFO@@@?$_Wrap_alloc@V?$allocator@U_INTERFACE_INFO@@@std@@@std@@QAEXPAU_INTERFACE_INFO@@@Z 1013c6c0 f i tlib:client.obj
 0002:000b4720       ??$destroy@U_INTERFACE_INFO@@@?$allocator@U_INTERFACE_INFO@@@std@@QAEXPAU_INTERFACE_INFO@@@Z 1013c720 f i tlib:client.obj
 0002:000b4760       ??$destroy@U_INTERFACE_INFO@@@?$allocator_traits@V?$allocator@U_INTERFACE_INFO@@@std@@@std@@SAXAAV?$allocator@U_INTERFACE_INFO@@@1@PAU_INTERFACE_INFO@@@Z 1013c760 f i tlib:client.obj
 0002:000b47b0       ??$forward@AAU?$_Wrap_alloc@V?$allocator@U_INTERFACE_INFO@@@std@@@std@@@std@@YAAAU?$_Wrap_alloc@V?$allocator@U_INTERFACE_INFO@@@std@@@0@AAU10@@Z 1013c7b0 f i tlib:client.obj
 0002:000b47f0       ??0?$_Vector_alloc@U?$_Vec_base_types@U_INTERFACE_INFO@@V?$allocator@U_INTERFACE_INFO@@@std@@@std@@@std@@QAE@XZ 1013c7f0 f i tlib:client.obj
 0002:000b48a0       ??0?$_Vector_val@U?$_Simple_types@U_INTERFACE_INFO@@@std@@@std@@QAE@XZ 1013c8a0 f i tlib:client.obj
 0002:000b4920       ??0?$_Wrap_alloc@V?$allocator@U_INTERFACE_INFO@@@std@@@std@@QAE@XZ 1013c920 f i tlib:client.obj
 0002:000b4980       ??0?$allocator@U_INTERFACE_INFO@@@std@@QAE@XZ 1013c980 f i tlib:client.obj
 0002:000b49c0       ??0?$vector@U_INTERFACE_INFO@@V?$allocator@U_INTERFACE_INFO@@@std@@@std@@QAE@XZ 1013c9c0 f i tlib:client.obj
 0002:000b4a50       ??0Client@@QAE@PBDHH@Z     1013ca50 f   tlib:client.obj
 0002:000b4c20       ??1?$_Compressed_pair@U?$_Wrap_alloc@V?$allocator@U_INTERFACE_INFO@@@std@@@std@@V?$_Vector_val@U?$_Simple_types@U_INTERFACE_INFO@@@std@@@2@$00@std@@QAE@XZ 1013cc20 f i tlib:client.obj
 0002:000b4c70       ??1?$_Vector_alloc@U?$_Vec_base_types@U_INTERFACE_INFO@@V?$allocator@U_INTERFACE_INFO@@@std@@@std@@@std@@QAE@XZ 1013cc70 f i tlib:client.obj
 0002:000b4d00       ??1?$_Vector_val@U?$_Simple_types@U_INTERFACE_INFO@@@std@@@std@@QAE@XZ 1013cd00 f i tlib:client.obj
 0002:000b4d50       ??1?$vector@U_INTERFACE_INFO@@V?$allocator@U_INTERFACE_INFO@@@std@@@std@@QAE@XZ 1013cd50 f i tlib:client.obj
 0002:000b4de0       ??1Client@@QAE@XZ          1013cde0 f   tlib:client.obj
 0002:000b4f90       ?_Alloc_proxy@?$_Vector_alloc@U?$_Vec_base_types@U_INTERFACE_INFO@@V?$allocator@U_INTERFACE_INFO@@@std@@@std@@@std@@QAEXXZ 1013cf90 f i tlib:client.obj
 0002:000b5090       ?_Destroy@?$vector@U_INTERFACE_INFO@@V?$allocator@U_INTERFACE_INFO@@@std@@@std@@IAEXPAU_INTERFACE_INFO@@0@Z 1013d090 f i tlib:client.obj
 0002:000b5100       ?_Free_proxy@?$_Vector_alloc@U?$_Vec_base_types@U_INTERFACE_INFO@@V?$allocator@U_INTERFACE_INFO@@@std@@@std@@@std@@QAEXXZ 1013d100 f i tlib:client.obj
 0002:000b51f0       ?_Get_data@?$_Vector_alloc@U?$_Vec_base_types@U_INTERFACE_INFO@@V?$allocator@U_INTERFACE_INFO@@@std@@@std@@@std@@QAEAAV?$_Vector_val@U?$_Simple_types@U_INTERFACE_INFO@@@std@@@2@XZ 1013d1f0 f i tlib:client.obj
 0002:000b5240       ?_Get_first@?$_Compressed_pair@U?$_Wrap_alloc@V?$allocator@U_INTERFACE_INFO@@@std@@@std@@V?$_Vector_val@U?$_Simple_types@U_INTERFACE_INFO@@@std@@@2@$00@std@@QAEAAU?$_Wrap_alloc@V?$allocator@U_INTERFACE_INFO@@@std@@@2@XZ 1013d240 f i tlib:client.obj
 0002:000b5280       ?_Get_second@?$_Compressed_pair@U?$_Wrap_alloc@V?$allocator@U_INTERFACE_INFO@@@std@@@std@@V?$_Vector_val@U?$_Simple_types@U_INTERFACE_INFO@@@std@@@2@$00@std@@QAEAAV?$_Vector_val@U?$_Simple_types@U_INTERFACE_INFO@@@std@@@2@XZ 1013d280 f i tlib:client.obj
 0002:000b52c0       ?_Getal@?$_Vector_alloc@U?$_Vec_base_types@U_INTERFACE_INFO@@V?$allocator@U_INTERFACE_INFO@@@std@@@std@@@std@@QAEAAU?$_Wrap_alloc@V?$allocator@U_INTERFACE_INFO@@@std@@@2@XZ 1013d2c0 f i tlib:client.obj
 0002:000b5310       ?_Myend@?$_Vector_alloc@U?$_Vec_base_types@U_INTERFACE_INFO@@V?$allocator@U_INTERFACE_INFO@@@std@@@std@@@std@@QAEAAPAU_INTERFACE_INFO@@XZ 1013d310 f i tlib:client.obj
 0002:000b5370       ?_Myfirst@?$_Vector_alloc@U?$_Vec_base_types@U_INTERFACE_INFO@@V?$allocator@U_INTERFACE_INFO@@@std@@@std@@@std@@QAEAAPAU_INTERFACE_INFO@@XZ 1013d370 f i tlib:client.obj
 0002:000b53d0       ?_Mylast@?$_Vector_alloc@U?$_Vec_base_types@U_INTERFACE_INFO@@V?$allocator@U_INTERFACE_INFO@@@std@@@std@@@std@@QAEAAPAU_INTERFACE_INFO@@XZ 1013d3d0 f i tlib:client.obj
 0002:000b5430       ?_Myproxy@?$_Vector_alloc@U?$_Vec_base_types@U_INTERFACE_INFO@@V?$allocator@U_INTERFACE_INFO@@@std@@@std@@@std@@QAEAAPAU_Container_proxy@2@XZ 1013d430 f i tlib:client.obj
 0002:000b5480       ?_Orphan_all@?$_Vector_alloc@U?$_Vec_base_types@U_INTERFACE_INFO@@V?$allocator@U_INTERFACE_INFO@@@std@@@std@@@std@@QAEXXZ 1013d480 f i tlib:client.obj
 0002:000b54e0       ?_Tidy@?$vector@U_INTERFACE_INFO@@V?$allocator@U_INTERFACE_INFO@@@std@@@std@@IAEXXZ 1013d4e0 f i tlib:client.obj
 0002:000b55f0       ?close@Client@@AAEHXZ      1013d5f0 f   tlib:client.obj
 0002:000b5cf0       ?deallocate@?$_Wrap_alloc@V?$allocator@U_INTERFACE_INFO@@@std@@@std@@QAEXPAU_INTERFACE_INFO@@I@Z 1013dcf0 f i tlib:client.obj
 0002:000b5d50       ?deallocate@?$allocator@U_INTERFACE_INFO@@@std@@QAEXPAU_INTERFACE_INFO@@I@Z 1013dd50 f i tlib:client.obj
 0002:000b5db0       ?destroy@Client@@AAEXXZ    1013ddb0 f   tlib:client.obj
 0002:000b5ea0       ?expect@Client@@QAEHPBDK@Z 1013dea0 f   tlib:client.obj
 0002:000b6780       ?flush@Client@@QAEXK@Z     1013e780 f   tlib:client.obj
 0002:000b6870       ?flush@Client@@QAEXXZ      1013e870 f   tlib:client.obj
 0002:000b68b0       ?flush_rawstream@Client@@QAEXXZ 1013e8b0 f   tlib:client.obj
 0002:000b68f0       ?init@Client@@AAEHXZ       1013e8f0 f   tlib:client.obj
 0002:000b7640       ?logg@Client@@AAAX_NPBDZZ  1013f640 f   tlib:client.obj
 0002:000b7860       ?mythread@Client@@CAXPAX@Z 1013f860 f   tlib:client.obj
 0002:000b8c60       ?rx@Client@@QAEHPADH@Z     10140c60 f   tlib:client.obj
 0002:000b8db0       ?snd@Client@@QAEHPBDH@Z    10140db0 f   tlib:client.obj
 0002:000b8e50       ?tx@Client@@QAEXE@Z        10140e50 f   tlib:client.obj
 0002:000b8ee0       ?txx@Client@@QAEXPAEH@Z    10140ee0 f   tlib:client.obj
 0002:000b8ff0       ??$?8UFPOINT@@U0@@std@@YA_NABV?$allocator@UFPOINT@@@0@0@Z 10140ff0 f i tlib:course.obj
 0002:000b9020       ??$?8V?$allocator@UFPOINT@@@std@@V01@@std@@YA_NABU?$_Wrap_alloc@V?$allocator@UFPOINT@@@std@@@0@0@Z 10141020 f i tlib:course.obj
 0002:000b9080       ??$?9V?$allocator@UFPOINT@@@std@@V01@@std@@YA_NABU?$_Wrap_alloc@V?$allocator@UFPOINT@@@std@@@0@0@Z 10141080 f i tlib:course.obj
 0002:000b9100       ??$_Copy_unchecked1@PAUFPOINT@@PAU1@@std@@YAPAUFPOINT@@PAU1@00U_Trivially_copyable_ptr_iterator_tag@0@@Z 10141100 f i tlib:course.obj
 0002:000b9160       ??$_Copy_unchecked@PAUFPOINT@@PAU1@@std@@YAPAUFPOINT@@PAU1@00@Z 10141160 f i tlib:course.obj
 0002:000b91e0       ??$_Pocca@U?$_Wrap_alloc@V?$allocator@UFPOINT@@@std@@@std@@@std@@YAXAAU?$_Wrap_alloc@V?$allocator@UFPOINT@@@std@@@0@ABU10@@Z 101411e0 f i tlib:course.obj
 0002:000b9270       ??$_Pocca@U?$_Wrap_alloc@V?$allocator@UFPOINT@@@std@@@std@@@std@@YAXAAU?$_Wrap_alloc@V?$allocator@UFPOINT@@@std@@@0@ABU10@U?$integral_constant@_N$0A@@0@@Z 10141270 f i tlib:course.obj
 0002:000b92a0       ??$_Ptr_copy_cat@UFPOINT@@U1@@std@@YA?AU_Really_trivial_ptr_iterator_tag@0@ABQAUFPOINT@@0@Z 101412a0 f i tlib:course.obj
 0002:000b92e0       ??$_Ucopy@PAUFPOINT@@@?$vector@UFPOINT@@V?$allocator@UFPOINT@@@std@@@std@@IAEPAUFPOINT@@PAU2@00@Z 101412e0 f i tlib:course.obj
 0002:000b9350       ??$_Uninitialized_copy@PAUFPOINT@@PAU1@U?$_Wrap_alloc@V?$allocator@UFPOINT@@@std@@@std@@@std@@YAPAUFPOINT@@PAU1@00AAU?$_Wrap_alloc@V?$allocator@UFPOINT@@@std@@@0@@Z 10141350 f i tlib:course.obj
 0002:000b93f0       ??$_Uninitialized_copy_al_unchecked1@UFPOINT@@U1@@std@@YAPAUFPOINT@@PAU1@00AAU?$_Wrap_alloc@V?$allocator@UFPOINT@@@std@@@0@U_Really_trivial_ptr_iterator_tag@0@@Z 101413f0 f i tlib:course.obj
 0002:000b9450       ??$_Uninitialized_copy_al_unchecked@PAUFPOINT@@PAU1@U?$_Wrap_alloc@V?$allocator@UFPOINT@@@std@@@std@@@std@@YAPAUFPOINT@@PAU1@00AAU?$_Wrap_alloc@V?$allocator@UFPOINT@@@std@@@0@@Z 10141450 f i tlib:course.obj
 0002:000b94d0       ??0Course@@QAE@PBD@Z       101414d0 f   tlib:course.obj
 0002:000b9620       ??0Course@@QAE@V?$vector@UFPOINT@@V?$allocator@UFPOINT@@@std@@@std@@PBD@Z 10141620 f   tlib:course.obj
 0002:000b9ca0       ??1Course@@UAE@XZ          10141ca0 f   tlib:course.obj
 0002:000b9d70       ??4?$vector@UFPOINT@@V?$allocator@UFPOINT@@@std@@@std@@QAEAAV01@ABV01@@Z 10141d70 f i tlib:course.obj
 0002:000ba0f0       ??A?$vector@UFPOINT@@V?$allocator@UFPOINT@@@std@@@std@@QAEAAUFPOINT@@I@Z 101420f0 f i tlib:course.obj
 0002:000ba210       ??_GCourse@@UAEPAXI@Z      10142210 f i tlib:course.obj
 0002:000ba210       ??_ECourse@@UAEPAXI@Z      10142210 f i tlib:course.obj
 0002:000ba290       ?_Copy_alloc@?$_Vector_alloc@U?$_Vec_base_types@UFPOINT@@V?$allocator@UFPOINT@@@std@@@std@@@std@@QAEXABU?$_Wrap_alloc@V?$allocator@UFPOINT@@@std@@@2@@Z 10142290 f i tlib:course.obj
 0002:000ba310       ?clear@?$vector@MV?$allocator@M@std@@@std@@QAEXXZ 10142310 f i tlib:course.obj
 0002:000ba3e0       ?clear@?$vector@UFPOINT@@V?$allocator@UFPOINT@@@std@@@std@@QAEXXZ 101423e0 f i tlib:course.obj
 0002:000ba4b0       ?compute_grades@Course@@AAEXXZ 101424b0 f   tlib:course.obj
 0002:000ba710       ?destroy@Course@@AAEXXZ    10142710 f   tlib:course.obj
 0002:000ba7e0       ?empty@?$vector@UFPOINT@@V?$allocator@UFPOINT@@@std@@@std@@QBE_NXZ 101427e0 f i tlib:course.obj
 0002:000ba870       ?get_total_meters@Course@@QAEMXZ 10142870 f   tlib:course.obj
 0002:000ba900       ?init@Course@@AAEXXZ       10142900 f   tlib:course.obj
 0002:000baa60       ?set_outer_rect@Course@@QAEXPAUFRECT@@@Z 10142a60 f   tlib:course.obj
 0002:000bab30       ?write@Course@@QAEXPBDPAU_iobuf@@@Z 10142b30 f   tlib:course.obj
 0002:000bad10       ??0computrainerDecoder@@QAE@PAVCourse@@AAVRIDER_DATA@@H@Z 10142d10 f   tlib:computrainer_decoder.obj
 0002:000bafb0       ??1computrainerDecoder@@UAE@XZ 10142fb0 f   tlib:computrainer_decoder.obj
 0002:000bb180       ??_EcomputrainerDecoder@@UAEPAXI@Z 10143180 f i tlib:computrainer_decoder.obj
 0002:000bb180       ??_GcomputrainerDecoder@@UAEPAXI@Z 10143180 f i tlib:computrainer_decoder.obj
 0002:000bb290       ?decode@computrainerDecoder@@UAEHPAEK@Z 10143290 f   tlib:computrainer_decoder.obj
 0002:000bc5d0       ?gradeDown@computrainerDecoder@@UAEXXZ 101445d0 f   tlib:computrainer_decoder.obj
 0002:000bc660       ?gradeUp@computrainerDecoder@@UAEXXZ 10144660 f   tlib:computrainer_decoder.obj
 0002:000bc6f0       ?integrate@computrainerDecoder@@UAEXXZ 101446f0 f   tlib:computrainer_decoder.obj
 0002:000bc950       ?peaks_and_averages@computrainerDecoder@@EAEXXZ 10144950 f   tlib:computrainer_decoder.obj
 0002:000bca80       ?reset@computrainerDecoder@@UAEXXZ 10144a80 f   tlib:computrainer_decoder.obj
 0002:000bcd00       ?runkeys@computrainerDecoder@@AAEXXZ 10144d00 f   tlib:computrainer_decoder.obj
 0002:000bd280       ?set_watts_factor@computrainerDecoder@@UAEXM@Z 10145280 f   tlib:computrainer_decoder.obj
 0002:000bd310       ?unpack@computrainerDecoder@@AAEMG@Z 10145310 f   tlib:computrainer_decoder.obj
 0002:000bd3f0       ??$?0$$V@?$_Compressed_pair@U?$_Wrap_alloc@V?$allocator@UGEARINFO@@@std@@@std@@V?$_Vector_val@U?$_Simple_types@UGEARINFO@@@std@@@2@$00@std@@QAE@U_Zero_then_variadic_args_t@1@@Z 101453f0 f i tlib:rtd.obj
 0002:000bd450       ??$?0AAU?$_Wrap_alloc@V?$allocator@UGEARINFO@@@std@@@std@@@?$_Wrap_alloc@V?$allocator@U_Container_proxy@std@@@std@@@std@@QAE@AAU?$_Wrap_alloc@V?$allocator@UGEARINFO@@@std@@@1@@Z 10145450 f i tlib:rtd.obj
 0002:000bd4c0       ??$?0UGEARINFO@@@?$allocator@U_Container_proxy@std@@@std@@QAE@ABV?$allocator@UGEARINFO@@@1@@Z 101454c0 f i tlib:rtd.obj
 0002:000bd500       ??$_Addressof@UGEARINFO@@@std@@YAPAUGEARINFO@@AAU1@U?$integral_constant@_N$0A@@0@@Z 10145500 f i tlib:rtd.obj
 0002:000bd540       ??$_Destroy_range@U?$_Wrap_alloc@V?$allocator@UGEARINFO@@@std@@@std@@@std@@YAXPAUGEARINFO@@0AAU?$_Wrap_alloc@V?$allocator@UGEARINFO@@@std@@@0@@Z 10145540 f i tlib:rtd.obj
 0002:000bd5c0       ??$addressof@UGEARINFO@@@std@@YAPAUGEARINFO@@AAU1@@Z 101455c0 f i tlib:rtd.obj
 0002:000bd620       ??$destroy@UGEARINFO@@@?$_Wrap_alloc@V?$allocator@UGEARINFO@@@std@@@std@@QAEXPAUGEARINFO@@@Z 10145620 f i tlib:rtd.obj
 0002:000bd680       ??$destroy@UGEARINFO@@@?$allocator@UGEARINFO@@@std@@QAEXPAUGEARINFO@@@Z 10145680 f i tlib:rtd.obj
 0002:000bd6c0       ??$destroy@UGEARINFO@@@?$allocator_traits@V?$allocator@UGEARINFO@@@std@@@std@@SAXAAV?$allocator@UGEARINFO@@@1@PAUGEARINFO@@@Z 101456c0 f i tlib:rtd.obj
 0002:000bd710       ??$forward@AAU?$_Wrap_alloc@V?$allocator@UGEARINFO@@@std@@@std@@@std@@YAAAU?$_Wrap_alloc@V?$allocator@UGEARINFO@@@std@@@0@AAU10@@Z 10145710 f i tlib:rtd.obj
 0002:000bd750       ??0?$_Vector_alloc@U?$_Vec_base_types@UGEARINFO@@V?$allocator@UGEARINFO@@@std@@@std@@@std@@QAE@XZ 10145750 f i tlib:rtd.obj
 0002:000bd800       ??0?$_Vector_val@U?$_Simple_types@UGEARINFO@@@std@@@std@@QAE@XZ 10145800 f i tlib:rtd.obj
 0002:000bd880       ??0?$_Wrap_alloc@V?$allocator@UGEARINFO@@@std@@@std@@QAE@XZ 10145880 f i tlib:rtd.obj
 0002:000bd8e0       ??0?$allocator@UGEARINFO@@@std@@QAE@XZ 101458e0 f i tlib:rtd.obj
 0002:000bd920       ??0?$vector@UGEARINFO@@V?$allocator@UGEARINFO@@@std@@@std@@QAE@XZ 10145920 f i tlib:rtd.obj
 0002:000bd9b0       ??0RTD@@QAE@HPAVCtsrv@RACERMATE@@AAVRIDER_DATA@@PAVCourse@@_NPAVBike@@W4LoggingType@@@Z 101459b0 f   tlib:rtd.obj
 0002:000be280       ??0RTD@@QAE@PAVClient@@AAVRIDER_DATA@@PAVCourse@@_NPAVBike@@W4LoggingType@@@Z 10146280 f   tlib:rtd.obj
 0002:000beb80       ??0RTD@@QAE@PAVSerial@@AAVRIDER_DATA@@PAVCourse@@_NPAVBike@@W4LoggingType@@@Z 10146b80 f   tlib:rtd.obj
 0002:000bf470       ??0RTD@@QAE@PBDHAAVRIDER_DATA@@PAVCourse@@PAVBike@@_NW4LoggingType@@0H@Z 10147470 f   tlib:rtd.obj
 0002:000c12f0       ??1?$_Compressed_pair@U?$_Wrap_alloc@V?$allocator@UGEARINFO@@@std@@@std@@V?$_Vector_val@U?$_Simple_types@UGEARINFO@@@std@@@2@$00@std@@QAE@XZ 101492f0 f i tlib:rtd.obj
 0002:000c1340       ??1?$_Vector_alloc@U?$_Vec_base_types@UGEARINFO@@V?$allocator@UGEARINFO@@@std@@@std@@@std@@QAE@XZ 10149340 f i tlib:rtd.obj
 0002:000c13d0       ??1?$_Vector_val@U?$_Simple_types@UGEARINFO@@@std@@@std@@QAE@XZ 101493d0 f i tlib:rtd.obj
 0002:000c1420       ??1?$vector@UGEARINFO@@V?$allocator@UGEARINFO@@@std@@@std@@QAE@XZ 10149420 f i tlib:rtd.obj
 0002:000c14b0       ??1RTD@@UAE@XZ             101494b0 f   tlib:rtd.obj
 0002:000c1590       ??A?$vector@UGEARINFO@@V?$allocator@UGEARINFO@@@std@@@std@@QAEAAUGEARINFO@@I@Z 10149590 f i tlib:rtd.obj
 0002:000c16b0       ??_GClient@@QAEPAXI@Z      101496b0 f i tlib:rtd.obj
 0002:000c1730       ??_GRTD@@UAEPAXI@Z         10149730 f i tlib:rtd.obj
 0002:000c1730       ??_ERTD@@UAEPAXI@Z         10149730 f i tlib:rtd.obj
 0002:000c17b0       ?_Alloc_proxy@?$_Vector_alloc@U?$_Vec_base_types@UGEARINFO@@V?$allocator@UGEARINFO@@@std@@@std@@@std@@QAEXXZ 101497b0 f i tlib:rtd.obj
 0002:000c1940       ?_Destroy@?$vector@UGEARINFO@@V?$allocator@UGEARINFO@@@std@@@std@@IAEXPAUGEARINFO@@0@Z 10149940 f i tlib:rtd.obj
 0002:000c19b0       ?_Free_proxy@?$_Vector_alloc@U?$_Vec_base_types@UGEARINFO@@V?$allocator@UGEARINFO@@@std@@@std@@@std@@QAEXXZ 101499b0 f i tlib:rtd.obj
 0002:000c1aa0       ?_Get_data@?$_Vector_alloc@U?$_Vec_base_types@UGEARINFO@@V?$allocator@UGEARINFO@@@std@@@std@@@std@@QAEAAV?$_Vector_val@U?$_Simple_types@UGEARINFO@@@std@@@2@XZ 10149aa0 f i tlib:rtd.obj
 0002:000c1af0       ?_Get_data@?$_Vector_alloc@U?$_Vec_base_types@UGEARINFO@@V?$allocator@UGEARINFO@@@std@@@std@@@std@@QBEABV?$_Vector_val@U?$_Simple_types@UGEARINFO@@@std@@@2@XZ 10149af0 f i tlib:rtd.obj
 0002:000c1b40       ?_Get_first@?$_Compressed_pair@U?$_Wrap_alloc@V?$allocator@UGEARINFO@@@std@@@std@@V?$_Vector_val@U?$_Simple_types@UGEARINFO@@@std@@@2@$00@std@@QAEAAU?$_Wrap_alloc@V?$allocator@UGEARINFO@@@std@@@2@XZ 10149b40 f i tlib:rtd.obj
 0002:000c1b80       ?_Get_second@?$_Compressed_pair@U?$_Wrap_alloc@V?$allocator@UGEARINFO@@@std@@@std@@V?$_Vector_val@U?$_Simple_types@UGEARINFO@@@std@@@2@$00@std@@QAEAAV?$_Vector_val@U?$_Simple_types@UGEARINFO@@@std@@@2@XZ 10149b80 f i tlib:rtd.obj
 0002:000c1bc0       ?_Get_second@?$_Compressed_pair@U?$_Wrap_alloc@V?$allocator@UGEARINFO@@@std@@@std@@V?$_Vector_val@U?$_Simple_types@UGEARINFO@@@std@@@2@$00@std@@QBEABV?$_Vector_val@U?$_Simple_types@UGEARINFO@@@std@@@2@XZ 10149bc0 f i tlib:rtd.obj
 0002:000c1c00       ?_Getal@?$_Vector_alloc@U?$_Vec_base_types@UGEARINFO@@V?$allocator@UGEARINFO@@@std@@@std@@@std@@QAEAAU?$_Wrap_alloc@V?$allocator@UGEARINFO@@@std@@@2@XZ 10149c00 f i tlib:rtd.obj
 0002:000c1c50       ?_Myend@?$_Vector_alloc@U?$_Vec_base_types@UGEARINFO@@V?$allocator@UGEARINFO@@@std@@@std@@@std@@QAEAAPAUGEARINFO@@XZ 10149c50 f i tlib:rtd.obj
 0002:000c1cb0       ?_Myfirst@?$_Vector_alloc@U?$_Vec_base_types@UGEARINFO@@V?$allocator@UGEARINFO@@@std@@@std@@@std@@QAEAAPAUGEARINFO@@XZ 10149cb0 f i tlib:rtd.obj
 0002:000c1d10       ?_Myfirst@?$_Vector_alloc@U?$_Vec_base_types@UGEARINFO@@V?$allocator@UGEARINFO@@@std@@@std@@@std@@QBEABQAUGEARINFO@@XZ 10149d10 f i tlib:rtd.obj
 0002:000c1d70       ?_Mylast@?$_Vector_alloc@U?$_Vec_base_types@UGEARINFO@@V?$allocator@UGEARINFO@@@std@@@std@@@std@@QAEAAPAUGEARINFO@@XZ 10149d70 f i tlib:rtd.obj
 0002:000c1dd0       ?_Mylast@?$_Vector_alloc@U?$_Vec_base_types@UGEARINFO@@V?$allocator@UGEARINFO@@@std@@@std@@@std@@QBEABQAUGEARINFO@@XZ 10149dd0 f i tlib:rtd.obj
 0002:000c1e30       ?_Myproxy@?$_Vector_alloc@U?$_Vec_base_types@UGEARINFO@@V?$allocator@UGEARINFO@@@std@@@std@@@std@@QAEAAPAU_Container_proxy@2@XZ 10149e30 f i tlib:rtd.obj
 0002:000c1e80       ?_Orphan_all@?$_Vector_alloc@U?$_Vec_base_types@UGEARINFO@@V?$allocator@UGEARINFO@@@std@@@std@@@std@@QAEXXZ 10149e80 f i tlib:rtd.obj
 0002:000c1ee0       ?_Tidy@?$vector@UGEARINFO@@V?$allocator@UGEARINFO@@@std@@@std@@IAEXXZ 10149ee0 f i tlib:rtd.obj
 0002:000c1fe0       ?add_course@RTD@@AAEHXZ    10149fe0 f   tlib:rtd.obj
 0002:000c2140       ?create_perf_file@RTD@@AAEXXZ 1014a140 f   tlib:rtd.obj
 0002:000c2460       ?deallocate@?$_Wrap_alloc@V?$allocator@UGEARINFO@@@std@@@std@@QAEXPAUGEARINFO@@I@Z 1014a460 f i tlib:rtd.obj
 0002:000c24c0       ?deallocate@?$allocator@UGEARINFO@@@std@@QAEXPAUGEARINFO@@I@Z 1014a4c0 f i tlib:rtd.obj
 0002:000c2520       ?destruct@RTD@@IAEXXZ      1014a520 f   tlib:rtd.obj
 0002:000c2830       ?getPortNumber@Client@@QAEHXZ 1014a830 f i tlib:rtd.obj
 0002:000c2870       ?getPortNumber@Serial@@QAEHXZ 1014a870 f i tlib:rtd.obj
 0002:000c28b0       ?get_name@Course@@QAEPBDXZ 1014a8b0 f i tlib:rtd.obj
 0002:000c28f0       ?get_perf_file_name@RTD@@UAEPBDXZ 1014a8f0 f   tlib:rtd.obj
 0002:000c2930       ?make_section_code@RTD@@AAEKPBD@Z 1014a930 f   tlib:rtd.obj
 0002:000c29e0       ?pause@RTD@@UAEXXZ         1014a9e0 f i tlib:rtd.obj
 0002:000c2a20       ?reset@RTD@@MAEXXZ         1014aa20 f   tlib:rtd.obj
 0002:000c2b30       ?resetOutputFile@RTD@@IAEXXZ 1014ab30 f   tlib:rtd.obj
 0002:000c2f70       ?setShutDownDelay@RTD@@UAEXK@Z 1014af70 f   tlib:rtd.obj
 0002:000c2fe0       ?set_circumference@RTD@@QAEXM@Z 1014afe0 f   tlib:rtd.obj
 0002:000c3040       ?size@?$vector@UGEARINFO@@V?$allocator@UGEARINFO@@@std@@@std@@QBEIXZ 1014b040 f i tlib:rtd.obj
 0002:000c30b0       ?write_encrypted_section@RTD@@IAEXPAE@Z 1014b0b0 f   tlib:rtd.obj
 0002:000c3290       ?write_float_section@RTD@@IAEXPBDM@Z 1014b290 f   tlib:rtd.obj
 0002:000c33d0       ?write_floats_section@RTD@@IAEXPBDAAV?$vector@MV?$allocator@M@std@@@std@@@Z 1014b3d0 f   tlib:rtd.obj
 0002:000c3590       ?write_gear_section@RTD@@IAEXXZ 1014b590 f   tlib:rtd.obj
 0002:000c37b0       ?write_long_section@RTD@@IAEXPBDJ@Z 1014b7b0 f   tlib:rtd.obj
 0002:000c38f0       ?write_string_section@RTD@@IAEXPBD0@Z 1014b8f0 f   tlib:rtd.obj
 0002:000c3a90       ??0simDecoder@@QAE@PAVCourse@@AAVRIDER_DATA@@@Z 1014ba90 f   tlib:simdecoder.obj
 0002:000c4040       ??1simDecoder@@UAE@XZ      1014c040 f   tlib:simdecoder.obj
 0002:000c42d0       ??_EsimDecoder@@UAEPAXI@Z  1014c2d0 f i tlib:simdecoder.obj
 0002:000c42d0       ??_GsimDecoder@@UAEPAXI@Z  1014c2d0 f i tlib:simdecoder.obj
 0002:000c43e0       ?dec_speed@simDecoder@@UAEXXZ 1014c3e0 f   tlib:simdecoder.obj
 0002:000c4440       ?decode@simDecoder@@UAEHPAEK@Z 1014c440 f   tlib:simdecoder.obj
 0002:000c4c70       ?get_grade@Course@@QAEMMPAH@Z 1014cc70 f i tlib:simdecoder.obj
 0002:000c4cb0       ?inc_speed@simDecoder@@UAEXXZ 1014ccb0 f   tlib:simdecoder.obj
 0002:000c4d10       ?integrate@simDecoder@@EAEXXZ 1014cd10 f   tlib:simdecoder.obj
 0002:000c5410       ?reset@simDecoder@@UAEXXZ  1014d410 f   tlib:simdecoder.obj
 0002:000c5560       ?set_manual_mph@simDecoder@@UAEXM@Z 1014d560 f   tlib:simdecoder.obj
 0002:000c55c0       ?set_speeds2@simDecoder@@SAXQANQAHH@Z 1014d5c0 f   tlib:simdecoder.obj
 0002:000c5670       ?set_speeds@simDecoder@@SAXQAN@Z 1014d670 f   tlib:simdecoder.obj
 0002:000c56e0       ??0performanceDecoder@@QAE@PAVCourse@@AAVRIDER_DATA@@@Z 1014d6e0 f   tlib:performance_decoder.obj
 0002:000c5bd0       ??1performanceDecoder@@UAE@XZ 1014dbd0 f   tlib:performance_decoder.obj
 0002:000c5e50       ??_GperformanceDecoder@@UAEPAXI@Z 1014de50 f i tlib:performance_decoder.obj
 0002:000c5e50       ??_EperformanceDecoder@@UAEPAXI@Z 1014de50 f i tlib:performance_decoder.obj
 0002:000c5f60       ?decode@performanceDecoder@@UAEHPAEK@Z 1014df60 f   tlib:performance_decoder.obj
 0002:000c6790       ?integrate@performanceDecoder@@EAEXXZ 1014e790 f   tlib:performance_decoder.obj
 0002:000c6e90       ?reset@performanceDecoder@@UAEXXZ 1014ee90 f   tlib:performance_decoder.obj
 0002:000c6fd0       ??$?0$$V@?$_Compressed_pair@U?$_Wrap_alloc@V?$allocator@N@std@@@std@@V?$_Deque_val@U?$_Deque_simple_types@N@std@@@2@$00@std@@QAE@U_Zero_then_variadic_args_t@1@@Z 1014efd0 f i tlib:heartrate.obj
 0002:000c7030       ??$?0AAV?$_Deque_unchecked_iterator@V?$_Deque_val@U?$_Deque_simple_types@N@std@@@std@@@std@@AAV01@X$0A@@?$pair@V?$_Deque_unchecked_iterator@V?$_Deque_val@U?$_Deque_simple_types@N@std@@@std@@@std@@V12@@std@@QAE@AAV?$_Deque_unchecked_iterator@V?$_Deque_val@U?$_Deque_simple_types@N@std@@@std@@@1@0@Z 1014f030 f i tlib:heartrate.obj
 0002:000c70c0       ??$?RAANAAN@?$less@X@std@@QBE_NAAN0@Z 1014f0c0 f i tlib:heartrate.obj
 0002:000c7130       ??$_Adjust_heap@V?$_Deque_unchecked_iterator@V?$_Deque_val@U?$_Deque_simple_types@N@std@@@std@@@std@@HNU?$less@X@2@@std@@YAXV?$_Deque_unchecked_iterator@V?$_Deque_val@U?$_Deque_simple_types@N@std@@@std@@@0@HH$$QANU?$less@X@0@@Z 1014f130 f i tlib:heartrate.obj
 0002:000c7330       ??$_Debug_heap@V?$_Deque_unchecked_iterator@V?$_Deque_val@U?$_Deque_simple_types@N@std@@@std@@@std@@U?$less@X@2@@std@@YAXV?$_Deque_unchecked_iterator@V?$_Deque_val@U?$_Deque_simple_types@N@std@@@std@@@0@0U?$less@X@0@@Z 1014f330 f i tlib:heartrate.obj
 0002:000c7500       ??$_Debug_lt_pred@U?$less@X@std@@AANAAN@std@@YA_NU?$less@X@0@AAN1PB_WI@Z 1014f500 f i tlib:heartrate.obj
 0002:000c75e0       ??$_Debug_pointer@U?$less@X@std@@@std@@YAXAAU?$less@X@0@PB_WI@Z 1014f5e0 f i tlib:heartrate.obj
 0002:000c7610       ??$_Debug_pointer_if@U?$less@X@std@@@std@@YAX_NAAU?$less@X@0@PB_WI@Z 1014f610 f i tlib:heartrate.obj
 0002:000c7640       ??$_Dist_type@V?$_Deque_unchecked_iterator@V?$_Deque_val@U?$_Deque_simple_types@N@std@@@std@@@std@@@std@@YAPAHV?$_Deque_unchecked_iterator@V?$_Deque_val@U?$_Deque_simple_types@N@std@@@std@@@0@@Z 1014f640 f i tlib:heartrate.obj
 0002:000c7670       ??$_Insertion_sort1@V?$_Deque_unchecked_iterator@V?$_Deque_val@U?$_Deque_simple_types@N@std@@@std@@@std@@U?$less@X@2@N@std@@YAXV?$_Deque_unchecked_iterator@V?$_Deque_val@U?$_Deque_simple_types@N@std@@@std@@@0@0U?$less@X@0@PAN@Z 1014f670 f i tlib:heartrate.obj
 0002:000c7910       ??$_Insertion_sort@V?$_Deque_unchecked_iterator@V?$_Deque_val@U?$_Deque_simple_types@N@std@@@std@@@std@@U?$less@X@2@@std@@YAXV?$_Deque_unchecked_iterator@V?$_Deque_val@U?$_Deque_simple_types@N@std@@@std@@@0@0U?$less@X@0@@Z 1014f910 f i tlib:heartrate.obj
 0002:000c7990       ??$_Make_heap@V?$_Deque_unchecked_iterator@V?$_Deque_val@U?$_Deque_simple_types@N@std@@@std@@@std@@HNU?$less@X@2@@std@@YAXV?$_Deque_unchecked_iterator@V?$_Deque_val@U?$_Deque_simple_types@N@std@@@std@@@0@0U?$less@X@0@PAHPAN@Z 1014f990 f i tlib:heartrate.obj
 0002:000c7ab0       ??$_Med3@V?$_Deque_unchecked_iterator@V?$_Deque_val@U?$_Deque_simple_types@N@std@@@std@@@std@@U?$less@X@2@@std@@YAXV?$_Deque_unchecked_iterator@V?$_Deque_val@U?$_Deque_simple_types@N@std@@@std@@@0@00U?$less@X@0@@Z 1014fab0 f i tlib:heartrate.obj
 0002:000c7c00       ??$_Median@V?$_Deque_unchecked_iterator@V?$_Deque_val@U?$_Deque_simple_types@N@std@@@std@@@std@@U?$less@X@2@@std@@YAXV?$_Deque_unchecked_iterator@V?$_Deque_val@U?$_Deque_simple_types@N@std@@@std@@@0@00U?$less@X@0@@Z 1014fc00 f i tlib:heartrate.obj
 0002:000c7e20       ??$_Pop_heap@V?$_Deque_unchecked_iterator@V?$_Deque_val@U?$_Deque_simple_types@N@std@@@std@@@std@@HNU?$less@X@2@@std@@YAXV?$_Deque_unchecked_iterator@V?$_Deque_val@U?$_Deque_simple_types@N@std@@@std@@@0@00$$QANU?$less@X@0@PAH@Z 1014fe20 f i tlib:heartrate.obj
 0002:000c7ed0       ??$_Pop_heap@V?$_Deque_unchecked_iterator@V?$_Deque_val@U?$_Deque_simple_types@N@std@@@std@@@std@@U?$less@X@2@@std@@YAXV?$_Deque_unchecked_iterator@V?$_Deque_val@U?$_Deque_simple_types@N@std@@@std@@@0@0U?$less@X@0@@Z 1014fed0 f i tlib:heartrate.obj
 0002:000c7f80       ??$_Pop_heap_0@V?$_Deque_unchecked_iterator@V?$_Deque_val@U?$_Deque_simple_types@N@std@@@std@@@std@@NU?$less@X@2@@std@@YAXV?$_Deque_unchecked_iterator@V?$_Deque_val@U?$_Deque_simple_types@N@std@@@std@@@0@0U?$less@X@0@PAN@Z 1014ff80 f i tlib:heartrate.obj
 0002:000c80b0       ??$_Push_heap@V?$_Deque_unchecked_iterator@V?$_Deque_val@U?$_Deque_simple_types@N@std@@@std@@@std@@HNU?$less@X@2@@std@@YAXV?$_Deque_unchecked_iterator@V?$_Deque_val@U?$_Deque_simple_types@N@std@@@std@@@0@HH$$QANU?$less@X@0@@Z 101500b0 f i tlib:heartrate.obj
 0002:000c8220       ??$_Sort@V?$_Deque_unchecked_iterator@V?$_Deque_val@U?$_Deque_simple_types@N@std@@@std@@@std@@HU?$less@X@2@@std@@YAXV?$_Deque_unchecked_iterator@V?$_Deque_val@U?$_Deque_simple_types@N@std@@@std@@@0@0HU?$less@X@0@@Z 10150220 f i tlib:heartrate.obj
