 racermate

 Timestamp is 59c30668 (Wed Sep 20 17:23:04 2017)

 Preferred load address is 10000000

 Start         Length     Name                   Class
 0001:00000000 0008b9c5H .textbss                DATA
 0002:00000000 0000d440H .text$di                CODE
 0002:0000d440 0010e150H .text$mn                CODE
 0002:0011b590 0000cb70H .text$x                 CODE
 0002:00128100 0000132fH .text$yd                CODE
 0003:00000000 00000104H .CRT$XCA                DATA
 0003:00000104 00000158H .CRT$XCU                DATA
 0003:0000025c 00000104H .CRT$XCZ                DATA
 0003:00000360 00000104H .CRT$XIA                DATA
 0003:00000464 00000104H .CRT$XIC                DATA
 0003:00000568 00000104H .CRT$XIZ                DATA
 0003:0000066c 00000004H .CRT$XLA                DATA
 0003:00000670 00000004H .CRT$XLZ                DATA
 0003:00000674 00000104H .CRT$XPA                DATA
 0003:00000778 00000104H .CRT$XPZ                DATA
 0003:0000087c 00000104H .CRT$XTA                DATA
 0003:00000980 00000110H .CRT$XTZ                DATA
 0003:00000a90 00025f6cH .rdata                  DATA
 0003:000269fc 0000011cH .rdata$T                DATA
 0003:00026b18 000012d4H .rdata$r                DATA
 0003:00027dec 00000164H .rdata$zzzdbg           DATA
 0003:00027f50 00000104H .rtc$IAA                DATA
 0003:00028054 000001bcH .rtc$IMZ                DATA
 0003:00028210 00000104H .rtc$IZZ                DATA
 0003:00028314 00000104H .rtc$TAA                DATA
 0003:00028418 000001bcH .rtc$TMZ                DATA
 0003:000285d4 00000104H .rtc$TZZ                DATA
 0003:000286d8 0000bcf8H .xdata$x                DATA
 0003:000343d0 000046a4H .edata                  DATA
 0004:00000000 0000afa0H .data                   DATA
 0004:0000afa0 00000780H .data$r                 DATA
 0004:0000b720 00006e44H .bss                    DATA
 0005:00000000 00000cc0H .idata$5                DATA
 0005:00000cc0 00000140H .idata$2                DATA
 0005:00000e00 00000014H .idata$3                DATA
 0005:00000e14 00000cc0H .idata$4                DATA
 0005:00001ad4 00003ed2H .idata$6                DATA
 0006:00000000 0000017cH .gfids$y                DATA
 0007:00000000 00000104H .tls                    DATA
 0007:00000104 00000104H .tls$                   DATA
 0007:00000208 00000101H .tls$ZZZ                DATA
 0008:00000000 00000104H .00cfg                  DATA
 0009:00000000 00000170H .rsrc$01                DATA
 0009:00000170 000002ccH .rsrc$02                DATA

  Address         Publics by Value              Rva+Base       Lib:Object

 0000:00000000       ___guard_iat_table         00000000     <absolute>
 0000:00000000       ___guard_fids_count        00000000     <absolute>
 0000:00000000       ___guard_longjmp_count     00000000     <absolute>
 0000:00000000       ___guard_fids_table        00000000     <absolute>
 0000:00000000       ___safe_se_handler_count   00000000     <absolute>
 0000:00000000       ___guard_longjmp_table     00000000     <absolute>
 0000:00000000       ___guard_iat_count         00000000     <absolute>
 0000:00000000       ___dynamic_value_reloc_table 00000000     <absolute>
 0000:00000000       ___safe_se_handler_table   00000000     <absolute>
 0000:0000002c       __tls_array                0000002c     <absolute>
 0000:00000100       ___guard_flags             00000100     <absolute>
 0000:00000000       ___ImageBase               10000000     <linker-defined>
 0001:00000000       __enc$textbss$begin        10001000     <linker-defined>
 0001:0008b9c5       __enc$textbss$end          1008c9c5     <linker-defined>
 0002:0000d440       ??$?0$$QAV?$basic_string@DU?$char_traits@D@std@@V?$allocator@D@2@@std@@$$Z$$V@?$pair@$$CBV?$basic_string@DU?$char_traits@D@std@@V?$allocator@D@2@@std@@G@std@@QAE@Upiecewise_construct_t@1@V?$tuple@$$QAV?$basic_string@DU?$char_traits@D@std@@V?$allocator@D@2@@std@@@1@V?$tuple@$$V@1@@Z 1009a440 f i dll.obj
 0002:0000d4c0       ??$?0$$QAV?$basic_string@DU?$char_traits@D@std@@V?$allocator@D@2@@std@@$$Z$$V@?$pair@$$CBV?$basic_string@DU?$char_traits@D@std@@V?$allocator@D@2@@std@@VDEVICE@@@std@@QAE@Upiecewise_construct_t@1@V?$tuple@$$QAV?$basic_string@DU?$char_traits@D@std@@V?$allocator@D@2@@std@@@1@V?$tuple@$$V@1@@Z 1009a4c0 f i dll.obj
 0002:0000d540       ??$?0$$V@?$_Compressed_pair@U?$_Wrap_alloc@V?$allocator@D@std@@@std@@V?$_String_val@U?$_Simple_types@D@std@@@2@$00@std@@QAE@U_Zero_then_variadic_args_t@1@@Z 1009a540 f i dll.obj
 0002:0000d5a0       ??$?0AAU?$_Wrap_alloc@V?$allocator@D@std@@@std@@@?$_Wrap_alloc@V?$allocator@U_Container_proxy@std@@@std@@@std@@QAE@AAU?$_Wrap_alloc@V?$allocator@D@std@@@1@@Z 1009a5a0 f i dll.obj
 0002:0000d610       ??$?0AAU?$_Wrap_alloc@V?$allocator@UFORMULA2_PAIR@@@std@@@std@@@?$_Wrap_alloc@V?$allocator@PAUFORMULA2_PAIR@@@std@@@std@@QAE@AAU?$_Wrap_alloc@V?$allocator@UFORMULA2_PAIR@@@std@@@1@@Z 1009a610 f i dll.obj
 0002:0000d680       ??$?0AAU?$_Wrap_alloc@V?$allocator@UFORMULA2_PAIR@@@std@@@std@@@?$_Wrap_alloc@V?$allocator@U_Container_proxy@std@@@std@@@std@@QAE@AAU?$_Wrap_alloc@V?$allocator@UFORMULA2_PAIR@@@std@@@1@@Z 1009a680 f i dll.obj
 0002:0000d6f0       ??$?0AAU?$_Wrap_alloc@V?$allocator@UFORMULA_PAIR@@@std@@@std@@@?$_Wrap_alloc@V?$allocator@PAUFORMULA_PAIR@@@std@@@std@@QAE@AAU?$_Wrap_alloc@V?$allocator@UFORMULA_PAIR@@@std@@@1@@Z 1009a6f0 f i dll.obj
 0002:0000d760       ??$?0AAU?$_Wrap_alloc@V?$allocator@UFORMULA_PAIR@@@std@@@std@@@?$_Wrap_alloc@V?$allocator@U_Container_proxy@std@@@std@@@std@@QAE@AAU?$_Wrap_alloc@V?$allocator@UFORMULA_PAIR@@@std@@@1@@Z 1009a760 f i dll.obj
 0002:0000d7d0       ??$?0AAV?$_List_iterator@V?$_List_val@U?$_List_simple_types@U?$pair@$$CBV?$basic_string@DU?$char_traits@D@std@@V?$allocator@D@2@@std@@G@std@@@std@@@std@@@std@@_NX$0A@@?$pair@V?$_List_iterator@V?$_List_val@U?$_List_simple_types@U?$pair@$$CBV?$basic_string@DU?$char_traits@D@std@@V?$allocator@D@2@@std@@G@std@@@std@@@std@@@std@@_N@std@@QAE@AAV?$_List_iterator@V?$_List_val@U?$_List_simple_types@U?$pair@$$CBV?$basic_string@DU?$char_traits@D@std@@V?$allocator@D@2@@std@@G@std@@@std@@@std@@@1@$$QA_N@Z 1009a7d0 f i dll.obj
 0002:0000d850       ??$?0AAV?$_List_iterator@V?$_List_val@U?$_List_simple_types@U?$pair@$$CBV?$basic_string@DU?$char_traits@D@std@@V?$allocator@D@2@@std@@VDEVICE@@@std@@@std@@@std@@@std@@_NX$0A@@?$pair@V?$_List_iterator@V?$_List_val@U?$_List_simple_types@U?$pair@$$CBV?$basic_string@DU?$char_traits@D@std@@V?$allocator@D@2@@std@@VDEVICE@@@std@@@std@@@std@@@std@@_N@std@@QAE@AAV?$_List_iterator@V?$_List_val@U?$_List_simple_types@U?$pair@$$CBV?$basic_string@DU?$char_traits@D@std@@V?$allocator@D@2@@std@@VDEVICE@@@std@@@std@@@std@@@1@$$QA_N@Z 1009a850 f i dll.obj
 0002:0000d8d0       ??$?0D@?$allocator@U_Container_proxy@std@@@std@@QAE@ABV?$allocator@D@1@@Z 1009a8d0 f i dll.obj
 0002:0000d910       ??$?0U?$_Wrap_alloc@V?$allocator@D@std@@@std@@$$V@?$_Compressed_pair@U?$_Wrap_alloc@V?$allocator@D@std@@@std@@V?$_String_val@U?$_Simple_types@D@std@@@2@$00@std@@QAE@U_One_then_variadic_args_t@1@$$QAU?$_Wrap_alloc@V?$allocator@D@std@@@1@@Z 1009a910 f i dll.obj
 0002:0000d980       ??$?0U?$_Wrap_alloc@V?$allocator@D@std@@@std@@X@?$_String_alloc@U?$_String_base_types@DV?$allocator@D@std@@@std@@@std@@QAE@$$QAU?$_Wrap_alloc@V?$allocator@D@std@@@1@@Z 1009a980 f i dll.obj
 0002:0000da40       ??$?0U?$_Wrap_alloc@V?$allocator@UFORMULA2_PAIR@@@std@@@std@@$$V@?$_Compressed_pair@U?$_Wrap_alloc@V?$allocator@UFORMULA2_PAIR@@@std@@@std@@V?$_Deque_val@U?$_Deque_simple_types@UFORMULA2_PAIR@@@std@@@2@$00@std@@QAE@U_One_then_variadic_args_t@1@$$QAU?$_Wrap_alloc@V?$allocator@UFORMULA2_PAIR@@@std@@@1@@Z 1009aa40 f i dll.obj
 0002:0000dab0       ??$?0U?$_Wrap_alloc@V?$allocator@UFORMULA2_PAIR@@@std@@@std@@X@?$_Deque_alloc@U?$_Deque_base_types@UFORMULA2_PAIR@@V?$allocator@UFORMULA2_PAIR@@@std@@@std@@@std@@QAE@$$QAU?$_Wrap_alloc@V?$allocator@UFORMULA2_PAIR@@@std@@@1@@Z 1009aab0 f i dll.obj
 0002:0000db70       ??$?0U?$_Wrap_alloc@V?$allocator@UFORMULA_PAIR@@@std@@@std@@$$V@?$_Compressed_pair@U?$_Wrap_alloc@V?$allocator@UFORMULA_PAIR@@@std@@@std@@V?$_Deque_val@U?$_Deque_simple_types@UFORMULA_PAIR@@@std@@@2@$00@std@@QAE@U_One_then_variadic_args_t@1@$$QAU?$_Wrap_alloc@V?$allocator@UFORMULA_PAIR@@@std@@@1@@Z 1009ab70 f i dll.obj
 0002:0000dbe0       ??$?0U?$_Wrap_alloc@V?$allocator@UFORMULA_PAIR@@@std@@@std@@X@?$_Deque_alloc@U?$_Deque_base_types@UFORMULA_PAIR@@V?$allocator@UFORMULA_PAIR@@@std@@@std@@@std@@QAE@$$QAU?$_Wrap_alloc@V?$allocator@UFORMULA_PAIR@@@std@@@1@@Z 1009abe0 f i dll.obj
 0002:0000dca0       ??$?0U?$integral_constant@_N$0A@@std@@@_Any_tag@std@@QAE@$$QAU?$integral_constant@_N$0A@@1@@Z 1009aca0 f i dll.obj
 0002:0000dce0       ??$?0UFORMULA2_PAIR@@@?$allocator@PAUFORMULA2_PAIR@@@std@@QAE@ABV?$allocator@UFORMULA2_PAIR@@@1@@Z 1009ace0 f i dll.obj
 0002:0000dd20       ??$?0UFORMULA2_PAIR@@@?$allocator@U_Container_proxy@std@@@std@@QAE@ABV?$allocator@UFORMULA2_PAIR@@@1@@Z 1009ad20 f i dll.obj
 0002:0000dd60       ??$?0UFORMULA_PAIR@@@?$allocator@PAUFORMULA_PAIR@@@std@@QAE@ABV?$allocator@UFORMULA_PAIR@@@1@@Z 1009ad60 f i dll.obj
 0002:0000dda0       ??$?0UFORMULA_PAIR@@@?$allocator@U_Container_proxy@std@@@std@@QAE@ABV?$allocator@UFORMULA_PAIR@@@1@@Z 1009ada0 f i dll.obj
 0002:0000dde0       ??$?0U_Exact_args_t@std@@$0A@@?$tuple@$$V@std@@QAE@U_Exact_args_t@1@@Z 1009ade0 f i dll.obj
 0002:0000de20       ??$?0V?$_List_iterator@V?$_List_val@U?$_List_simple_types@U?$pair@$$CBV?$basic_string@DU?$char_traits@D@std@@V?$allocator@D@2@@std@@G@std@@@std@@@std@@@std@@V01@X$0A@@?$pair@V?$_List_iterator@V?$_List_val@U?$_List_simple_types@U?$pair@$$CBV?$basic_string@DU?$char_traits@D@std@@V?$allocator@D@2@@std@@G@std@@@std@@@std@@@std@@V12@@std@@QAE@$$QAV?$_List_iterator@V?$_List_val@U?$_List_simple_types@U?$pair@$$CBV?$basic_string@DU?$char_traits@D@std@@V?$allocator@D@2@@std@@G@std@@@std@@@std@@@1@0@Z 1009ae20 f i dll.obj
 0002:0000def0       ??$?0V?$_List_iterator@V?$_List_val@U?$_List_simple_types@U?$pair@$$CBV?$basic_string@DU?$char_traits@D@std@@V?$allocator@D@2@@std@@G@std@@@std@@@std@@@std@@_NX$0A@@?$pair@V?$_List_iterator@V?$_List_val@U?$_List_simple_types@U?$pair@$$CBV?$basic_string@DU?$char_traits@D@std@@V?$allocator@D@2@@std@@G@std@@@std@@@std@@@std@@_N@std@@QAE@$$QAV?$_List_iterator@V?$_List_val@U?$_List_simple_types@U?$pair@$$CBV?$basic_string@DU?$char_traits@D@std@@V?$allocator@D@2@@std@@G@std@@@std@@@std@@@1@$$QA_N@Z 1009aef0 f i dll.obj
 0002:0000df70       ??$?0V?$_List_iterator@V?$_List_val@U?$_List_simple_types@U?$pair@$$CBV?$basic_string@DU?$char_traits@D@std@@V?$allocator@D@2@@std@@VDEVICE@@@std@@@std@@@std@@@std@@_NX$0A@@?$pair@V?$_List_iterator@V?$_List_val@U?$_List_simple_types@U?$pair@$$CBV?$basic_string@DU?$char_traits@D@std@@V?$allocator@D@2@@std@@VDEVICE@@@std@@@std@@@std@@@std@@_N@std@@QAE@$$QAV?$_List_iterator@V?$_List_val@U?$_List_simple_types@U?$pair@$$CBV?$basic_string@DU?$char_traits@D@std@@V?$allocator@D@2@@std@@VDEVICE@@@std@@@std@@@std@@@1@$$QA_N@Z 1009af70 f i dll.obj
 0002:0000dff0       ??$?0V?$allocator@UFORMULA2_PAIR@@@std@@@?$_Wrap_alloc@V?$allocator@UFORMULA2_PAIR@@@std@@@std@@QAE@$$QAV?$allocator@UFORMULA2_PAIR@@@1@@Z 1009aff0 f i dll.obj
 0002:0000e060       ??$?0V?$allocator@UFORMULA_PAIR@@@std@@@?$_Wrap_alloc@V?$allocator@UFORMULA_PAIR@@@std@@@std@@QAE@$$QAV?$allocator@UFORMULA_PAIR@@@1@@Z 1009b060 f i dll.obj
 0002:0000e0d0       ??$?0V?$basic_string@DU?$char_traits@D@std@@V?$allocator@D@2@@std@@$$V$0A@@?$tuple@$$QAV?$basic_string@DU?$char_traits@D@std@@V?$allocator@D@2@@std@@@std@@QAE@$$QAV?$basic_string@DU?$char_traits@D@std@@V?$allocator@D@2@@1@@Z 1009b0d0 f i dll.obj
 0002:0000e160       ??$?0V?$basic_string@DU?$char_traits@D@std@@V?$allocator@D@2@@std@@@?$_Tuple_val@$$QAV?$basic_string@DU?$char_traits@D@std@@V?$allocator@D@2@@std@@@std@@QAE@$$QAV?$basic_string@DU?$char_traits@D@std@@V?$allocator@D@2@@1@@Z 1009b160 f i dll.obj
 0002:0000e1c0       ??$?0V?$tuple@$$QAV?$basic_string@DU?$char_traits@D@std@@V?$allocator@D@2@@std@@@std@@V?$tuple@$$V@1@$0A@$$Z$S@?$pair@$$CBV?$basic_string@DU?$char_traits@D@std@@V?$allocator@D@2@@std@@G@std@@QAE@AAV?$tuple@$$QAV?$basic_string@DU?$char_traits@D@std@@V?$allocator@D@2@@std@@@1@AAV?$tuple@$$V@1@U?$integer_sequence@I$0A@@1@U?$integer_sequence@I$S@1@@Z 1009b1c0 f i dll.obj
 0002:0000e240       ??$?0V?$tuple@$$QAV?$basic_string@DU?$char_traits@D@std@@V?$allocator@D@2@@std@@@std@@V?$tuple@$$V@1@$0A@$$Z$S@?$pair@$$CBV?$basic_string@DU?$char_traits@D@std@@V?$allocator@D@2@@std@@VDEVICE@@@std@@QAE@AAV?$tuple@$$QAV?$basic_string@DU?$char_traits@D@std@@V?$allocator@D@2@@std@@@1@AAV?$tuple@$$V@1@U?$integer_sequence@I$0A@@1@U?$integer_sequence@I$S@1@@Z 1009b240 f i dll.obj
 0002:0000e320       ??$?8DD@std@@YA_NABV?$allocator@D@0@0@Z 1009b320 f i dll.obj
 0002:0000e350       ??$?8DU?$char_traits@D@std@@V?$allocator@D@1@@std@@YA_NABV?$basic_string@DU?$char_traits@D@std@@V?$allocator@D@2@@0@0@Z 1009b350 f i dll.obj
 0002:0000e3d0       ??$?8UFORMULA2_PAIR@@U0@@std@@YA_NABV?$allocator@UFORMULA2_PAIR@@@0@0@Z 1009b3d0 f i dll.obj
 0002:0000e400       ??$?8UFORMULA_PAIR@@U0@@std@@YA_NABV?$allocator@UFORMULA_PAIR@@@0@0@Z 1009b400 f i dll.obj
 0002:0000e430       ??$?8V?$allocator@D@std@@V01@@std@@YA_NABU?$_Wrap_alloc@V?$allocator@D@std@@@0@0@Z 1009b430 f i dll.obj
 0002:0000e490       ??$?8V?$allocator@UFORMULA2_PAIR@@@std@@V01@@std@@YA_NABU?$_Wrap_alloc@V?$allocator@UFORMULA2_PAIR@@@std@@@0@0@Z 1009b490 f i dll.obj
 0002:0000e4f0       ??$?8V?$allocator@UFORMULA_PAIR@@@std@@V01@@std@@YA_NABU?$_Wrap_alloc@V?$allocator@UFORMULA_PAIR@@@std@@@0@0@Z 1009b4f0 f i dll.obj
 0002:0000e550       ??$?9V?$allocator@D@std@@V01@@std@@YA_NABU?$_Wrap_alloc@V?$allocator@D@std@@@0@0@Z 1009b550 f i dll.obj
 0002:0000e5d0       ??$?9V?$allocator@UFORMULA2_PAIR@@@std@@V01@@std@@YA_NABU?$_Wrap_alloc@V?$allocator@UFORMULA2_PAIR@@@std@@@0@0@Z 1009b5d0 f i dll.obj
 0002:0000e650       ??$?9V?$allocator@UFORMULA_PAIR@@@std@@V01@@std@@YA_NABU?$_Wrap_alloc@V?$allocator@UFORMULA_PAIR@@@std@@@0@0@Z 1009b650 f i dll.obj
 0002:0000e6d0       ??$_Buynode@ABUpiecewise_construct_t@std@@V?$tuple@$$QAV?$basic_string@DU?$char_traits@D@std@@V?$allocator@D@2@@std@@@2@V?$tuple@$$V@2@@?$_List_buy@U?$pair@$$CBV?$basic_string@DU?$char_traits@D@std@@V?$allocator@D@2@@std@@G@std@@V?$allocator@U?$pair@$$CBV?$basic_string@DU?$char_traits@D@std@@V?$allocator@D@2@@std@@G@std@@@2@@std@@QAEPAU?$_List_node@U?$pair@$$CBV?$basic_string@DU?$char_traits@D@std@@V?$allocator@D@2@@std@@G@std@@PAX@1@PAU21@0ABUpiecewise_construct_t@1@$$QAV?$tuple@$$QAV?$basic_string@DU?$char_traits@D@std@@V?$allocator@D@2@@std@@@1@$$QAV?$tuple@$$V@1@@Z 1009b6d0 f i dll.obj
 0002:0000e830       ??$_Buynode@ABUpiecewise_construct_t@std@@V?$tuple@$$QAV?$basic_string@DU?$char_traits@D@std@@V?$allocator@D@2@@std@@@2@V?$tuple@$$V@2@@?$_List_buy@U?$pair@$$CBV?$basic_string@DU?$char_traits@D@std@@V?$allocator@D@2@@std@@VDEVICE@@@std@@V?$allocator@U?$pair@$$CBV?$basic_string@DU?$char_traits@D@std@@V?$allocator@D@2@@std@@VDEVICE@@@std@@@2@@std@@QAEPAU?$_List_node@U?$pair@$$CBV?$basic_string@DU?$char_traits@D@std@@V?$allocator@D@2@@std@@VDEVICE@@@std@@PAX@1@PAU21@0ABUpiecewise_construct_t@1@$$QAV?$tuple@$$QAV?$basic_string@DU?$char_traits@D@std@@V?$allocator@D@2@@std@@@1@$$QAV?$tuple@$$V@1@@Z 1009b830 f i dll.obj
 0002:0000e990       ??$_Buynode_if_nil@AAU?$pair@$$CBV?$basic_string@DU?$char_traits@D@std@@V?$allocator@D@2@@std@@G@std@@@?$_Hash@V?$_Umap_traits@V?$basic_string@DU?$char_traits@D@std@@V?$allocator@D@2@@std@@GV?$_Uhash_compare@V?$basic_string@DU?$char_traits@D@std@@V?$allocator@D@2@@std@@U?$hash@V?$basic_string@DU?$char_traits@D@std@@V?$allocator@D@2@@std@@@2@U?$equal_to@V?$basic_string@DU?$char_traits@D@std@@V?$allocator@D@2@@std@@@2@@2@V?$allocator@U?$pair@$$CBV?$basic_string@DU?$char_traits@D@std@@V?$allocator@D@2@@std@@G@std@@@2@$0A@@std@@@std@@IAE?AV?$_List_unchecked_iterator@V?$_List_val@U?$_List_simple_types@U?$pair@$$CBV?$basic_string@DU?$char_traits@D@std@@V?$allocator@D@2@@std@@G@std@@@std@@@std@@@1@AAU?$pair@$$CBV?$basic_string@DU?$char_traits@D@std@@V?$allocator@D@2@@std@@G@1@V21@@Z 1009b990 f i dll.obj
 0002:0000e9e0       ??$_Buynode_if_nil@AAU?$pair@$$CBV?$basic_string@DU?$char_traits@D@std@@V?$allocator@D@2@@std@@VDEVICE@@@std@@@?$_Hash@V?$_Umap_traits@V?$basic_string@DU?$char_traits@D@std@@V?$allocator@D@2@@std@@VDEVICE@@V?$_Uhash_compare@V?$basic_string@DU?$char_traits@D@std@@V?$allocator@D@2@@std@@U?$hash@V?$basic_string@DU?$char_traits@D@std@@V?$allocator@D@2@@std@@@2@U?$equal_to@V?$basic_string@DU?$char_traits@D@std@@V?$allocator@D@2@@std@@@2@@2@V?$allocator@U?$pair@$$CBV?$basic_string@DU?$char_traits@D@std@@V?$allocator@D@2@@std@@VDEVICE@@@std@@@2@$0A@@std@@@std@@IAE?AV?$_List_unchecked_iterator@V?$_List_val@U?$_List_simple_types@U?$pair@$$CBV?$basic_string@DU?$char_traits@D@std@@V?$allocator@D@2@@std@@VDEVICE@@@std@@@std@@@std@@@1@AAU?$pair@$$CBV?$basic_string@DU?$char_traits@D@std@@V?$allocator@D@2@@std@@VDEVICE@@@1@V21@@Z 1009b9e0 f i dll.obj
 0002:0000ea30       ??$_Construct1@V?$_List_unchecked_iterator@V?$_List_val@U?$_List_simple_types@U?$pair@$$CBV?$basic_string@DU?$char_traits@D@std@@V?$allocator@D@2@@std@@G@std@@@std@@@std@@@std@@ABV12@@?$allocator_traits@U?$_Wrap_alloc@V?$allocator@V?$_List_unchecked_iterator@V?$_List_val@U?$_List_simple_types@U?$pair@$$CBV?$basic_string@DU?$char_traits@D@std@@V?$allocator@D@2@@std@@G@std@@@std@@@std@@@std@@@std@@@std@@@std@@SAXU?$integral_constant@_N$00@1@AAU?$_Wrap_alloc@V?$allocator@V?$_List_unchecked_iterator@V?$_List_val@U?$_List_simple_types@U?$pair@$$CBV?$basic_string@DU?$char_traits@D@std@@V?$allocator@D@2@@std@@G@std@@@std@@@std@@@std@@@std@@@1@PAV?$_List_unchecked_iterator@V?$_List_val@U?$_List_simple_types@U?$pair@$$CBV?$basic_string@DU?$char_traits@D@std@@V?$allocator@D@2@@std@@G@std@@@std@@@std@@@1@ABV41@@Z 1009ba30 f i dll.obj
 0002:0000ead0       ??$_Construct1@V?$_List_unchecked_iterator@V?$_List_val@U?$_List_simple_types@U?$pair@$$CBV?$basic_string@DU?$char_traits@D@std@@V?$allocator@D@2@@std@@G@std@@@std@@@std@@@std@@V12@@?$allocator_traits@U?$_Wrap_alloc@V?$allocator@V?$_List_unchecked_iterator@V?$_List_val@U?$_List_simple_types@U?$pair@$$CBV?$basic_string@DU?$char_traits@D@std@@V?$allocator@D@2@@std@@G@std@@@std@@@std@@@std@@@std@@@std@@@std@@SAXU?$integral_constant@_N$00@1@AAU?$_Wrap_alloc@V?$allocator@V?$_List_unchecked_iterator@V?$_List_val@U?$_List_simple_types@U?$pair@$$CBV?$basic_string@DU?$char_traits@D@std@@V?$allocator@D@2@@std@@G@std@@@std@@@std@@@std@@@std@@@1@PAV?$_List_unchecked_iterator@V?$_List_val@U?$_List_simple_types@U?$pair@$$CBV?$basic_string@DU?$char_traits@D@std@@V?$allocator@D@2@@std@@G@std@@@std@@@std@@@1@$$QAV41@@Z 1009bad0 f i dll.obj
 0002:0000eb70       ??$_Construct1@V?$_List_unchecked_iterator@V?$_List_val@U?$_List_simple_types@U?$pair@$$CBV?$basic_string@DU?$char_traits@D@std@@V?$allocator@D@2@@std@@VDEVICE@@@std@@@std@@@std@@@std@@ABV12@@?$allocator_traits@U?$_Wrap_alloc@V?$allocator@V?$_List_unchecked_iterator@V?$_List_val@U?$_List_simple_types@U?$pair@$$CBV?$basic_string@DU?$char_traits@D@std@@V?$allocator@D@2@@std@@VDEVICE@@@std@@@std@@@std@@@std@@@std@@@std@@@std@@SAXU?$integral_constant@_N$00@1@AAU?$_Wrap_alloc@V?$allocator@V?$_List_unchecked_iterator@V?$_List_val@U?$_List_simple_types@U?$pair@$$CBV?$basic_string@DU?$char_traits@D@std@@V?$allocator@D@2@@std@@VDEVICE@@@std@@@std@@@std@@@std@@@std@@@1@PAV?$_List_unchecked_iterator@V?$_List_val@U?$_List_simple_types@U?$pair@$$CBV?$basic_string@DU?$char_traits@D@std@@V?$allocator@D@2@@std@@VDEVICE@@@std@@@std@@@std@@@1@ABV41@@Z 1009bb70 f i dll.obj
 0002:0000ec10       ??$_Construct1@V?$_List_unchecked_iterator@V?$_List_val@U?$_List_simple_types@U?$pair@$$CBV?$basic_string@DU?$char_traits@D@std@@V?$allocator@D@2@@std@@VDEVICE@@@std@@@std@@@std@@@std@@V12@@?$allocator_traits@U?$_Wrap_alloc@V?$allocator@V?$_List_unchecked_iterator@V?$_List_val@U?$_List_simple_types@U?$pair@$$CBV?$basic_string@DU?$char_traits@D@std@@V?$allocator@D@2@@std@@VDEVICE@@@std@@@std@@@std@@@std@@@std@@@std@@@std@@SAXU?$integral_constant@_N$00@1@AAU?$_Wrap_alloc@V?$allocator@V?$_List_unchecked_iterator@V?$_List_val@U?$_List_simple_types@U?$pair@$$CBV?$basic_string@DU?$char_traits@D@std@@V?$allocator@D@2@@std@@VDEVICE@@@std@@@std@@@std@@@std@@@std@@@1@PAV?$_List_unchecked_iterator@V?$_List_val@U?$_List_simple_types@U?$pair@$$CBV?$basic_string@DU?$char_traits@D@std@@V?$allocator@D@2@@std@@VDEVICE@@@std@@@std@@@std@@@1@$$QAV41@@Z 1009bc10 f i dll.obj
 0002:0000ecb0       ??$_Construct@V?$_Deque_const_iterator@V?$_Deque_val@U?$_Deque_simple_types@UFORMULA2_PAIR@@@std@@@std@@@std@@@?$deque@UFORMULA2_PAIR@@V?$allocator@UFORMULA2_PAIR@@@std@@@std@@QAEXV?$_Deque_const_iterator@V?$_Deque_val@U?$_Deque_simple_types@UFORMULA2_PAIR@@@std@@@std@@@1@0@Z 1009bcb0 f i dll.obj
 0002:0000edf0       ??$_Construct@V?$_Deque_const_iterator@V?$_Deque_val@U?$_Deque_simple_types@UFORMULA_PAIR@@@std@@@std@@@std@@@?$deque@UFORMULA_PAIR@@V?$allocator@UFORMULA_PAIR@@@std@@@std@@QAEXV?$_Deque_const_iterator@V?$_Deque_val@U?$_Deque_simple_types@UFORMULA_PAIR@@@std@@@std@@@1@0@Z 1009bdf0 f i dll.obj
 0002:0000ef30       ??$_Copy_backward_memmove@PAV?$_List_unchecked_iterator@V?$_List_val@U?$_List_simple_types@U?$pair@$$CBV?$basic_string@DU?$char_traits@D@std@@V?$allocator@D@2@@std@@G@std@@@std@@@std@@@std@@PAV12@@std@@YAPAV?$_List_unchecked_iterator@V?$_List_val@U?$_List_simple_types@U?$pair@$$CBV?$basic_string@DU?$char_traits@D@std@@V?$allocator@D@2@@std@@G@std@@@std@@@std@@@0@PAV10@00@Z 1009bf30 f i dll.obj
 0002:0000efc0       ??$_Copy_backward_memmove@PAV?$_List_unchecked_iterator@V?$_List_val@U?$_List_simple_types@U?$pair@$$CBV?$basic_string@DU?$char_traits@D@std@@V?$allocator@D@2@@std@@VDEVICE@@@std@@@std@@@std@@@std@@PAV12@@std@@YAPAV?$_List_unchecked_iterator@V?$_List_val@U?$_List_simple_types@U?$pair@$$CBV?$basic_string@DU?$char_traits@D@std@@V?$allocator@D@2@@std@@VDEVICE@@@std@@@std@@@std@@@0@PAV10@00@Z 1009bfc0 f i dll.obj
 0002:0000f050       ??$_Copy_memmove@PAPAUFORMULA2_PAIR@@PAPAU1@@std@@YAPAPAUFORMULA2_PAIR@@PAPAU1@00@Z 1009c050 f i dll.obj
 0002:0000f0e0       ??$_Copy_memmove@PAPAUFORMULA_PAIR@@PAPAU1@@std@@YAPAPAUFORMULA_PAIR@@PAPAU1@00@Z 1009c0e0 f i dll.obj
 0002:0000f170       ??$_Copy_no_deprecate1@V?$_Deque_unchecked_const_iterator@V?$_Deque_val@U?$_Deque_simple_types@UFORMULA2_PAIR@@@std@@@std@@@std@@V?$_Deque_iterator@V?$_Deque_val@U?$_Deque_simple_types@UFORMULA2_PAIR@@@std@@@std@@@2@@std@@YA?AV?$_Deque_iterator@V?$_Deque_val@U?$_Deque_simple_types@UFORMULA2_PAIR@@@std@@@std@@@0@V?$_Deque_unchecked_const_iterator@V?$_Deque_val@U?$_Deque_simple_types@UFORMULA2_PAIR@@@std@@@std@@@0@0V10@Urandom_access_iterator_tag@0@2@Z 1009c170 f i dll.obj
 0002:0000f2f0       ??$_Copy_no_deprecate1@V?$_Deque_unchecked_const_iterator@V?$_Deque_val@U?$_Deque_simple_types@UFORMULA_PAIR@@@std@@@std@@@std@@V?$_Deque_iterator@V?$_Deque_val@U?$_Deque_simple_types@UFORMULA_PAIR@@@std@@@std@@@2@@std@@YA?AV?$_Deque_iterator@V?$_Deque_val@U?$_Deque_simple_types@UFORMULA_PAIR@@@std@@@std@@@0@V?$_Deque_unchecked_const_iterator@V?$_Deque_val@U?$_Deque_simple_types@UFORMULA_PAIR@@@std@@@std@@@0@0V10@Urandom_access_iterator_tag@0@2@Z 1009c2f0 f i dll.obj
 0002:0000f470       ??$_Copy_no_deprecate@V?$_Deque_const_iterator@V?$_Deque_val@U?$_Deque_simple_types@UFORMULA2_PAIR@@@std@@@std@@@std@@V?$_Deque_iterator@V?$_Deque_val@U?$_Deque_simple_types@UFORMULA2_PAIR@@@std@@@std@@@2@@std@@YA?AV?$_Deque_iterator@V?$_Deque_val@U?$_Deque_simple_types@UFORMULA2_PAIR@@@std@@@std@@@0@V?$_Deque_const_iterator@V?$_Deque_val@U?$_Deque_simple_types@UFORMULA2_PAIR@@@std@@@std@@@0@0V10@@Z 1009c470 f i dll.obj
 0002:0000f6d0       ??$_Copy_no_deprecate@V?$_Deque_const_iterator@V?$_Deque_val@U?$_Deque_simple_types@UFORMULA_PAIR@@@std@@@std@@@std@@V?$_Deque_iterator@V?$_Deque_val@U?$_Deque_simple_types@UFORMULA_PAIR@@@std@@@std@@@2@@std@@YA?AV?$_Deque_iterator@V?$_Deque_val@U?$_Deque_simple_types@UFORMULA_PAIR@@@std@@@std@@@0@V?$_Deque_const_iterator@V?$_Deque_val@U?$_Deque_simple_types@UFORMULA_PAIR@@@std@@@std@@@0@0V10@@Z 1009c6d0 f i dll.obj
 0002:0000f930       ??$_Copy_unchecked1@V?$_Deque_unchecked_const_iterator@V?$_Deque_val@U?$_Deque_simple_types@UFORMULA2_PAIR@@@std@@@std@@@std@@V?$_Deque_unchecked_iterator@V?$_Deque_val@U?$_Deque_simple_types@UFORMULA2_PAIR@@@std@@@std@@@2@@std@@YA?AV?$_Deque_unchecked_iterator@V?$_Deque_val@U?$_Deque_simple_types@UFORMULA2_PAIR@@@std@@@std@@@0@V?$_Deque_unchecked_const_iterator@V?$_Deque_val@U?$_Deque_simple_types@UFORMULA2_PAIR@@@std@@@std@@@0@0V10@U_General_ptr_iterator_tag@0@@Z 1009c930 f i dll.obj
 0002:0000f9e0       ??$_Copy_unchecked1@V?$_Deque_unchecked_const_iterator@V?$_Deque_val@U?$_Deque_simple_types@UFORMULA_PAIR@@@std@@@std@@@std@@V?$_Deque_unchecked_iterator@V?$_Deque_val@U?$_Deque_simple_types@UFORMULA_PAIR@@@std@@@std@@@2@@std@@YA?AV?$_Deque_unchecked_iterator@V?$_Deque_val@U?$_Deque_simple_types@UFORMULA_PAIR@@@std@@@std@@@0@V?$_Deque_unchecked_const_iterator@V?$_Deque_val@U?$_Deque_simple_types@UFORMULA_PAIR@@@std@@@std@@@0@0V10@U_General_ptr_iterator_tag@0@@Z 1009c9e0 f i dll.obj
 0002:0000fa90       ??$_Copy_unchecked@V?$_Deque_unchecked_const_iterator@V?$_Deque_val@U?$_Deque_simple_types@UFORMULA2_PAIR@@@std@@@std@@@std@@V?$_Deque_unchecked_iterator@V?$_Deque_val@U?$_Deque_simple_types@UFORMULA2_PAIR@@@std@@@std@@@2@@std@@YA?AV?$_Deque_unchecked_iterator@V?$_Deque_val@U?$_Deque_simple_types@UFORMULA2_PAIR@@@std@@@std@@@0@V?$_Deque_unchecked_const_iterator@V?$_Deque_val@U?$_Deque_simple_types@UFORMULA2_PAIR@@@std@@@std@@@0@0V10@@Z 1009ca90 f i dll.obj
 0002:0000fb30       ??$_Copy_unchecked@V?$_Deque_unchecked_const_iterator@V?$_Deque_val@U?$_Deque_simple_types@UFORMULA_PAIR@@@std@@@std@@@std@@V?$_Deque_unchecked_iterator@V?$_Deque_val@U?$_Deque_simple_types@UFORMULA_PAIR@@@std@@@std@@@2@@std@@YA?AV?$_Deque_unchecked_iterator@V?$_Deque_val@U?$_Deque_simple_types@UFORMULA_PAIR@@@std@@@std@@@0@V?$_Deque_unchecked_const_iterator@V?$_Deque_val@U?$_Deque_simple_types@UFORMULA_PAIR@@@std@@@std@@@0@0V10@@Z 1009cb30 f i dll.obj
 0002:0000fbd0       ??$_Debug_pointer@$$CBD@std@@YAXPBDPB_WI@Z 1009cbd0 f i dll.obj
 0002:0000fc40       ??$_Debug_pointer@V?$_Deque_const_iterator@V?$_Deque_val@U?$_Deque_simple_types@UFORMULA2_PAIR@@@std@@@std@@@std@@@std@@YAXAAV?$_Deque_const_iterator@V?$_Deque_val@U?$_Deque_simple_types@UFORMULA2_PAIR@@@std@@@std@@@0@PB_WI@Z 1009cc40 f i dll.obj
 0002:0000fc70       ??$_Debug_pointer@V?$_Deque_const_iterator@V?$_Deque_val@U?$_Deque_simple_types@UFORMULA_PAIR@@@std@@@std@@@std@@@std@@YAXAAV?$_Deque_const_iterator@V?$_Deque_val@U?$_Deque_simple_types@UFORMULA_PAIR@@@std@@@std@@@0@PB_WI@Z 1009cc70 f i dll.obj
 0002:0000fca0       ??$_Debug_pointer@V?$_Deque_iterator@V?$_Deque_val@U?$_Deque_simple_types@UFORMULA2_PAIR@@@std@@@std@@@std@@@std@@YAXAAV?$_Deque_iterator@V?$_Deque_val@U?$_Deque_simple_types@UFORMULA2_PAIR@@@std@@@std@@@0@PB_WI@Z 1009cca0 f i dll.obj
 0002:0000fcd0       ??$_Debug_pointer@V?$_Deque_iterator@V?$_Deque_val@U?$_Deque_simple_types@UFORMULA_PAIR@@@std@@@std@@@std@@@std@@YAXAAV?$_Deque_iterator@V?$_Deque_val@U?$_Deque_simple_types@UFORMULA_PAIR@@@std@@@std@@@0@PB_WI@Z 1009ccd0 f i dll.obj
 0002:0000fd00       ??$_Debug_pointer@V?$_List_unchecked_iterator@V?$_List_val@U?$_List_simple_types@U?$pair@$$CBV?$basic_string@DU?$char_traits@D@std@@V?$allocator@D@2@@std@@G@std@@@std@@@std@@@std@@@std@@YAXPAV?$_List_unchecked_iterator@V?$_List_val@U?$_List_simple_types@U?$pair@$$CBV?$basic_string@DU?$char_traits@D@std@@V?$allocator@D@2@@std@@G@std@@@std@@@std@@@0@PB_WI@Z 1009cd00 f i dll.obj
 0002:0000fd70       ??$_Debug_pointer@V?$_List_unchecked_iterator@V?$_List_val@U?$_List_simple_types@U?$pair@$$CBV?$basic_string@DU?$char_traits@D@std@@V?$allocator@D@2@@std@@VDEVICE@@@std@@@std@@@std@@@std@@@std@@YAXPAV?$_List_unchecked_iterator@V?$_List_val@U?$_List_simple_types@U?$pair@$$CBV?$basic_string@DU?$char_traits@D@std@@V?$allocator@D@2@@std@@VDEVICE@@@std@@@std@@@std@@@0@PB_WI@Z 1009cd70 f i dll.obj
 0002:0000fde0       ??$_Debug_pointer_if@$$CBD@std@@YAX_NPBDPB_WI@Z 1009cde0 f i dll.obj
 0002:0000fe60       ??$_Debug_range2@PAV?$_List_unchecked_iterator@V?$_List_val@U?$_List_simple_types@U?$pair@$$CBV?$basic_string@DU?$char_traits@D@std@@V?$allocator@D@2@@std@@G@std@@@std@@@std@@@std@@@std@@YAXPAV?$_List_unchecked_iterator@V?$_List_val@U?$_List_simple_types@U?$pair@$$CBV?$basic_string@DU?$char_traits@D@std@@V?$allocator@D@2@@std@@G@std@@@std@@@std@@@0@0PB_WIUrandom_access_iterator_tag@0@@Z 1009ce60 f i dll.obj
 0002:0000ff10       ??$_Debug_range2@PAV?$_List_unchecked_iterator@V?$_List_val@U?$_List_simple_types@U?$pair@$$CBV?$basic_string@DU?$char_traits@D@std@@V?$allocator@D@2@@std@@VDEVICE@@@std@@@std@@@std@@@std@@@std@@YAXPAV?$_List_unchecked_iterator@V?$_List_val@U?$_List_simple_types@U?$pair@$$CBV?$basic_string@DU?$char_traits@D@std@@V?$allocator@D@2@@std@@VDEVICE@@@std@@@std@@@std@@@0@0PB_WIUrandom_access_iterator_tag@0@@Z 1009cf10 f i dll.obj
 0002:0000ffc0       ??$_Debug_range2@V?$_Deque_const_iterator@V?$_Deque_val@U?$_Deque_simple_types@UFORMULA2_PAIR@@@std@@@std@@@std@@@std@@YAXV?$_Deque_const_iterator@V?$_Deque_val@U?$_Deque_simple_types@UFORMULA2_PAIR@@@std@@@std@@@0@0PB_WIUrandom_access_iterator_tag@0@@Z 1009cfc0 f i dll.obj
 0002:000100f0       ??$_Debug_range2@V?$_Deque_const_iterator@V?$_Deque_val@U?$_Deque_simple_types@UFORMULA_PAIR@@@std@@@std@@@std@@@std@@YAXV?$_Deque_const_iterator@V?$_Deque_val@U?$_Deque_simple_types@UFORMULA_PAIR@@@std@@@std@@@0@0PB_WIUrandom_access_iterator_tag@0@@Z 1009d0f0 f i dll.obj
 0002:00010220       ??$_Debug_range2@V?$_Deque_iterator@V?$_Deque_val@U?$_Deque_simple_types@UFORMULA2_PAIR@@@std@@@std@@@std@@@std@@YAXV?$_Deque_iterator@V?$_Deque_val@U?$_Deque_simple_types@UFORMULA2_PAIR@@@std@@@std@@@0@0PB_WIUrandom_access_iterator_tag@0@@Z 1009d220 f i dll.obj
 0002:00010350       ??$_Debug_range2@V?$_Deque_iterator@V?$_Deque_val@U?$_Deque_simple_types@UFORMULA_PAIR@@@std@@@std@@@std@@@std@@YAXV?$_Deque_iterator@V?$_Deque_val@U?$_Deque_simple_types@UFORMULA_PAIR@@@std@@@std@@@0@0PB_WIUrandom_access_iterator_tag@0@@Z 1009d350 f i dll.obj
 0002:00010480       ??$_Debug_range2@V?$_List_const_iterator@V?$_List_val@U?$_List_simple_types@U?$pair@$$CBV?$basic_string@DU?$char_traits@D@std@@V?$allocator@D@2@@std@@G@std@@@std@@@std@@@std@@@std@@YAXV?$_List_const_iterator@V?$_List_val@U?$_List_simple_types@U?$pair@$$CBV?$basic_string@DU?$char_traits@D@std@@V?$allocator@D@2@@std@@G@std@@@std@@@std@@@0@0PB_WIUinput_iterator_tag@0@@Z 1009d480 f i dll.obj
 0002:00010530       ??$_Debug_range@PAV?$_List_unchecked_iterator@V?$_List_val@U?$_List_simple_types@U?$pair@$$CBV?$basic_string@DU?$char_traits@D@std@@V?$allocator@D@2@@std@@G@std@@@std@@@std@@@std@@@std@@YAXPAV?$_List_unchecked_iterator@V?$_List_val@U?$_List_simple_types@U?$pair@$$CBV?$basic_string@DU?$char_traits@D@std@@V?$allocator@D@2@@std@@G@std@@@std@@@std@@@0@0PB_WI@Z 1009d530 f i dll.obj
 0002:000105a0       ??$_Debug_range@PAV?$_List_unchecked_iterator@V?$_List_val@U?$_List_simple_types@U?$pair@$$CBV?$basic_string@DU?$char_traits@D@std@@V?$allocator@D@2@@std@@VDEVICE@@@std@@@std@@@std@@@std@@@std@@YAXPAV?$_List_unchecked_iterator@V?$_List_val@U?$_List_simple_types@U?$pair@$$CBV?$basic_string@DU?$char_traits@D@std@@V?$allocator@D@2@@std@@VDEVICE@@@std@@@std@@@std@@@0@0PB_WI@Z 1009d5a0 f i dll.obj
 0002:00010610       ??$_Debug_range@V?$_Deque_const_iterator@V?$_Deque_val@U?$_Deque_simple_types@UFORMULA2_PAIR@@@std@@@std@@@std@@@std@@YAXV?$_Deque_const_iterator@V?$_Deque_val@U?$_Deque_simple_types@UFORMULA2_PAIR@@@std@@@std@@@0@0PB_WI@Z 1009d610 f i dll.obj
 0002:00010730       ??$_Debug_range@V?$_Deque_const_iterator@V?$_Deque_val@U?$_Deque_simple_types@UFORMULA_PAIR@@@std@@@std@@@std@@@std@@YAXV?$_Deque_const_iterator@V?$_Deque_val@U?$_Deque_simple_types@UFORMULA_PAIR@@@std@@@std@@@0@0PB_WI@Z 1009d730 f i dll.obj
 0002:00010850       ??$_Debug_range@V?$_Deque_iterator@V?$_Deque_val@U?$_Deque_simple_types@UFORMULA2_PAIR@@@std@@@std@@@std@@@std@@YAXV?$_Deque_iterator@V?$_Deque_val@U?$_Deque_simple_types@UFORMULA2_PAIR@@@std@@@std@@@0@0PB_WI@Z 1009d850 f i dll.obj
 0002:00010970       ??$_Debug_range@V?$_Deque_iterator@V?$_Deque_val@U?$_Deque_simple_types@UFORMULA_PAIR@@@std@@@std@@@std@@@std@@YAXV?$_Deque_iterator@V?$_Deque_val@U?$_Deque_simple_types@UFORMULA_PAIR@@@std@@@std@@@0@0PB_WI@Z 1009d970 f i dll.obj
 0002:00010a90       ??$_Debug_range@V?$_List_const_iterator@V?$_List_val@U?$_List_simple_types@U?$pair@$$CBV?$basic_string@DU?$char_traits@D@std@@V?$allocator@D@2@@std@@G@std@@@std@@@std@@@std@@@std@@YAXV?$_List_const_iterator@V?$_List_val@U?$_List_simple_types@U?$pair@$$CBV?$basic_string@DU?$char_traits@D@std@@V?$allocator@D@2@@std@@G@std@@@std@@@std@@@0@0PB_WI@Z 1009da90 f i dll.obj
 0002:00010bb0       ??$_Debug_range_ptr2@V?$_Deque_const_iterator@V?$_Deque_val@U?$_Deque_simple_types@UFORMULA2_PAIR@@@std@@@std@@@std@@V?$_Deque_iterator@V?$_Deque_val@U?$_Deque_simple_types@UFORMULA2_PAIR@@@std@@@std@@@2@@std@@YAXV?$_Deque_const_iterator@V?$_Deque_val@U?$_Deque_simple_types@UFORMULA2_PAIR@@@std@@@std@@@0@0AAV?$_Deque_iterator@V?$_Deque_val@U?$_Deque_simple_types@UFORMULA2_PAIR@@@std@@@std@@@0@PB_WIUrandom_access_iterator_tag@0@@Z 1009dbb0 f i dll.obj
 0002:00010cf0       ??$_Debug_range_ptr2@V?$_Deque_const_iterator@V?$_Deque_val@U?$_Deque_simple_types@UFORMULA_PAIR@@@std@@@std@@@std@@V?$_Deque_iterator@V?$_Deque_val@U?$_Deque_simple_types@UFORMULA_PAIR@@@std@@@std@@@2@@std@@YAXV?$_Deque_const_iterator@V?$_Deque_val@U?$_Deque_simple_types@UFORMULA_PAIR@@@std@@@std@@@0@0AAV?$_Deque_iterator@V?$_Deque_val@U?$_Deque_simple_types@UFORMULA_PAIR@@@std@@@std@@@0@PB_WIUrandom_access_iterator_tag@0@@Z 1009dcf0 f i dll.obj
 0002:00010e30       ??$_Debug_range_ptr2@V?$_Deque_iterator@V?$_Deque_val@U?$_Deque_simple_types@UFORMULA2_PAIR@@@std@@@std@@@std@@V12@@std@@YAXV?$_Deque_iterator@V?$_Deque_val@U?$_Deque_simple_types@UFORMULA2_PAIR@@@std@@@std@@@0@0AAV10@PB_WIUrandom_access_iterator_tag@0@@Z 1009de30 f i dll.obj
 0002:00010f70       ??$_Debug_range_ptr2@V?$_Deque_iterator@V?$_Deque_val@U?$_Deque_simple_types@UFORMULA_PAIR@@@std@@@std@@@std@@V12@@std@@YAXV?$_Deque_iterator@V?$_Deque_val@U?$_Deque_simple_types@UFORMULA_PAIR@@@std@@@std@@@0@0AAV10@PB_WIUrandom_access_iterator_tag@0@@Z 1009df70 f i dll.obj
 0002:000110b0       ??$_Debug_range_ptr@V?$_Deque_const_iterator@V?$_Deque_val@U?$_Deque_simple_types@UFORMULA2_PAIR@@@std@@@std@@@std@@V?$_Deque_iterator@V?$_Deque_val@U?$_Deque_simple_types@UFORMULA2_PAIR@@@std@@@std@@@2@@std@@YAXV?$_Deque_const_iterator@V?$_Deque_val@U?$_Deque_simple_types@UFORMULA2_PAIR@@@std@@@std@@@0@0AAV?$_Deque_iterator@V?$_Deque_val@U?$_Deque_simple_types@UFORMULA2_PAIR@@@std@@@std@@@0@PB_WI@Z 1009e0b0 f i dll.obj
 0002:000111e0       ??$_Debug_range_ptr@V?$_Deque_const_iterator@V?$_Deque_val@U?$_Deque_simple_types@UFORMULA_PAIR@@@std@@@std@@@std@@V?$_Deque_iterator@V?$_Deque_val@U?$_Deque_simple_types@UFORMULA_PAIR@@@std@@@std@@@2@@std@@YAXV?$_Deque_const_iterator@V?$_Deque_val@U?$_Deque_simple_types@UFORMULA_PAIR@@@std@@@std@@@0@0AAV?$_Deque_iterator@V?$_Deque_val@U?$_Deque_simple_types@UFORMULA_PAIR@@@std@@@std@@@0@PB_WI@Z 1009e1e0 f i dll.obj
 0002:00011310       ??$_Debug_range_ptr@V?$_Deque_iterator@V?$_Deque_val@U?$_Deque_simple_types@UFORMULA2_PAIR@@@std@@@std@@@std@@V12@@std@@YAXV?$_Deque_iterator@V?$_Deque_val@U?$_Deque_simple_types@UFORMULA2_PAIR@@@std@@@std@@@0@0AAV10@PB_WI@Z 1009e310 f i dll.obj
 0002:00011440       ??$_Debug_range_ptr@V?$_Deque_iterator@V?$_Deque_val@U?$_Deque_simple_types@UFORMULA_PAIR@@@std@@@std@@@std@@V12@@std@@YAXV?$_Deque_iterator@V?$_Deque_val@U?$_Deque_simple_types@UFORMULA_PAIR@@@std@@@std@@@0@0AAV10@PB_WI@Z 1009e440 f i dll.obj
 0002:00011570       ??$_Destroy1@V?$_List_unchecked_iterator@V?$_List_val@U?$_List_simple_types@U?$pair@$$CBV?$basic_string@DU?$char_traits@D@std@@V?$allocator@D@2@@std@@G@std@@@std@@@std@@@std@@@?$allocator_traits@U?$_Wrap_alloc@V?$allocator@V?$_List_unchecked_iterator@V?$_List_val@U?$_List_simple_types@U?$pair@$$CBV?$basic_string@DU?$char_traits@D@std@@V?$allocator@D@2@@std@@G@std@@@std@@@std@@@std@@@std@@@std@@@std@@SAXAAU?$_Wrap_alloc@V?$allocator@V?$_List_unchecked_iterator@V?$_List_val@U?$_List_simple_types@U?$pair@$$CBV?$basic_string@DU?$char_traits@D@std@@V?$allocator@D@2@@std@@G@std@@@std@@@std@@@std@@@std@@@1@PAV?$_List_unchecked_iterator@V?$_List_val@U?$_List_simple_types@U?$pair@$$CBV?$basic_string@DU?$char_traits@D@std@@V?$allocator@D@2@@std@@G@std@@@std@@@std@@@1@U?$integral_constant@_N$00@1@@Z 1009e570 f i dll.obj
 0002:000115a0       ??$_Destroy1@V?$_List_unchecked_iterator@V?$_List_val@U?$_List_simple_types@U?$pair@$$CBV?$basic_string@DU?$char_traits@D@std@@V?$allocator@D@2@@std@@VDEVICE@@@std@@@std@@@std@@@std@@@?$allocator_traits@U?$_Wrap_alloc@V?$allocator@V?$_List_unchecked_iterator@V?$_List_val@U?$_List_simple_types@U?$pair@$$CBV?$basic_string@DU?$char_traits@D@std@@V?$allocator@D@2@@std@@VDEVICE@@@std@@@std@@@std@@@std@@@std@@@std@@@std@@SAXAAU?$_Wrap_alloc@V?$allocator@V?$_List_unchecked_iterator@V?$_List_val@U?$_List_simple_types@U?$pair@$$CBV?$basic_string@DU?$char_traits@D@std@@V?$allocator@D@2@@std@@VDEVICE@@@std@@@std@@@std@@@std@@@std@@@1@PAV?$_List_unchecked_iterator@V?$_List_val@U?$_List_simple_types@U?$pair@$$CBV?$basic_string@DU?$char_traits@D@std@@V?$allocator@D@2@@std@@VDEVICE@@@std@@@std@@@std@@@1@U?$integral_constant@_N$00@1@@Z 1009e5a0 f i dll.obj
 0002:000115d0       ??$_Destroy_range1@U?$_Wrap_alloc@V?$allocator@V?$_List_unchecked_iterator@V?$_List_val@U?$_List_simple_types@U?$pair@$$CBV?$basic_string@DU?$char_traits@D@std@@V?$allocator@D@2@@std@@G@std@@@std@@@std@@@std@@@std@@@std@@PAV?$_List_unchecked_iterator@V?$_List_val@U?$_List_simple_types@U?$pair@$$CBV?$basic_string@DU?$char_traits@D@std@@V?$allocator@D@2@@std@@G@std@@@std@@@std@@@2@@std@@YAXPAV?$_List_unchecked_iterator@V?$_List_val@U?$_List_simple_types@U?$pair@$$CBV?$basic_string@DU?$char_traits@D@std@@V?$allocator@D@2@@std@@G@std@@@std@@@std@@@0@0AAU?$_Wrap_alloc@U?$_Wrap_alloc@V?$allocator@V?$_List_unchecked_iterator@V?$_List_val@U?$_List_simple_types@U?$pair@$$CBV?$basic_string@DU?$char_traits@D@std@@V?$allocator@D@2@@std@@G@std@@@std@@@std@@@std@@@std@@@std@@@0@U?$integral_constant@_N$0A@@0@@Z 1009e5d0 f i dll.obj
 0002:00011650       ??$_Destroy_range1@U?$_Wrap_alloc@V?$allocator@V?$_List_unchecked_iterator@V?$_List_val@U?$_List_simple_types@U?$pair@$$CBV?$basic_string@DU?$char_traits@D@std@@V?$allocator@D@2@@std@@VDEVICE@@@std@@@std@@@std@@@std@@@std@@@std@@PAV?$_List_unchecked_iterator@V?$_List_val@U?$_List_simple_types@U?$pair@$$CBV?$basic_string@DU?$char_traits@D@std@@V?$allocator@D@2@@std@@VDEVICE@@@std@@@std@@@std@@@2@@std@@YAXPAV?$_List_unchecked_iterator@V?$_List_val@U?$_List_simple_types@U?$pair@$$CBV?$basic_string@DU?$char_traits@D@std@@V?$allocator@D@2@@std@@VDEVICE@@@std@@@std@@@std@@@0@0AAU?$_Wrap_alloc@U?$_Wrap_alloc@V?$allocator@V?$_List_unchecked_iterator@V?$_List_val@U?$_List_simple_types@U?$pair@$$CBV?$basic_string@DU?$char_traits@D@std@@V?$allocator@D@2@@std@@VDEVICE@@@std@@@std@@@std@@@std@@@std@@@std@@@0@U?$integral_constant@_N$0A@@0@@Z 1009e650 f i dll.obj
 0002:000116d0       ??$_Destroy_range1@V?$allocator@PAUFORMULA2_PAIR@@@std@@PAPAUFORMULA2_PAIR@@@std@@YAXPAPAUFORMULA2_PAIR@@0AAU?$_Wrap_alloc@V?$allocator@PAUFORMULA2_PAIR@@@std@@@0@U?$integral_constant@_N$00@0@@Z 1009e6d0 f i dll.obj
 0002:00011700       ??$_Destroy_range1@V?$allocator@PAUFORMULA_PAIR@@@std@@PAPAUFORMULA_PAIR@@@std@@YAXPAPAUFORMULA_PAIR@@0AAU?$_Wrap_alloc@V?$allocator@PAUFORMULA_PAIR@@@std@@@0@U?$integral_constant@_N$00@0@@Z 1009e700 f i dll.obj
 0002:00011730       ??$_Destroy_range@U?$_Wrap_alloc@V?$allocator@V?$_List_unchecked_iterator@V?$_List_val@U?$_List_simple_types@U?$pair@$$CBV?$basic_string@DU?$char_traits@D@std@@V?$allocator@D@2@@std@@G@std@@@std@@@std@@@std@@@std@@@std@@PAV?$_List_unchecked_iterator@V?$_List_val@U?$_List_simple_types@U?$pair@$$CBV?$basic_string@DU?$char_traits@D@std@@V?$allocator@D@2@@std@@G@std@@@std@@@std@@@2@@std@@YAXPAV?$_List_unchecked_iterator@V?$_List_val@U?$_List_simple_types@U?$pair@$$CBV?$basic_string@DU?$char_traits@D@std@@V?$allocator@D@2@@std@@G@std@@@std@@@std@@@0@0AAU?$_Wrap_alloc@U?$_Wrap_alloc@V?$allocator@V?$_List_unchecked_iterator@V?$_List_val@U?$_List_simple_types@U?$pair@$$CBV?$basic_string@DU?$char_traits@D@std@@V?$allocator@D@2@@std@@G@std@@@std@@@std@@@std@@@std@@@std@@@0@@Z 1009e730 f i dll.obj
 0002:000117a0       ??$_Destroy_range@U?$_Wrap_alloc@V?$allocator@V?$_List_unchecked_iterator@V?$_List_val@U?$_List_simple_types@U?$pair@$$CBV?$basic_string@DU?$char_traits@D@std@@V?$allocator@D@2@@std@@VDEVICE@@@std@@@std@@@std@@@std@@@std@@@std@@PAV?$_List_unchecked_iterator@V?$_List_val@U?$_List_simple_types@U?$pair@$$CBV?$basic_string@DU?$char_traits@D@std@@V?$allocator@D@2@@std@@VDEVICE@@@std@@@std@@@std@@@2@@std@@YAXPAV?$_List_unchecked_iterator@V?$_List_val@U?$_List_simple_types@U?$pair@$$CBV?$basic_string@DU?$char_traits@D@std@@V?$allocator@D@2@@std@@VDEVICE@@@std@@@std@@@std@@@0@0AAU?$_Wrap_alloc@U?$_Wrap_alloc@V?$allocator@V?$_List_unchecked_iterator@V?$_List_val@U?$_List_simple_types@U?$pair@$$CBV?$basic_string@DU?$char_traits@D@std@@V?$allocator@D@2@@std@@VDEVICE@@@std@@@std@@@std@@@std@@@std@@@std@@@0@@Z 1009e7a0 f i dll.obj
 0002:00011810       ??$_Destroy_range@V?$allocator@PAUFORMULA2_PAIR@@@std@@PAPAUFORMULA2_PAIR@@@std@@YAXPAPAUFORMULA2_PAIR@@0AAU?$_Wrap_alloc@V?$allocator@PAUFORMULA2_PAIR@@@std@@@0@@Z 1009e810 f i dll.obj
 0002:00011880       ??$_Destroy_range@V?$allocator@PAUFORMULA_PAIR@@@std@@PAPAUFORMULA_PAIR@@@std@@YAXPAPAUFORMULA_PAIR@@0AAU?$_Wrap_alloc@V?$allocator@PAUFORMULA_PAIR@@@std@@@0@@Z 1009e880 f i dll.obj
 0002:000118f0       ??$_Distance1@V?$_List_iterator@V?$_List_val@U?$_List_simple_types@U?$pair@$$CBV?$basic_string@DU?$char_traits@D@std@@V?$allocator@D@2@@std@@G@std@@@std@@@std@@@std@@@std@@YAHV?$_List_iterator@V?$_List_val@U?$_List_simple_types@U?$pair@$$CBV?$basic_string@DU?$char_traits@D@std@@V?$allocator@D@2@@std@@G@std@@@std@@@std@@@0@0Uinput_iterator_tag@0@@Z 1009e8f0 f i dll.obj
 0002:000119e0       ??$_Fill_memset_is_safe@PAV?$_List_unchecked_iterator@V?$_List_val@U?$_List_simple_types@U?$pair@$$CBV?$basic_string@DU?$char_traits@D@std@@V?$allocator@D@2@@std@@G@std@@@std@@@std@@@std@@V12@@std@@YA?AU?$integral_constant@_N$0A@@0@ABQAV?$_List_unchecked_iterator@V?$_List_val@U?$_List_simple_types@U?$pair@$$CBV?$basic_string@DU?$char_traits@D@std@@V?$allocator@D@2@@std@@G@std@@@std@@@std@@@0@ABV20@@Z 1009e9e0 f i dll.obj
 0002:00011a20       ??$_Fill_memset_is_safe@PAV?$_List_unchecked_iterator@V?$_List_val@U?$_List_simple_types@U?$pair@$$CBV?$basic_string@DU?$char_traits@D@std@@V?$allocator@D@2@@std@@VDEVICE@@@std@@@std@@@std@@@std@@V12@@std@@YA?AU?$integral_constant@_N$0A@@0@ABQAV?$_List_unchecked_iterator@V?$_List_val@U?$_List_simple_types@U?$pair@$$CBV?$basic_string@DU?$char_traits@D@std@@V?$allocator@D@2@@std@@VDEVICE@@@std@@@std@@@std@@@0@ABV20@@Z 1009ea20 f i dll.obj
 0002:00011a60       ??$_Fill_unchecked1@PAV?$_List_unchecked_iterator@V?$_List_val@U?$_List_simple_types@U?$pair@$$CBV?$basic_string@DU?$char_traits@D@std@@V?$allocator@D@2@@std@@G@std@@@std@@@std@@@std@@V12@@std@@YAXPAV?$_List_unchecked_iterator@V?$_List_val@U?$_List_simple_types@U?$pair@$$CBV?$basic_string@DU?$char_traits@D@std@@V?$allocator@D@2@@std@@G@std@@@std@@@std@@@0@0ABV10@U?$integral_constant@_N$0A@@0@@Z 1009ea60 f i dll.obj
 0002:00011ac0       ??$_Fill_unchecked1@PAV?$_List_unchecked_iterator@V?$_List_val@U?$_List_simple_types@U?$pair@$$CBV?$basic_string@DU?$char_traits@D@std@@V?$allocator@D@2@@std@@VDEVICE@@@std@@@std@@@std@@@std@@V12@@std@@YAXPAV?$_List_unchecked_iterator@V?$_List_val@U?$_List_simple_types@U?$pair@$$CBV?$basic_string@DU?$char_traits@D@std@@V?$allocator@D@2@@std@@VDEVICE@@@std@@@std@@@std@@@0@0ABV10@U?$integral_constant@_N$0A@@0@@Z 1009eac0 f i dll.obj
 0002:00011b20       ??$_Fill_unchecked@PAV?$_List_unchecked_iterator@V?$_List_val@U?$_List_simple_types@U?$pair@$$CBV?$basic_string@DU?$char_traits@D@std@@V?$allocator@D@2@@std@@G@std@@@std@@@std@@@std@@V12@@std@@YAXPAV?$_List_unchecked_iterator@V?$_List_val@U?$_List_simple_types@U?$pair@$$CBV?$basic_string@DU?$char_traits@D@std@@V?$allocator@D@2@@std@@G@std@@@std@@@std@@@0@0ABV10@@Z 1009eb20 f i dll.obj
 0002:00011ba0       ??$_Fill_unchecked@PAV?$_List_unchecked_iterator@V?$_List_val@U?$_List_simple_types@U?$pair@$$CBV?$basic_string@DU?$char_traits@D@std@@V?$allocator@D@2@@std@@VDEVICE@@@std@@@std@@@std@@@std@@V12@@std@@YAXPAV?$_List_unchecked_iterator@V?$_List_val@U?$_List_simple_types@U?$pair@$$CBV?$basic_string@DU?$char_traits@D@std@@V?$allocator@D@2@@std@@VDEVICE@@@std@@@std@@@std@@@0@0ABV10@@Z 1009eba0 f i dll.obj
 0002:00011c20       ??$_Fn@U?$_Wrap_alloc@V?$allocator@V?$_List_unchecked_iterator@V?$_List_val@U?$_List_simple_types@U?$pair@$$CBV?$basic_string@DU?$char_traits@D@std@@V?$allocator@D@2@@std@@G@std@@@std@@@std@@@std@@@std@@@std@@@_Alloc_max_size@std@@SAIHABU?$_Wrap_alloc@V?$allocator@V?$_List_unchecked_iterator@V?$_List_val@U?$_List_simple_types@U?$pair@$$CBV?$basic_string@DU?$char_traits@D@std@@V?$allocator@D@2@@std@@G@std@@@std@@@std@@@std@@@std@@@1@@Z 1009ec20 f i dll.obj
 0002:00011c80       ??$_Fn@U?$_Wrap_alloc@V?$allocator@V?$_List_unchecked_iterator@V?$_List_val@U?$_List_simple_types@U?$pair@$$CBV?$basic_string@DU?$char_traits@D@std@@V?$allocator@D@2@@std@@VDEVICE@@@std@@@std@@@std@@@std@@@std@@@std@@@_Alloc_max_size@std@@SAIHABU?$_Wrap_alloc@V?$allocator@V?$_List_unchecked_iterator@V?$_List_val@U?$_List_simple_types@U?$pair@$$CBV?$basic_string@DU?$char_traits@D@std@@V?$allocator@D@2@@std@@VDEVICE@@@std@@@std@@@std@@@std@@@std@@@1@@Z 1009ec80 f i dll.obj
 0002:00011ce0       ??$_Insert@AAU?$pair@$$CBV?$basic_string@DU?$char_traits@D@std@@V?$allocator@D@2@@std@@G@std@@V?$_List_unchecked_iterator@V?$_List_val@U?$_List_simple_types@U?$pair@$$CBV?$basic_string@DU?$char_traits@D@std@@V?$allocator@D@2@@std@@G@std@@@std@@@std@@@2@@?$_Hash@V?$_Umap_traits@V?$basic_string@DU?$char_traits@D@std@@V?$allocator@D@2@@std@@GV?$_Uhash_compare@V?$basic_string@DU?$char_traits@D@std@@V?$allocator@D@2@@std@@U?$hash@V?$basic_string@DU?$char_traits@D@std@@V?$allocator@D@2@@std@@@2@U?$equal_to@V?$basic_string@DU?$char_traits@D@std@@V?$allocator@D@2@@std@@@2@@2@V?$allocator@U?$pair@$$CBV?$basic_string@DU?$char_traits@D@std@@V?$allocator@D@2@@std@@G@std@@@2@$0A@@std@@@std@@IAE?AU?$pair@V?$_List_iterator@V?$_List_val@U?$_List_simple_types@U?$pair@$$CBV?$basic_string@DU?$char_traits@D@std@@V?$allocator@D@2@@std@@G@std@@@std@@@std@@@std@@_N@1@AAU?$pair@$$CBV?$basic_string@DU?$char_traits@D@std@@V?$allocator@D@2@@std@@G@1@V?$_List_unchecked_iterator@V?$_List_val@U?$_List_simple_types@U?$pair@$$CBV?$basic_string@DU?$char_traits@D@std@@V?$allocator@D@2@@std@@G@std@@@std@@@std@@@1@@Z 1009ece0 f i dll.obj
 0002:00012250       ??$_Insert@AAU?$pair@$$CBV?$basic_string@DU?$char_traits@D@std@@V?$allocator@D@2@@std@@VDEVICE@@@std@@V?$_List_unchecked_iterator@V?$_List_val@U?$_List_simple_types@U?$pair@$$CBV?$basic_string@DU?$char_traits@D@std@@V?$allocator@D@2@@std@@VDEVICE@@@std@@@std@@@std@@@2@@?$_Hash@V?$_Umap_traits@V?$basic_string@DU?$char_traits@D@std@@V?$allocator@D@2@@std@@VDEVICE@@V?$_Uhash_compare@V?$basic_string@DU?$char_traits@D@std@@V?$allocator@D@2@@std@@U?$hash@V?$basic_string@DU?$char_traits@D@std@@V?$allocator@D@2@@std@@@2@U?$equal_to@V?$basic_string@DU?$char_traits@D@std@@V?$allocator@D@2@@std@@@2@@2@V?$allocator@U?$pair@$$CBV?$basic_string@DU?$char_traits@D@std@@V?$allocator@D@2@@std@@VDEVICE@@@std@@@2@$0A@@std@@@std@@IAE?AU?$pair@V?$_List_iterator@V?$_List_val@U?$_List_simple_types@U?$pair@$$CBV?$basic_string@DU?$char_traits@D@std@@V?$allocator@D@2@@std@@VDEVICE@@@std@@@std@@@std@@@std@@_N@1@AAU?$pair@$$CBV?$basic_string@DU?$char_traits@D@std@@V?$allocator@D@2@@std@@VDEVICE@@@1@V?$_List_unchecked_iterator@V?$_List_val@U?$_List_simple_types@U?$pair@$$CBV?$basic_string@DU?$char_traits@D@std@@V?$allocator@D@2@@std@@VDEVICE@@@std@@@std@@@std@@@1@@Z 1009f250 f i dll.obj
 0002:000127c0       ??$_Insert@ABUpiecewise_construct_t@std@@V?$tuple@$$QAV?$basic_string@DU?$char_traits@D@std@@V?$allocator@D@2@@std@@@2@V?$tuple@$$V@2@@?$list@U?$pair@$$CBV?$basic_string@DU?$char_traits@D@std@@V?$allocator@D@2@@std@@G@std@@V?$allocator@U?$pair@$$CBV?$basic_string@DU?$char_traits@D@std@@V?$allocator@D@2@@std@@G@std@@@2@@std@@QAEXV?$_List_unchecked_const_iterator@V?$_List_val@U?$_List_simple_types@U?$pair@$$CBV?$basic_string@DU?$char_traits@D@std@@V?$allocator@D@2@@std@@G@std@@@std@@@std@@U_Iterator_base0@2@@1@ABUpiecewise_construct_t@1@$$QAV?$tuple@$$QAV?$basic_string@DU?$char_traits@D@std@@V?$allocator@D@2@@std@@@1@$$QAV?$tuple@$$V@1@@Z 1009f7c0 f i dll.obj
 0002:000128b0       ??$_Insert@ABUpiecewise_construct_t@std@@V?$tuple@$$QAV?$basic_string@DU?$char_traits@D@std@@V?$allocator@D@2@@std@@@2@V?$tuple@$$V@2@@?$list@U?$pair@$$CBV?$basic_string@DU?$char_traits@D@std@@V?$allocator@D@2@@std@@VDEVICE@@@std@@V?$allocator@U?$pair@$$CBV?$basic_string@DU?$char_traits@D@std@@V?$allocator@D@2@@std@@VDEVICE@@@std@@@2@@std@@QAEXV?$_List_unchecked_const_iterator@V?$_List_val@U?$_List_simple_types@U?$pair@$$CBV?$basic_string@DU?$char_traits@D@std@@V?$allocator@D@2@@std@@VDEVICE@@@std@@@std@@@std@@U_Iterator_base0@2@@1@ABUpiecewise_construct_t@1@$$QAV?$tuple@$$QAV?$basic_string@DU?$char_traits@D@std@@V?$allocator@D@2@@std@@@1@$$QAV?$tuple@$$V@1@@Z 1009f8b0 f i dll.obj
 0002:000129a0       ??$_Is_checked@V?$_Deque_iterator@V?$_Deque_val@U?$_Deque_simple_types@UFORMULA2_PAIR@@@std@@@std@@@std@@@std@@YA?AU?$integral_constant@_N$00@0@V?$_Deque_iterator@V?$_Deque_val@U?$_Deque_simple_types@UFORMULA2_PAIR@@@std@@@std@@@0@@Z 1009f9a0 f i dll.obj
 0002:00012a10       ??$_Is_checked@V?$_Deque_iterator@V?$_Deque_val@U?$_Deque_simple_types@UFORMULA_PAIR@@@std@@@std@@@std@@@std@@YA?AU?$integral_constant@_N$00@0@V?$_Deque_iterator@V?$_Deque_val@U?$_Deque_simple_types@UFORMULA_PAIR@@@std@@@std@@@0@@Z 1009fa10 f i dll.obj
 0002:00012a80       ??$_Kfn@$$CBV?$basic_string@DU?$char_traits@D@std@@V?$allocator@D@2@@std@@G@?$_Umap_traits@V?$basic_string@DU?$char_traits@D@std@@V?$allocator@D@2@@std@@GV?$_Uhash_compare@V?$basic_string@DU?$char_traits@D@std@@V?$allocator@D@2@@std@@U?$hash@V?$basic_string@DU?$char_traits@D@std@@V?$allocator@D@2@@std@@@2@U?$equal_to@V?$basic_string@DU?$char_traits@D@std@@V?$allocator@D@2@@std@@@2@@2@V?$allocator@U?$pair@$$CBV?$basic_string@DU?$char_traits@D@std@@V?$allocator@D@2@@std@@G@std@@@2@$0A@@std@@SAABV?$basic_string@DU?$char_traits@D@std@@V?$allocator@D@2@@1@ABU?$pair@$$CBV?$basic_string@DU?$char_traits@D@std@@V?$allocator@D@2@@std@@G@1@@Z 1009fa80 f i dll.obj
 0002:00012ac0       ??$_Kfn@$$CBV?$basic_string@DU?$char_traits@D@std@@V?$allocator@D@2@@std@@VDEVICE@@@?$_Umap_traits@V?$basic_string@DU?$char_traits@D@std@@V?$allocator@D@2@@std@@VDEVICE@@V?$_Uhash_compare@V?$basic_string@DU?$char_traits@D@std@@V?$allocator@D@2@@std@@U?$hash@V?$basic_string@DU?$char_traits@D@std@@V?$allocator@D@2@@std@@@2@U?$equal_to@V?$basic_string@DU?$char_traits@D@std@@V?$allocator@D@2@@std@@@2@@2@V?$allocator@U?$pair@$$CBV?$basic_string@DU?$char_traits@D@std@@V?$allocator@D@2@@std@@VDEVICE@@@std@@@2@$0A@@std@@SAABV?$basic_string@DU?$char_traits@D@std@@V?$allocator@D@2@@1@ABU?$pair@$$CBV?$basic_string@DU?$char_traits@D@std@@V?$allocator@D@2@@std@@VDEVICE@@@1@@Z 1009fac0 f i dll.obj
 0002:00012b00       ??$_Move_backward1@V?$_Deque_unchecked_iterator@V?$_Deque_val@U?$_Deque_simple_types@UFORMULA2_PAIR@@@std@@@std@@@std@@V?$_Deque_iterator@V?$_Deque_val@U?$_Deque_simple_types@UFORMULA2_PAIR@@@std@@@std@@@2@@std@@YA?AV?$_Deque_iterator@V?$_Deque_val@U?$_Deque_simple_types@UFORMULA2_PAIR@@@std@@@std@@@0@V?$_Deque_unchecked_iterator@V?$_Deque_val@U?$_Deque_simple_types@UFORMULA2_PAIR@@@std@@@std@@@0@0V10@Urandom_access_iterator_tag@0@2@Z 1009fb00 f i dll.obj
 0002:00012c80       ??$_Move_backward1@V?$_Deque_unchecked_iterator@V?$_Deque_val@U?$_Deque_simple_types@UFORMULA_PAIR@@@std@@@std@@@std@@V?$_Deque_iterator@V?$_Deque_val@U?$_Deque_simple_types@UFORMULA_PAIR@@@std@@@std@@@2@@std@@YA?AV?$_Deque_iterator@V?$_Deque_val@U?$_Deque_simple_types@UFORMULA_PAIR@@@std@@@std@@@0@V?$_Deque_unchecked_iterator@V?$_Deque_val@U?$_Deque_simple_types@UFORMULA_PAIR@@@std@@@std@@@0@0V10@Urandom_access_iterator_tag@0@2@Z 1009fc80 f i dll.obj
 0002:00012e00       ??$_Move_backward_unchecked1@PAV?$_List_unchecked_iterator@V?$_List_val@U?$_List_simple_types@U?$pair@$$CBV?$basic_string@DU?$char_traits@D@std@@V?$allocator@D@2@@std@@G@std@@@std@@@std@@@std@@PAV12@@std@@YAPAV?$_List_unchecked_iterator@V?$_List_val@U?$_List_simple_types@U?$pair@$$CBV?$basic_string@DU?$char_traits@D@std@@V?$allocator@D@2@@std@@G@std@@@std@@@std@@@0@PAV10@00U_Trivially_copyable_ptr_iterator_tag@0@@Z 1009fe00 f i dll.obj
 0002:00012e60       ??$_Move_backward_unchecked1@PAV?$_List_unchecked_iterator@V?$_List_val@U?$_List_simple_types@U?$pair@$$CBV?$basic_string@DU?$char_traits@D@std@@V?$allocator@D@2@@std@@VDEVICE@@@std@@@std@@@std@@@std@@PAV12@@std@@YAPAV?$_List_unchecked_iterator@V?$_List_val@U?$_List_simple_types@U?$pair@$$CBV?$basic_string@DU?$char_traits@D@std@@V?$allocator@D@2@@std@@VDEVICE@@@std@@@std@@@std@@@0@PAV10@00U_Trivially_copyable_ptr_iterator_tag@0@@Z 1009fe60 f i dll.obj
 0002:00012ec0       ??$_Move_backward_unchecked1@V?$_Deque_unchecked_iterator@V?$_Deque_val@U?$_Deque_simple_types@UFORMULA2_PAIR@@@std@@@std@@@std@@V12@@std@@YA?AV?$_Deque_unchecked_iterator@V?$_Deque_val@U?$_Deque_simple_types@UFORMULA2_PAIR@@@std@@@std@@@0@V10@00U_General_ptr_iterator_tag@0@@Z 1009fec0 f i dll.obj
 0002:00012f70       ??$_Move_backward_unchecked1@V?$_Deque_unchecked_iterator@V?$_Deque_val@U?$_Deque_simple_types@UFORMULA_PAIR@@@std@@@std@@@std@@V12@@std@@YA?AV?$_Deque_unchecked_iterator@V?$_Deque_val@U?$_Deque_simple_types@UFORMULA_PAIR@@@std@@@std@@@0@V10@00U_General_ptr_iterator_tag@0@@Z 1009ff70 f i dll.obj
 0002:00013020       ??$_Move_backward_unchecked@PAV?$_List_unchecked_iterator@V?$_List_val@U?$_List_simple_types@U?$pair@$$CBV?$basic_string@DU?$char_traits@D@std@@V?$allocator@D@2@@std@@G@std@@@std@@@std@@@std@@PAV12@@std@@YAPAV?$_List_unchecked_iterator@V?$_List_val@U?$_List_simple_types@U?$pair@$$CBV?$basic_string@DU?$char_traits@D@std@@V?$allocator@D@2@@std@@G@std@@@std@@@std@@@0@PAV10@00@Z 100a0020 f i dll.obj
 0002:000130a0       ??$_Move_backward_unchecked@PAV?$_List_unchecked_iterator@V?$_List_val@U?$_List_simple_types@U?$pair@$$CBV?$basic_string@DU?$char_traits@D@std@@V?$allocator@D@2@@std@@VDEVICE@@@std@@@std@@@std@@@std@@PAV12@@std@@YAPAV?$_List_unchecked_iterator@V?$_List_val@U?$_List_simple_types@U?$pair@$$CBV?$basic_string@DU?$char_traits@D@std@@V?$allocator@D@2@@std@@VDEVICE@@@std@@@std@@@std@@@0@PAV10@00@Z 100a00a0 f i dll.obj
 0002:00013120       ??$_Move_backward_unchecked@V?$_Deque_unchecked_iterator@V?$_Deque_val@U?$_Deque_simple_types@UFORMULA2_PAIR@@@std@@@std@@@std@@V12@@std@@YA?AV?$_Deque_unchecked_iterator@V?$_Deque_val@U?$_Deque_simple_types@UFORMULA2_PAIR@@@std@@@std@@@0@V10@00@Z 100a0120 f i dll.obj
 0002:000131c0       ??$_Move_backward_unchecked@V?$_Deque_unchecked_iterator@V?$_Deque_val@U?$_Deque_simple_types@UFORMULA_PAIR@@@std@@@std@@@std@@V12@@std@@YA?AV?$_Deque_unchecked_iterator@V?$_Deque_val@U?$_Deque_simple_types@UFORMULA_PAIR@@@std@@@std@@@0@V10@00@Z 100a01c0 f i dll.obj
 0002:00013260       ??$_Move_no_deprecate1@V?$_Deque_unchecked_iterator@V?$_Deque_val@U?$_Deque_simple_types@UFORMULA2_PAIR@@@std@@@std@@@std@@V?$_Deque_iterator@V?$_Deque_val@U?$_Deque_simple_types@UFORMULA2_PAIR@@@std@@@std@@@2@@std@@YA?AV?$_Deque_iterator@V?$_Deque_val@U?$_Deque_simple_types@UFORMULA2_PAIR@@@std@@@std@@@0@V?$_Deque_unchecked_iterator@V?$_Deque_val@U?$_Deque_simple_types@UFORMULA2_PAIR@@@std@@@std@@@0@0V10@Urandom_access_iterator_tag@0@2@Z 100a0260 f i dll.obj
 0002:000133e0       ??$_Move_no_deprecate1@V?$_Deque_unchecked_iterator@V?$_Deque_val@U?$_Deque_simple_types@UFORMULA_PAIR@@@std@@@std@@@std@@V?$_Deque_iterator@V?$_Deque_val@U?$_Deque_simple_types@UFORMULA_PAIR@@@std@@@std@@@2@@std@@YA?AV?$_Deque_iterator@V?$_Deque_val@U?$_Deque_simple_types@UFORMULA_PAIR@@@std@@@std@@@0@V?$_Deque_unchecked_iterator@V?$_Deque_val@U?$_Deque_simple_types@UFORMULA_PAIR@@@std@@@std@@@0@0V10@Urandom_access_iterator_tag@0@2@Z 100a03e0 f i dll.obj
 0002:00013560       ??$_Move_no_deprecate@V?$_Deque_iterator@V?$_Deque_val@U?$_Deque_simple_types@UFORMULA2_PAIR@@@std@@@std@@@std@@V12@@std@@YA?AV?$_Deque_iterator@V?$_Deque_val@U?$_Deque_simple_types@UFORMULA2_PAIR@@@std@@@std@@@0@V10@00@Z 100a0560 f i dll.obj
 0002:000137c0       ??$_Move_no_deprecate@V?$_Deque_iterator@V?$_Deque_val@U?$_Deque_simple_types@UFORMULA_PAIR@@@std@@@std@@@std@@V12@@std@@YA?AV?$_Deque_iterator@V?$_Deque_val@U?$_Deque_simple_types@UFORMULA_PAIR@@@std@@@std@@@0@V10@00@Z 100a07c0 f i dll.obj
 0002:00013a20       ??$_Move_unchecked1@V?$_Deque_unchecked_iterator@V?$_Deque_val@U?$_Deque_simple_types@UFORMULA2_PAIR@@@std@@@std@@@std@@V12@@std@@YA?AV?$_Deque_unchecked_iterator@V?$_Deque_val@U?$_Deque_simple_types@UFORMULA2_PAIR@@@std@@@std@@@0@V10@00U_General_ptr_iterator_tag@0@@Z 100a0a20 f i dll.obj
 0002:00013ad0       ??$_Move_unchecked1@V?$_Deque_unchecked_iterator@V?$_Deque_val@U?$_Deque_simple_types@UFORMULA_PAIR@@@std@@@std@@@std@@V12@@std@@YA?AV?$_Deque_unchecked_iterator@V?$_Deque_val@U?$_Deque_simple_types@UFORMULA_PAIR@@@std@@@std@@@0@V10@00U_General_ptr_iterator_tag@0@@Z 100a0ad0 f i dll.obj
 0002:00013b80       ??$_Move_unchecked@V?$_Deque_unchecked_iterator@V?$_Deque_val@U?$_Deque_simple_types@UFORMULA2_PAIR@@@std@@@std@@@std@@V12@@std@@YA?AV?$_Deque_unchecked_iterator@V?$_Deque_val@U?$_Deque_simple_types@UFORMULA2_PAIR@@@std@@@std@@@0@V10@00@Z 100a0b80 f i dll.obj
 0002:00013c20       ??$_Move_unchecked@V?$_Deque_unchecked_iterator@V?$_Deque_val@U?$_Deque_simple_types@UFORMULA_PAIR@@@std@@@std@@@std@@V12@@std@@YA?AV?$_Deque_unchecked_iterator@V?$_Deque_val@U?$_Deque_simple_types@UFORMULA_PAIR@@@std@@@std@@@0@V10@00@Z 100a0c20 f i dll.obj
 0002:00013cc0       ??$_Pocca@U?$_Wrap_alloc@V?$allocator@D@std@@@std@@@std@@YAXAAU?$_Wrap_alloc@V?$allocator@D@std@@@0@ABU10@@Z 100a0cc0 f i dll.obj
 0002:00013d50       ??$_Pocca@U?$_Wrap_alloc@V?$allocator@D@std@@@std@@@std@@YAXAAU?$_Wrap_alloc@V?$allocator@D@std@@@0@ABU10@U?$integral_constant@_N$0A@@0@@Z 100a0d50 f i dll.obj
 0002:00013d80       ??$_Pocca@U?$_Wrap_alloc@V?$allocator@UFORMULA2_PAIR@@@std@@@std@@@std@@YAXAAU?$_Wrap_alloc@V?$allocator@UFORMULA2_PAIR@@@std@@@0@ABU10@@Z 100a0d80 f i dll.obj
 0002:00013e10       ??$_Pocca@U?$_Wrap_alloc@V?$allocator@UFORMULA2_PAIR@@@std@@@std@@@std@@YAXAAU?$_Wrap_alloc@V?$allocator@UFORMULA2_PAIR@@@std@@@0@ABU10@U?$integral_constant@_N$0A@@0@@Z 100a0e10 f i dll.obj
 0002:00013e40       ??$_Pocca@U?$_Wrap_alloc@V?$allocator@UFORMULA_PAIR@@@std@@@std@@@std@@YAXAAU?$_Wrap_alloc@V?$allocator@UFORMULA_PAIR@@@std@@@0@ABU10@@Z 100a0e40 f i dll.obj
 0002:00013ed0       ??$_Pocca@U?$_Wrap_alloc@V?$allocator@UFORMULA_PAIR@@@std@@@std@@@std@@YAXAAU?$_Wrap_alloc@V?$allocator@UFORMULA_PAIR@@@std@@@0@ABU10@U?$integral_constant@_N$0A@@0@@Z 100a0ed0 f i dll.obj
 0002:00013f00       ??$_Ptr_copy_cat@PAUFORMULA2_PAIR@@PAU1@@std@@YA?AU_Really_trivial_ptr_iterator_tag@0@ABQAPAUFORMULA2_PAIR@@0@Z 100a0f00 f i dll.obj
 0002:00013f40       ??$_Ptr_copy_cat@PAUFORMULA_PAIR@@PAU1@@std@@YA?AU_Really_trivial_ptr_iterator_tag@0@ABQAPAUFORMULA_PAIR@@0@Z 100a0f40 f i dll.obj
 0002:00013f80       ??$_Ptr_copy_cat@V?$_Deque_unchecked_const_iterator@V?$_Deque_val@U?$_Deque_simple_types@UFORMULA2_PAIR@@@std@@@std@@@std@@V?$_Deque_unchecked_iterator@V?$_Deque_val@U?$_Deque_simple_types@UFORMULA2_PAIR@@@std@@@std@@@2@@std@@YA?AU_General_ptr_iterator_tag@0@ABV?$_Deque_unchecked_const_iterator@V?$_Deque_val@U?$_Deque_simple_types@UFORMULA2_PAIR@@@std@@@std@@@0@ABV?$_Deque_unchecked_iterator@V?$_Deque_val@U?$_Deque_simple_types@UFORMULA2_PAIR@@@std@@@std@@@0@@Z 100a0f80 f i dll.obj
 0002:00013fc0       ??$_Ptr_copy_cat@V?$_Deque_unchecked_const_iterator@V?$_Deque_val@U?$_Deque_simple_types@UFORMULA_PAIR@@@std@@@std@@@std@@V?$_Deque_unchecked_iterator@V?$_Deque_val@U?$_Deque_simple_types@UFORMULA_PAIR@@@std@@@std@@@2@@std@@YA?AU_General_ptr_iterator_tag@0@ABV?$_Deque_unchecked_const_iterator@V?$_Deque_val@U?$_Deque_simple_types@UFORMULA_PAIR@@@std@@@std@@@0@ABV?$_Deque_unchecked_iterator@V?$_Deque_val@U?$_Deque_simple_types@UFORMULA_PAIR@@@std@@@std@@@0@@Z 100a0fc0 f i dll.obj
 0002:00014000       ??$_Ptr_move_cat@V?$_Deque_unchecked_iterator@V?$_Deque_val@U?$_Deque_simple_types@UFORMULA2_PAIR@@@std@@@std@@@std@@V12@@std@@YA?AU_General_ptr_iterator_tag@0@ABV?$_Deque_unchecked_iterator@V?$_Deque_val@U?$_Deque_simple_types@UFORMULA2_PAIR@@@std@@@std@@@0@0@Z 100a1000 f i dll.obj
 0002:00014040       ??$_Ptr_move_cat@V?$_Deque_unchecked_iterator@V?$_Deque_val@U?$_Deque_simple_types@UFORMULA_PAIR@@@std@@@std@@@std@@V12@@std@@YA?AU_General_ptr_iterator_tag@0@ABV?$_Deque_unchecked_iterator@V?$_Deque_val@U?$_Deque_simple_types@UFORMULA_PAIR@@@std@@@std@@@0@0@Z 100a1040 f i dll.obj
 0002:00014080       ??$_Ptr_move_cat@V?$_List_unchecked_iterator@V?$_List_val@U?$_List_simple_types@U?$pair@$$CBV?$basic_string@DU?$char_traits@D@std@@V?$allocator@D@2@@std@@G@std@@@std@@@std@@@std@@V12@@std@@YA?AU_Trivially_copyable_ptr_iterator_tag@0@ABQAV?$_List_unchecked_iterator@V?$_List_val@U?$_List_simple_types@U?$pair@$$CBV?$basic_string@DU?$char_traits@D@std@@V?$allocator@D@2@@std@@G@std@@@std@@@std@@@0@0@Z 100a1080 f i dll.obj
 0002:000140c0       ??$_Ptr_move_cat@V?$_List_unchecked_iterator@V?$_List_val@U?$_List_simple_types@U?$pair@$$CBV?$basic_string@DU?$char_traits@D@std@@V?$allocator@D@2@@std@@VDEVICE@@@std@@@std@@@std@@@std@@V12@@std@@YA?AU_Trivially_copyable_ptr_iterator_tag@0@ABQAV?$_List_unchecked_iterator@V?$_List_val@U?$_List_simple_types@U?$pair@$$CBV?$basic_string@DU?$char_traits@D@std@@V?$allocator@D@2@@std@@VDEVICE@@@std@@@std@@@std@@@0@0@Z 100a10c0 f i dll.obj
 0002:00014100       ??$_Rechecked@PAPAUFORMULA2_PAIR@@PAPAU1@@std@@YAAAPAPAUFORMULA2_PAIR@@AAPAPAU1@PAPAU1@@Z 100a1100 f i dll.obj
 0002:00014140       ??$_Rechecked@PAPAUFORMULA_PAIR@@PAPAU1@@std@@YAAAPAPAUFORMULA_PAIR@@AAPAPAU1@PAPAU1@@Z 100a1140 f i dll.obj
 0002:00014180       ??$_Rechecked@PAV?$_List_unchecked_iterator@V?$_List_val@U?$_List_simple_types@U?$pair@$$CBV?$basic_string@DU?$char_traits@D@std@@V?$allocator@D@2@@std@@G@std@@@std@@@std@@@std@@PAV12@@std@@YAAAPAV?$_List_unchecked_iterator@V?$_List_val@U?$_List_simple_types@U?$pair@$$CBV?$basic_string@DU?$char_traits@D@std@@V?$allocator@D@2@@std@@G@std@@@std@@@std@@@0@AAPAV10@PAV10@@Z 100a1180 f i dll.obj
 0002:000141c0       ??$_Rechecked@PAV?$_List_unchecked_iterator@V?$_List_val@U?$_List_simple_types@U?$pair@$$CBV?$basic_string@DU?$char_traits@D@std@@V?$allocator@D@2@@std@@VDEVICE@@@std@@@std@@@std@@@std@@PAV12@@std@@YAAAPAV?$_List_unchecked_iterator@V?$_List_val@U?$_List_simple_types@U?$pair@$$CBV?$basic_string@DU?$char_traits@D@std@@V?$allocator@D@2@@std@@VDEVICE@@@std@@@std@@@std@@@0@AAPAV10@PAV10@@Z 100a11c0 f i dll.obj
 0002:00014200       ??$_Rechecked@V?$_Deque_val@U?$_Deque_simple_types@UFORMULA2_PAIR@@@std@@@std@@@std@@YAAAV?$_Deque_iterator@V?$_Deque_val@U?$_Deque_simple_types@UFORMULA2_PAIR@@@std@@@std@@@0@AAV10@V?$_Deque_unchecked_iterator@V?$_Deque_val@U?$_Deque_simple_types@UFORMULA2_PAIR@@@std@@@std@@@0@@Z 100a1200 f i dll.obj
 0002:00014260       ??$_Rechecked@V?$_Deque_val@U?$_Deque_simple_types@UFORMULA_PAIR@@@std@@@std@@@std@@YAAAV?$_Deque_iterator@V?$_Deque_val@U?$_Deque_simple_types@UFORMULA_PAIR@@@std@@@std@@@0@AAV10@V?$_Deque_unchecked_iterator@V?$_Deque_val@U?$_Deque_simple_types@UFORMULA_PAIR@@@std@@@std@@@0@@Z 100a1260 f i dll.obj
 0002:000142c0       ??$_Reverse_unchecked@V?$_Deque_unchecked_iterator@V?$_Deque_val@U?$_Deque_simple_types@UFORMULA2_PAIR@@@std@@@std@@@std@@@std@@YAXV?$_Deque_unchecked_iterator@V?$_Deque_val@U?$_Deque_simple_types@UFORMULA2_PAIR@@@std@@@std@@@0@0@Z 100a12c0 f i dll.obj
 0002:00014370       ??$_Reverse_unchecked@V?$_Deque_unchecked_iterator@V?$_Deque_val@U?$_Deque_simple_types@UFORMULA_PAIR@@@std@@@std@@@std@@@std@@YAXV?$_Deque_unchecked_iterator@V?$_Deque_val@U?$_Deque_simple_types@UFORMULA_PAIR@@@std@@@std@@@0@0@Z 100a1370 f i dll.obj
 0002:00014420       ??$_Rotate_unchecked1@V?$_Deque_unchecked_iterator@V?$_Deque_val@U?$_Deque_simple_types@UFORMULA2_PAIR@@@std@@@std@@@std@@@std@@YA?AV?$_Deque_unchecked_iterator@V?$_Deque_val@U?$_Deque_simple_types@UFORMULA2_PAIR@@@std@@@std@@@0@V10@00Urandom_access_iterator_tag@0@@Z 100a1420 f i dll.obj
 0002:000144e0       ??$_Rotate_unchecked1@V?$_Deque_unchecked_iterator@V?$_Deque_val@U?$_Deque_simple_types@UFORMULA_PAIR@@@std@@@std@@@std@@@std@@YA?AV?$_Deque_unchecked_iterator@V?$_Deque_val@U?$_Deque_simple_types@UFORMULA_PAIR@@@std@@@std@@@0@V10@00Urandom_access_iterator_tag@0@@Z 100a14e0 f i dll.obj
 0002:000145a0       ??$_Rotate_unchecked@V?$_Deque_unchecked_iterator@V?$_Deque_val@U?$_Deque_simple_types@UFORMULA2_PAIR@@@std@@@std@@@std@@@std@@YA?AV?$_Deque_unchecked_iterator@V?$_Deque_val@U?$_Deque_simple_types@UFORMULA2_PAIR@@@std@@@std@@@0@V10@00@Z 100a15a0 f i dll.obj
 0002:00014690       ??$_Rotate_unchecked@V?$_Deque_unchecked_iterator@V?$_Deque_val@U?$_Deque_simple_types@UFORMULA_PAIR@@@std@@@std@@@std@@@std@@YA?AV?$_Deque_unchecked_iterator@V?$_Deque_val@U?$_Deque_simple_types@UFORMULA_PAIR@@@std@@@std@@@0@V10@00@Z 100a1690 f i dll.obj
 0002:00014780       ??$_Try_emplace@V?$basic_string@DU?$char_traits@D@std@@V?$allocator@D@2@@std@@$$V@?$unordered_map@V?$basic_string@DU?$char_traits@D@std@@V?$allocator@D@2@@std@@GU?$hash@V?$basic_string@DU?$char_traits@D@std@@V?$allocator@D@2@@std@@@2@U?$equal_to@V?$basic_string@DU?$char_traits@D@std@@V?$allocator@D@2@@std@@@2@V?$allocator@U?$pair@$$CBV?$basic_string@DU?$char_traits@D@std@@V?$allocator@D@2@@std@@G@std@@@2@@std@@QAE?AU?$pair@V?$_List_iterator@V?$_List_val@U?$_List_simple_types@U?$pair@$$CBV?$basic_string@DU?$char_traits@D@std@@V?$allocator@D@2@@std@@G@std@@@std@@@std@@@std@@_N@1@$$QAV?$basic_string@DU?$char_traits@D@std@@V?$allocator@D@2@@1@@Z 100a1780 f i dll.obj
 0002:000149a0       ??$_Try_emplace@V?$basic_string@DU?$char_traits@D@std@@V?$allocator@D@2@@std@@$$V@?$unordered_map@V?$basic_string@DU?$char_traits@D@std@@V?$allocator@D@2@@std@@VDEVICE@@U?$hash@V?$basic_string@DU?$char_traits@D@std@@V?$allocator@D@2@@std@@@2@U?$equal_to@V?$basic_string@DU?$char_traits@D@std@@V?$allocator@D@2@@std@@@2@V?$allocator@U?$pair@$$CBV?$basic_string@DU?$char_traits@D@std@@V?$allocator@D@2@@std@@VDEVICE@@@std@@@2@@std@@QAE?AU?$pair@V?$_List_iterator@V?$_List_val@U?$_List_simple_types@U?$pair@$$CBV?$basic_string@DU?$char_traits@D@std@@V?$allocator@D@2@@std@@VDEVICE@@@std@@@std@@@std@@@std@@_N@1@$$QAV?$basic_string@DU?$char_traits@D@std@@V?$allocator@D@2@@1@@Z 100a19a0 f i dll.obj
 0002:00014bc0       ??$_Umove@PAV?$_List_unchecked_iterator@V?$_List_val@U?$_List_simple_types@U?$pair@$$CBV?$basic_string@DU?$char_traits@D@std@@V?$allocator@D@2@@std@@G@std@@@std@@@std@@@std@@@?$vector@V?$_List_unchecked_iterator@V?$_List_val@U?$_List_simple_types@U?$pair@$$CBV?$basic_string@DU?$char_traits@D@std@@V?$allocator@D@2@@std@@G@std@@@std@@@std@@@std@@U?$_Wrap_alloc@V?$allocator@V?$_List_unchecked_iterator@V?$_List_val@U?$_List_simple_types@U?$pair@$$CBV?$basic_string@DU?$char_traits@D@std@@V?$allocator@D@2@@std@@G@std@@@std@@@std@@@std@@@std@@@2@@std@@IAEPAV?$_List_unchecked_iterator@V?$_List_val@U?$_List_simple_types@U?$pair@$$CBV?$basic_string@DU?$char_traits@D@std@@V?$allocator@D@2@@std@@G@std@@@std@@@std@@@1@PAV21@00@Z 100a1bc0 f i dll.obj
 0002:00014c30       ??$_Umove@PAV?$_List_unchecked_iterator@V?$_List_val@U?$_List_simple_types@U?$pair@$$CBV?$basic_string@DU?$char_traits@D@std@@V?$allocator@D@2@@std@@VDEVICE@@@std@@@std@@@std@@@std@@@?$vector@V?$_List_unchecked_iterator@V?$_List_val@U?$_List_simple_types@U?$pair@$$CBV?$basic_string@DU?$char_traits@D@std@@V?$allocator@D@2@@std@@VDEVICE@@@std@@@std@@@std@@@std@@U?$_Wrap_alloc@V?$allocator@V?$_List_unchecked_iterator@V?$_List_val@U?$_List_simple_types@U?$pair@$$CBV?$basic_string@DU?$char_traits@D@std@@V?$allocator@D@2@@std@@VDEVICE@@@std@@@std@@@std@@@std@@@std@@@2@@std@@IAEPAV?$_List_unchecked_iterator@V?$_List_val@U?$_List_simple_types@U?$pair@$$CBV?$basic_string@DU?$char_traits@D@std@@V?$allocator@D@2@@std@@VDEVICE@@@std@@@std@@@std@@@1@PAV21@00@Z 100a1c30 f i dll.obj
 0002:00014ca0       ??$_Unchecked@PAPAUFORMULA2_PAIR@@@std@@YAPAPAUFORMULA2_PAIR@@PAPAU1@@Z 100a1ca0 f i dll.obj
 0002:00014ce0       ??$_Unchecked@PAPAUFORMULA_PAIR@@@std@@YAPAPAUFORMULA_PAIR@@PAPAU1@@Z 100a1ce0 f i dll.obj
 0002:00014d20       ??$_Unchecked@PAV?$_List_unchecked_iterator@V?$_List_val@U?$_List_simple_types@U?$pair@$$CBV?$basic_string@DU?$char_traits@D@std@@V?$allocator@D@2@@std@@G@std@@@std@@@std@@@std@@@std@@YAPAV?$_List_unchecked_iterator@V?$_List_val@U?$_List_simple_types@U?$pair@$$CBV?$basic_string@DU?$char_traits@D@std@@V?$allocator@D@2@@std@@G@std@@@std@@@std@@@0@PAV10@@Z 100a1d20 f i dll.obj
 0002:00014d60       ??$_Unchecked@PAV?$_List_unchecked_iterator@V?$_List_val@U?$_List_simple_types@U?$pair@$$CBV?$basic_string@DU?$char_traits@D@std@@V?$allocator@D@2@@std@@VDEVICE@@@std@@@std@@@std@@@std@@@std@@YAPAV?$_List_unchecked_iterator@V?$_List_val@U?$_List_simple_types@U?$pair@$$CBV?$basic_string@DU?$char_traits@D@std@@V?$allocator@D@2@@std@@VDEVICE@@@std@@@std@@@std@@@0@PAV10@@Z 100a1d60 f i dll.obj
 0002:00014da0       ??$_Unchecked@V?$_Deque_val@U?$_Deque_simple_types@UFORMULA2_PAIR@@@std@@@std@@@std@@YA?AV?$_Deque_unchecked_const_iterator@V?$_Deque_val@U?$_Deque_simple_types@UFORMULA2_PAIR@@@std@@@std@@@0@V?$_Deque_const_iterator@V?$_Deque_val@U?$_Deque_simple_types@UFORMULA2_PAIR@@@std@@@std@@@0@@Z 100a1da0 f i dll.obj
 0002:00014e50       ??$_Unchecked@V?$_Deque_val@U?$_Deque_simple_types@UFORMULA2_PAIR@@@std@@@std@@@std@@YA?AV?$_Deque_unchecked_iterator@V?$_Deque_val@U?$_Deque_simple_types@UFORMULA2_PAIR@@@std@@@std@@@0@V?$_Deque_iterator@V?$_Deque_val@U?$_Deque_simple_types@UFORMULA2_PAIR@@@std@@@std@@@0@@Z 100a1e50 f i dll.obj
 0002:00014f00       ??$_Unchecked@V?$_Deque_val@U?$_Deque_simple_types@UFORMULA_PAIR@@@std@@@std@@@std@@YA?AV?$_Deque_unchecked_const_iterator@V?$_Deque_val@U?$_Deque_simple_types@UFORMULA_PAIR@@@std@@@std@@@0@V?$_Deque_const_iterator@V?$_Deque_val@U?$_Deque_simple_types@UFORMULA_PAIR@@@std@@@std@@@0@@Z 100a1f00 f i dll.obj
 0002:00014fb0       ??$_Unchecked@V?$_Deque_val@U?$_Deque_simple_types@UFORMULA_PAIR@@@std@@@std@@@std@@YA?AV?$_Deque_unchecked_iterator@V?$_Deque_val@U?$_Deque_simple_types@UFORMULA_PAIR@@@std@@@std@@@0@V?$_Deque_iterator@V?$_Deque_val@U?$_Deque_simple_types@UFORMULA_PAIR@@@std@@@std@@@0@@Z 100a1fb0 f i dll.obj
 0002:00015060       ??$_Unfancy@D@std@@YAPADPAD@Z 100a2060 f i dll.obj
 0002:000150a0       ??$_Unfancy@UFORMULA2_PAIR@@@std@@YAPAUFORMULA2_PAIR@@PAU1@@Z 100a20a0 f i dll.obj
 0002:000150e0       ??$_Unfancy@UFORMULA_PAIR@@@std@@YAPAUFORMULA_PAIR@@PAU1@@Z 100a20e0 f i dll.obj
 0002:00015120       ??$_Unfancy@U_Container_proxy@std@@@std@@YAPAU_Container_proxy@0@PAU10@@Z 100a2120 f i dll.obj
 0002:00015160       ??$_Unfancy@V?$_List_unchecked_iterator@V?$_List_val@U?$_List_simple_types@U?$pair@$$CBV?$basic_string@DU?$char_traits@D@std@@V?$allocator@D@2@@std@@G@std@@@std@@@std@@@std@@@std@@YAPAV?$_List_unchecked_iterator@V?$_List_val@U?$_List_simple_types@U?$pair@$$CBV?$basic_string@DU?$char_traits@D@std@@V?$allocator@D@2@@std@@G@std@@@std@@@std@@@0@PAV10@@Z 100a2160 f i dll.obj
 0002:000151a0       ??$_Unfancy@V?$_List_unchecked_iterator@V?$_List_val@U?$_List_simple_types@U?$pair@$$CBV?$basic_string@DU?$char_traits@D@std@@V?$allocator@D@2@@std@@VDEVICE@@@std@@@std@@@std@@@std@@@std@@YAPAV?$_List_unchecked_iterator@V?$_List_val@U?$_List_simple_types@U?$pair@$$CBV?$basic_string@DU?$char_traits@D@std@@V?$allocator@D@2@@std@@VDEVICE@@@std@@@std@@@std@@@0@PAV10@@Z 100a21a0 f i dll.obj
 0002:000151e0       ??$_Uninit_alloc_fill_n1@PAV?$_List_unchecked_iterator@V?$_List_val@U?$_List_simple_types@U?$pair@$$CBV?$basic_string@DU?$char_traits@D@std@@V?$allocator@D@2@@std@@G@std@@@std@@@std@@@std@@IU?$_Wrap_alloc@V?$allocator@V?$_List_unchecked_iterator@V?$_List_val@U?$_List_simple_types@U?$pair@$$CBV?$basic_string@DU?$char_traits@D@std@@V?$allocator@D@2@@std@@G@std@@@std@@@std@@@std@@@std@@@2@@std@@YAXPAV?$_List_unchecked_iterator@V?$_List_val@U?$_List_simple_types@U?$pair@$$CBV?$basic_string@DU?$char_traits@D@std@@V?$allocator@D@2@@std@@G@std@@@std@@@std@@@0@IPBV10@AAU?$_Wrap_alloc@U?$_Wrap_alloc@V?$allocator@V?$_List_unchecked_iterator@V?$_List_val@U?$_List_simple_types@U?$pair@$$CBV?$basic_string@DU?$char_traits@D@std@@V?$allocator@D@2@@std@@G@std@@@std@@@std@@@std@@@std@@@std@@@0@U?$integral_constant@_N$0A@@0@@Z 100a21e0 f i dll.obj
 0002:00015300       ??$_Uninit_alloc_fill_n1@PAV?$_List_unchecked_iterator@V?$_List_val@U?$_List_simple_types@U?$pair@$$CBV?$basic_string@DU?$char_traits@D@std@@V?$allocator@D@2@@std@@VDEVICE@@@std@@@std@@@std@@@std@@IU?$_Wrap_alloc@V?$allocator@V?$_List_unchecked_iterator@V?$_List_val@U?$_List_simple_types@U?$pair@$$CBV?$basic_string@DU?$char_traits@D@std@@V?$allocator@D@2@@std@@VDEVICE@@@std@@@std@@@std@@@std@@@std@@@2@@std@@YAXPAV?$_List_unchecked_iterator@V?$_List_val@U?$_List_simple_types@U?$pair@$$CBV?$basic_string@DU?$char_traits@D@std@@V?$allocator@D@2@@std@@VDEVICE@@@std@@@std@@@std@@@0@IPBV10@AAU?$_Wrap_alloc@U?$_Wrap_alloc@V?$allocator@V?$_List_unchecked_iterator@V?$_List_val@U?$_List_simple_types@U?$pair@$$CBV?$basic_string@DU?$char_traits@D@std@@V?$allocator@D@2@@std@@VDEVICE@@@std@@@std@@@std@@@std@@@std@@@std@@@0@U?$integral_constant@_N$0A@@0@@Z 100a2300 f i dll.obj
 0002:00015420       ??$_Uninitialized_copy@PAPAUFORMULA2_PAIR@@PAPAU1@V?$allocator@PAUFORMULA2_PAIR@@@std@@@std@@YAPAPAUFORMULA2_PAIR@@PAPAU1@00AAU?$_Wrap_alloc@V?$allocator@PAUFORMULA2_PAIR@@@std@@@0@@Z 100a2420 f i dll.obj
 0002:000154c0       ??$_Uninitialized_copy@PAPAUFORMULA_PAIR@@PAPAU1@V?$allocator@PAUFORMULA_PAIR@@@std@@@std@@YAPAPAUFORMULA_PAIR@@PAPAU1@00AAU?$_Wrap_alloc@V?$allocator@PAUFORMULA_PAIR@@@std@@@0@@Z 100a24c0 f i dll.obj
 0002:00015560       ??$_Uninitialized_copy_al_unchecked1@PAUFORMULA2_PAIR@@PAU1@V?$allocator@PAUFORMULA2_PAIR@@@std@@@std@@YAPAPAUFORMULA2_PAIR@@PAPAU1@00AAU?$_Wrap_alloc@V?$allocator@PAUFORMULA2_PAIR@@@std@@@0@U_Really_trivial_ptr_iterator_tag@0@U?$integral_constant@_N$00@0@@Z 100a2560 f i dll.obj
 0002:000155c0       ??$_Uninitialized_copy_al_unchecked1@PAUFORMULA_PAIR@@PAU1@V?$allocator@PAUFORMULA_PAIR@@@std@@@std@@YAPAPAUFORMULA_PAIR@@PAPAU1@00AAU?$_Wrap_alloc@V?$allocator@PAUFORMULA_PAIR@@@std@@@0@U_Really_trivial_ptr_iterator_tag@0@U?$integral_constant@_N$00@0@@Z 100a25c0 f i dll.obj
 0002:00015620       ??$_Uninitialized_copy_al_unchecked@PAPAUFORMULA2_PAIR@@PAPAU1@V?$allocator@PAUFORMULA2_PAIR@@@std@@@std@@YAPAPAUFORMULA2_PAIR@@PAPAU1@00AAU?$_Wrap_alloc@V?$allocator@PAUFORMULA2_PAIR@@@std@@@0@@Z 100a2620 f i dll.obj
 0002:000156b0       ??$_Uninitialized_copy_al_unchecked@PAPAUFORMULA_PAIR@@PAPAU1@V?$allocator@PAUFORMULA_PAIR@@@std@@@std@@YAPAPAUFORMULA_PAIR@@PAPAU1@00AAU?$_Wrap_alloc@V?$allocator@PAUFORMULA_PAIR@@@std@@@0@@Z 100a26b0 f i dll.obj
 0002:00015740       ??$_Uninitialized_default_fill_n1@PAPAUFORMULA2_PAIR@@IV?$allocator@PAUFORMULA2_PAIR@@@std@@@std@@YAXPAPAUFORMULA2_PAIR@@IAAU?$_Wrap_alloc@V?$allocator@PAUFORMULA2_PAIR@@@std@@@0@U?$integral_constant@_N$00@0@@Z 100a2740 f i dll.obj
 0002:000157a0       ??$_Uninitialized_default_fill_n1@PAPAUFORMULA_PAIR@@IV?$allocator@PAUFORMULA_PAIR@@@std@@@std@@YAXPAPAUFORMULA_PAIR@@IAAU?$_Wrap_alloc@V?$allocator@PAUFORMULA_PAIR@@@std@@@0@U?$integral_constant@_N$00@0@@Z 100a27a0 f i dll.obj
 0002:00015800       ??$_Uninitialized_default_fill_n@PAPAUFORMULA2_PAIR@@IV?$allocator@PAUFORMULA2_PAIR@@@std@@@std@@YAXPAPAUFORMULA2_PAIR@@IAAU?$_Wrap_alloc@V?$allocator@PAUFORMULA2_PAIR@@@std@@@0@@Z 100a2800 f i dll.obj
 0002:00015870       ??$_Uninitialized_default_fill_n@PAPAUFORMULA_PAIR@@IV?$allocator@PAUFORMULA_PAIR@@@std@@@std@@YAXPAPAUFORMULA_PAIR@@IAAU?$_Wrap_alloc@V?$allocator@PAUFORMULA_PAIR@@@std@@@0@@Z 100a2870 f i dll.obj
 0002:000158e0       ??$_Uninitialized_fill_n@PAV?$_List_unchecked_iterator@V?$_List_val@U?$_List_simple_types@U?$pair@$$CBV?$basic_string@DU?$char_traits@D@std@@V?$allocator@D@2@@std@@G@std@@@std@@@std@@@std@@IU?$_Wrap_alloc@V?$allocator@V?$_List_unchecked_iterator@V?$_List_val@U?$_List_simple_types@U?$pair@$$CBV?$basic_string@DU?$char_traits@D@std@@V?$allocator@D@2@@std@@G@std@@@std@@@std@@@std@@@std@@@2@@std@@YAXPAV?$_List_unchecked_iterator@V?$_List_val@U?$_List_simple_types@U?$pair@$$CBV?$basic_string@DU?$char_traits@D@std@@V?$allocator@D@2@@std@@G@std@@@std@@@std@@@0@IPBV10@AAU?$_Wrap_alloc@U?$_Wrap_alloc@V?$allocator@V?$_List_unchecked_iterator@V?$_List_val@U?$_List_simple_types@U?$pair@$$CBV?$basic_string@DU?$char_traits@D@std@@V?$allocator@D@2@@std@@G@std@@@std@@@std@@@std@@@std@@@std@@@0@@Z 100a28e0 f i dll.obj
 0002:00015950       ??$_Uninitialized_fill_n@PAV?$_List_unchecked_iterator@V?$_List_val@U?$_List_simple_types@U?$pair@$$CBV?$basic_string@DU?$char_traits@D@std@@V?$allocator@D@2@@std@@VDEVICE@@@std@@@std@@@std@@@std@@IU?$_Wrap_alloc@V?$allocator@V?$_List_unchecked_iterator@V?$_List_val@U?$_List_simple_types@U?$pair@$$CBV?$basic_string@DU?$char_traits@D@std@@V?$allocator@D@2@@std@@VDEVICE@@@std@@@std@@@std@@@std@@@std@@@2@@std@@YAXPAV?$_List_unchecked_iterator@V?$_List_val@U?$_List_simple_types@U?$pair@$$CBV?$basic_string@DU?$char_traits@D@std@@V?$allocator@D@2@@std@@VDEVICE@@@std@@@std@@@std@@@0@IPBV10@AAU?$_Wrap_alloc@U?$_Wrap_alloc@V?$allocator@V?$_List_unchecked_iterator@V?$_List_val@U?$_List_simple_types@U?$pair@$$CBV?$basic_string@DU?$char_traits@D@std@@V?$allocator@D@2@@std@@VDEVICE@@@std@@@std@@@std@@@std@@@std@@@std@@@0@@Z 100a2950 f i dll.obj
 0002:000159c0       ??$_Uninitialized_move@PAV?$_List_unchecked_iterator@V?$_List_val@U?$_List_simple_types@U?$pair@$$CBV?$basic_string@DU?$char_traits@D@std@@V?$allocator@D@2@@std@@G@std@@@std@@@std@@@std@@PAV12@U?$_Wrap_alloc@V?$allocator@V?$_List_unchecked_iterator@V?$_List_val@U?$_List_simple_types@U?$pair@$$CBV?$basic_string@DU?$char_traits@D@std@@V?$allocator@D@2@@std@@G@std@@@std@@@std@@@std@@@std@@@2@@std@@YAPAV?$_List_unchecked_iterator@V?$_List_val@U?$_List_simple_types@U?$pair@$$CBV?$basic_string@DU?$char_traits@D@std@@V?$allocator@D@2@@std@@G@std@@@std@@@std@@@0@PAV10@00AAU?$_Wrap_alloc@U?$_Wrap_alloc@V?$allocator@V?$_List_unchecked_iterator@V?$_List_val@U?$_List_simple_types@U?$pair@$$CBV?$basic_string@DU?$char_traits@D@std@@V?$allocator@D@2@@std@@G@std@@@std@@@std@@@std@@@std@@@std@@@0@@Z 100a29c0 f i dll.obj
 0002:00015a60       ??$_Uninitialized_move@PAV?$_List_unchecked_iterator@V?$_List_val@U?$_List_simple_types@U?$pair@$$CBV?$basic_string@DU?$char_traits@D@std@@V?$allocator@D@2@@std@@VDEVICE@@@std@@@std@@@std@@@std@@PAV12@U?$_Wrap_alloc@V?$allocator@V?$_List_unchecked_iterator@V?$_List_val@U?$_List_simple_types@U?$pair@$$CBV?$basic_string@DU?$char_traits@D@std@@V?$allocator@D@2@@std@@VDEVICE@@@std@@@std@@@std@@@std@@@std@@@2@@std@@YAPAV?$_List_unchecked_iterator@V?$_List_val@U?$_List_simple_types@U?$pair@$$CBV?$basic_string@DU?$char_traits@D@std@@V?$allocator@D@2@@std@@VDEVICE@@@std@@@std@@@std@@@0@PAV10@00AAU?$_Wrap_alloc@U?$_Wrap_alloc@V?$allocator@V?$_List_unchecked_iterator@V?$_List_val@U?$_List_simple_types@U?$pair@$$CBV?$basic_string@DU?$char_traits@D@std@@V?$allocator@D@2@@std@@VDEVICE@@@std@@@std@@@std@@@std@@@std@@@std@@@0@@Z 100a2a60 f i dll.obj
 0002:00015b00       ??$_Uninitialized_move_al_unchecked1@PAV?$_List_unchecked_iterator@V?$_List_val@U?$_List_simple_types@U?$pair@$$CBV?$basic_string@DU?$char_traits@D@std@@V?$allocator@D@2@@std@@G@std@@@std@@@std@@@std@@PAV12@U?$_Wrap_alloc@V?$allocator@V?$_List_unchecked_iterator@V?$_List_val@U?$_List_simple_types@U?$pair@$$CBV?$basic_string@DU?$char_traits@D@std@@V?$allocator@D@2@@std@@G@std@@@std@@@std@@@std@@@std@@@2@@std@@YAPAV?$_List_unchecked_iterator@V?$_List_val@U?$_List_simple_types@U?$pair@$$CBV?$basic_string@DU?$char_traits@D@std@@V?$allocator@D@2@@std@@G@std@@@std@@@std@@@0@PAV10@00AAU?$_Wrap_alloc@U?$_Wrap_alloc@V?$allocator@V?$_List_unchecked_iterator@V?$_List_val@U?$_List_simple_types@U?$pair@$$CBV?$basic_string@DU?$char_traits@D@std@@V?$allocator@D@2@@std@@G@std@@@std@@@std@@@std@@@std@@@std@@@0@U_General_ptr_iterator_tag@0@U_Any_tag@0@@Z 100a2b00 f i dll.obj
 0002:00015c30       ??$_Uninitialized_move_al_unchecked1@PAV?$_List_unchecked_iterator@V?$_List_val@U?$_List_simple_types@U?$pair@$$CBV?$basic_string@DU?$char_traits@D@std@@V?$allocator@D@2@@std@@VDEVICE@@@std@@@std@@@std@@@std@@PAV12@U?$_Wrap_alloc@V?$allocator@V?$_List_unchecked_iterator@V?$_List_val@U?$_List_simple_types@U?$pair@$$CBV?$basic_string@DU?$char_traits@D@std@@V?$allocator@D@2@@std@@VDEVICE@@@std@@@std@@@std@@@std@@@std@@@2@@std@@YAPAV?$_List_unchecked_iterator@V?$_List_val@U?$_List_simple_types@U?$pair@$$CBV?$basic_string@DU?$char_traits@D@std@@V?$allocator@D@2@@std@@VDEVICE@@@std@@@std@@@std@@@0@PAV10@00AAU?$_Wrap_alloc@U?$_Wrap_alloc@V?$allocator@V?$_List_unchecked_iterator@V?$_List_val@U?$_List_simple_types@U?$pair@$$CBV?$basic_string@DU?$char_traits@D@std@@V?$allocator@D@2@@std@@VDEVICE@@@std@@@std@@@std@@@std@@@std@@@std@@@0@U_General_ptr_iterator_tag@0@U_Any_tag@0@@Z 100a2c30 f i dll.obj
 0002:00015d60       ??$_Uninitialized_move_al_unchecked@PAV?$_List_unchecked_iterator@V?$_List_val@U?$_List_simple_types@U?$pair@$$CBV?$basic_string@DU?$char_traits@D@std@@V?$allocator@D@2@@std@@G@std@@@std@@@std@@@std@@PAV12@U?$_Wrap_alloc@V?$allocator@V?$_List_unchecked_iterator@V?$_List_val@U?$_List_simple_types@U?$pair@$$CBV?$basic_string@DU?$char_traits@D@std@@V?$allocator@D@2@@std@@G@std@@@std@@@std@@@std@@@std@@@2@@std@@YAPAV?$_List_unchecked_iterator@V?$_List_val@U?$_List_simple_types@U?$pair@$$CBV?$basic_string@DU?$char_traits@D@std@@V?$allocator@D@2@@std@@G@std@@@std@@@std@@@0@PAV10@00AAU?$_Wrap_alloc@U?$_Wrap_alloc@V?$allocator@V?$_List_unchecked_iterator@V?$_List_val@U?$_List_simple_types@U?$pair@$$CBV?$basic_string@DU?$char_traits@D@std@@V?$allocator@D@2@@std@@G@std@@@std@@@std@@@std@@@std@@@std@@@0@@Z 100a2d60 f i dll.obj
 0002:00015e00       ??$_Uninitialized_move_al_unchecked@PAV?$_List_unchecked_iterator@V?$_List_val@U?$_List_simple_types@U?$pair@$$CBV?$basic_string@DU?$char_traits@D@std@@V?$allocator@D@2@@std@@VDEVICE@@@std@@@std@@@std@@@std@@PAV12@U?$_Wrap_alloc@V?$allocator@V?$_List_unchecked_iterator@V?$_List_val@U?$_List_simple_types@U?$pair@$$CBV?$basic_string@DU?$char_traits@D@std@@V?$allocator@D@2@@std@@VDEVICE@@@std@@@std@@@std@@@std@@@std@@@2@@std@@YAPAV?$_List_unchecked_iterator@V?$_List_val@U?$_List_simple_types@U?$pair@$$CBV?$basic_string@DU?$char_traits@D@std@@V?$allocator@D@2@@std@@VDEVICE@@@std@@@std@@@std@@@0@PAV10@00AAU?$_Wrap_alloc@U?$_Wrap_alloc@V?$allocator@V?$_List_unchecked_iterator@V?$_List_val@U?$_List_simple_types@U?$pair@$$CBV?$basic_string@DU?$char_traits@D@std@@V?$allocator@D@2@@std@@VDEVICE@@@std@@@std@@@std@@@std@@@std@@@std@@@0@@Z 100a2e00 f i dll.obj
 0002:00015ea0       ??$__vcrt_va_start_verify_argument_type@QBD@@YAXXZ 100a2ea0 f i dll.obj
 0002:00015ed0       ??$addressof@$$CBV?$_List_unchecked_iterator@V?$_List_val@U?$_List_simple_types@U?$pair@$$CBV?$basic_string@DU?$char_traits@D@std@@V?$allocator@D@2@@std@@G@std@@@std@@@std@@@std@@@std@@YAPBV?$_List_unchecked_iterator@V?$_List_val@U?$_List_simple_types@U?$pair@$$CBV?$basic_string@DU?$char_traits@D@std@@V?$allocator@D@2@@std@@G@std@@@std@@@std@@@0@ABV10@@Z 100a2ed0 f i dll.obj
 0002:00015f10       ??$addressof@$$CBV?$_List_unchecked_iterator@V?$_List_val@U?$_List_simple_types@U?$pair@$$CBV?$basic_string@DU?$char_traits@D@std@@V?$allocator@D@2@@std@@VDEVICE@@@std@@@std@@@std@@@std@@@std@@YAPBV?$_List_unchecked_iterator@V?$_List_val@U?$_List_simple_types@U?$pair@$$CBV?$basic_string@DU?$char_traits@D@std@@V?$allocator@D@2@@std@@VDEVICE@@@std@@@std@@@std@@@0@ABV10@@Z 100a2f10 f i dll.obj
 0002:00015f50       ??$addressof@PAD@std@@YAPAPADAAPAD@Z 100a2f50 f i dll.obj
 0002:00015f90       ??$addressof@PAU?$_List_node@U?$pair@$$CBV?$basic_string@DU?$char_traits@D@std@@V?$allocator@D@2@@std@@G@std@@PAX@std@@@std@@YAPAPAU?$_List_node@U?$pair@$$CBV?$basic_string@DU?$char_traits@D@std@@V?$allocator@D@2@@std@@G@std@@PAX@0@AAPAU10@@Z 100a2f90 f i dll.obj
 0002:00015fd0       ??$addressof@PAU?$_List_node@U?$pair@$$CBV?$basic_string@DU?$char_traits@D@std@@V?$allocator@D@2@@std@@VDEVICE@@@std@@PAX@std@@@std@@YAPAPAU?$_List_node@U?$pair@$$CBV?$basic_string@DU?$char_traits@D@std@@V?$allocator@D@2@@std@@VDEVICE@@@std@@PAX@0@AAPAU10@@Z 100a2fd0 f i dll.obj
 0002:00016010       ??$addressof@PAUFORMULA2_PAIR@@@std@@YAPAPAUFORMULA2_PAIR@@AAPAU1@@Z 100a3010 f i dll.obj
 0002:00016050       ??$addressof@PAUFORMULA_PAIR@@@std@@YAPAPAUFORMULA_PAIR@@AAPAU1@@Z 100a3050 f i dll.obj
 0002:00016090       ??$addressof@U?$pair@$$CBV?$basic_string@DU?$char_traits@D@std@@V?$allocator@D@2@@std@@G@std@@@std@@YAPAU?$pair@$$CBV?$basic_string@DU?$char_traits@D@std@@V?$allocator@D@2@@std@@G@0@AAU10@@Z 100a3090 f i dll.obj
 0002:000160d0       ??$addressof@U?$pair@$$CBV?$basic_string@DU?$char_traits@D@std@@V?$allocator@D@2@@std@@VDEVICE@@@std@@@std@@YAPAU?$pair@$$CBV?$basic_string@DU?$char_traits@D@std@@V?$allocator@D@2@@std@@VDEVICE@@@0@AAU10@@Z 100a30d0 f i dll.obj
 0002:00016110       ??$addressof@U_Container_proxy@std@@@std@@YAPAU_Container_proxy@0@AAU10@@Z 100a3110 f i dll.obj
 0002:00016150       ??$addressof@V?$_List_unchecked_iterator@V?$_List_val@U?$_List_simple_types@U?$pair@$$CBV?$basic_string@DU?$char_traits@D@std@@V?$allocator@D@2@@std@@G@std@@@std@@@std@@@std@@@std@@YAPAV?$_List_unchecked_iterator@V?$_List_val@U?$_List_simple_types@U?$pair@$$CBV?$basic_string@DU?$char_traits@D@std@@V?$allocator@D@2@@std@@G@std@@@std@@@std@@@0@AAV10@@Z 100a3150 f i dll.obj
 0002:00016190       ??$addressof@V?$_List_unchecked_iterator@V?$_List_val@U?$_List_simple_types@U?$pair@$$CBV?$basic_string@DU?$char_traits@D@std@@V?$allocator@D@2@@std@@VDEVICE@@@std@@@std@@@std@@@std@@@std@@YAPAV?$_List_unchecked_iterator@V?$_List_val@U?$_List_simple_types@U?$pair@$$CBV?$basic_string@DU?$char_traits@D@std@@V?$allocator@D@2@@std@@VDEVICE@@@std@@@std@@@std@@@0@AAV10@@Z 100a3190 f i dll.obj
 0002:000161d0       ??$construct@PADAAPAD@?$_Wrap_alloc@V?$allocator@D@std@@@std@@QAEXPAPADAAPAD@Z 100a31d0 f i dll.obj
 0002:00016240       ??$construct@PADAAPAD@?$allocator@D@std@@QAEXPAPADAAPAD@Z 100a3240 f i dll.obj
 0002:000162f0       ??$construct@PADAAPAD@?$allocator_traits@V?$allocator@D@std@@@std@@SAXAAV?$allocator@D@1@PAPADAAPAD@Z 100a32f0 f i dll.obj
 0002:00016350       ??$construct@PAU?$_List_node@U?$pair@$$CBV?$basic_string@DU?$char_traits@D@std@@V?$allocator@D@2@@std@@G@std@@PAX@std@@AAPAU12@@?$_Wrap_alloc@V?$allocator@U?$_List_node@U?$pair@$$CBV?$basic_string@DU?$char_traits@D@std@@V?$allocator@D@2@@std@@G@std@@PAX@std@@@std@@@std@@QAEXPAPAU?$_List_node@U?$pair@$$CBV?$basic_string@DU?$char_traits@D@std@@V?$allocator@D@2@@std@@G@std@@PAX@1@AAPAU21@@Z 100a3350 f i dll.obj
 0002:000163c0       ??$construct@PAU?$_List_node@U?$pair@$$CBV?$basic_string@DU?$char_traits@D@std@@V?$allocator@D@2@@std@@G@std@@PAX@std@@AAPAU12@@?$allocator@U?$_List_node@U?$pair@$$CBV?$basic_string@DU?$char_traits@D@std@@V?$allocator@D@2@@std@@G@std@@PAX@std@@@std@@QAEXPAPAU?$_List_node@U?$pair@$$CBV?$basic_string@DU?$char_traits@D@std@@V?$allocator@D@2@@std@@G@std@@PAX@1@AAPAU21@@Z 100a33c0 f i dll.obj
 0002:00016470       ??$construct@PAU?$_List_node@U?$pair@$$CBV?$basic_string@DU?$char_traits@D@std@@V?$allocator@D@2@@std@@G@std@@PAX@std@@AAPAU12@@?$allocator_traits@V?$allocator@U?$_List_node@U?$pair@$$CBV?$basic_string@DU?$char_traits@D@std@@V?$allocator@D@2@@std@@G@std@@PAX@std@@@std@@@std@@SAXAAV?$allocator@U?$_List_node@U?$pair@$$CBV?$basic_string@DU?$char_traits@D@std@@V?$allocator@D@2@@std@@G@std@@PAX@std@@@1@PAPAU?$_List_node@U?$pair@$$CBV?$basic_string@DU?$char_traits@D@std@@V?$allocator@D@2@@std@@G@std@@PAX@1@AAPAU31@@Z 100a3470 f i dll.obj
 0002:000164d0       ??$construct@PAU?$_List_node@U?$pair@$$CBV?$basic_string@DU?$char_traits@D@std@@V?$allocator@D@2@@std@@VDEVICE@@@std@@PAX@std@@AAPAU12@@?$_Wrap_alloc@V?$allocator@U?$_List_node@U?$pair@$$CBV?$basic_string@DU?$char_traits@D@std@@V?$allocator@D@2@@std@@VDEVICE@@@std@@PAX@std@@@std@@@std@@QAEXPAPAU?$_List_node@U?$pair@$$CBV?$basic_string@DU?$char_traits@D@std@@V?$allocator@D@2@@std@@VDEVICE@@@std@@PAX@1@AAPAU21@@Z 100a34d0 f i dll.obj
 0002:00016540       ??$construct@PAU?$_List_node@U?$pair@$$CBV?$basic_string@DU?$char_traits@D@std@@V?$allocator@D@2@@std@@VDEVICE@@@std@@PAX@std@@AAPAU12@@?$allocator@U?$_List_node@U?$pair@$$CBV?$basic_string@DU?$char_traits@D@std@@V?$allocator@D@2@@std@@VDEVICE@@@std@@PAX@std@@@std@@QAEXPAPAU?$_List_node@U?$pair@$$CBV?$basic_string@DU?$char_traits@D@std@@V?$allocator@D@2@@std@@VDEVICE@@@std@@PAX@1@AAPAU21@@Z 100a3540 f i dll.obj
 0002:000165f0       ??$construct@PAU?$_List_node@U?$pair@$$CBV?$basic_string@DU?$char_traits@D@std@@V?$allocator@D@2@@std@@VDEVICE@@@std@@PAX@std@@AAPAU12@@?$allocator_traits@V?$allocator@U?$_List_node@U?$pair@$$CBV?$basic_string@DU?$char_traits@D@std@@V?$allocator@D@2@@std@@VDEVICE@@@std@@PAX@std@@@std@@@std@@SAXAAV?$allocator@U?$_List_node@U?$pair@$$CBV?$basic_string@DU?$char_traits@D@std@@V?$allocator@D@2@@std@@VDEVICE@@@std@@PAX@std@@@1@PAPAU?$_List_node@U?$pair@$$CBV?$basic_string@DU?$char_traits@D@std@@V?$allocator@D@2@@std@@VDEVICE@@@std@@PAX@1@AAPAU31@@Z 100a35f0 f i dll.obj
 0002:00016650       ??$construct@U?$pair@$$CBV?$basic_string@DU?$char_traits@D@std@@V?$allocator@D@2@@std@@G@std@@ABUpiecewise_construct_t@2@V?$tuple@$$QAV?$basic_string@DU?$char_traits@D@std@@V?$allocator@D@2@@std@@@2@V?$tuple@$$V@2@@?$_Wrap_alloc@V?$allocator@U?$_List_node@U?$pair@$$CBV?$basic_string@DU?$char_traits@D@std@@V?$allocator@D@2@@std@@G@std@@PAX@std@@@std@@@std@@QAEXPAU?$pair@$$CBV?$basic_string@DU?$char_traits@D@std@@V?$allocator@D@2@@std@@G@1@ABUpiecewise_construct_t@1@$$QAV?$tuple@$$QAV?$basic_string@DU?$char_traits@D@std@@V?$allocator@D@2@@std@@@1@$$QAV?$tuple@$$V@1@@Z 100a3650 f i dll.obj
 0002:000166e0       ??$construct@U?$pair@$$CBV?$basic_string@DU?$char_traits@D@std@@V?$allocator@D@2@@std@@G@std@@ABUpiecewise_construct_t@2@V?$tuple@$$QAV?$basic_string@DU?$char_traits@D@std@@V?$allocator@D@2@@std@@@2@V?$tuple@$$V@2@@?$allocator@U?$_List_node@U?$pair@$$CBV?$basic_string@DU?$char_traits@D@std@@V?$allocator@D@2@@std@@G@std@@PAX@std@@@std@@QAEXPAU?$pair@$$CBV?$basic_string@DU?$char_traits@D@std@@V?$allocator@D@2@@std@@G@1@ABUpiecewise_construct_t@1@$$QAV?$tuple@$$QAV?$basic_string@DU?$char_traits@D@std@@V?$allocator@D@2@@std@@@1@$$QAV?$tuple@$$V@1@@Z 100a36e0 f i dll.obj
 0002:00016820       ??$construct@U?$pair@$$CBV?$basic_string@DU?$char_traits@D@std@@V?$allocator@D@2@@std@@G@std@@ABUpiecewise_construct_t@2@V?$tuple@$$QAV?$basic_string@DU?$char_traits@D@std@@V?$allocator@D@2@@std@@@2@V?$tuple@$$V@2@@?$allocator_traits@V?$allocator@U?$_List_node@U?$pair@$$CBV?$basic_string@DU?$char_traits@D@std@@V?$allocator@D@2@@std@@G@std@@PAX@std@@@std@@@std@@SAXAAV?$allocator@U?$_List_node@U?$pair@$$CBV?$basic_string@DU?$char_traits@D@std@@V?$allocator@D@2@@std@@G@std@@PAX@std@@@1@PAU?$pair@$$CBV?$basic_string@DU?$char_traits@D@std@@V?$allocator@D@2@@std@@G@1@ABUpiecewise_construct_t@1@$$QAV?$tuple@$$QAV?$basic_string@DU?$char_traits@D@std@@V?$allocator@D@2@@std@@@1@$$QAV?$tuple@$$V@1@@Z 100a3820 f i dll.obj
 0002:000168a0       ??$construct@U?$pair@$$CBV?$basic_string@DU?$char_traits@D@std@@V?$allocator@D@2@@std@@VDEVICE@@@std@@ABUpiecewise_construct_t@2@V?$tuple@$$QAV?$basic_string@DU?$char_traits@D@std@@V?$allocator@D@2@@std@@@2@V?$tuple@$$V@2@@?$_Wrap_alloc@V?$allocator@U?$_List_node@U?$pair@$$CBV?$basic_string@DU?$char_traits@D@std@@V?$allocator@D@2@@std@@VDEVICE@@@std@@PAX@std@@@std@@@std@@QAEXPAU?$pair@$$CBV?$basic_string@DU?$char_traits@D@std@@V?$allocator@D@2@@std@@VDEVICE@@@1@ABUpiecewise_construct_t@1@$$QAV?$tuple@$$QAV?$basic_string@DU?$char_traits@D@std@@V?$allocator@D@2@@std@@@1@$$QAV?$tuple@$$V@1@@Z 100a38a0 f i dll.obj
 0002:00016930       ??$construct@U?$pair@$$CBV?$basic_string@DU?$char_traits@D@std@@V?$allocator@D@2@@std@@VDEVICE@@@std@@ABUpiecewise_construct_t@2@V?$tuple@$$QAV?$basic_string@DU?$char_traits@D@std@@V?$allocator@D@2@@std@@@2@V?$tuple@$$V@2@@?$allocator@U?$_List_node@U?$pair@$$CBV?$basic_string@DU?$char_traits@D@std@@V?$allocator@D@2@@std@@VDEVICE@@@std@@PAX@std@@@std@@QAEXPAU?$pair@$$CBV?$basic_string@DU?$char_traits@D@std@@V?$allocator@D@2@@std@@VDEVICE@@@1@ABUpiecewise_construct_t@1@$$QAV?$tuple@$$QAV?$basic_string@DU?$char_traits@D@std@@V?$allocator@D@2@@std@@@1@$$QAV?$tuple@$$V@1@@Z 100a3930 f i dll.obj
 0002:00016a70       ??$construct@U?$pair@$$CBV?$basic_string@DU?$char_traits@D@std@@V?$allocator@D@2@@std@@VDEVICE@@@std@@ABUpiecewise_construct_t@2@V?$tuple@$$QAV?$basic_string@DU?$char_traits@D@std@@V?$allocator@D@2@@std@@@2@V?$tuple@$$V@2@@?$allocator_traits@V?$allocator@U?$_List_node@U?$pair@$$CBV?$basic_string@DU?$char_traits@D@std@@V?$allocator@D@2@@std@@VDEVICE@@@std@@PAX@std@@@std@@@std@@SAXAAV?$allocator@U?$_List_node@U?$pair@$$CBV?$basic_string@DU?$char_traits@D@std@@V?$allocator@D@2@@std@@VDEVICE@@@std@@PAX@std@@@1@PAU?$pair@$$CBV?$basic_string@DU?$char_traits@D@std@@V?$allocator@D@2@@std@@VDEVICE@@@1@ABUpiecewise_construct_t@1@$$QAV?$tuple@$$QAV?$basic_string@DU?$char_traits@D@std@@V?$allocator@D@2@@std@@@1@$$QAV?$tuple@$$V@1@@Z 100a3a70 f i dll.obj
 0002:00016af0       ??$construct@UFORMULA2_PAIR@@ABU1@@?$_Wrap_alloc@V?$allocator@UFORMULA2_PAIR@@@std@@@std@@QAEXPAUFORMULA2_PAIR@@ABU2@@Z 100a3af0 f i dll.obj
 0002:00016b60       ??$construct@UFORMULA2_PAIR@@ABU1@@?$allocator@UFORMULA2_PAIR@@@std@@QAEXPAUFORMULA2_PAIR@@ABU2@@Z 100a3b60 f i dll.obj
 0002:00016c10       ??$construct@UFORMULA2_PAIR@@ABU1@@?$allocator_traits@V?$allocator@UFORMULA2_PAIR@@@std@@@std@@SAXAAV?$allocator@UFORMULA2_PAIR@@@1@PAUFORMULA2_PAIR@@ABU3@@Z 100a3c10 f i dll.obj
 0002:00016c70       ??$construct@UFORMULA_PAIR@@ABU1@@?$_Wrap_alloc@V?$allocator@UFORMULA_PAIR@@@std@@@std@@QAEXPAUFORMULA_PAIR@@ABU2@@Z 100a3c70 f i dll.obj
 0002:00016ce0       ??$construct@UFORMULA_PAIR@@ABU1@@?$allocator@UFORMULA_PAIR@@@std@@QAEXPAUFORMULA_PAIR@@ABU2@@Z 100a3ce0 f i dll.obj
 0002:00016d90       ??$construct@UFORMULA_PAIR@@ABU1@@?$allocator_traits@V?$allocator@UFORMULA_PAIR@@@std@@@std@@SAXAAV?$allocator@UFORMULA_PAIR@@@1@PAUFORMULA_PAIR@@ABU3@@Z 100a3d90 f i dll.obj
 0002:00016df0       ??$construct@U_Container_proxy@std@@U12@@?$_Wrap_alloc@V?$allocator@U_Container_proxy@std@@@std@@@std@@QAEXPAU_Container_proxy@1@$$QAU21@@Z 100a3df0 f i dll.obj
 0002:00016e60       ??$construct@U_Container_proxy@std@@U12@@?$allocator@U_Container_proxy@std@@@std@@QAEXPAU_Container_proxy@1@$$QAU21@@Z 100a3e60 f i dll.obj
 0002:00016f10       ??$construct@U_Container_proxy@std@@U12@@?$allocator_traits@V?$allocator@U_Container_proxy@std@@@std@@@std@@SAXAAV?$allocator@U_Container_proxy@std@@@1@PAU_Container_proxy@1@$$QAU31@@Z 100a3f10 f i dll.obj
 0002:00016f70       ??$construct@V?$_List_unchecked_iterator@V?$_List_val@U?$_List_simple_types@U?$pair@$$CBV?$basic_string@DU?$char_traits@D@std@@V?$allocator@D@2@@std@@G@std@@@std@@@std@@@std@@ABV12@@?$_Wrap_alloc@U?$_Wrap_alloc@V?$allocator@V?$_List_unchecked_iterator@V?$_List_val@U?$_List_simple_types@U?$pair@$$CBV?$basic_string@DU?$char_traits@D@std@@V?$allocator@D@2@@std@@G@std@@@std@@@std@@@std@@@std@@@std@@@std@@QAEXPAV?$_List_unchecked_iterator@V?$_List_val@U?$_List_simple_types@U?$pair@$$CBV?$basic_string@DU?$char_traits@D@std@@V?$allocator@D@2@@std@@G@std@@@std@@@std@@@1@ABV21@@Z 100a3f70 f i dll.obj
 0002:00016fe0       ??$construct@V?$_List_unchecked_iterator@V?$_List_val@U?$_List_simple_types@U?$pair@$$CBV?$basic_string@DU?$char_traits@D@std@@V?$allocator@D@2@@std@@G@std@@@std@@@std@@@std@@ABV12@@?$allocator_traits@U?$_Wrap_alloc@V?$allocator@V?$_List_unchecked_iterator@V?$_List_val@U?$_List_simple_types@U?$pair@$$CBV?$basic_string@DU?$char_traits@D@std@@V?$allocator@D@2@@std@@G@std@@@std@@@std@@@std@@@std@@@std@@@std@@SAXAAU?$_Wrap_alloc@V?$allocator@V?$_List_unchecked_iterator@V?$_List_val@U?$_List_simple_types@U?$pair@$$CBV?$basic_string@DU?$char_traits@D@std@@V?$allocator@D@2@@std@@G@std@@@std@@@std@@@std@@@std@@@1@PAV?$_List_unchecked_iterator@V?$_List_val@U?$_List_simple_types@U?$pair@$$CBV?$basic_string@DU?$char_traits@D@std@@V?$allocator@D@2@@std@@G@std@@@std@@@std@@@1@ABV31@@Z 100a3fe0 f i dll.obj
 0002:00017050       ??$construct@V?$_List_unchecked_iterator@V?$_List_val@U?$_List_simple_types@U?$pair@$$CBV?$basic_string@DU?$char_traits@D@std@@V?$allocator@D@2@@std@@G@std@@@std@@@std@@@std@@V12@@?$_Wrap_alloc@U?$_Wrap_alloc@V?$allocator@V?$_List_unchecked_iterator@V?$_List_val@U?$_List_simple_types@U?$pair@$$CBV?$basic_string@DU?$char_traits@D@std@@V?$allocator@D@2@@std@@G@std@@@std@@@std@@@std@@@std@@@std@@@std@@QAEXPAV?$_List_unchecked_iterator@V?$_List_val@U?$_List_simple_types@U?$pair@$$CBV?$basic_string@DU?$char_traits@D@std@@V?$allocator@D@2@@std@@G@std@@@std@@@std@@@1@$$QAV21@@Z 100a4050 f i dll.obj
 0002:000170c0       ??$construct@V?$_List_unchecked_iterator@V?$_List_val@U?$_List_simple_types@U?$pair@$$CBV?$basic_string@DU?$char_traits@D@std@@V?$allocator@D@2@@std@@G@std@@@std@@@std@@@std@@V12@@?$allocator_traits@U?$_Wrap_alloc@V?$allocator@V?$_List_unchecked_iterator@V?$_List_val@U?$_List_simple_types@U?$pair@$$CBV?$basic_string@DU?$char_traits@D@std@@V?$allocator@D@2@@std@@G@std@@@std@@@std@@@std@@@std@@@std@@@std@@SAXAAU?$_Wrap_alloc@V?$allocator@V?$_List_unchecked_iterator@V?$_List_val@U?$_List_simple_types@U?$pair@$$CBV?$basic_string@DU?$char_traits@D@std@@V?$allocator@D@2@@std@@G@std@@@std@@@std@@@std@@@std@@@1@PAV?$_List_unchecked_iterator@V?$_List_val@U?$_List_simple_types@U?$pair@$$CBV?$basic_string@DU?$char_traits@D@std@@V?$allocator@D@2@@std@@G@std@@@std@@@std@@@1@$$QAV31@@Z 100a40c0 f i dll.obj
 0002:00017130       ??$construct@V?$_List_unchecked_iterator@V?$_List_val@U?$_List_simple_types@U?$pair@$$CBV?$basic_string@DU?$char_traits@D@std@@V?$allocator@D@2@@std@@VDEVICE@@@std@@@std@@@std@@@std@@ABV12@@?$_Wrap_alloc@U?$_Wrap_alloc@V?$allocator@V?$_List_unchecked_iterator@V?$_List_val@U?$_List_simple_types@U?$pair@$$CBV?$basic_string@DU?$char_traits@D@std@@V?$allocator@D@2@@std@@VDEVICE@@@std@@@std@@@std@@@std@@@std@@@std@@@std@@QAEXPAV?$_List_unchecked_iterator@V?$_List_val@U?$_List_simple_types@U?$pair@$$CBV?$basic_string@DU?$char_traits@D@std@@V?$allocator@D@2@@std@@VDEVICE@@@std@@@std@@@std@@@1@ABV21@@Z 100a4130 f i dll.obj
 0002:000171a0       ??$construct@V?$_List_unchecked_iterator@V?$_List_val@U?$_List_simple_types@U?$pair@$$CBV?$basic_string@DU?$char_traits@D@std@@V?$allocator@D@2@@std@@VDEVICE@@@std@@@std@@@std@@@std@@ABV12@@?$allocator_traits@U?$_Wrap_alloc@V?$allocator@V?$_List_unchecked_iterator@V?$_List_val@U?$_List_simple_types@U?$pair@$$CBV?$basic_string@DU?$char_traits@D@std@@V?$allocator@D@2@@std@@VDEVICE@@@std@@@std@@@std@@@std@@@std@@@std@@@std@@SAXAAU?$_Wrap_alloc@V?$allocator@V?$_List_unchecked_iterator@V?$_List_val@U?$_List_simple_types@U?$pair@$$CBV?$basic_string@DU?$char_traits@D@std@@V?$allocator@D@2@@std@@VDEVICE@@@std@@@std@@@std@@@std@@@std@@@1@PAV?$_List_unchecked_iterator@V?$_List_val@U?$_List_simple_types@U?$pair@$$CBV?$basic_string@DU?$char_traits@D@std@@V?$allocator@D@2@@std@@VDEVICE@@@std@@@std@@@std@@@1@ABV31@@Z 100a41a0 f i dll.obj
 0002:00017210       ??$construct@V?$_List_unchecked_iterator@V?$_List_val@U?$_List_simple_types@U?$pair@$$CBV?$basic_string@DU?$char_traits@D@std@@V?$allocator@D@2@@std@@VDEVICE@@@std@@@std@@@std@@@std@@V12@@?$_Wrap_alloc@U?$_Wrap_alloc@V?$allocator@V?$_List_unchecked_iterator@V?$_List_val@U?$_List_simple_types@U?$pair@$$CBV?$basic_string@DU?$char_traits@D@std@@V?$allocator@D@2@@std@@VDEVICE@@@std@@@std@@@std@@@std@@@std@@@std@@@std@@QAEXPAV?$_List_unchecked_iterator@V?$_List_val@U?$_List_simple_types@U?$pair@$$CBV?$basic_string@DU?$char_traits@D@std@@V?$allocator@D@2@@std@@VDEVICE@@@std@@@std@@@std@@@1@$$QAV21@@Z 100a4210 f i dll.obj
 0002:00017280       ??$construct@V?$_List_unchecked_iterator@V?$_List_val@U?$_List_simple_types@U?$pair@$$CBV?$basic_string@DU?$char_traits@D@std@@V?$allocator@D@2@@std@@VDEVICE@@@std@@@std@@@std@@@std@@V12@@?$allocator_traits@U?$_Wrap_alloc@V?$allocator@V?$_List_unchecked_iterator@V?$_List_val@U?$_List_simple_types@U?$pair@$$CBV?$basic_string@DU?$char_traits@D@std@@V?$allocator@D@2@@std@@VDEVICE@@@std@@@std@@@std@@@std@@@std@@@std@@@std@@SAXAAU?$_Wrap_alloc@V?$allocator@V?$_List_unchecked_iterator@V?$_List_val@U?$_List_simple_types@U?$pair@$$CBV?$basic_string@DU?$char_traits@D@std@@V?$allocator@D@2@@std@@VDEVICE@@@std@@@std@@@std@@@std@@@std@@@1@PAV?$_List_unchecked_iterator@V?$_List_val@U?$_List_simple_types@U?$pair@$$CBV?$basic_string@DU?$char_traits@D@std@@V?$allocator@D@2@@std@@VDEVICE@@@std@@@std@@@std@@@1@$$QAV31@@Z 100a4280 f i dll.obj
 0002:000172f0       ??$copy@V?$_Deque_const_iterator@V?$_Deque_val@U?$_Deque_simple_types@UFORMULA2_PAIR@@@std@@@std@@@std@@V?$_Deque_iterator@V?$_Deque_val@U?$_Deque_simple_types@UFORMULA2_PAIR@@@std@@@std@@@2@@std@@YA?AV?$_Deque_iterator@V?$_Deque_val@U?$_Deque_simple_types@UFORMULA2_PAIR@@@std@@@std@@@0@V?$_Deque_const_iterator@V?$_Deque_val@U?$_Deque_simple_types@UFORMULA2_PAIR@@@std@@@std@@@0@0V10@@Z 100a42f0 f i dll.obj
 0002:000174c0       ??$copy@V?$_Deque_const_iterator@V?$_Deque_val@U?$_Deque_simple_types@UFORMULA_PAIR@@@std@@@std@@@std@@V?$_Deque_iterator@V?$_Deque_val@U?$_Deque_simple_types@UFORMULA_PAIR@@@std@@@std@@@2@@std@@YA?AV?$_Deque_iterator@V?$_Deque_val@U?$_Deque_simple_types@UFORMULA_PAIR@@@std@@@std@@@0@V?$_Deque_const_iterator@V?$_Deque_val@U?$_Deque_simple_types@UFORMULA_PAIR@@@std@@@std@@@0@0V10@@Z 100a44c0 f i dll.obj
 0002:00017690       ??$destroy@PAD@?$_Wrap_alloc@V?$allocator@D@std@@@std@@QAEXPAPAD@Z 100a4690 f i dll.obj
 0002:000176f0       ??$destroy@PAD@?$allocator@D@std@@QAEXPAPAD@Z 100a46f0 f i dll.obj
 0002:00017730       ??$destroy@PAD@?$allocator_traits@V?$allocator@D@std@@@std@@SAXAAV?$allocator@D@1@PAPAD@Z 100a4730 f i dll.obj
 0002:00017780       ??$destroy@PAU?$_List_node@U?$pair@$$CBV?$basic_string@DU?$char_traits@D@std@@V?$allocator@D@2@@std@@G@std@@PAX@std@@@?$_Wrap_alloc@V?$allocator@U?$_List_node@U?$pair@$$CBV?$basic_string@DU?$char_traits@D@std@@V?$allocator@D@2@@std@@G@std@@PAX@std@@@std@@@std@@QAEXPAPAU?$_List_node@U?$pair@$$CBV?$basic_string@DU?$char_traits@D@std@@V?$allocator@D@2@@std@@G@std@@PAX@1@@Z 100a4780 f i dll.obj
 0002:000177e0       ??$destroy@PAU?$_List_node@U?$pair@$$CBV?$basic_string@DU?$char_traits@D@std@@V?$allocator@D@2@@std@@G@std@@PAX@std@@@?$allocator@U?$_List_node@U?$pair@$$CBV?$basic_string@DU?$char_traits@D@std@@V?$allocator@D@2@@std@@G@std@@PAX@std@@@std@@QAEXPAPAU?$_List_node@U?$pair@$$CBV?$basic_string@DU?$char_traits@D@std@@V?$allocator@D@2@@std@@G@std@@PAX@1@@Z 100a47e0 f i dll.obj
 0002:00017820       ??$destroy@PAU?$_List_node@U?$pair@$$CBV?$basic_string@DU?$char_traits@D@std@@V?$allocator@D@2@@std@@G@std@@PAX@std@@@?$allocator_traits@V?$allocator@U?$_List_node@U?$pair@$$CBV?$basic_string@DU?$char_traits@D@std@@V?$allocator@D@2@@std@@G@std@@PAX@std@@@std@@@std@@SAXAAV?$allocator@U?$_List_node@U?$pair@$$CBV?$basic_string@DU?$char_traits@D@std@@V?$allocator@D@2@@std@@G@std@@PAX@std@@@1@PAPAU?$_List_node@U?$pair@$$CBV?$basic_string@DU?$char_traits@D@std@@V?$allocator@D@2@@std@@G@std@@PAX@1@@Z 100a4820 f i dll.obj
 0002:00017870       ??$destroy@PAU?$_List_node@U?$pair@$$CBV?$basic_string@DU?$char_traits@D@std@@V?$allocator@D@2@@std@@VDEVICE@@@std@@PAX@std@@@?$_Wrap_alloc@V?$allocator@U?$_List_node@U?$pair@$$CBV?$basic_string@DU?$char_traits@D@std@@V?$allocator@D@2@@std@@VDEVICE@@@std@@PAX@std@@@std@@@std@@QAEXPAPAU?$_List_node@U?$pair@$$CBV?$basic_string@DU?$char_traits@D@std@@V?$allocator@D@2@@std@@VDEVICE@@@std@@PAX@1@@Z 100a4870 f i dll.obj
 0002:000178d0       ??$destroy@PAU?$_List_node@U?$pair@$$CBV?$basic_string@DU?$char_traits@D@std@@V?$allocator@D@2@@std@@VDEVICE@@@std@@PAX@std@@@?$allocator@U?$_List_node@U?$pair@$$CBV?$basic_string@DU?$char_traits@D@std@@V?$allocator@D@2@@std@@VDEVICE@@@std@@PAX@std@@@std@@QAEXPAPAU?$_List_node@U?$pair@$$CBV?$basic_string@DU?$char_traits@D@std@@V?$allocator@D@2@@std@@VDEVICE@@@std@@PAX@1@@Z 100a48d0 f i dll.obj
 0002:00017910       ??$destroy@PAU?$_List_node@U?$pair@$$CBV?$basic_string@DU?$char_traits@D@std@@V?$allocator@D@2@@std@@VDEVICE@@@std@@PAX@std@@@?$allocator_traits@V?$allocator@U?$_List_node@U?$pair@$$CBV?$basic_string@DU?$char_traits@D@std@@V?$allocator@D@2@@std@@VDEVICE@@@std@@PAX@std@@@std@@@std@@SAXAAV?$allocator@U?$_List_node@U?$pair@$$CBV?$basic_string@DU?$char_traits@D@std@@V?$allocator@D@2@@std@@VDEVICE@@@std@@PAX@std@@@1@PAPAU?$_List_node@U?$pair@$$CBV?$basic_string@DU?$char_traits@D@std@@V?$allocator@D@2@@std@@VDEVICE@@@std@@PAX@1@@Z 100a4910 f i dll.obj
 0002:00017960       ??$destroy@PAUFORMULA2_PAIR@@@?$_Wrap_alloc@V?$allocator@UFORMULA2_PAIR@@@std@@@std@@QAEXPAPAUFORMULA2_PAIR@@@Z 100a4960 f i dll.obj
 0002:000179c0       ??$destroy@PAUFORMULA2_PAIR@@@?$allocator@UFORMULA2_PAIR@@@std@@QAEXPAPAUFORMULA2_PAIR@@@Z 100a49c0 f i dll.obj
 0002:00017a00       ??$destroy@PAUFORMULA2_PAIR@@@?$allocator_traits@V?$allocator@UFORMULA2_PAIR@@@std@@@std@@SAXAAV?$allocator@UFORMULA2_PAIR@@@1@PAPAUFORMULA2_PAIR@@@Z 100a4a00 f i dll.obj
 0002:00017a50       ??$destroy@PAUFORMULA_PAIR@@@?$_Wrap_alloc@V?$allocator@UFORMULA_PAIR@@@std@@@std@@QAEXPAPAUFORMULA_PAIR@@@Z 100a4a50 f i dll.obj
 0002:00017ab0       ??$destroy@PAUFORMULA_PAIR@@@?$allocator@UFORMULA_PAIR@@@std@@QAEXPAPAUFORMULA_PAIR@@@Z 100a4ab0 f i dll.obj
 0002:00017af0       ??$destroy@PAUFORMULA_PAIR@@@?$allocator_traits@V?$allocator@UFORMULA_PAIR@@@std@@@std@@SAXAAV?$allocator@UFORMULA_PAIR@@@1@PAPAUFORMULA_PAIR@@@Z 100a4af0 f i dll.obj
 0002:00017b40       ??$destroy@U?$pair@$$CBV?$basic_string@DU?$char_traits@D@std@@V?$allocator@D@2@@std@@G@std@@@?$_Wrap_alloc@V?$allocator@U?$_List_node@U?$pair@$$CBV?$basic_string@DU?$char_traits@D@std@@V?$allocator@D@2@@std@@G@std@@PAX@std@@@std@@@std@@QAEXPAU?$pair@$$CBV?$basic_string@DU?$char_traits@D@std@@V?$allocator@D@2@@std@@G@1@@Z 100a4b40 f i dll.obj
 0002:00017ba0       ??$destroy@U?$pair@$$CBV?$basic_string@DU?$char_traits@D@std@@V?$allocator@D@2@@std@@G@std@@@?$allocator@U?$_List_node@U?$pair@$$CBV?$basic_string@DU?$char_traits@D@std@@V?$allocator@D@2@@std@@G@std@@PAX@std@@@std@@QAEXPAU?$pair@$$CBV?$basic_string@DU?$char_traits@D@std@@V?$allocator@D@2@@std@@G@1@@Z 100a4ba0 f i dll.obj
 0002:00017c00       ??$destroy@U?$pair@$$CBV?$basic_string@DU?$char_traits@D@std@@V?$allocator@D@2@@std@@G@std@@@?$allocator_traits@V?$allocator@U?$_List_node@U?$pair@$$CBV?$basic_string@DU?$char_traits@D@std@@V?$allocator@D@2@@std@@G@std@@PAX@std@@@std@@@std@@SAXAAV?$allocator@U?$_List_node@U?$pair@$$CBV?$basic_string@DU?$char_traits@D@std@@V?$allocator@D@2@@std@@G@std@@PAX@std@@@1@PAU?$pair@$$CBV?$basic_string@DU?$char_traits@D@std@@V?$allocator@D@2@@std@@G@1@@Z 100a4c00 f i dll.obj
 0002:00017c50       ??$destroy@U?$pair@$$CBV?$basic_string@DU?$char_traits@D@std@@V?$allocator@D@2@@std@@VDEVICE@@@std@@@?$_Wrap_alloc@V?$allocator@U?$_List_node@U?$pair@$$CBV?$basic_string@DU?$char_traits@D@std@@V?$allocator@D@2@@std@@VDEVICE@@@std@@PAX@std@@@std@@@std@@QAEXPAU?$pair@$$CBV?$basic_string@DU?$char_traits@D@std@@V?$allocator@D@2@@std@@VDEVICE@@@1@@Z 100a4c50 f i dll.obj
 0002:00017cb0       ??$destroy@U?$pair@$$CBV?$basic_string@DU?$char_traits@D@std@@V?$allocator@D@2@@std@@VDEVICE@@@std@@@?$allocator@U?$_List_node@U?$pair@$$CBV?$basic_string@DU?$char_traits@D@std@@V?$allocator@D@2@@std@@VDEVICE@@@std@@PAX@std@@@std@@QAEXPAU?$pair@$$CBV?$basic_string@DU?$char_traits@D@std@@V?$allocator@D@2@@std@@VDEVICE@@@1@@Z 100a4cb0 f i dll.obj
 0002:00017d10       ??$destroy@U?$pair@$$CBV?$basic_string@DU?$char_traits@D@std@@V?$allocator@D@2@@std@@VDEVICE@@@std@@@?$allocator_traits@V?$allocator@U?$_List_node@U?$pair@$$CBV?$basic_string@DU?$char_traits@D@std@@V?$allocator@D@2@@std@@VDEVICE@@@std@@PAX@std@@@std@@@std@@SAXAAV?$allocator@U?$_List_node@U?$pair@$$CBV?$basic_string@DU?$char_traits@D@std@@V?$allocator@D@2@@std@@VDEVICE@@@std@@PAX@std@@@1@PAU?$pair@$$CBV?$basic_string@DU?$char_traits@D@std@@V?$allocator@D@2@@std@@VDEVICE@@@1@@Z 100a4d10 f i dll.obj
 0002:00017d60       ??$destroy@UFORMULA2_PAIR@@@?$_Wrap_alloc@V?$allocator@UFORMULA2_PAIR@@@std@@@std@@QAEXPAUFORMULA2_PAIR@@@Z 100a4d60 f i dll.obj
 0002:00017dc0       ??$destroy@UFORMULA2_PAIR@@@?$allocator@UFORMULA2_PAIR@@@std@@QAEXPAUFORMULA2_PAIR@@@Z 100a4dc0 f i dll.obj
 0002:00017e00       ??$destroy@UFORMULA2_PAIR@@@?$allocator_traits@V?$allocator@UFORMULA2_PAIR@@@std@@@std@@SAXAAV?$allocator@UFORMULA2_PAIR@@@1@PAUFORMULA2_PAIR@@@Z 100a4e00 f i dll.obj
 0002:00017e50       ??$destroy@UFORMULA_PAIR@@@?$_Wrap_alloc@V?$allocator@UFORMULA_PAIR@@@std@@@std@@QAEXPAUFORMULA_PAIR@@@Z 100a4e50 f i dll.obj
 0002:00017eb0       ??$destroy@UFORMULA_PAIR@@@?$allocator@UFORMULA_PAIR@@@std@@QAEXPAUFORMULA_PAIR@@@Z 100a4eb0 f i dll.obj
 0002:00017ef0       ??$destroy@UFORMULA_PAIR@@@?$allocator_traits@V?$allocator@UFORMULA_PAIR@@@std@@@std@@SAXAAV?$allocator@UFORMULA_PAIR@@@1@PAUFORMULA_PAIR@@@Z 100a4ef0 f i dll.obj
 0002:00017f40       ??$destroy@U_Container_proxy@std@@@?$_Wrap_alloc@V?$allocator@U_Container_proxy@std@@@std@@@std@@QAEXPAU_Container_proxy@1@@Z 100a4f40 f i dll.obj
 0002:00017fa0       ??$destroy@U_Container_proxy@std@@@?$allocator@U_Container_proxy@std@@@std@@QAEXPAU_Container_proxy@1@@Z 100a4fa0 f i dll.obj
 0002:00017fe0       ??$destroy@U_Container_proxy@std@@@?$allocator_traits@V?$allocator@U_Container_proxy@std@@@std@@@std@@SAXAAV?$allocator@U_Container_proxy@std@@@1@PAU_Container_proxy@1@@Z 100a4fe0 f i dll.obj
 0002:00018030       ??$destroy@V?$_List_unchecked_iterator@V?$_List_val@U?$_List_simple_types@U?$pair@$$CBV?$basic_string@DU?$char_traits@D@std@@V?$allocator@D@2@@std@@G@std@@@std@@@std@@@std@@@?$_Wrap_alloc@U?$_Wrap_alloc@V?$allocator@V?$_List_unchecked_iterator@V?$_List_val@U?$_List_simple_types@U?$pair@$$CBV?$basic_string@DU?$char_traits@D@std@@V?$allocator@D@2@@std@@G@std@@@std@@@std@@@std@@@std@@@std@@@std@@QAEXPAV?$_List_unchecked_iterator@V?$_List_val@U?$_List_simple_types@U?$pair@$$CBV?$basic_string@DU?$char_traits@D@std@@V?$allocator@D@2@@std@@G@std@@@std@@@std@@@1@@Z 100a5030 f i dll.obj
 0002:00018090       ??$destroy@V?$_List_unchecked_iterator@V?$_List_val@U?$_List_simple_types@U?$pair@$$CBV?$basic_string@DU?$char_traits@D@std@@V?$allocator@D@2@@std@@G@std@@@std@@@std@@@std@@@?$allocator_traits@U?$_Wrap_alloc@V?$allocator@V?$_List_unchecked_iterator@V?$_List_val@U?$_List_simple_types@U?$pair@$$CBV?$basic_string@DU?$char_traits@D@std@@V?$allocator@D@2@@std@@G@std@@@std@@@std@@@std@@@std@@@std@@@std@@SAXAAU?$_Wrap_alloc@V?$allocator@V?$_List_unchecked_iterator@V?$_List_val@U?$_List_simple_types@U?$pair@$$CBV?$basic_string@DU?$char_traits@D@std@@V?$allocator@D@2@@std@@G@std@@@std@@@std@@@std@@@std@@@1@PAV?$_List_unchecked_iterator@V?$_List_val@U?$_List_simple_types@U?$pair@$$CBV?$basic_string@DU?$char_traits@D@std@@V?$allocator@D@2@@std@@G@std@@@std@@@std@@@1@@Z 100a5090 f i dll.obj
 0002:000180f0       ??$destroy@V?$_List_unchecked_iterator@V?$_List_val@U?$_List_simple_types@U?$pair@$$CBV?$basic_string@DU?$char_traits@D@std@@V?$allocator@D@2@@std@@VDEVICE@@@std@@@std@@@std@@@std@@@?$_Wrap_alloc@U?$_Wrap_alloc@V?$allocator@V?$_List_unchecked_iterator@V?$_List_val@U?$_List_simple_types@U?$pair@$$CBV?$basic_string@DU?$char_traits@D@std@@V?$allocator@D@2@@std@@VDEVICE@@@std@@@std@@@std@@@std@@@std@@@std@@@std@@QAEXPAV?$_List_unchecked_iterator@V?$_List_val@U?$_List_simple_types@U?$pair@$$CBV?$basic_string@DU?$char_traits@D@std@@V?$allocator@D@2@@std@@VDEVICE@@@std@@@std@@@std@@@1@@Z 100a50f0 f i dll.obj
 0002:00018150       ??$destroy@V?$_List_unchecked_iterator@V?$_List_val@U?$_List_simple_types@U?$pair@$$CBV?$basic_string@DU?$char_traits@D@std@@V?$allocator@D@2@@std@@VDEVICE@@@std@@@std@@@std@@@std@@@?$allocator_traits@U?$_Wrap_alloc@V?$allocator@V?$_List_unchecked_iterator@V?$_List_val@U?$_List_simple_types@U?$pair@$$CBV?$basic_string@DU?$char_traits@D@std@@V?$allocator@D@2@@std@@VDEVICE@@@std@@@std@@@std@@@std@@@std@@@std@@@std@@SAXAAU?$_Wrap_alloc@V?$allocator@V?$_List_unchecked_iterator@V?$_List_val@U?$_List_simple_types@U?$pair@$$CBV?$basic_string@DU?$char_traits@D@std@@V?$allocator@D@2@@std@@VDEVICE@@@std@@@std@@@std@@@std@@@std@@@1@PAV?$_List_unchecked_iterator@V?$_List_val@U?$_List_simple_types@U?$pair@$$CBV?$basic_string@DU?$char_traits@D@std@@V?$allocator@D@2@@std@@VDEVICE@@@std@@@std@@@std@@@1@@Z 100a5150 f i dll.obj
 0002:000181b0       ??$distance@V?$_List_iterator@V?$_List_val@U?$_List_simple_types@U?$pair@$$CBV?$basic_string@DU?$char_traits@D@std@@V?$allocator@D@2@@std@@G@std@@@std@@@std@@@std@@@std@@YAHV?$_List_iterator@V?$_List_val@U?$_List_simple_types@U?$pair@$$CBV?$basic_string@DU?$char_traits@D@std@@V?$allocator@D@2@@std@@G@std@@@std@@@std@@@0@0@Z 100a51b0 f i dll.obj
 0002:000182f0       ??$emplace@ABUpiecewise_construct_t@std@@V?$tuple@$$QAV?$basic_string@DU?$char_traits@D@std@@V?$allocator@D@2@@std@@@2@V?$tuple@$$V@2@@?$_Hash@V?$_Umap_traits@V?$basic_string@DU?$char_traits@D@std@@V?$allocator@D@2@@std@@GV?$_Uhash_compare@V?$basic_string@DU?$char_traits@D@std@@V?$allocator@D@2@@std@@U?$hash@V?$basic_string@DU?$char_traits@D@std@@V?$allocator@D@2@@std@@@2@U?$equal_to@V?$basic_string@DU?$char_traits@D@std@@V?$allocator@D@2@@std@@@2@@2@V?$allocator@U?$pair@$$CBV?$basic_string@DU?$char_traits@D@std@@V?$allocator@D@2@@std@@G@std@@@2@$0A@@std@@@std@@QAE?AU?$pair@V?$_List_iterator@V?$_List_val@U?$_List_simple_types@U?$pair@$$CBV?$basic_string@DU?$char_traits@D@std@@V?$allocator@D@2@@std@@G@std@@@std@@@std@@@std@@_N@1@ABUpiecewise_construct_t@1@$$QAV?$tuple@$$QAV?$basic_string@DU?$char_traits@D@std@@V?$allocator@D@2@@std@@@1@$$QAV?$tuple@$$V@1@@Z 100a52f0 f i dll.obj
 0002:000183d0       ??$emplace@ABUpiecewise_construct_t@std@@V?$tuple@$$QAV?$basic_string@DU?$char_traits@D@std@@V?$allocator@D@2@@std@@@2@V?$tuple@$$V@2@@?$_Hash@V?$_Umap_traits@V?$basic_string@DU?$char_traits@D@std@@V?$allocator@D@2@@std@@VDEVICE@@V?$_Uhash_compare@V?$basic_string@DU?$char_traits@D@std@@V?$allocator@D@2@@std@@U?$hash@V?$basic_string@DU?$char_traits@D@std@@V?$allocator@D@2@@std@@@2@U?$equal_to@V?$basic_string@DU?$char_traits@D@std@@V?$allocator@D@2@@std@@@2@@2@V?$allocator@U?$pair@$$CBV?$basic_string@DU?$char_traits@D@std@@V?$allocator@D@2@@std@@VDEVICE@@@std@@@2@$0A@@std@@@std@@QAE?AU?$pair@V?$_List_iterator@V?$_List_val@U?$_List_simple_types@U?$pair@$$CBV?$basic_string@DU?$char_traits@D@std@@V?$allocator@D@2@@std@@VDEVICE@@@std@@@std@@@std@@@std@@_N@1@ABUpiecewise_construct_t@1@$$QAV?$tuple@$$QAV?$basic_string@DU?$char_traits@D@std@@V?$allocator@D@2@@std@@@1@$$QAV?$tuple@$$V@1@@Z 100a53d0 f i dll.obj
 0002:000184b0       ??$emplace_back@ABUFORMULA2_PAIR@@@?$deque@UFORMULA2_PAIR@@V?$allocator@UFORMULA2_PAIR@@@std@@@std@@QAEXABUFORMULA2_PAIR@@@Z 100a54b0 f i dll.obj
 0002:00018690       ??$emplace_back@ABUFORMULA_PAIR@@@?$deque@UFORMULA_PAIR@@V?$allocator@UFORMULA_PAIR@@@std@@@std@@QAEXABUFORMULA_PAIR@@@Z 100a5690 f i dll.obj
 0002:00018870       ??$emplace_front@ABUpiecewise_construct_t@std@@V?$tuple@$$QAV?$basic_string@DU?$char_traits@D@std@@V?$allocator@D@2@@std@@@2@V?$tuple@$$V@2@@?$list@U?$pair@$$CBV?$basic_string@DU?$char_traits@D@std@@V?$allocator@D@2@@std@@G@std@@V?$allocator@U?$pair@$$CBV?$basic_string@DU?$char_traits@D@std@@V?$allocator@D@2@@std@@G@std@@@2@@std@@QAEXABUpiecewise_construct_t@1@$$QAV?$tuple@$$QAV?$basic_string@DU?$char_traits@D@std@@V?$allocator@D@2@@std@@@1@$$QAV?$tuple@$$V@1@@Z 100a5870 f i dll.obj
 0002:00018920       ??$emplace_front@ABUpiecewise_construct_t@std@@V?$tuple@$$QAV?$basic_string@DU?$char_traits@D@std@@V?$allocator@D@2@@std@@@2@V?$tuple@$$V@2@@?$list@U?$pair@$$CBV?$basic_string@DU?$char_traits@D@std@@V?$allocator@D@2@@std@@VDEVICE@@@std@@V?$allocator@U?$pair@$$CBV?$basic_string@DU?$char_traits@D@std@@V?$allocator@D@2@@std@@VDEVICE@@@std@@@2@@std@@QAEXABUpiecewise_construct_t@1@$$QAV?$tuple@$$QAV?$basic_string@DU?$char_traits@D@std@@V?$allocator@D@2@@std@@@1@$$QAV?$tuple@$$V@1@@Z 100a5920 f i dll.obj
 0002:000189d0       ??$fill@PAV?$_List_unchecked_iterator@V?$_List_val@U?$_List_simple_types@U?$pair@$$CBV?$basic_string@DU?$char_traits@D@std@@V?$allocator@D@2@@std@@G@std@@@std@@@std@@@std@@V12@@std@@YAXPAV?$_List_unchecked_iterator@V?$_List_val@U?$_List_simple_types@U?$pair@$$CBV?$basic_string@DU?$char_traits@D@std@@V?$allocator@D@2@@std@@G@std@@@std@@@std@@@0@0ABV10@@Z 100a59d0 f i dll.obj
 0002:00018a60       ??$fill@PAV?$_List_unchecked_iterator@V?$_List_val@U?$_List_simple_types@U?$pair@$$CBV?$basic_string@DU?$char_traits@D@std@@V?$allocator@D@2@@std@@VDEVICE@@@std@@@std@@@std@@@std@@V12@@std@@YAXPAV?$_List_unchecked_iterator@V?$_List_val@U?$_List_simple_types@U?$pair@$$CBV?$basic_string@DU?$char_traits@D@std@@V?$allocator@D@2@@std@@VDEVICE@@@std@@@std@@@std@@@0@0ABV10@@Z 100a5a60 f i dll.obj
 0002:00018af0       ??$forward@$$QAV?$basic_string@DU?$char_traits@D@std@@V?$allocator@D@2@@std@@@std@@YA$$QAV?$basic_string@DU?$char_traits@D@std@@V?$allocator@D@2@@0@AAV10@@Z 100a5af0 f i dll.obj
 0002:00018b30       ??$forward@AAPAD@std@@YAAAPADAAPAD@Z 100a5b30 f i dll.obj
 0002:00018b70       ??$forward@AAPAU?$_List_node@U?$pair@$$CBV?$basic_string@DU?$char_traits@D@std@@V?$allocator@D@2@@std@@G@std@@PAX@std@@@std@@YAAAPAU?$_List_node@U?$pair@$$CBV?$basic_string@DU?$char_traits@D@std@@V?$allocator@D@2@@std@@G@std@@PAX@0@AAPAU10@@Z 100a5b70 f i dll.obj
 0002:00018bb0       ??$forward@AAPAU?$_List_node@U?$pair@$$CBV?$basic_string@DU?$char_traits@D@std@@V?$allocator@D@2@@std@@VDEVICE@@@std@@PAX@std@@@std@@YAAAPAU?$_List_node@U?$pair@$$CBV?$basic_string@DU?$char_traits@D@std@@V?$allocator@D@2@@std@@VDEVICE@@@std@@PAX@0@AAPAU10@@Z 100a5bb0 f i dll.obj
 0002:00018bf0       ??$forward@AAU?$_Wrap_alloc@V?$allocator@D@std@@@std@@@std@@YAAAU?$_Wrap_alloc@V?$allocator@D@std@@@0@AAU10@@Z 100a5bf0 f i dll.obj
 0002:00018c30       ??$forward@AAU?$_Wrap_alloc@V?$allocator@UFORMULA2_PAIR@@@std@@@std@@@std@@YAAAU?$_Wrap_alloc@V?$allocator@UFORMULA2_PAIR@@@std@@@0@AAU10@@Z 100a5c30 f i dll.obj
 0002:00018c70       ??$forward@AAU?$_Wrap_alloc@V?$allocator@UFORMULA_PAIR@@@std@@@std@@@std@@YAAAU?$_Wrap_alloc@V?$allocator@UFORMULA_PAIR@@@std@@@0@AAU10@@Z 100a5c70 f i dll.obj
 0002:00018cb0       ??$forward@AAU?$pair@$$CBV?$basic_string@DU?$char_traits@D@std@@V?$allocator@D@2@@std@@G@std@@@std@@YAAAU?$pair@$$CBV?$basic_string@DU?$char_traits@D@std@@V?$allocator@D@2@@std@@G@0@AAU10@@Z 100a5cb0 f i dll.obj
 0002:00018cf0       ??$forward@AAU?$pair@$$CBV?$basic_string@DU?$char_traits@D@std@@V?$allocator@D@2@@std@@VDEVICE@@@std@@@std@@YAAAU?$pair@$$CBV?$basic_string@DU?$char_traits@D@std@@V?$allocator@D@2@@std@@VDEVICE@@@0@AAU10@@Z 100a5cf0 f i dll.obj
 0002:00018d30       ??$forward@AAV?$_List_iterator@V?$_List_val@U?$_List_simple_types@U?$pair@$$CBV?$basic_string@DU?$char_traits@D@std@@V?$allocator@D@2@@std@@G@std@@@std@@@std@@@std@@@std@@YAAAV?$_List_iterator@V?$_List_val@U?$_List_simple_types@U?$pair@$$CBV?$basic_string@DU?$char_traits@D@std@@V?$allocator@D@2@@std@@G@std@@@std@@@std@@@0@AAV10@@Z 100a5d30 f i dll.obj
 0002:00018d70       ??$forward@AAV?$_List_iterator@V?$_List_val@U?$_List_simple_types@U?$pair@$$CBV?$basic_string@DU?$char_traits@D@std@@V?$allocator@D@2@@std@@VDEVICE@@@std@@@std@@@std@@@std@@@std@@YAAAV?$_List_iterator@V?$_List_val@U?$_List_simple_types@U?$pair@$$CBV?$basic_string@DU?$char_traits@D@std@@V?$allocator@D@2@@std@@VDEVICE@@@std@@@std@@@std@@@0@AAV10@@Z 100a5d70 f i dll.obj
 0002:00018db0       ??$forward@ABUFORMULA2_PAIR@@@std@@YAABUFORMULA2_PAIR@@ABU1@@Z 100a5db0 f i dll.obj
 0002:00018df0       ??$forward@ABUFORMULA_PAIR@@@std@@YAABUFORMULA_PAIR@@ABU1@@Z 100a5df0 f i dll.obj
 0002:00018e30       ??$forward@ABUpiecewise_construct_t@std@@@std@@YAABUpiecewise_construct_t@0@ABU10@@Z 100a5e30 f i dll.obj
 0002:00018e70       ??$forward@ABV?$_List_unchecked_iterator@V?$_List_val@U?$_List_simple_types@U?$pair@$$CBV?$basic_string@DU?$char_traits@D@std@@V?$allocator@D@2@@std@@G@std@@@std@@@std@@@std@@@std@@YAABV?$_List_unchecked_iterator@V?$_List_val@U?$_List_simple_types@U?$pair@$$CBV?$basic_string@DU?$char_traits@D@std@@V?$allocator@D@2@@std@@G@std@@@std@@@std@@@0@ABV10@@Z 100a5e70 f i dll.obj
 0002:00018eb0       ??$forward@ABV?$_List_unchecked_iterator@V?$_List_val@U?$_List_simple_types@U?$pair@$$CBV?$basic_string@DU?$char_traits@D@std@@V?$allocator@D@2@@std@@VDEVICE@@@std@@@std@@@std@@@std@@@std@@YAABV?$_List_unchecked_iterator@V?$_List_val@U?$_List_simple_types@U?$pair@$$CBV?$basic_string@DU?$char_traits@D@std@@V?$allocator@D@2@@std@@VDEVICE@@@std@@@std@@@std@@@0@ABV10@@Z 100a5eb0 f i dll.obj
 0002:00018ef0       ??$forward@U?$_Wrap_alloc@V?$allocator@D@std@@@std@@@std@@YA$$QAU?$_Wrap_alloc@V?$allocator@D@std@@@0@AAU10@@Z 100a5ef0 f i dll.obj
 0002:00018f30       ??$forward@U?$_Wrap_alloc@V?$allocator@UFORMULA2_PAIR@@@std@@@std@@@std@@YA$$QAU?$_Wrap_alloc@V?$allocator@UFORMULA2_PAIR@@@std@@@0@AAU10@@Z 100a5f30 f i dll.obj
 0002:00018f70       ??$forward@U?$_Wrap_alloc@V?$allocator@UFORMULA_PAIR@@@std@@@std@@@std@@YA$$QAU?$_Wrap_alloc@V?$allocator@UFORMULA_PAIR@@@std@@@0@AAU10@@Z 100a5f70 f i dll.obj
 0002:00018fb0       ??$forward@U_Container_proxy@std@@@std@@YA$$QAU_Container_proxy@0@AAU10@@Z 100a5fb0 f i dll.obj
 0002:00018ff0       ??$forward@V?$_List_iterator@V?$_List_val@U?$_List_simple_types@U?$pair@$$CBV?$basic_string@DU?$char_traits@D@std@@V?$allocator@D@2@@std@@G@std@@@std@@@std@@@std@@@std@@YA$$QAV?$_List_iterator@V?$_List_val@U?$_List_simple_types@U?$pair@$$CBV?$basic_string@DU?$char_traits@D@std@@V?$allocator@D@2@@std@@G@std@@@std@@@std@@@0@AAV10@@Z 100a5ff0 f i dll.obj
 0002:00019030       ??$forward@V?$_List_iterator@V?$_List_val@U?$_List_simple_types@U?$pair@$$CBV?$basic_string@DU?$char_traits@D@std@@V?$allocator@D@2@@std@@VDEVICE@@@std@@@std@@@std@@@std@@@std@@YA$$QAV?$_List_iterator@V?$_List_val@U?$_List_simple_types@U?$pair@$$CBV?$basic_string@DU?$char_traits@D@std@@V?$allocator@D@2@@std@@VDEVICE@@@std@@@std@@@std@@@0@AAV10@@Z 100a6030 f i dll.obj
 0002:00019070       ??$forward@V?$_List_unchecked_iterator@V?$_List_val@U?$_List_simple_types@U?$pair@$$CBV?$basic_string@DU?$char_traits@D@std@@V?$allocator@D@2@@std@@G@std@@@std@@@std@@@std@@@std@@YA$$QAV?$_List_unchecked_iterator@V?$_List_val@U?$_List_simple_types@U?$pair@$$CBV?$basic_string@DU?$char_traits@D@std@@V?$allocator@D@2@@std@@G@std@@@std@@@std@@@0@AAV10@@Z 100a6070 f i dll.obj
 0002:000190b0       ??$forward@V?$_List_unchecked_iterator@V?$_List_val@U?$_List_simple_types@U?$pair@$$CBV?$basic_string@DU?$char_traits@D@std@@V?$allocator@D@2@@std@@VDEVICE@@@std@@@std@@@std@@@std@@@std@@YA$$QAV?$_List_unchecked_iterator@V?$_List_val@U?$_List_simple_types@U?$pair@$$CBV?$basic_string@DU?$char_traits@D@std@@V?$allocator@D@2@@std@@VDEVICE@@@std@@@std@@@std@@@0@AAV10@@Z 100a60b0 f i dll.obj
 0002:000190f0       ??$forward@V?$allocator@UFORMULA2_PAIR@@@std@@@std@@YA$$QAV?$allocator@UFORMULA2_PAIR@@@0@AAV10@@Z 100a60f0 f i dll.obj
 0002:00019130       ??$forward@V?$allocator@UFORMULA_PAIR@@@std@@@std@@YA$$QAV?$allocator@UFORMULA_PAIR@@@0@AAV10@@Z 100a6130 f i dll.obj
 0002:00019170       ??$forward@V?$basic_string@DU?$char_traits@D@std@@V?$allocator@D@2@@std@@@std@@YA$$QAV?$basic_string@DU?$char_traits@D@std@@V?$allocator@D@2@@0@AAV10@@Z 100a6170 f i dll.obj
 0002:000191b0       ??$forward@V?$tuple@$$QAV?$basic_string@DU?$char_traits@D@std@@V?$allocator@D@2@@std@@@std@@@std@@YA$$QAV?$tuple@$$QAV?$basic_string@DU?$char_traits@D@std@@V?$allocator@D@2@@std@@@0@AAV10@@Z 100a61b0 f i dll.obj
 0002:000191f0       ??$forward@V?$tuple@$$V@std@@@std@@YA$$QAV?$tuple@$$V@0@AAV10@@Z 100a61f0 f i dll.obj
 0002:00019230       ??$forward@_N@std@@YA$$QA_NAA_N@Z 100a6230 f i dll.obj
 0002:00019270       ??$forward_as_tuple@$$V@std@@YA?AV?$tuple@$$V@0@XZ 100a6270 f i dll.obj
 0002:000192c0       ??$forward_as_tuple@V?$basic_string@DU?$char_traits@D@std@@V?$allocator@D@2@@std@@@std@@YA?AV?$tuple@$$QAV?$basic_string@DU?$char_traits@D@std@@V?$allocator@D@2@@std@@@0@$$QAV?$basic_string@DU?$char_traits@D@std@@V?$allocator@D@2@@0@@Z 100a62c0 f i dll.obj
 0002:00019360       ??$get@$0A@$$QAV?$basic_string@DU?$char_traits@D@std@@V?$allocator@D@2@@std@@@std@@YA$$QAV?$basic_string@DU?$char_traits@D@std@@V?$allocator@D@2@@0@$$QAV?$tuple@$$QAV?$basic_string@DU?$char_traits@D@std@@V?$allocator@D@2@@std@@@0@@Z 100a6360 f i dll.obj
 0002:000193b0       ??$insert@V?$_Deque_const_iterator@V?$_Deque_val@U?$_Deque_simple_types@UFORMULA2_PAIR@@@std@@@std@@@std@@@?$deque@UFORMULA2_PAIR@@V?$allocator@UFORMULA2_PAIR@@@std@@@std@@QAE?AV?$_Deque_iterator@V?$_Deque_val@U?$_Deque_simple_types@UFORMULA2_PAIR@@@std@@@std@@@1@V?$_Deque_const_iterator@V?$_Deque_val@U?$_Deque_simple_types@UFORMULA2_PAIR@@@std@@@std@@@1@00@Z 100a63b0 f i dll.obj
 0002:00019b00       ??$insert@V?$_Deque_const_iterator@V?$_Deque_val@U?$_Deque_simple_types@UFORMULA_PAIR@@@std@@@std@@@std@@@?$deque@UFORMULA_PAIR@@V?$allocator@UFORMULA_PAIR@@@std@@@std@@QAE?AV?$_Deque_iterator@V?$_Deque_val@U?$_Deque_simple_types@UFORMULA_PAIR@@@std@@@std@@@1@V?$_Deque_const_iterator@V?$_Deque_val@U?$_Deque_simple_types@UFORMULA_PAIR@@@std@@@std@@@1@00@Z 100a6b00 f i dll.obj
 0002:0001a250       ??$iter_swap@V?$_Deque_unchecked_iterator@V?$_Deque_val@U?$_Deque_simple_types@UFORMULA2_PAIR@@@std@@@std@@@std@@V12@@std@@YAXV?$_Deque_unchecked_iterator@V?$_Deque_val@U?$_Deque_simple_types@UFORMULA2_PAIR@@@std@@@std@@@0@0@Z 100a7250 f i dll.obj
 0002:0001a2b0       ??$iter_swap@V?$_Deque_unchecked_iterator@V?$_Deque_val@U?$_Deque_simple_types@UFORMULA_PAIR@@@std@@@std@@@std@@V12@@std@@YAXV?$_Deque_unchecked_iterator@V?$_Deque_val@U?$_Deque_simple_types@UFORMULA_PAIR@@@std@@@std@@@0@0@Z 100a72b0 f i dll.obj
 0002:0001a310       ??$move@AAU?$_Wrap_alloc@V?$allocator@D@std@@@std@@@std@@YA$$QAU?$_Wrap_alloc@V?$allocator@D@std@@@0@AAU10@@Z 100a7310 f i dll.obj
 0002:0001a350       ??$move@AAU?$_Wrap_alloc@V?$allocator@UFORMULA2_PAIR@@@std@@@std@@@std@@YA$$QAU?$_Wrap_alloc@V?$allocator@UFORMULA2_PAIR@@@std@@@0@AAU10@@Z 100a7350 f i dll.obj
 0002:0001a390       ??$move@AAU?$_Wrap_alloc@V?$allocator@UFORMULA_PAIR@@@std@@@std@@@std@@YA$$QAU?$_Wrap_alloc@V?$allocator@UFORMULA_PAIR@@@std@@@0@AAU10@@Z 100a7390 f i dll.obj
 0002:0001a3d0       ??$move@AAUFORMULA2_PAIR@@@std@@YA$$QAUFORMULA2_PAIR@@AAU1@@Z 100a73d0 f i dll.obj
 0002:0001a410       ??$move@AAUFORMULA_PAIR@@@std@@YA$$QAUFORMULA_PAIR@@AAU1@@Z 100a7410 f i dll.obj
 0002:0001a450       ??$move@AAV?$_List_unchecked_iterator@V?$_List_val@U?$_List_simple_types@U?$pair@$$CBV?$basic_string@DU?$char_traits@D@std@@V?$allocator@D@2@@std@@G@std@@@std@@@std@@@std@@@std@@YA$$QAV?$_List_unchecked_iterator@V?$_List_val@U?$_List_simple_types@U?$pair@$$CBV?$basic_string@DU?$char_traits@D@std@@V?$allocator@D@2@@std@@G@std@@@std@@@std@@@0@AAV10@@Z 100a7450 f i dll.obj
 0002:0001a490       ??$move@AAV?$_List_unchecked_iterator@V?$_List_val@U?$_List_simple_types@U?$pair@$$CBV?$basic_string@DU?$char_traits@D@std@@V?$allocator@D@2@@std@@VDEVICE@@@std@@@std@@@std@@@std@@@std@@YA$$QAV?$_List_unchecked_iterator@V?$_List_val@U?$_List_simple_types@U?$pair@$$CBV?$basic_string@DU?$char_traits@D@std@@V?$allocator@D@2@@std@@VDEVICE@@@std@@@std@@@std@@@0@AAV10@@Z 100a7490 f i dll.obj
 0002:0001a4d0       ??$move@AAV?$basic_string@DU?$char_traits@D@std@@V?$allocator@D@2@@std@@@std@@YA$$QAV?$basic_string@DU?$char_traits@D@std@@V?$allocator@D@2@@0@AAV10@@Z 100a74d0 f i dll.obj
 0002:0001a510       ??$move@AAV?$tuple@$$QAV?$basic_string@DU?$char_traits@D@std@@V?$allocator@D@2@@std@@@std@@@std@@YA$$QAV?$tuple@$$QAV?$basic_string@DU?$char_traits@D@std@@V?$allocator@D@2@@std@@@0@AAV10@@Z 100a7510 f i dll.obj
 0002:0001a550       ??$move@V?$_Deque_iterator@V?$_Deque_val@U?$_Deque_simple_types@UFORMULA2_PAIR@@@std@@@std@@@std@@V12@@std@@YA?AV?$_Deque_iterator@V?$_Deque_val@U?$_Deque_simple_types@UFORMULA2_PAIR@@@std@@@std@@@0@V10@00@Z 100a7550 f i dll.obj
 0002:0001a720       ??$move@V?$_Deque_iterator@V?$_Deque_val@U?$_Deque_simple_types@UFORMULA_PAIR@@@std@@@std@@@std@@V12@@std@@YA?AV?$_Deque_iterator@V?$_Deque_val@U?$_Deque_simple_types@UFORMULA_PAIR@@@std@@@std@@@0@V10@00@Z 100a7720 f i dll.obj
 0002:0001a8f0       ??$move_backward@V?$_Deque_iterator@V?$_Deque_val@U?$_Deque_simple_types@UFORMULA2_PAIR@@@std@@@std@@@std@@V12@@std@@YA?AV?$_Deque_iterator@V?$_Deque_val@U?$_Deque_simple_types@UFORMULA2_PAIR@@@std@@@std@@@0@V10@00@Z 100a78f0 f i dll.obj
 0002:0001aba0       ??$move_backward@V?$_Deque_iterator@V?$_Deque_val@U?$_Deque_simple_types@UFORMULA_PAIR@@@std@@@std@@@std@@V12@@std@@YA?AV?$_Deque_iterator@V?$_Deque_val@U?$_Deque_simple_types@UFORMULA_PAIR@@@std@@@std@@@0@V10@00@Z 100a7ba0 f i dll.obj
 0002:0001ae50       ??$reverse@V?$_Deque_iterator@V?$_Deque_val@U?$_Deque_simple_types@UFORMULA2_PAIR@@@std@@@std@@@std@@@std@@YAXV?$_Deque_iterator@V?$_Deque_val@U?$_Deque_simple_types@UFORMULA2_PAIR@@@std@@@std@@@0@0@Z 100a7e50 f i dll.obj
 0002:0001b000       ??$reverse@V?$_Deque_iterator@V?$_Deque_val@U?$_Deque_simple_types@UFORMULA_PAIR@@@std@@@std@@@std@@@std@@YAXV?$_Deque_iterator@V?$_Deque_val@U?$_Deque_simple_types@UFORMULA_PAIR@@@std@@@std@@@0@0@Z 100a8000 f i dll.obj
 0002:0001b1b0       ??$rotate@V?$_Deque_iterator@V?$_Deque_val@U?$_Deque_simple_types@UFORMULA2_PAIR@@@std@@@std@@@std@@@std@@YA?AV?$_Deque_iterator@V?$_Deque_val@U?$_Deque_simple_types@UFORMULA2_PAIR@@@std@@@std@@@0@V10@00@Z 100a81b0 f i dll.obj
 0002:0001b490       ??$rotate@V?$_Deque_iterator@V?$_Deque_val@U?$_Deque_simple_types@UFORMULA_PAIR@@@std@@@std@@@std@@@std@@YA?AV?$_Deque_iterator@V?$_Deque_val@U?$_Deque_simple_types@UFORMULA_PAIR@@@std@@@std@@@0@V10@00@Z 100a8490 f i dll.obj
 0002:0001b770       ??$swap@UFORMULA2_PAIR@@X@std@@YAXAAUFORMULA2_PAIR@@0@Z 100a8770 f i dll.obj
 0002:0001b840       ??$swap@UFORMULA_PAIR@@X@std@@YAXAAUFORMULA_PAIR@@0@Z 100a8840 f i dll.obj
 0002:0001b910       ??$try_emplace@$$V@?$unordered_map@V?$basic_string@DU?$char_traits@D@std@@V?$allocator@D@2@@std@@GU?$hash@V?$basic_string@DU?$char_traits@D@std@@V?$allocator@D@2@@std@@@2@U?$equal_to@V?$basic_string@DU?$char_traits@D@std@@V?$allocator@D@2@@std@@@2@V?$allocator@U?$pair@$$CBV?$basic_string@DU?$char_traits@D@std@@V?$allocator@D@2@@std@@G@std@@@2@@std@@QAE?AU?$pair@V?$_List_iterator@V?$_List_val@U?$_List_simple_types@U?$pair@$$CBV?$basic_string@DU?$char_traits@D@std@@V?$allocator@D@2@@std@@G@std@@@std@@@std@@@std@@_N@1@$$QAV?$basic_string@DU?$char_traits@D@std@@V?$allocator@D@2@@1@@Z 100a8910 f i dll.obj
 0002:0001b9a0       ??$try_emplace@$$V@?$unordered_map@V?$basic_string@DU?$char_traits@D@std@@V?$allocator@D@2@@std@@VDEVICE@@U?$hash@V?$basic_string@DU?$char_traits@D@std@@V?$allocator@D@2@@std@@@2@U?$equal_to@V?$basic_string@DU?$char_traits@D@std@@V?$allocator@D@2@@std@@@2@V?$allocator@U?$pair@$$CBV?$basic_string@DU?$char_traits@D@std@@V?$allocator@D@2@@std@@VDEVICE@@@std@@@2@@std@@QAE?AU?$pair@V?$_List_iterator@V?$_List_val@U?$_List_simple_types@U?$pair@$$CBV?$basic_string@DU?$char_traits@D@std@@V?$allocator@D@2@@std@@VDEVICE@@@std@@@std@@@std@@@std@@_N@1@$$QAV?$basic_string@DU?$char_traits@D@std@@V?$allocator@D@2@@1@@Z 100a89a0 f i dll.obj
 0002:0001ba30       ??0?$_Deque_const_iterator@V?$_Deque_val@U?$_Deque_simple_types@UFORMULA2_PAIR@@@std@@@std@@@std@@QAE@$$QAV01@@Z 100a8a30 f i dll.obj
 0002:0001baa0       ??0?$_Deque_const_iterator@V?$_Deque_val@U?$_Deque_simple_types@UFORMULA2_PAIR@@@std@@@std@@@std@@QAE@ABV01@@Z 100a8aa0 f i dll.obj
 0002:0001bb10       ??0?$_Deque_const_iterator@V?$_Deque_val@U?$_Deque_simple_types@UFORMULA2_PAIR@@@std@@@std@@@std@@QAE@IPBU_Container_base12@1@@Z 100a8b10 f i dll.obj
 0002:0001bbd0       ??0?$_Deque_const_iterator@V?$_Deque_val@U?$_Deque_simple_types@UFORMULA_PAIR@@@std@@@std@@@std@@QAE@$$QAV01@@Z 100a8bd0 f i dll.obj
 0002:0001bc40       ??0?$_Deque_const_iterator@V?$_Deque_val@U?$_Deque_simple_types@UFORMULA_PAIR@@@std@@@std@@@std@@QAE@ABV01@@Z 100a8c40 f i dll.obj
 0002:0001bcb0       ??0?$_Deque_const_iterator@V?$_Deque_val@U?$_Deque_simple_types@UFORMULA_PAIR@@@std@@@std@@@std@@QAE@IPBU_Container_base12@1@@Z 100a8cb0 f i dll.obj
 0002:0001bd70       ??0?$_Deque_iterator@V?$_Deque_val@U?$_Deque_simple_types@UFORMULA2_PAIR@@@std@@@std@@@std@@QAE@ABV01@@Z 100a8d70 f i dll.obj
 0002:0001bdd0       ??0?$_Deque_iterator@V?$_Deque_val@U?$_Deque_simple_types@UFORMULA2_PAIR@@@std@@@std@@@std@@QAE@IPBU_Container_base12@1@@Z 100a8dd0 f i dll.obj
 0002:0001be30       ??0?$_Deque_iterator@V?$_Deque_val@U?$_Deque_simple_types@UFORMULA_PAIR@@@std@@@std@@@std@@QAE@ABV01@@Z 100a8e30 f i dll.obj
 0002:0001be90       ??0?$_Deque_iterator@V?$_Deque_val@U?$_Deque_simple_types@UFORMULA_PAIR@@@std@@@std@@@std@@QAE@IPBU_Container_base12@1@@Z 100a8e90 f i dll.obj
 0002:0001bef0       ??0?$_Deque_unchecked_const_iterator@V?$_Deque_val@U?$_Deque_simple_types@UFORMULA2_PAIR@@@std@@@std@@@std@@QAE@IPBU_Container_base12@1@@Z 100a8ef0 f i dll.obj
 0002:0001bf40       ??0?$_Deque_unchecked_const_iterator@V?$_Deque_val@U?$_Deque_simple_types@UFORMULA_PAIR@@@std@@@std@@@std@@QAE@IPBU_Container_base12@1@@Z 100a8f40 f i dll.obj
 0002:0001bf90       ??0?$_Deque_unchecked_iterator@V?$_Deque_val@U?$_Deque_simple_types@UFORMULA2_PAIR@@@std@@@std@@@std@@QAE@IPBU_Container_base12@1@@Z 100a8f90 f i dll.obj
 0002:0001bff0       ??0?$_Deque_unchecked_iterator@V?$_Deque_val@U?$_Deque_simple_types@UFORMULA_PAIR@@@std@@@std@@@std@@QAE@IPBU_Container_base12@1@@Z 100a8ff0 f i dll.obj
 0002:0001c050       ??0?$_Deque_val@U?$_Deque_simple_types@UFORMULA2_PAIR@@@std@@@std@@QAE@XZ 100a9050 f i dll.obj
 0002:0001c0e0       ??0?$_Deque_val@U?$_Deque_simple_types@UFORMULA_PAIR@@@std@@@std@@QAE@XZ 100a90e0 f i dll.obj
 0002:0001c170       ??0?$_Iterator012@Ubidirectional_iterator_tag@std@@U?$pair@$$CBV?$basic_string@DU?$char_traits@D@std@@V?$allocator@D@2@@std@@G@2@HPBU32@ABU32@U_Iterator_base12@2@@std@@QAE@$$QAU01@@Z 100a9170 f i dll.obj
 0002:0001c1d0       ??0?$_Iterator012@Ubidirectional_iterator_tag@std@@U?$pair@$$CBV?$basic_string@DU?$char_traits@D@std@@V?$allocator@D@2@@std@@G@2@HPBU32@ABU32@U_Iterator_base12@2@@std@@QAE@ABU01@@Z 100a91d0 f i dll.obj
 0002:0001c230       ??0?$_Iterator012@Ubidirectional_iterator_tag@std@@U?$pair@$$CBV?$basic_string@DU?$char_traits@D@std@@V?$allocator@D@2@@std@@G@2@HPBU32@ABU32@U_Iterator_base12@2@@std@@QAE@XZ 100a9230 f i dll.obj
 0002:0001c290       ??0?$_Iterator012@Ubidirectional_iterator_tag@std@@U?$pair@$$CBV?$basic_string@DU?$char_traits@D@std@@V?$allocator@D@2@@std@@VDEVICE@@@2@HPBU32@ABU32@U_Iterator_base12@2@@std@@QAE@$$QAU01@@Z 100a9290 f i dll.obj
 0002:0001c2f0       ??0?$_Iterator012@Ubidirectional_iterator_tag@std@@U?$pair@$$CBV?$basic_string@DU?$char_traits@D@std@@V?$allocator@D@2@@std@@VDEVICE@@@2@HPBU32@ABU32@U_Iterator_base12@2@@std@@QAE@ABU01@@Z 100a92f0 f i dll.obj
 0002:0001c350       ??0?$_Iterator012@Ubidirectional_iterator_tag@std@@U?$pair@$$CBV?$basic_string@DU?$char_traits@D@std@@V?$allocator@D@2@@std@@VDEVICE@@@2@HPBU32@ABU32@U_Iterator_base12@2@@std@@QAE@XZ 100a9350 f i dll.obj
 0002:0001c3b0       ??0?$_Iterator012@Urandom_access_iterator_tag@std@@V?$_List_unchecked_iterator@V?$_List_val@U?$_List_simple_types@U?$pair@$$CBV?$basic_string@DU?$char_traits@D@std@@V?$allocator@D@2@@std@@G@std@@@std@@@std@@@2@HPBV32@ABV32@U_Iterator_base12@2@@std@@QAE@$$QAU01@@Z 100a93b0 f i dll.obj
 0002:0001c410       ??0?$_Iterator012@Urandom_access_iterator_tag@std@@V?$_List_unchecked_iterator@V?$_List_val@U?$_List_simple_types@U?$pair@$$CBV?$basic_string@DU?$char_traits@D@std@@V?$allocator@D@2@@std@@G@std@@@std@@@std@@@2@HPBV32@ABV32@U_Iterator_base12@2@@std@@QAE@ABU01@@Z 100a9410 f i dll.obj
 0002:0001c470       ??0?$_Iterator012@Urandom_access_iterator_tag@std@@V?$_List_unchecked_iterator@V?$_List_val@U?$_List_simple_types@U?$pair@$$CBV?$basic_string@DU?$char_traits@D@std@@V?$allocator@D@2@@std@@G@std@@@std@@@std@@@2@HPBV32@ABV32@U_Iterator_base12@2@@std@@QAE@XZ 100a9470 f i dll.obj
 0002:0001c4d0       ??0?$_Iterator012@Urandom_access_iterator_tag@std@@V?$_List_unchecked_iterator@V?$_List_val@U?$_List_simple_types@U?$pair@$$CBV?$basic_string@DU?$char_traits@D@std@@V?$allocator@D@2@@std@@VDEVICE@@@std@@@std@@@std@@@2@HPBV32@ABV32@U_Iterator_base12@2@@std@@QAE@$$QAU01@@Z 100a94d0 f i dll.obj
 0002:0001c530       ??0?$_Iterator012@Urandom_access_iterator_tag@std@@V?$_List_unchecked_iterator@V?$_List_val@U?$_List_simple_types@U?$pair@$$CBV?$basic_string@DU?$char_traits@D@std@@V?$allocator@D@2@@std@@VDEVICE@@@std@@@std@@@std@@@2@HPBV32@ABV32@U_Iterator_base12@2@@std@@QAE@ABU01@@Z 100a9530 f i dll.obj
 0002:0001c590       ??0?$_Iterator012@Urandom_access_iterator_tag@std@@V?$_List_unchecked_iterator@V?$_List_val@U?$_List_simple_types@U?$pair@$$CBV?$basic_string@DU?$char_traits@D@std@@V?$allocator@D@2@@std@@VDEVICE@@@std@@@std@@@std@@@2@HPBV32@ABV32@U_Iterator_base12@2@@std@@QAE@XZ 100a9590 f i dll.obj
 0002:0001c5f0       ??0?$_List_const_iterator@V?$_List_val@U?$_List_simple_types@U?$pair@$$CBV?$basic_string@DU?$char_traits@D@std@@V?$allocator@D@2@@std@@G@std@@@std@@@std@@@std@@QAE@$$QAV01@@Z 100a95f0 f i dll.obj
 0002:0001c650       ??0?$_List_const_iterator@V?$_List_val@U?$_List_simple_types@U?$pair@$$CBV?$basic_string@DU?$char_traits@D@std@@V?$allocator@D@2@@std@@G@std@@@std@@@std@@@std@@QAE@ABV01@@Z 100a9650 f i dll.obj
 0002:0001c6b0       ??0?$_List_const_iterator@V?$_List_val@U?$_List_simple_types@U?$pair@$$CBV?$basic_string@DU?$char_traits@D@std@@V?$allocator@D@2@@std@@G@std@@@std@@@std@@@std@@QAE@PAU?$_List_node@U?$pair@$$CBV?$basic_string@DU?$char_traits@D@std@@V?$allocator@D@2@@std@@G@std@@PAX@1@PBV?$_List_val@U?$_List_simple_types@U?$pair@$$CBV?$basic_string@DU?$char_traits@D@std@@V?$allocator@D@2@@std@@G@std@@@std@@@1@@Z 100a96b0 f i dll.obj
 0002:0001c710       ??0?$_List_const_iterator@V?$_List_val@U?$_List_simple_types@U?$pair@$$CBV?$basic_string@DU?$char_traits@D@std@@V?$allocator@D@2@@std@@VDEVICE@@@std@@@std@@@std@@@std@@QAE@$$QAV01@@Z 100a9710 f i dll.obj
 0002:0001c770       ??0?$_List_const_iterator@V?$_List_val@U?$_List_simple_types@U?$pair@$$CBV?$basic_string@DU?$char_traits@D@std@@V?$allocator@D@2@@std@@VDEVICE@@@std@@@std@@@std@@@std@@QAE@ABV01@@Z 100a9770 f i dll.obj
 0002:0001c7d0       ??0?$_List_const_iterator@V?$_List_val@U?$_List_simple_types@U?$pair@$$CBV?$basic_string@DU?$char_traits@D@std@@V?$allocator@D@2@@std@@VDEVICE@@@std@@@std@@@std@@@std@@QAE@PAU?$_List_node@U?$pair@$$CBV?$basic_string@DU?$char_traits@D@std@@V?$allocator@D@2@@std@@VDEVICE@@@std@@PAX@1@PBV?$_List_val@U?$_List_simple_types@U?$pair@$$CBV?$basic_string@DU?$char_traits@D@std@@V?$allocator@D@2@@std@@VDEVICE@@@std@@@std@@@1@@Z 100a97d0 f i dll.obj
 0002:0001c830       ??0?$_List_const_iterator@V?$_List_val@U?$_List_simple_types@U?$pair@$$CBV?$basic_string@DU?$char_traits@D@std@@V?$allocator@D@2@@std@@VDEVICE@@@std@@@std@@@std@@@std@@QAE@XZ 100a9830 f i dll.obj
 0002:0001c890       ??0?$_List_iterator@V?$_List_val@U?$_List_simple_types@U?$pair@$$CBV?$basic_string@DU?$char_traits@D@std@@V?$allocator@D@2@@std@@G@std@@@std@@@std@@@std@@QAE@$$QAV01@@Z 100a9890 f i dll.obj
 0002:0001c8f0       ??0?$_List_iterator@V?$_List_val@U?$_List_simple_types@U?$pair@$$CBV?$basic_string@DU?$char_traits@D@std@@V?$allocator@D@2@@std@@G@std@@@std@@@std@@@std@@QAE@ABV01@@Z 100a98f0 f i dll.obj
 0002:0001c950       ??0?$_List_iterator@V?$_List_val@U?$_List_simple_types@U?$pair@$$CBV?$basic_string@DU?$char_traits@D@std@@V?$allocator@D@2@@std@@G@std@@@std@@@std@@@std@@QAE@PAU?$_List_node@U?$pair@$$CBV?$basic_string@DU?$char_traits@D@std@@V?$allocator@D@2@@std@@G@std@@PAX@1@PBV?$_List_val@U?$_List_simple_types@U?$pair@$$CBV?$basic_string@DU?$char_traits@D@std@@V?$allocator@D@2@@std@@G@std@@@std@@@1@@Z 100a9950 f i dll.obj
 0002:0001c9b0       ??0?$_List_iterator@V?$_List_val@U?$_List_simple_types@U?$pair@$$CBV?$basic_string@DU?$char_traits@D@std@@V?$allocator@D@2@@std@@VDEVICE@@@std@@@std@@@std@@@std@@QAE@$$QAV01@@Z 100a99b0 f i dll.obj
 0002:0001ca10       ??0?$_List_iterator@V?$_List_val@U?$_List_simple_types@U?$pair@$$CBV?$basic_string@DU?$char_traits@D@std@@V?$allocator@D@2@@std@@VDEVICE@@@std@@@std@@@std@@@std@@QAE@ABV01@@Z 100a9a10 f i dll.obj
 0002:0001ca70       ??0?$_List_iterator@V?$_List_val@U?$_List_simple_types@U?$pair@$$CBV?$basic_string@DU?$char_traits@D@std@@V?$allocator@D@2@@std@@VDEVICE@@@std@@@std@@@std@@@std@@QAE@PAU?$_List_node@U?$pair@$$CBV?$basic_string@DU?$char_traits@D@std@@V?$allocator@D@2@@std@@VDEVICE@@@std@@PAX@1@PBV?$_List_val@U?$_List_simple_types@U?$pair@$$CBV?$basic_string@DU?$char_traits@D@std@@V?$allocator@D@2@@std@@VDEVICE@@@std@@@std@@@1@@Z 100a9a70 f i dll.obj
 0002:0001cad0       ??0?$_List_unchecked_const_iterator@V?$_List_val@U?$_List_simple_types@U?$pair@$$CBV?$basic_string@DU?$char_traits@D@std@@V?$allocator@D@2@@std@@G@std@@@std@@@std@@U_Iterator_base0@2@@std@@QAE@PAU?$_List_node@U?$pair@$$CBV?$basic_string@DU?$char_traits@D@std@@V?$allocator@D@2@@std@@G@std@@PAX@1@PBV?$_List_val@U?$_List_simple_types@U?$pair@$$CBV?$basic_string@DU?$char_traits@D@std@@V?$allocator@D@2@@std@@G@std@@@std@@@1@@Z 100a9ad0 f i dll.obj
 0002:0001cb40       ??0?$_List_unchecked_const_iterator@V?$_List_val@U?$_List_simple_types@U?$pair@$$CBV?$basic_string@DU?$char_traits@D@std@@V?$allocator@D@2@@std@@G@std@@@std@@@std@@U_Iterator_base0@2@@std@@QAE@XZ 100a9b40 f i dll.obj
 0002:0001cb90       ??0?$_List_unchecked_const_iterator@V?$_List_val@U?$_List_simple_types@U?$pair@$$CBV?$basic_string@DU?$char_traits@D@std@@V?$allocator@D@2@@std@@G@std@@@std@@@std@@U_Iterator_base12@2@@std@@QAE@$$QAV01@@Z 100a9b90 f i dll.obj
 0002:0001cc00       ??0?$_List_unchecked_const_iterator@V?$_List_val@U?$_List_simple_types@U?$pair@$$CBV?$basic_string@DU?$char_traits@D@std@@V?$allocator@D@2@@std@@G@std@@@std@@@std@@U_Iterator_base12@2@@std@@QAE@ABV01@@Z 100a9c00 f i dll.obj
 0002:0001cc70       ??0?$_List_unchecked_const_iterator@V?$_List_val@U?$_List_simple_types@U?$pair@$$CBV?$basic_string@DU?$char_traits@D@std@@V?$allocator@D@2@@std@@G@std@@@std@@@std@@U_Iterator_base12@2@@std@@QAE@PAU?$_List_node@U?$pair@$$CBV?$basic_string@DU?$char_traits@D@std@@V?$allocator@D@2@@std@@G@std@@PAX@1@PBV?$_List_val@U?$_List_simple_types@U?$pair@$$CBV?$basic_string@DU?$char_traits@D@std@@V?$allocator@D@2@@std@@G@std@@@std@@@1@@Z 100a9c70 f i dll.obj
 0002:0001cd30       ??0?$_List_unchecked_const_iterator@V?$_List_val@U?$_List_simple_types@U?$pair@$$CBV?$basic_string@DU?$char_traits@D@std@@V?$allocator@D@2@@std@@VDEVICE@@@std@@@std@@@std@@U_Iterator_base0@2@@std@@QAE@PAU?$_List_node@U?$pair@$$CBV?$basic_string@DU?$char_traits@D@std@@V?$allocator@D@2@@std@@VDEVICE@@@std@@PAX@1@PBV?$_List_val@U?$_List_simple_types@U?$pair@$$CBV?$basic_string@DU?$char_traits@D@std@@V?$allocator@D@2@@std@@VDEVICE@@@std@@@std@@@1@@Z 100a9d30 f i dll.obj
 0002:0001cda0       ??0?$_List_unchecked_const_iterator@V?$_List_val@U?$_List_simple_types@U?$pair@$$CBV?$basic_string@DU?$char_traits@D@std@@V?$allocator@D@2@@std@@VDEVICE@@@std@@@std@@@std@@U_Iterator_base0@2@@std@@QAE@XZ 100a9da0 f i dll.obj
 0002:0001cdf0       ??0?$_List_unchecked_const_iterator@V?$_List_val@U?$_List_simple_types@U?$pair@$$CBV?$basic_string@DU?$char_traits@D@std@@V?$allocator@D@2@@std@@VDEVICE@@@std@@@std@@@std@@U_Iterator_base12@2@@std@@QAE@$$QAV01@@Z 100a9df0 f i dll.obj
 0002:0001ce60       ??0?$_List_unchecked_const_iterator@V?$_List_val@U?$_List_simple_types@U?$pair@$$CBV?$basic_string@DU?$char_traits@D@std@@V?$allocator@D@2@@std@@VDEVICE@@@std@@@std@@@std@@U_Iterator_base12@2@@std@@QAE@ABV01@@Z 100a9e60 f i dll.obj
 0002:0001ced0       ??0?$_List_unchecked_const_iterator@V?$_List_val@U?$_List_simple_types@U?$pair@$$CBV?$basic_string@DU?$char_traits@D@std@@V?$allocator@D@2@@std@@VDEVICE@@@std@@@std@@@std@@U_Iterator_base12@2@@std@@QAE@PAU?$_List_node@U?$pair@$$CBV?$basic_string@DU?$char_traits@D@std@@V?$allocator@D@2@@std@@VDEVICE@@@std@@PAX@1@PBV?$_List_val@U?$_List_simple_types@U?$pair@$$CBV?$basic_string@DU?$char_traits@D@std@@V?$allocator@D@2@@std@@VDEVICE@@@std@@@std@@@1@@Z 100a9ed0 f i dll.obj
 0002:0001cf90       ??0?$_List_unchecked_const_iterator@V?$_List_val@U?$_List_simple_types@U?$pair@$$CBV?$basic_string@DU?$char_traits@D@std@@V?$allocator@D@2@@std@@VDEVICE@@@std@@@std@@@std@@U_Iterator_base12@2@@std@@QAE@XZ 100a9f90 f i dll.obj
 0002:0001cff0       ??0?$_List_unchecked_iterator@V?$_List_val@U?$_List_simple_types@U?$pair@$$CBV?$basic_string@DU?$char_traits@D@std@@V?$allocator@D@2@@std@@G@std@@@std@@@std@@@std@@QAE@PAU?$_List_node@U?$pair@$$CBV?$basic_string@DU?$char_traits@D@std@@V?$allocator@D@2@@std@@G@std@@PAX@1@PBV?$_List_val@U?$_List_simple_types@U?$pair@$$CBV?$basic_string@DU?$char_traits@D@std@@V?$allocator@D@2@@std@@G@std@@@std@@@1@@Z 100a9ff0 f i dll.obj
 0002:0001d050       ??0?$_List_unchecked_iterator@V?$_List_val@U?$_List_simple_types@U?$pair@$$CBV?$basic_string@DU?$char_traits@D@std@@V?$allocator@D@2@@std@@G@std@@@std@@@std@@@std@@QAE@XZ 100aa050 f i dll.obj
 0002:0001d0b0       ??0?$_List_unchecked_iterator@V?$_List_val@U?$_List_simple_types@U?$pair@$$CBV?$basic_string@DU?$char_traits@D@std@@V?$allocator@D@2@@std@@VDEVICE@@@std@@@std@@@std@@@std@@QAE@PAU?$_List_node@U?$pair@$$CBV?$basic_string@DU?$char_traits@D@std@@V?$allocator@D@2@@std@@VDEVICE@@@std@@PAX@1@PBV?$_List_val@U?$_List_simple_types@U?$pair@$$CBV?$basic_string@DU?$char_traits@D@std@@V?$allocator@D@2@@std@@VDEVICE@@@std@@@std@@@1@@Z 100aa0b0 f i dll.obj
 0002:0001d110       ??0?$_List_unchecked_iterator@V?$_List_val@U?$_List_simple_types@U?$pair@$$CBV?$basic_string@DU?$char_traits@D@std@@V?$allocator@D@2@@std@@VDEVICE@@@std@@@std@@@std@@@std@@QAE@XZ 100aa110 f i dll.obj
 0002:0001d170       ??0?$_String_alloc@U?$_String_base_types@DV?$allocator@D@std@@@std@@@std@@QAE@XZ 100aa170 f i dll.obj
 0002:0001d220       ??0?$_String_val@U?$_Simple_types@D@std@@@std@@QAE@XZ 100aa220 f i dll.obj
 0002:0001d2e0       ??0?$_Vector_const_iterator@V?$_Vector_val@U?$_Simple_types@V?$_List_unchecked_iterator@V?$_List_val@U?$_List_simple_types@U?$pair@$$CBV?$basic_string@DU?$char_traits@D@std@@V?$allocator@D@2@@std@@G@std@@@std@@@std@@@std@@@std@@@std@@@std@@QAE@$$QAV01@@Z 100aa2e0 f i dll.obj
 0002:0001d350       ??0?$_Vector_const_iterator@V?$_Vector_val@U?$_Simple_types@V?$_List_unchecked_iterator@V?$_List_val@U?$_List_simple_types@U?$pair@$$CBV?$basic_string@DU?$char_traits@D@std@@V?$allocator@D@2@@std@@G@std@@@std@@@std@@@std@@@std@@@std@@@std@@QAE@ABV01@@Z 100aa350 f i dll.obj
 0002:0001d3c0       ??0?$_Vector_const_iterator@V?$_Vector_val@U?$_Simple_types@V?$_List_unchecked_iterator@V?$_List_val@U?$_List_simple_types@U?$pair@$$CBV?$basic_string@DU?$char_traits@D@std@@V?$allocator@D@2@@std@@G@std@@@std@@@std@@@std@@@std@@@std@@@std@@QAE@PAV?$_List_unchecked_iterator@V?$_List_val@U?$_List_simple_types@U?$pair@$$CBV?$basic_string@DU?$char_traits@D@std@@V?$allocator@D@2@@std@@G@std@@@std@@@std@@@1@PBU_Container_base12@1@@Z 100aa3c0 f i dll.obj
 0002:0001d480       ??0?$_Vector_const_iterator@V?$_Vector_val@U?$_Simple_types@V?$_List_unchecked_iterator@V?$_List_val@U?$_List_simple_types@U?$pair@$$CBV?$basic_string@DU?$char_traits@D@std@@V?$allocator@D@2@@std@@VDEVICE@@@std@@@std@@@std@@@std@@@std@@@std@@@std@@QAE@$$QAV01@@Z 100aa480 f i dll.obj
 0002:0001d4f0       ??0?$_Vector_const_iterator@V?$_Vector_val@U?$_Simple_types@V?$_List_unchecked_iterator@V?$_List_val@U?$_List_simple_types@U?$pair@$$CBV?$basic_string@DU?$char_traits@D@std@@V?$allocator@D@2@@std@@VDEVICE@@@std@@@std@@@std@@@std@@@std@@@std@@@std@@QAE@ABV01@@Z 100aa4f0 f i dll.obj
 0002:0001d560       ??0?$_Vector_const_iterator@V?$_Vector_val@U?$_Simple_types@V?$_List_unchecked_iterator@V?$_List_val@U?$_List_simple_types@U?$pair@$$CBV?$basic_string@DU?$char_traits@D@std@@V?$allocator@D@2@@std@@VDEVICE@@@std@@@std@@@std@@@std@@@std@@@std@@@std@@QAE@PAV?$_List_unchecked_iterator@V?$_List_val@U?$_List_simple_types@U?$pair@$$CBV?$basic_string@DU?$char_traits@D@std@@V?$allocator@D@2@@std@@VDEVICE@@@std@@@std@@@std@@@1@PBU_Container_base12@1@@Z 100aa560 f i dll.obj
 0002:0001d620       ??0?$_Vector_iterator@V?$_Vector_val@U?$_Simple_types@V?$_List_unchecked_iterator@V?$_List_val@U?$_List_simple_types@U?$pair@$$CBV?$basic_string@DU?$char_traits@D@std@@V?$allocator@D@2@@std@@G@std@@@std@@@std@@@std@@@std@@@std@@@std@@QAE@ABV01@@Z 100aa620 f i dll.obj
 0002:0001d680       ??0?$_Vector_iterator@V?$_Vector_val@U?$_Simple_types@V?$_List_unchecked_iterator@V?$_List_val@U?$_List_simple_types@U?$pair@$$CBV?$basic_string@DU?$char_traits@D@std@@V?$allocator@D@2@@std@@G@std@@@std@@@std@@@std@@@std@@@std@@@std@@QAE@PAV?$_List_unchecked_iterator@V?$_List_val@U?$_List_simple_types@U?$pair@$$CBV?$basic_string@DU?$char_traits@D@std@@V?$allocator@D@2@@std@@G@std@@@std@@@std@@@1@PBU_Container_base12@1@@Z 100aa680 f i dll.obj
 0002:0001d6e0       ??0?$_Vector_iterator@V?$_Vector_val@U?$_Simple_types@V?$_List_unchecked_iterator@V?$_List_val@U?$_List_simple_types@U?$pair@$$CBV?$basic_string@DU?$char_traits@D@std@@V?$allocator@D@2@@std@@VDEVICE@@@std@@@std@@@std@@@std@@@std@@@std@@@std@@QAE@ABV01@@Z 100aa6e0 f i dll.obj
 0002:0001d740       ??0?$_Vector_iterator@V?$_Vector_val@U?$_Simple_types@V?$_List_unchecked_iterator@V?$_List_val@U?$_List_simple_types@U?$pair@$$CBV?$basic_string@DU?$char_traits@D@std@@V?$allocator@D@2@@std@@VDEVICE@@@std@@@std@@@std@@@std@@@std@@@std@@@std@@QAE@PAV?$_List_unchecked_iterator@V?$_List_val@U?$_List_simple_types@U?$pair@$$CBV?$basic_string@DU?$char_traits@D@std@@V?$allocator@D@2@@std@@VDEVICE@@@std@@@std@@@std@@@1@PBU_Container_base12@1@@Z 100aa740 f i dll.obj
 0002:0001d7a0       ??0?$_Wrap_alloc@V?$allocator@D@std@@@std@@QAE@$$QAU01@@Z 100aa7a0 f i dll.obj
 0002:0001d810       ??0?$_Wrap_alloc@V?$allocator@D@std@@@std@@QAE@XZ 100aa810 f i dll.obj
 0002:0001d870       ??0?$_Wrap_alloc@V?$allocator@UFORMULA2_PAIR@@@std@@@std@@QAE@$$QAU01@@Z 100aa870 f i dll.obj
 0002:0001d8e0       ??0?$_Wrap_alloc@V?$allocator@UFORMULA_PAIR@@@std@@@std@@QAE@$$QAU01@@Z 100aa8e0 f i dll.obj
 0002:0001d950       ??0?$allocator@D@std@@QAE@ABV01@@Z 100aa950 f i dll.obj
 0002:0001d990       ??0?$allocator@D@std@@QAE@XZ 100aa990 f i dll.obj
 0002:0001d9d0       ??0?$allocator@UFORMULA2_PAIR@@@std@@QAE@ABV01@@Z 100aa9d0 f i dll.obj
 0002:0001da10       ??0?$allocator@UFORMULA_PAIR@@@std@@QAE@ABV01@@Z 100aaa10 f i dll.obj
 0002:0001da50       ??0?$basic_string@DU?$char_traits@D@std@@V?$allocator@D@2@@std@@QAE@$$QAV01@@Z 100aaa50 f i dll.obj
 0002:0001db20       ??0?$basic_string@DU?$char_traits@D@std@@V?$allocator@D@2@@std@@QAE@PBD@Z 100aab20 f i dll.obj
 0002:0001dbe0       ??0?$basic_string@DU?$char_traits@D@std@@V?$allocator@D@2@@std@@QAE@XZ 100aabe0 f i dll.obj
 0002:0001dc80       ??0?$deque@UFORMULA2_PAIR@@V?$allocator@UFORMULA2_PAIR@@@std@@@std@@QAE@ABV01@@Z 100aac80 f i dll.obj
 0002:0001dd90       ??0?$deque@UFORMULA_PAIR@@V?$allocator@UFORMULA_PAIR@@@std@@@std@@QAE@ABV01@@Z 100aad90 f i dll.obj
 0002:0001dea0       ??0?$tuple@$$QAV?$basic_string@DU?$char_traits@D@std@@V?$allocator@D@2@@std@@@std@@QAE@$$QAV01@@Z 100aaea0 f i dll.obj
 0002:0001df10       ??0?$tuple@$$V@std@@QAE@ABV01@@Z 100aaf10 f i dll.obj
 0002:0001df50       ??0?$tuple@$$V@std@@QAE@XZ 100aaf50 f i dll.obj
 0002:0001df90       ??0DEVICE@@QAE@XZ          100aaf90 f i dll.obj
 0002:0001e150       ??0Formula@@QAE@ABV0@@Z    100ab150 f i dll.obj
 0002:0001e2e0       ??0Monarch@@QAE@ABV0@@Z    100ab2e0 f i dll.obj
 0002:0001e500       ??0PERSON_DATA@@QAE@XZ     100ab500 f i dll.obj
 0002:0001e5e0       ??0Physics@@QAE@ABV0@@Z    100ab5e0 f i dll.obj
 0002:0001f6d0       ??0RIDER_DATA@@QAE@ABV0@@Z 100ac6d0 f i dll.obj
 0002:0001f860       ??0RIDER_DATA@@QAE@XZ      100ac860 f i dll.obj
 0002:0001fa00       ??0_Bxty@?$_String_val@U?$_Simple_types@D@std@@@std@@QAE@XZ 100aca00 f i dll.obj
 0002:0001fa40       ??0_Container_base12@std@@QAE@XZ 100aca40 f i dll.obj
 0002:0001fa90       ??0_Container_proxy@std@@QAE@XZ 100aca90 f i dll.obj
 0002:0001fae0       ??0_Iterator_base12@std@@QAE@ABU01@@Z 100acae0 f i dll.obj
 0002:0001fb60       ??0_Iterator_base12@std@@QAE@XZ 100acb60 f i dll.obj
 0002:0001fbb0       ??0fatalError@@QAE@ABV0@@Z 100acbb0 f i dll.obj
 0002:0001fc30       ??0qtFormula@@QAE@ABV0@@Z  100acc30 f i dll.obj
 0002:0001fe00       ??1?$_Compressed_pair@U?$_Wrap_alloc@V?$allocator@D@std@@@std@@V?$_String_val@U?$_Simple_types@D@std@@@2@$00@std@@QAE@XZ 100ace00 f i dll.obj
 0002:0001fe50       ??1?$_Compressed_pair@U?$_Wrap_alloc@V?$allocator@UFORMULA2_PAIR@@@std@@@std@@V?$_Deque_val@U?$_Deque_simple_types@UFORMULA2_PAIR@@@std@@@2@$00@std@@QAE@XZ 100ace50 f i dll.obj
 0002:0001fea0       ??1?$_Compressed_pair@U?$_Wrap_alloc@V?$allocator@UFORMULA_PAIR@@@std@@@std@@V?$_Deque_val@U?$_Deque_simple_types@UFORMULA_PAIR@@@std@@@2@$00@std@@QAE@XZ 100acea0 f i dll.obj
 0002:0001fef0       ??1?$_Deque_alloc@U?$_Deque_base_types@UFORMULA2_PAIR@@V?$allocator@UFORMULA2_PAIR@@@std@@@std@@@std@@QAE@XZ 100acef0 f i dll.obj
 0002:0001ff80       ??1?$_Deque_alloc@U?$_Deque_base_types@UFORMULA_PAIR@@V?$allocator@UFORMULA_PAIR@@@std@@@std@@@std@@QAE@XZ 100acf80 f i dll.obj
 0002:00020010       ??1?$_Deque_const_iterator@V?$_Deque_val@U?$_Deque_simple_types@UFORMULA2_PAIR@@@std@@@std@@@std@@QAE@XZ 100ad010 f i dll.obj
 0002:00020060       ??1?$_Deque_const_iterator@V?$_Deque_val@U?$_Deque_simple_types@UFORMULA_PAIR@@@std@@@std@@@std@@QAE@XZ 100ad060 f i dll.obj
 0002:000200b0       ??1?$_Deque_iterator@V?$_Deque_val@U?$_Deque_simple_types@UFORMULA2_PAIR@@@std@@@std@@@std@@QAE@XZ 100ad0b0 f i dll.obj
 0002:00020100       ??1?$_Deque_iterator@V?$_Deque_val@U?$_Deque_simple_types@UFORMULA_PAIR@@@std@@@std@@@std@@QAE@XZ 100ad100 f i dll.obj
 0002:00020150       ??1?$_Deque_val@U?$_Deque_simple_types@UFORMULA2_PAIR@@@std@@@std@@QAE@XZ 100ad150 f i dll.obj
 0002:000201a0       ??1?$_Deque_val@U?$_Deque_simple_types@UFORMULA_PAIR@@@std@@@std@@QAE@XZ 100ad1a0 f i dll.obj
 0002:000201f0       ??1?$_Iterator012@Ubidirectional_iterator_tag@std@@U?$pair@$$CBV?$basic_string@DU?$char_traits@D@std@@V?$allocator@D@2@@std@@G@2@HPBU32@ABU32@U_Iterator_base12@2@@std@@QAE@XZ 100ad1f0 f i dll.obj
 0002:00020240       ??1?$_Iterator012@Ubidirectional_iterator_tag@std@@U?$pair@$$CBV?$basic_string@DU?$char_traits@D@std@@V?$allocator@D@2@@std@@VDEVICE@@@2@HPBU32@ABU32@U_Iterator_base12@2@@std@@QAE@XZ 100ad240 f i dll.obj
 0002:00020290       ??1?$_Iterator012@Urandom_access_iterator_tag@std@@V?$_List_unchecked_iterator@V?$_List_val@U?$_List_simple_types@U?$pair@$$CBV?$basic_string@DU?$char_traits@D@std@@V?$allocator@D@2@@std@@G@std@@@std@@@std@@@2@HPBV32@ABV32@U_Iterator_base12@2@@std@@QAE@XZ 100ad290 f i dll.obj
 0002:000202e0       ??1?$_Iterator012@Urandom_access_iterator_tag@std@@V?$_List_unchecked_iterator@V?$_List_val@U?$_List_simple_types@U?$pair@$$CBV?$basic_string@DU?$char_traits@D@std@@V?$allocator@D@2@@std@@VDEVICE@@@std@@@std@@@std@@@2@HPBV32@ABV32@U_Iterator_base12@2@@std@@QAE@XZ 100ad2e0 f i dll.obj
 0002:00020330       ??1?$_List_const_iterator@V?$_List_val@U?$_List_simple_types@U?$pair@$$CBV?$basic_string@DU?$char_traits@D@std@@V?$allocator@D@2@@std@@G@std@@@std@@@std@@@std@@QAE@XZ 100ad330 f i dll.obj
 0002:00020380       ??1?$_List_const_iterator@V?$_List_val@U?$_List_simple_types@U?$pair@$$CBV?$basic_string@DU?$char_traits@D@std@@V?$allocator@D@2@@std@@VDEVICE@@@std@@@std@@@std@@@std@@QAE@XZ 100ad380 f i dll.obj
 0002:000203d0       ??1?$_List_iterator@V?$_List_val@U?$_List_simple_types@U?$pair@$$CBV?$basic_string@DU?$char_traits@D@std@@V?$allocator@D@2@@std@@G@std@@@std@@@std@@@std@@QAE@XZ 100ad3d0 f i dll.obj
 0002:00020420       ??1?$_List_iterator@V?$_List_val@U?$_List_simple_types@U?$pair@$$CBV?$basic_string@DU?$char_traits@D@std@@V?$allocator@D@2@@std@@VDEVICE@@@std@@@std@@@std@@@std@@QAE@XZ 100ad420 f i dll.obj
 0002:00020470       ??1?$_List_unchecked_const_iterator@V?$_List_val@U?$_List_simple_types@U?$pair@$$CBV?$basic_string@DU?$char_traits@D@std@@V?$allocator@D@2@@std@@G@std@@@std@@@std@@U_Iterator_base12@2@@std@@QAE@XZ 100ad470 f i dll.obj
 0002:000204c0       ??1?$_List_unchecked_const_iterator@V?$_List_val@U?$_List_simple_types@U?$pair@$$CBV?$basic_string@DU?$char_traits@D@std@@V?$allocator@D@2@@std@@VDEVICE@@@std@@@std@@@std@@U_Iterator_base12@2@@std@@QAE@XZ 100ad4c0 f i dll.obj
 0002:00020510       ??1?$_String_alloc@U?$_String_base_types@DV?$allocator@D@std@@@std@@@std@@QAE@XZ 100ad510 f i dll.obj
 0002:000205a0       ??1?$_String_val@U?$_Simple_types@D@std@@@std@@QAE@XZ 100ad5a0 f i dll.obj
 0002:00020600       ??1?$_Vector_const_iterator@V?$_Vector_val@U?$_Simple_types@V?$_List_unchecked_iterator@V?$_List_val@U?$_List_simple_types@U?$pair@$$CBV?$basic_string@DU?$char_traits@D@std@@V?$allocator@D@2@@std@@G@std@@@std@@@std@@@std@@@std@@@std@@@std@@QAE@XZ 100ad600 f i dll.obj
 0002:00020650       ??1?$_Vector_const_iterator@V?$_Vector_val@U?$_Simple_types@V?$_List_unchecked_iterator@V?$_List_val@U?$_List_simple_types@U?$pair@$$CBV?$basic_string@DU?$char_traits@D@std@@V?$allocator@D@2@@std@@VDEVICE@@@std@@@std@@@std@@@std@@@std@@@std@@@std@@QAE@XZ 100ad650 f i dll.obj
 0002:000206a0       ??1?$_Vector_iterator@V?$_Vector_val@U?$_Simple_types@V?$_List_unchecked_iterator@V?$_List_val@U?$_List_simple_types@U?$pair@$$CBV?$basic_string@DU?$char_traits@D@std@@V?$allocator@D@2@@std@@G@std@@@std@@@std@@@std@@@std@@@std@@@std@@QAE@XZ 100ad6a0 f i dll.obj
 0002:000206f0       ??1?$_Vector_iterator@V?$_Vector_val@U?$_Simple_types@V?$_List_unchecked_iterator@V?$_List_val@U?$_List_simple_types@U?$pair@$$CBV?$basic_string@DU?$char_traits@D@std@@V?$allocator@D@2@@std@@VDEVICE@@@std@@@std@@@std@@@std@@@std@@@std@@@std@@QAE@XZ 100ad6f0 f i dll.obj
 0002:00020740       ??1?$basic_string@DU?$char_traits@D@std@@V?$allocator@D@2@@std@@QAE@XZ 100ad740 f i dll.obj
 0002:000207e0       ??1?$pair@$$CBV?$basic_string@DU?$char_traits@D@std@@V?$allocator@D@2@@std@@G@std@@QAE@XZ 100ad7e0 f i dll.obj
 0002:00020830       ??1?$pair@$$CBV?$basic_string@DU?$char_traits@D@std@@V?$allocator@D@2@@std@@VDEVICE@@@std@@QAE@XZ 100ad830 f i dll.obj
 0002:00020890       ??1?$pair@V?$_List_iterator@V?$_List_val@U?$_List_simple_types@U?$pair@$$CBV?$basic_string@DU?$char_traits@D@std@@V?$allocator@D@2@@std@@G@std@@@std@@@std@@@std@@V12@@std@@QAE@XZ 100ad890 f i dll.obj
 0002:000208f0       ??1?$pair@V?$_List_iterator@V?$_List_val@U?$_List_simple_types@U?$pair@$$CBV?$basic_string@DU?$char_traits@D@std@@V?$allocator@D@2@@std@@G@std@@@std@@@std@@@std@@_N@std@@QAE@XZ 100ad8f0 f i dll.obj
 0002:00020940       ??1?$pair@V?$_List_iterator@V?$_List_val@U?$_List_simple_types@U?$pair@$$CBV?$basic_string@DU?$char_traits@D@std@@V?$allocator@D@2@@std@@VDEVICE@@@std@@@std@@@std@@@std@@_N@std@@QAE@XZ 100ad940 f i dll.obj
 0002:00020990       ??1DEVICE@@QAE@XZ          100ad990 f i dll.obj
 0002:000209f0       ??1PERSON_DATA@@QAE@XZ     100ad9f0 f i dll.obj
 0002:00020ad0       ??1RIDER_DATA@@QAE@XZ      100adad0 f i dll.obj
 0002:00020b30       ??1_Bxty@?$_String_val@U?$_Simple_types@D@std@@@std@@QAE@XZ 100adb30 f i dll.obj
 0002:00020b70       ??1_Container_base12@std@@QAE@XZ 100adb70 f i dll.obj
 0002:00020c00       ??1_Iterator_base12@std@@QAE@XZ 100adc00 f i dll.obj
 0002:00020cf0       ??2@YAPAXIPAX@Z            100adcf0 f i dll.obj
 0002:00020d30       ??3@YAXPAX0@Z              100add30 f i dll.obj
 0002:00020d60       ??4?$_Iterator012@Ubidirectional_iterator_tag@std@@U?$pair@$$CBV?$basic_string@DU?$char_traits@D@std@@V?$allocator@D@2@@std@@G@2@HPBU32@ABU32@U_Iterator_base12@2@@std@@QAEAAU01@$$QAU01@@Z 100add60 f i dll.obj
 0002:00020dc0       ??4?$_Iterator012@Ubidirectional_iterator_tag@std@@U?$pair@$$CBV?$basic_string@DU?$char_traits@D@std@@V?$allocator@D@2@@std@@VDEVICE@@@2@HPBU32@ABU32@U_Iterator_base12@2@@std@@QAEAAU01@$$QAU01@@Z 100addc0 f i dll.obj
 0002:00020e20       ??4?$_List_const_iterator@V?$_List_val@U?$_List_simple_types@U?$pair@$$CBV?$basic_string@DU?$char_traits@D@std@@V?$allocator@D@2@@std@@G@std@@@std@@@std@@@std@@QAEAAV01@$$QAV01@@Z 100ade20 f i dll.obj
 0002:00020e80       ??4?$_List_const_iterator@V?$_List_val@U?$_List_simple_types@U?$pair@$$CBV?$basic_string@DU?$char_traits@D@std@@V?$allocator@D@2@@std@@VDEVICE@@@std@@@std@@@std@@@std@@QAEAAV01@$$QAV01@@Z 100ade80 f i dll.obj
 0002:00020ee0       ??4?$_List_unchecked_const_iterator@V?$_List_val@U?$_List_simple_types@U?$pair@$$CBV?$basic_string@DU?$char_traits@D@std@@V?$allocator@D@2@@std@@G@std@@@std@@@std@@U_Iterator_base12@2@@std@@QAEAAV01@$$QAV01@@Z 100adee0 f i dll.obj
 0002:00020f50       ??4?$_List_unchecked_const_iterator@V?$_List_val@U?$_List_simple_types@U?$pair@$$CBV?$basic_string@DU?$char_traits@D@std@@V?$allocator@D@2@@std@@VDEVICE@@@std@@@std@@@std@@U_Iterator_base12@2@@std@@QAEAAV01@$$QAV01@@Z 100adf50 f i dll.obj
 0002:00020fc0       ??4?$basic_string@DU?$char_traits@D@std@@V?$allocator@D@2@@std@@QAEAAV01@ABV01@@Z 100adfc0 f i dll.obj
 0002:00021080       ??4?$deque@UFORMULA2_PAIR@@V?$allocator@UFORMULA2_PAIR@@@std@@@std@@QAEAAV01@ABV01@@Z 100ae080 f i dll.obj
 0002:00021570       ??4?$deque@UFORMULA_PAIR@@V?$allocator@UFORMULA_PAIR@@@std@@@std@@QAEAAV01@ABV01@@Z 100ae570 f i dll.obj
 0002:00021a60       ??4Formula@@QAEAAV0@ABV0@@Z 100aea60 f i dll.obj
 0002:00021c10       ??4Monarch@@QAEAAV0@ABV0@@Z 100aec10 f i dll.obj
 0002:00021e20       ??4PERSON_DATA@@QAEAAU0@ABU0@@Z 100aee20 f i dll.obj
 0002:00022010       ??4Physics@@QAEAAV0@ABV0@@Z 100af010 f i dll.obj
 0002:00023120       ??4_Iterator_base12@std@@QAEAAU01@ABU01@@Z 100b0120 f i dll.obj
 0002:00023260       ??4qtFormula@@QAEAAV0@ABV0@@Z 100b0260 f i dll.obj
 0002:00023450       ??8?$_Deque_const_iterator@V?$_Deque_val@U?$_Deque_simple_types@UFORMULA2_PAIR@@@std@@@std@@@std@@QBE_NABV01@@Z 100b0450 f i dll.obj
 0002:000234e0       ??8?$_Deque_const_iterator@V?$_Deque_val@U?$_Deque_simple_types@UFORMULA_PAIR@@@std@@@std@@@std@@QBE_NABV01@@Z 100b04e0 f i dll.obj
 0002:00023570       ??8?$_Deque_unchecked_const_iterator@V?$_Deque_val@U?$_Deque_simple_types@UFORMULA2_PAIR@@@std@@@std@@@std@@QBE_NABV01@@Z 100b0570 f i dll.obj
 0002:000235e0       ??8?$_Deque_unchecked_const_iterator@V?$_Deque_val@U?$_Deque_simple_types@UFORMULA_PAIR@@@std@@@std@@@std@@QBE_NABV01@@Z 100b05e0 f i dll.obj
 0002:00023650       ??8?$_List_const_iterator@V?$_List_val@U?$_List_simple_types@U?$pair@$$CBV?$basic_string@DU?$char_traits@D@std@@V?$allocator@D@2@@std@@G@std@@@std@@@std@@@std@@QBE_NABV01@@Z 100b0650 f i dll.obj
 0002:000237a0       ??8?$_List_const_iterator@V?$_List_val@U?$_List_simple_types@U?$pair@$$CBV?$basic_string@DU?$char_traits@D@std@@V?$allocator@D@2@@std@@VDEVICE@@@std@@@std@@@std@@@std@@QBE_NABV01@@Z 100b07a0 f i dll.obj
 0002:000238f0       ??8?$_List_unchecked_const_iterator@V?$_List_val@U?$_List_simple_types@U?$pair@$$CBV?$basic_string@DU?$char_traits@D@std@@V?$allocator@D@2@@std@@G@std@@@std@@@std@@U_Iterator_base0@2@@std@@QBE_NABV01@@Z 100b08f0 f i dll.obj
 0002:00023960       ??8?$_List_unchecked_const_iterator@V?$_List_val@U?$_List_simple_types@U?$pair@$$CBV?$basic_string@DU?$char_traits@D@std@@V?$allocator@D@2@@std@@VDEVICE@@@std@@@std@@@std@@U_Iterator_base0@2@@std@@QBE_NABV01@@Z 100b0960 f i dll.obj
 0002:000239d0       ??9?$_Deque_const_iterator@V?$_Deque_val@U?$_Deque_simple_types@UFORMULA2_PAIR@@@std@@@std@@@std@@QBE_NABV01@@Z 100b09d0 f i dll.obj
 0002:00023a60       ??9?$_Deque_const_iterator@V?$_Deque_val@U?$_Deque_simple_types@UFORMULA_PAIR@@@std@@@std@@@std@@QBE_NABV01@@Z 100b0a60 f i dll.obj
 0002:00023af0       ??9?$_Deque_unchecked_const_iterator@V?$_Deque_val@U?$_Deque_simple_types@UFORMULA2_PAIR@@@std@@@std@@@std@@QBE_NABV01@@Z 100b0af0 f i dll.obj
 0002:00023b80       ??9?$_Deque_unchecked_const_iterator@V?$_Deque_val@U?$_Deque_simple_types@UFORMULA_PAIR@@@std@@@std@@@std@@QBE_NABV01@@Z 100b0b80 f i dll.obj
 0002:00023c10       ??9?$_List_const_iterator@V?$_List_val@U?$_List_simple_types@U?$pair@$$CBV?$basic_string@DU?$char_traits@D@std@@V?$allocator@D@2@@std@@G@std@@@std@@@std@@@std@@QBE_NABV01@@Z 100b0c10 f i dll.obj
 0002:00023ca0       ??9?$_List_unchecked_const_iterator@V?$_List_val@U?$_List_simple_types@U?$pair@$$CBV?$basic_string@DU?$char_traits@D@std@@V?$allocator@D@2@@std@@G@std@@@std@@@std@@U_Iterator_base0@2@@std@@QBE_NABV01@@Z 100b0ca0 f i dll.obj
 0002:00023d30       ??9?$_List_unchecked_const_iterator@V?$_List_val@U?$_List_simple_types@U?$pair@$$CBV?$basic_string@DU?$char_traits@D@std@@V?$allocator@D@2@@std@@VDEVICE@@@std@@@std@@@std@@U_Iterator_base0@2@@std@@QBE_NABV01@@Z 100b0d30 f i dll.obj
 0002:00023dc0       ??A?$unordered_map@V?$basic_string@DU?$char_traits@D@std@@V?$allocator@D@2@@std@@GU?$hash@V?$basic_string@DU?$char_traits@D@std@@V?$allocator@D@2@@std@@@2@U?$equal_to@V?$basic_string@DU?$char_traits@D@std@@V?$allocator@D@2@@std@@@2@V?$allocator@U?$pair@$$CBV?$basic_string@DU?$char_traits@D@std@@V?$allocator@D@2@@std@@G@std@@@2@@std@@QAEAAG$$QAV?$basic_string@DU?$char_traits@D@std@@V?$allocator@D@2@@1@@Z 100b0dc0 f i dll.obj
 0002:00023ec0       ??A?$unordered_map@V?$basic_string@DU?$char_traits@D@std@@V?$allocator@D@2@@std@@VDEVICE@@U?$hash@V?$basic_string@DU?$char_traits@D@std@@V?$allocator@D@2@@std@@@2@U?$equal_to@V?$basic_string@DU?$char_traits@D@std@@V?$allocator@D@2@@std@@@2@V?$allocator@U?$pair@$$CBV?$basic_string@DU?$char_traits@D@std@@V?$allocator@D@2@@std@@VDEVICE@@@std@@@2@@std@@QAEAAVDEVICE@@$$QAV?$basic_string@DU?$char_traits@D@std@@V?$allocator@D@2@@1@@Z 100b0ec0 f i dll.obj
 0002:00023fc0       ??A?$vector@V?$_List_unchecked_iterator@V?$_List_val@U?$_List_simple_types@U?$pair@$$CBV?$basic_string@DU?$char_traits@D@std@@V?$allocator@D@2@@std@@G@std@@@std@@@std@@@std@@U?$_Wrap_alloc@V?$allocator@V?$_List_unchecked_iterator@V?$_List_val@U?$_List_simple_types@U?$pair@$$CBV?$basic_string@DU?$char_traits@D@std@@V?$allocator@D@2@@std@@G@std@@@std@@@std@@@std@@@std@@@2@@std@@QAEAAV?$_List_unchecked_iterator@V?$_List_val@U?$_List_simple_types@U?$pair@$$CBV?$basic_string@DU?$char_traits@D@std@@V?$allocator@D@2@@std@@G@std@@@std@@@std@@@1@I@Z 100b0fc0 f i dll.obj
 0002:000240e0       ??A?$vector@V?$_List_unchecked_iterator@V?$_List_val@U?$_List_simple_types@U?$pair@$$CBV?$basic_string@DU?$char_traits@D@std@@V?$allocator@D@2@@std@@VDEVICE@@@std@@@std@@@std@@@std@@U?$_Wrap_alloc@V?$allocator@V?$_List_unchecked_iterator@V?$_List_val@U?$_List_simple_types@U?$pair@$$CBV?$basic_string@DU?$char_traits@D@std@@V?$allocator@D@2@@std@@VDEVICE@@@std@@@std@@@std@@@std@@@std@@@2@@std@@QAEAAV?$_List_unchecked_iterator@V?$_List_val@U?$_List_simple_types@U?$pair@$$CBV?$basic_string@DU?$char_traits@D@std@@V?$allocator@D@2@@std@@VDEVICE@@@std@@@std@@@std@@@1@I@Z 100b10e0 f i dll.obj
 0002:00024200       ??A?$vector@V?$basic_string@DU?$char_traits@D@std@@V?$allocator@D@2@@std@@V?$allocator@V?$basic_string@DU?$char_traits@D@std@@V?$allocator@D@2@@std@@@2@@std@@QAEAAV?$basic_string@DU?$char_traits@D@std@@V?$allocator@D@2@@1@I@Z 100b1200 f i dll.obj
 0002:00024320       ??C?$_List_iterator@V?$_List_val@U?$_List_simple_types@U?$pair@$$CBV?$basic_string@DU?$char_traits@D@std@@V?$allocator@D@2@@std@@G@std@@@std@@@std@@@std@@QBEPAU?$pair@$$CBV?$basic_string@DU?$char_traits@D@std@@V?$allocator@D@2@@std@@G@1@XZ 100b1320 f i dll.obj
 0002:00024380       ??C?$_List_iterator@V?$_List_val@U?$_List_simple_types@U?$pair@$$CBV?$basic_string@DU?$char_traits@D@std@@V?$allocator@D@2@@std@@VDEVICE@@@std@@@std@@@std@@@std@@QBEPAU?$pair@$$CBV?$basic_string@DU?$char_traits@D@std@@V?$allocator@D@2@@std@@VDEVICE@@@1@XZ 100b1380 f i dll.obj
 0002:000243e0       ??D?$_Deque_const_iterator@V?$_Deque_val@U?$_Deque_simple_types@UFORMULA2_PAIR@@@std@@@std@@@std@@QBEABUFORMULA2_PAIR@@XZ 100b13e0 f i dll.obj
 0002:00024560       ??D?$_Deque_const_iterator@V?$_Deque_val@U?$_Deque_simple_types@UFORMULA_PAIR@@@std@@@std@@@std@@QBEABUFORMULA_PAIR@@XZ 100b1560 f i dll.obj
 0002:000246e0       ??D?$_Deque_unchecked_const_iterator@V?$_Deque_val@U?$_Deque_simple_types@UFORMULA2_PAIR@@@std@@@std@@@std@@QBEABUFORMULA2_PAIR@@XZ 100b16e0 f i dll.obj
 0002:00024770       ??D?$_Deque_unchecked_const_iterator@V?$_Deque_val@U?$_Deque_simple_types@UFORMULA_PAIR@@@std@@@std@@@std@@QBEABUFORMULA_PAIR@@XZ 100b1770 f i dll.obj
 0002:00024800       ??D?$_Deque_unchecked_iterator@V?$_Deque_val@U?$_Deque_simple_types@UFORMULA2_PAIR@@@std@@@std@@@std@@QBEAAUFORMULA2_PAIR@@XZ 100b1800 f i dll.obj
 0002:00024850       ??D?$_Deque_unchecked_iterator@V?$_Deque_val@U?$_Deque_simple_types@UFORMULA_PAIR@@@std@@@std@@@std@@QBEAAUFORMULA_PAIR@@XZ 100b1850 f i dll.obj
 0002:000248a0       ??D?$_List_const_iterator@V?$_List_val@U?$_List_simple_types@U?$pair@$$CBV?$basic_string@DU?$char_traits@D@std@@V?$allocator@D@2@@std@@G@std@@@std@@@std@@@std@@QBEABU?$pair@$$CBV?$basic_string@DU?$char_traits@D@std@@V?$allocator@D@2@@std@@G@1@XZ 100b18a0 f i dll.obj
 0002:000249e0       ??D?$_List_const_iterator@V?$_List_val@U?$_List_simple_types@U?$pair@$$CBV?$basic_string@DU?$char_traits@D@std@@V?$allocator@D@2@@std@@VDEVICE@@@std@@@std@@@std@@@std@@QBEABU?$pair@$$CBV?$basic_string@DU?$char_traits@D@std@@V?$allocator@D@2@@std@@VDEVICE@@@1@XZ 100b19e0 f i dll.obj
 0002:00024b20       ??D?$_List_iterator@V?$_List_val@U?$_List_simple_types@U?$pair@$$CBV?$basic_string@DU?$char_traits@D@std@@V?$allocator@D@2@@std@@G@std@@@std@@@std@@@std@@QBEAAU?$pair@$$CBV?$basic_string@DU?$char_traits@D@std@@V?$allocator@D@2@@std@@G@1@XZ 100b1b20 f i dll.obj
 0002:00024b70       ??D?$_List_iterator@V?$_List_val@U?$_List_simple_types@U?$pair@$$CBV?$basic_string@DU?$char_traits@D@std@@V?$allocator@D@2@@std@@VDEVICE@@@std@@@std@@@std@@@std@@QBEAAU?$pair@$$CBV?$basic_string@DU?$char_traits@D@std@@V?$allocator@D@2@@std@@VDEVICE@@@1@XZ 100b1b70 f i dll.obj
 0002:00024bc0       ??D?$_List_unchecked_const_iterator@V?$_List_val@U?$_List_simple_types@U?$pair@$$CBV?$basic_string@DU?$char_traits@D@std@@V?$allocator@D@2@@std@@G@std@@@std@@@std@@U_Iterator_base0@2@@std@@QBEABU?$pair@$$CBV?$basic_string@DU?$char_traits@D@std@@V?$allocator@D@2@@std@@G@1@XZ 100b1bc0 f i dll.obj
 0002:00024c20       ??D?$_List_unchecked_const_iterator@V?$_List_val@U?$_List_simple_types@U?$pair@$$CBV?$basic_string@DU?$char_traits@D@std@@V?$allocator@D@2@@std@@VDEVICE@@@std@@@std@@@std@@U_Iterator_base0@2@@std@@QBEABU?$pair@$$CBV?$basic_string@DU?$char_traits@D@std@@V?$allocator@D@2@@std@@VDEVICE@@@1@XZ 100b1c20 f i dll.obj
 0002:00024c80       ??D?$_List_unchecked_iterator@V?$_List_val@U?$_List_simple_types@U?$pair@$$CBV?$basic_string@DU?$char_traits@D@std@@V?$allocator@D@2@@std@@G@std@@@std@@@std@@@std@@QBEAAU?$pair@$$CBV?$basic_string@DU?$char_traits@D@std@@V?$allocator@D@2@@std@@G@1@XZ 100b1c80 f i dll.obj
 0002:00024cd0       ??D?$_List_unchecked_iterator@V?$_List_val@U?$_List_simple_types@U?$pair@$$CBV?$basic_string@DU?$char_traits@D@std@@V?$allocator@D@2@@std@@VDEVICE@@@std@@@std@@@std@@@std@@QBEAAU?$pair@$$CBV?$basic_string@DU?$char_traits@D@std@@V?$allocator@D@2@@std@@VDEVICE@@@1@XZ 100b1cd0 f i dll.obj
 0002:00024d20       ??E?$_Deque_const_iterator@V?$_Deque_val@U?$_Deque_simple_types@UFORMULA2_PAIR@@@std@@@std@@@std@@QAEAAV01@XZ 100b1d20 f i dll.obj
 0002:00024e60       ??E?$_Deque_const_iterator@V?$_Deque_val@U?$_Deque_simple_types@UFORMULA_PAIR@@@std@@@std@@@std@@QAEAAV01@XZ 100b1e60 f i dll.obj
 0002:00024fa0       ??E?$_Deque_unchecked_const_iterator@V?$_Deque_val@U?$_Deque_simple_types@UFORMULA2_PAIR@@@std@@@std@@@std@@QAEAAV01@XZ 100b1fa0 f i dll.obj
 0002:00024ff0       ??E?$_Deque_unchecked_const_iterator@V?$_Deque_val@U?$_Deque_simple_types@UFORMULA_PAIR@@@std@@@std@@@std@@QAEAAV01@XZ 100b1ff0 f i dll.obj
 0002:00025040       ??E?$_Deque_unchecked_iterator@V?$_Deque_val@U?$_Deque_simple_types@UFORMULA2_PAIR@@@std@@@std@@@std@@QAEAAV01@XZ 100b2040 f i dll.obj
 0002:000250a0       ??E?$_Deque_unchecked_iterator@V?$_Deque_val@U?$_Deque_simple_types@UFORMULA_PAIR@@@std@@@std@@@std@@QAEAAV01@XZ 100b20a0 f i dll.obj
 0002:00025100       ??E?$_List_const_iterator@V?$_List_val@U?$_List_simple_types@U?$pair@$$CBV?$basic_string@DU?$char_traits@D@std@@V?$allocator@D@2@@std@@G@std@@@std@@@std@@@std@@QAE?AV01@H@Z 100b2100 f i dll.obj
 0002:00025220       ??E?$_List_const_iterator@V?$_List_val@U?$_List_simple_types@U?$pair@$$CBV?$basic_string@DU?$char_traits@D@std@@V?$allocator@D@2@@std@@G@std@@@std@@@std@@@std@@QAEAAV01@XZ 100b2220 f i dll.obj
 0002:00025370       ??E?$_List_const_iterator@V?$_List_val@U?$_List_simple_types@U?$pair@$$CBV?$basic_string@DU?$char_traits@D@std@@V?$allocator@D@2@@std@@VDEVICE@@@std@@@std@@@std@@@std@@QAE?AV01@H@Z 100b2370 f i dll.obj
 0002:00025490       ??E?$_List_const_iterator@V?$_List_val@U?$_List_simple_types@U?$pair@$$CBV?$basic_string@DU?$char_traits@D@std@@V?$allocator@D@2@@std@@VDEVICE@@@std@@@std@@@std@@@std@@QAEAAV01@XZ 100b2490 f i dll.obj
 0002:000255e0       ??E?$_List_iterator@V?$_List_val@U?$_List_simple_types@U?$pair@$$CBV?$basic_string@DU?$char_traits@D@std@@V?$allocator@D@2@@std@@G@std@@@std@@@std@@@std@@QAEAAV01@XZ 100b25e0 f i dll.obj
 0002:00025640       ??E?$_List_unchecked_const_iterator@V?$_List_val@U?$_List_simple_types@U?$pair@$$CBV?$basic_string@DU?$char_traits@D@std@@V?$allocator@D@2@@std@@G@std@@@std@@@std@@U_Iterator_base0@2@@std@@QAEAAV01@XZ 100b2640 f i dll.obj
 0002:000256b0       ??E?$_List_unchecked_const_iterator@V?$_List_val@U?$_List_simple_types@U?$pair@$$CBV?$basic_string@DU?$char_traits@D@std@@V?$allocator@D@2@@std@@VDEVICE@@@std@@@std@@@std@@U_Iterator_base0@2@@std@@QAEAAV01@XZ 100b26b0 f i dll.obj
 0002:00025720       ??E?$_List_unchecked_iterator@V?$_List_val@U?$_List_simple_types@U?$pair@$$CBV?$basic_string@DU?$char_traits@D@std@@V?$allocator@D@2@@std@@G@std@@@std@@@std@@@std@@QAEAAV01@XZ 100b2720 f i dll.obj
 0002:00025780       ??E?$_List_unchecked_iterator@V?$_List_val@U?$_List_simple_types@U?$pair@$$CBV?$basic_string@DU?$char_traits@D@std@@V?$allocator@D@2@@std@@VDEVICE@@@std@@@std@@@std@@@std@@QAEAAV01@XZ 100b2780 f i dll.obj
 0002:000257e0       ??F?$_Deque_unchecked_const_iterator@V?$_Deque_val@U?$_Deque_simple_types@UFORMULA2_PAIR@@@std@@@std@@@std@@QAEAAV01@XZ 100b27e0 f i dll.obj
 0002:00025830       ??F?$_Deque_unchecked_const_iterator@V?$_Deque_val@U?$_Deque_simple_types@UFORMULA_PAIR@@@std@@@std@@@std@@QAEAAV01@XZ 100b2830 f i dll.obj
 0002:00025880       ??F?$_Deque_unchecked_iterator@V?$_Deque_val@U?$_Deque_simple_types@UFORMULA2_PAIR@@@std@@@std@@@std@@QAEAAV01@XZ 100b2880 f i dll.obj
 0002:000258e0       ??F?$_Deque_unchecked_iterator@V?$_Deque_val@U?$_Deque_simple_types@UFORMULA_PAIR@@@std@@@std@@@std@@QAEAAV01@XZ 100b28e0 f i dll.obj
 0002:00025940       ??F?$_List_unchecked_const_iterator@V?$_List_val@U?$_List_simple_types@U?$pair@$$CBV?$basic_string@DU?$char_traits@D@std@@V?$allocator@D@2@@std@@G@std@@@std@@@std@@U_Iterator_base0@2@@std@@QAEAAV01@XZ 100b2940 f i dll.obj
 0002:000259b0       ??F?$_List_unchecked_const_iterator@V?$_List_val@U?$_List_simple_types@U?$pair@$$CBV?$basic_string@DU?$char_traits@D@std@@V?$allocator@D@2@@std@@VDEVICE@@@std@@@std@@@std@@U_Iterator_base0@2@@std@@QAEAAV01@XZ 100b29b0 f i dll.obj
 0002:00025a20       ??F?$_List_unchecked_iterator@V?$_List_val@U?$_List_simple_types@U?$pair@$$CBV?$basic_string@DU?$char_traits@D@std@@V?$allocator@D@2@@std@@G@std@@@std@@@std@@@std@@QAEAAV01@XZ 100b2a20 f i dll.obj
 0002:00025a80       ??F?$_List_unchecked_iterator@V?$_List_val@U?$_List_simple_types@U?$pair@$$CBV?$basic_string@DU?$char_traits@D@std@@V?$allocator@D@2@@std@@VDEVICE@@@std@@@std@@@std@@@std@@QAEAAV01@XZ 100b2a80 f i dll.obj
 0002:00025ae0       ??G?$_Deque_const_iterator@V?$_Deque_val@U?$_Deque_simple_types@UFORMULA2_PAIR@@@std@@@std@@@std@@QBEHABV01@@Z 100b2ae0 f i dll.obj
 0002:00025b90       ??G?$_Deque_const_iterator@V?$_Deque_val@U?$_Deque_simple_types@UFORMULA_PAIR@@@std@@@std@@@std@@QBEHABV01@@Z 100b2b90 f i dll.obj
 0002:00025c40       ??G?$_Deque_iterator@V?$_Deque_val@U?$_Deque_simple_types@UFORMULA2_PAIR@@@std@@@std@@@std@@QBE?AV01@H@Z 100b2c40 f i dll.obj
 0002:00025d60       ??G?$_Deque_iterator@V?$_Deque_val@U?$_Deque_simple_types@UFORMULA2_PAIR@@@std@@@std@@@std@@QBEHABV?$_Deque_const_iterator@V?$_Deque_val@U?$_Deque_simple_types@UFORMULA2_PAIR@@@std@@@std@@@1@@Z 100b2d60 f i dll.obj
 0002:00025dc0       ??G?$_Deque_iterator@V?$_Deque_val@U?$_Deque_simple_types@UFORMULA_PAIR@@@std@@@std@@@std@@QBE?AV01@H@Z 100b2dc0 f i dll.obj
 0002:00025ee0       ??G?$_Deque_iterator@V?$_Deque_val@U?$_Deque_simple_types@UFORMULA_PAIR@@@std@@@std@@@std@@QBEHABV?$_Deque_const_iterator@V?$_Deque_val@U?$_Deque_simple_types@UFORMULA_PAIR@@@std@@@std@@@1@@Z 100b2ee0 f i dll.obj
 0002:00025f40       ??G?$_Deque_unchecked_const_iterator@V?$_Deque_val@U?$_Deque_simple_types@UFORMULA2_PAIR@@@std@@@std@@@std@@QBEHABV01@@Z 100b2f40 f i dll.obj
 0002:00025fd0       ??G?$_Deque_unchecked_const_iterator@V?$_Deque_val@U?$_Deque_simple_types@UFORMULA_PAIR@@@std@@@std@@@std@@QBEHABV01@@Z 100b2fd0 f i dll.obj
 0002:00026060       ??G?$_Deque_unchecked_iterator@V?$_Deque_val@U?$_Deque_simple_types@UFORMULA2_PAIR@@@std@@@std@@@std@@QBEHABV?$_Deque_unchecked_const_iterator@V?$_Deque_val@U?$_Deque_simple_types@UFORMULA2_PAIR@@@std@@@std@@@1@@Z 100b3060 f i dll.obj
 0002:000260c0       ??G?$_Deque_unchecked_iterator@V?$_Deque_val@U?$_Deque_simple_types@UFORMULA_PAIR@@@std@@@std@@@std@@QBEHABV?$_Deque_unchecked_const_iterator@V?$_Deque_val@U?$_Deque_simple_types@UFORMULA_PAIR@@@std@@@std@@@1@@Z 100b30c0 f i dll.obj
 0002:00026120       ??H?$_Deque_const_iterator@V?$_Deque_val@U?$_Deque_simple_types@UFORMULA2_PAIR@@@std@@@std@@@std@@QBE?AV01@H@Z 100b3120 f i dll.obj
 0002:00026240       ??H?$_Deque_const_iterator@V?$_Deque_val@U?$_Deque_simple_types@UFORMULA_PAIR@@@std@@@std@@@std@@QBE?AV01@H@Z 100b3240 f i dll.obj
 0002:00026360       ??H?$_Deque_iterator@V?$_Deque_val@U?$_Deque_simple_types@UFORMULA2_PAIR@@@std@@@std@@@std@@QBE?AV01@H@Z 100b3360 f i dll.obj
 0002:00026480       ??H?$_Deque_iterator@V?$_Deque_val@U?$_Deque_simple_types@UFORMULA_PAIR@@@std@@@std@@@std@@QBE?AV01@H@Z 100b3480 f i dll.obj
 0002:000265a0       ??H?$_Deque_unchecked_iterator@V?$_Deque_val@U?$_Deque_simple_types@UFORMULA2_PAIR@@@std@@@std@@@std@@QBE?AV01@H@Z 100b35a0 f i dll.obj
 0002:00026650       ??H?$_Deque_unchecked_iterator@V?$_Deque_val@U?$_Deque_simple_types@UFORMULA_PAIR@@@std@@@std@@@std@@QBE?AV01@H@Z 100b3650 f i dll.obj
 0002:00026700       ??H?$_Vector_iterator@V?$_Vector_val@U?$_Simple_types@V?$_List_unchecked_iterator@V?$_List_val@U?$_List_simple_types@U?$pair@$$CBV?$basic_string@DU?$char_traits@D@std@@V?$allocator@D@2@@std@@G@std@@@std@@@std@@@std@@@std@@@std@@@std@@QBE?AV01@H@Z 100b3700 f i dll.obj
 0002:00026820       ??H?$_Vector_iterator@V?$_Vector_val@U?$_Simple_types@V?$_List_unchecked_iterator@V?$_List_val@U?$_List_simple_types@U?$pair@$$CBV?$basic_string@DU?$char_traits@D@std@@V?$allocator@D@2@@std@@VDEVICE@@@std@@@std@@@std@@@std@@@std@@@std@@@std@@QBE?AV01@H@Z 100b3820 f i dll.obj
 0002:00026940       ??M?$_Deque_const_iterator@V?$_Deque_val@U?$_Deque_simple_types@UFORMULA2_PAIR@@@std@@@std@@@std@@QBE_NABV01@@Z 100b3940 f i dll.obj
 0002:000269d0       ??M?$_Deque_const_iterator@V?$_Deque_val@U?$_Deque_simple_types@UFORMULA_PAIR@@@std@@@std@@@std@@QBE_NABV01@@Z 100b39d0 f i dll.obj
 0002:00026a60       ??R?$_Uhash_compare@V?$basic_string@DU?$char_traits@D@std@@V?$allocator@D@2@@std@@U?$hash@V?$basic_string@DU?$char_traits@D@std@@V?$allocator@D@2@@std@@@2@U?$equal_to@V?$basic_string@DU?$char_traits@D@std@@V?$allocator@D@2@@std@@@2@@std@@QBEIABV?$basic_string@DU?$char_traits@D@std@@V?$allocator@D@2@@1@@Z 100b3a60 f i dll.obj
 0002:00026ac0       ??R?$_Uhash_compare@V?$basic_string@DU?$char_traits@D@std@@V?$allocator@D@2@@std@@U?$hash@V?$basic_string@DU?$char_traits@D@std@@V?$allocator@D@2@@std@@@2@U?$equal_to@V?$basic_string@DU?$char_traits@D@std@@V?$allocator@D@2@@std@@@2@@std@@QBE_NABV?$basic_string@DU?$char_traits@D@std@@V?$allocator@D@2@@1@0@Z 100b3ac0 f i dll.obj
 0002:00026b50       ??R?$equal_to@V?$basic_string@DU?$char_traits@D@std@@V?$allocator@D@2@@std@@@std@@QBE_NABV?$basic_string@DU?$char_traits@D@std@@V?$allocator@D@2@@1@0@Z 100b3b50 f i dll.obj
 0002:00026bb0       ??R?$hash@V?$basic_string@DU?$char_traits@D@std@@V?$allocator@D@2@@std@@@std@@QBEIABV?$basic_string@DU?$char_traits@D@std@@V?$allocator@D@2@@1@@Z 100b3bb0 f i dll.obj
 0002:00026c20       ??Y?$_Deque_const_iterator@V?$_Deque_val@U?$_Deque_simple_types@UFORMULA2_PAIR@@@std@@@std@@@std@@QAEAAV01@H@Z 100b3c20 f i dll.obj
 0002:00026d80       ??Y?$_Deque_const_iterator@V?$_Deque_val@U?$_Deque_simple_types@UFORMULA_PAIR@@@std@@@std@@@std@@QAEAAV01@H@Z 100b3d80 f i dll.obj
 0002:00026ee0       ??Y?$_Deque_iterator@V?$_Deque_val@U?$_Deque_simple_types@UFORMULA2_PAIR@@@std@@@std@@@std@@QAEAAV01@H@Z 100b3ee0 f i dll.obj
 0002:00026f30       ??Y?$_Deque_iterator@V?$_Deque_val@U?$_Deque_simple_types@UFORMULA_PAIR@@@std@@@std@@@std@@QAEAAV01@H@Z 100b3f30 f i dll.obj
 0002:00026f80       ??Y?$_Deque_unchecked_const_iterator@V?$_Deque_val@U?$_Deque_simple_types@UFORMULA2_PAIR@@@std@@@std@@@std@@QAEAAV01@H@Z 100b3f80 f i dll.obj
 0002:00026fd0       ??Y?$_Deque_unchecked_const_iterator@V?$_Deque_val@U?$_Deque_simple_types@UFORMULA_PAIR@@@std@@@std@@@std@@QAEAAV01@H@Z 100b3fd0 f i dll.obj
 0002:00027020       ??Y?$_Deque_unchecked_iterator@V?$_Deque_val@U?$_Deque_simple_types@UFORMULA2_PAIR@@@std@@@std@@@std@@QAEAAV01@H@Z 100b4020 f i dll.obj
 0002:00027080       ??Y?$_Deque_unchecked_iterator@V?$_Deque_val@U?$_Deque_simple_types@UFORMULA_PAIR@@@std@@@std@@@std@@QAEAAV01@H@Z 100b4080 f i dll.obj
 0002:000270e0       ??Y?$_Vector_const_iterator@V?$_Vector_val@U?$_Simple_types@V?$_List_unchecked_iterator@V?$_List_val@U?$_List_simple_types@U?$pair@$$CBV?$basic_string@DU?$char_traits@D@std@@V?$allocator@D@2@@std@@G@std@@@std@@@std@@@std@@@std@@@std@@@std@@QAEAAV01@H@Z 100b40e0 f i dll.obj
 0002:00027250       ??Y?$_Vector_const_iterator@V?$_Vector_val@U?$_Simple_types@V?$_List_unchecked_iterator@V?$_List_val@U?$_List_simple_types@U?$pair@$$CBV?$basic_string@DU?$char_traits@D@std@@V?$allocator@D@2@@std@@VDEVICE@@@std@@@std@@@std@@@std@@@std@@@std@@@std@@QAEAAV01@H@Z 100b4250 f i dll.obj
 0002:000273c0       ??Y?$_Vector_iterator@V?$_Vector_val@U?$_Simple_types@V?$_List_unchecked_iterator@V?$_List_val@U?$_List_simple_types@U?$pair@$$CBV?$basic_string@DU?$char_traits@D@std@@V?$allocator@D@2@@std@@G@std@@@std@@@std@@@std@@@std@@@std@@@std@@QAEAAV01@H@Z 100b43c0 f i dll.obj
 0002:00027420       ??Y?$_Vector_iterator@V?$_Vector_val@U?$_Simple_types@V?$_List_unchecked_iterator@V?$_List_val@U?$_List_simple_types@U?$pair@$$CBV?$basic_string@DU?$char_traits@D@std@@V?$allocator@D@2@@std@@VDEVICE@@@std@@@std@@@std@@@std@@@std@@@std@@@std@@QAEAAV01@H@Z 100b4420 f i dll.obj
 0002:00027480       ??Z?$_Deque_iterator@V?$_Deque_val@U?$_Deque_simple_types@UFORMULA2_PAIR@@@std@@@std@@@std@@QAEAAV01@H@Z 100b4480 f i dll.obj
 0002:000274e0       ??Z?$_Deque_iterator@V?$_Deque_val@U?$_Deque_simple_types@UFORMULA_PAIR@@@std@@@std@@@std@@QAEAAV01@H@Z 100b44e0 f i dll.obj
 0002:00027540       ??_EFormula@@UAEPAXI@Z     100b4540 f i dll.obj
 0002:00027650       ??_EMonarch@@UAEPAXI@Z     100b4650 f i dll.obj
 0002:00027760       ??_EPhysics@@UAEPAXI@Z     100b4760 f i dll.obj
 0002:00027870       ??_EfatalError@@UAEPAXI@Z  100b4870 f i dll.obj
 0002:00027980       ??_EqtFormula@@UAEPAXI@Z   100b4980 f i dll.obj
 0002:00027a90       ??_FANT@RACERMATE@@QAEXXZ  100b4a90 f i dll.obj
 0002:00027af0       ??_FFormula@@QAEXXZ        100b4af0 f i dll.obj
 0002:00027b50       ??_FMonarch@@QAEXXZ        100b4b50 f i dll.obj
 0002:00027bc0       ??_FfastTimer@@QAEXXZ      100b4bc0 f i dll.obj
 0002:00027c20       ??_FqtFormula@@QAEXXZ      100b4c20 f i dll.obj
 0002:00027c80       ??_G?$pair@$$CBV?$basic_string@DU?$char_traits@D@std@@V?$allocator@D@2@@std@@G@std@@QAEPAXI@Z 100b4c80 f i dll.obj
 0002:00027cf0       ??_G?$pair@$$CBV?$basic_string@DU?$char_traits@D@std@@V?$allocator@D@2@@std@@VDEVICE@@@std@@QAEPAXI@Z 100b4cf0 f i dll.obj
 0002:00027d70       ??_GEV@@QAEPAXI@Z          100b4d70 f i dll.obj
 0002:00027df0       ??_GFormula@@UAEPAXI@Z     100b4df0 f i dll.obj
 0002:00027e70       ??_GMonarch@@UAEPAXI@Z     100b4e70 f i dll.obj
 0002:00027ef0       ??_GPhysics@@UAEPAXI@Z     100b4ef0 f i dll.obj
 0002:00027f70       ??_GfatalError@@UAEPAXI@Z  100b4f70 f i dll.obj
 0002:00027ff0       ??_GqtFormula@@UAEPAXI@Z   100b4ff0 f i dll.obj
 0002:00028070       ?_Adopt@_Iterator_base0@std@@QAEXPBX@Z 100b5070 f i dll.obj
 0002:000280b0       ?_Adopt@_Iterator_base12@std@@QAEXPBU_Container_base12@2@@Z 100b50b0 f i dll.obj
 0002:00028260       ?_Alloc_proxy@?$_Deque_alloc@U?$_Deque_base_types@UFORMULA2_PAIR@@V?$allocator@UFORMULA2_PAIR@@@std@@@std@@@std@@QAEXXZ 100b5260 f i dll.obj
 0002:00028360       ?_Alloc_proxy@?$_Deque_alloc@U?$_Deque_base_types@UFORMULA_PAIR@@V?$allocator@UFORMULA_PAIR@@@std@@@std@@@std@@QAEXXZ 100b5360 f i dll.obj
 0002:00028460       ?_Alloc_proxy@?$_String_alloc@U?$_String_base_types@DV?$allocator@D@std@@@std@@@std@@QAEXXZ 100b5460 f i dll.obj
 0002:00028560       ?_Allocate@std@@YAPAXII_N@Z 100b5560 f i dll.obj
 0002:000287c0       ?_Assign_rv@?$basic_string@DU?$char_traits@D@std@@V?$allocator@D@2@@std@@QAEX$$QAV12@@Z 100b57c0 f i dll.obj
 0002:000288e0       ?_Begin@?$_Hash@V?$_Umap_traits@V?$basic_string@DU?$char_traits@D@std@@V?$allocator@D@2@@std@@GV?$_Uhash_compare@V?$basic_string@DU?$char_traits@D@std@@V?$allocator@D@2@@std@@U?$hash@V?$basic_string@DU?$char_traits@D@std@@V?$allocator@D@2@@std@@@2@U?$equal_to@V?$basic_string@DU?$char_traits@D@std@@V?$allocator@D@2@@std@@@2@@2@V?$allocator@U?$pair@$$CBV?$basic_string@DU?$char_traits@D@std@@V?$allocator@D@2@@std@@G@std@@@2@$0A@@std@@@std@@IAE?AV?$_List_unchecked_iterator@V?$_List_val@U?$_List_simple_types@U?$pair@$$CBV?$basic_string@DU?$char_traits@D@std@@V?$allocator@D@2@@std@@G@std@@@std@@@std@@@2@I@Z 100b58e0 f i dll.obj
 0002:00028950       ?_Begin@?$_Hash@V?$_Umap_traits@V?$basic_string@DU?$char_traits@D@std@@V?$allocator@D@2@@std@@VDEVICE@@V?$_Uhash_compare@V?$basic_string@DU?$char_traits@D@std@@V?$allocator@D@2@@std@@U?$hash@V?$basic_string@DU?$char_traits@D@std@@V?$allocator@D@2@@std@@@2@U?$equal_to@V?$basic_string@DU?$char_traits@D@std@@V?$allocator@D@2@@std@@@2@@2@V?$allocator@U?$pair@$$CBV?$basic_string@DU?$char_traits@D@std@@V?$allocator@D@2@@std@@VDEVICE@@@std@@@2@$0A@@std@@@std@@IAE?AV?$_List_unchecked_iterator@V?$_List_val@U?$_List_simple_types@U?$pair@$$CBV?$basic_string@DU?$char_traits@D@std@@V?$allocator@D@2@@std@@VDEVICE@@@std@@@std@@@std@@@2@I@Z 100b5950 f i dll.obj
 0002:000289c0       ?_Buynode0@?$_List_alloc@U?$_List_base_types@U?$pair@$$CBV?$basic_string@DU?$char_traits@D@std@@V?$allocator@D@2@@std@@G@std@@V?$allocator@U?$pair@$$CBV?$basic_string@DU?$char_traits@D@std@@V?$allocator@D@2@@std@@G@std@@@2@@std@@@std@@QAEPAU?$_List_node@U?$pair@$$CBV?$basic_string@DU?$char_traits@D@std@@V?$allocator@D@2@@std@@G@std@@PAX@2@PAU32@0@Z 100b59c0 f i dll.obj
 0002:00028b50       ?_Buynode0@?$_List_alloc@U?$_List_base_types@U?$pair@$$CBV?$basic_string@DU?$char_traits@D@std@@V?$allocator@D@2@@std@@VDEVICE@@@std@@V?$allocator@U?$pair@$$CBV?$basic_string@DU?$char_traits@D@std@@V?$allocator@D@2@@std@@VDEVICE@@@std@@@2@@std@@@std@@QAEPAU?$_List_node@U?$pair@$$CBV?$basic_string@DU?$char_traits@D@std@@V?$allocator@D@2@@std@@VDEVICE@@@std@@PAX@2@PAU32@0@Z 100b5b50 f i dll.obj
 0002:00028ce0       ?_Bx@?$_String_alloc@U?$_String_base_types@DV?$allocator@D@std@@@std@@@std@@QAEAAT_Bxty@?$_String_val@U?$_Simple_types@D@std@@@2@XZ 100b5ce0 f i dll.obj
 0002:00028d40       ?_Check_offset@?$basic_string@DU?$char_traits@D@std@@V?$allocator@D@2@@std@@QBEXI@Z 100b5d40 f i dll.obj
 0002:00028db0       ?_Check_size@?$_Hash@V?$_Umap_traits@V?$basic_string@DU?$char_traits@D@std@@V?$allocator@D@2@@std@@GV?$_Uhash_compare@V?$basic_string@DU?$char_traits@D@std@@V?$allocator@D@2@@std@@U?$hash@V?$basic_string@DU?$char_traits@D@std@@V?$allocator@D@2@@std@@@2@U?$equal_to@V?$basic_string@DU?$char_traits@D@std@@V?$allocator@D@2@@std@@@2@@2@V?$allocator@U?$pair@$$CBV?$basic_string@DU?$char_traits@D@std@@V?$allocator@D@2@@std@@G@std@@@2@$0A@@std@@@std@@IAEXXZ 100b5db0 f i dll.obj
 0002:00028eb0       ?_Check_size@?$_Hash@V?$_Umap_traits@V?$basic_string@DU?$char_traits@D@std@@V?$allocator@D@2@@std@@VDEVICE@@V?$_Uhash_compare@V?$basic_string@DU?$char_traits@D@std@@V?$allocator@D@2@@std@@U?$hash@V?$basic_string@DU?$char_traits@D@std@@V?$allocator@D@2@@std@@@2@U?$equal_to@V?$basic_string@DU?$char_traits@D@std@@V?$allocator@D@2@@std@@@2@@2@V?$allocator@U?$pair@$$CBV?$basic_string@DU?$char_traits@D@std@@V?$allocator@D@2@@std@@VDEVICE@@@std@@@2@$0A@@std@@@std@@IAEXXZ 100b5eb0 f i dll.obj
 0002:00028fb0       ?_Clamp_suffix_size@?$basic_string@DU?$char_traits@D@std@@V?$allocator@D@2@@std@@QBEIII@Z 100b5fb0 f i dll.obj
 0002:00029030       ?_Clrcont@_Iterator_base12@std@@QAEXXZ 100b6030 f i dll.obj
 0002:00029070       ?_Compat@?$_Deque_const_iterator@V?$_Deque_val@U?$_Deque_simple_types@UFORMULA2_PAIR@@@std@@@std@@@std@@QBEXABV12@@Z 100b6070 f i dll.obj
 0002:00029180       ?_Compat@?$_Deque_const_iterator@V?$_Deque_val@U?$_Deque_simple_types@UFORMULA_PAIR@@@std@@@std@@@std@@QBEXABV12@@Z 100b6180 f i dll.obj
 0002:00029290       ?_Copy@?$basic_string@DU?$char_traits@D@std@@V?$allocator@D@2@@std@@QAEXII@Z 100b6290 f i dll.obj
 0002:00029550       ?_Copy_alloc@?$_Deque_alloc@U?$_Deque_base_types@UFORMULA2_PAIR@@V?$allocator@UFORMULA2_PAIR@@@std@@@std@@@std@@QAEXABU?$_Wrap_alloc@V?$allocator@UFORMULA2_PAIR@@@std@@@2@@Z 100b6550 f i dll.obj
 0002:000295d0       ?_Copy_alloc@?$_Deque_alloc@U?$_Deque_base_types@UFORMULA_PAIR@@V?$allocator@UFORMULA_PAIR@@@std@@@std@@@std@@QAEXABU?$_Wrap_alloc@V?$allocator@UFORMULA_PAIR@@@std@@@2@@Z 100b65d0 f i dll.obj
 0002:00029650       ?_Copy_alloc@?$_String_alloc@U?$_String_base_types@DV?$allocator@D@std@@@std@@@std@@QAEXABU?$_Wrap_alloc@V?$allocator@D@std@@@2@@Z 100b6650 f i dll.obj
 0002:000296d0       ?_Deallocate@std@@YAXPAXII@Z 100b66d0 f i dll.obj
 0002:00029c10       ?_Destroy@?$vector@V?$_List_unchecked_iterator@V?$_List_val@U?$_List_simple_types@U?$pair@$$CBV?$basic_string@DU?$char_traits@D@std@@V?$allocator@D@2@@std@@G@std@@@std@@@std@@@std@@U?$_Wrap_alloc@V?$allocator@V?$_List_unchecked_iterator@V?$_List_val@U?$_List_simple_types@U?$pair@$$CBV?$basic_string@DU?$char_traits@D@std@@V?$allocator@D@2@@std@@G@std@@@std@@@std@@@std@@@std@@@2@@std@@IAEXPAV?$_List_unchecked_iterator@V?$_List_val@U?$_List_simple_types@U?$pair@$$CBV?$basic_string@DU?$char_traits@D@std@@V?$allocator@D@2@@std@@G@std@@@std@@@std@@@2@0@Z 100b6c10 f i dll.obj
 0002:00029c80       ?_Destroy@?$vector@V?$_List_unchecked_iterator@V?$_List_val@U?$_List_simple_types@U?$pair@$$CBV?$basic_string@DU?$char_traits@D@std@@V?$allocator@D@2@@std@@VDEVICE@@@std@@@std@@@std@@@std@@U?$_Wrap_alloc@V?$allocator@V?$_List_unchecked_iterator@V?$_List_val@U?$_List_simple_types@U?$pair@$$CBV?$basic_string@DU?$char_traits@D@std@@V?$allocator@D@2@@std@@VDEVICE@@@std@@@std@@@std@@@std@@@std@@@2@@std@@IAEXPAV?$_List_unchecked_iterator@V?$_List_val@U?$_List_simple_types@U?$pair@$$CBV?$basic_string@DU?$char_traits@D@std@@V?$allocator@D@2@@std@@VDEVICE@@@std@@@std@@@std@@@2@0@Z 100b6c80 f i dll.obj
 0002:00029cf0       ?_Destroy_if_not_nil@?$_Hash@V?$_Umap_traits@V?$basic_string@DU?$char_traits@D@std@@V?$allocator@D@2@@std@@GV?$_Uhash_compare@V?$basic_string@DU?$char_traits@D@std@@V?$allocator@D@2@@std@@U?$hash@V?$basic_string@DU?$char_traits@D@std@@V?$allocator@D@2@@std@@@2@U?$equal_to@V?$basic_string@DU?$char_traits@D@std@@V?$allocator@D@2@@std@@@2@@2@V?$allocator@U?$pair@$$CBV?$basic_string@DU?$char_traits@D@std@@V?$allocator@D@2@@std@@G@std@@@2@$0A@@std@@@std@@IAEXV?$_List_unchecked_iterator@V?$_List_val@U?$_List_simple_types@U?$pair@$$CBV?$basic_string@DU?$char_traits@D@std@@V?$allocator@D@2@@std@@G@std@@@std@@@std@@@2@@Z 100b6cf0 f i dll.obj
 0002:00029e20       ?_Destroy_if_not_nil@?$_Hash@V?$_Umap_traits@V?$basic_string@DU?$char_traits@D@std@@V?$allocator@D@2@@std@@VDEVICE@@V?$_Uhash_compare@V?$basic_string@DU?$char_traits@D@std@@V?$allocator@D@2@@std@@U?$hash@V?$basic_string@DU?$char_traits@D@std@@V?$allocator@D@2@@std@@@2@U?$equal_to@V?$basic_string@DU?$char_traits@D@std@@V?$allocator@D@2@@std@@@2@@2@V?$allocator@U?$pair@$$CBV?$basic_string@DU?$char_traits@D@std@@V?$allocator@D@2@@std@@VDEVICE@@@std@@@2@$0A@@std@@@std@@IAEXV?$_List_unchecked_iterator@V?$_List_val@U?$_List_simple_types@U?$pair@$$CBV?$basic_string@DU?$char_traits@D@std@@V?$allocator@D@2@@std@@VDEVICE@@@std@@@std@@@std@@@2@@Z 100b6e20 f i dll.obj
 0002:00029f50       ?_End@?$_Hash@V?$_Umap_traits@V?$basic_string@DU?$char_traits@D@std@@V?$allocator@D@2@@std@@GV?$_Uhash_compare@V?$basic_string@DU?$char_traits@D@std@@V?$allocator@D@2@@std@@U?$hash@V?$basic_string@DU?$char_traits@D@std@@V?$allocator@D@2@@std@@@2@U?$equal_to@V?$basic_string@DU?$char_traits@D@std@@V?$allocator@D@2@@std@@@2@@2@V?$allocator@U?$pair@$$CBV?$basic_string@DU?$char_traits@D@std@@V?$allocator@D@2@@std@@G@std@@@2@$0A@@std@@@std@@IAE?AV?$_List_unchecked_iterator@V?$_List_val@U?$_List_simple_types@U?$pair@$$CBV?$basic_string@DU?$char_traits@D@std@@V?$allocator@D@2@@std@@G@std@@@std@@@std@@@2@I@Z 100b6f50 f i dll.obj
 0002:0002a050       ?_End@?$_Hash@V?$_Umap_traits@V?$basic_string@DU?$char_traits@D@std@@V?$allocator@D@2@@std@@VDEVICE@@V?$_Uhash_compare@V?$basic_string@DU?$char_traits@D@std@@V?$allocator@D@2@@std@@U?$hash@V?$basic_string@DU?$char_traits@D@std@@V?$allocator@D@2@@std@@@2@U?$equal_to@V?$basic_string@DU?$char_traits@D@std@@V?$allocator@D@2@@std@@@2@@2@V?$allocator@U?$pair@$$CBV?$basic_string@DU?$char_traits@D@std@@V?$allocator@D@2@@std@@VDEVICE@@@std@@@2@$0A@@std@@@std@@IAE?AV?$_List_unchecked_iterator@V?$_List_val@U?$_List_simple_types@U?$pair@$$CBV?$basic_string@DU?$char_traits@D@std@@V?$allocator@D@2@@std@@VDEVICE@@@std@@@std@@@std@@@2@I@Z 100b7050 f i dll.obj
 0002:0002a150       ?_Eos@?$basic_string@DU?$char_traits@D@std@@V?$allocator@D@2@@std@@QAEXI@Z 100b7150 f i dll.obj
 0002:0002a1e0       ?_Erase_bucket@?$_Hash@V?$_Umap_traits@V?$basic_string@DU?$char_traits@D@std@@V?$allocator@D@2@@std@@GV?$_Uhash_compare@V?$basic_string@DU?$char_traits@D@std@@V?$allocator@D@2@@std@@U?$hash@V?$basic_string@DU?$char_traits@D@std@@V?$allocator@D@2@@std@@@2@U?$equal_to@V?$basic_string@DU?$char_traits@D@std@@V?$allocator@D@2@@std@@@2@@2@V?$allocator@U?$pair@$$CBV?$basic_string@DU?$char_traits@D@std@@V?$allocator@D@2@@std@@G@std@@@2@$0A@@std@@@std@@IAEXV?$_List_iterator@V?$_List_val@U?$_List_simple_types@U?$pair@$$CBV?$basic_string@DU?$char_traits@D@std@@V?$allocator@D@2@@std@@G@std@@@std@@@std@@@2@I@Z 100b71e0 f i dll.obj
 0002:0002a3c0       ?_Erase_bucket@?$_Hash@V?$_Umap_traits@V?$basic_string@DU?$char_traits@D@std@@V?$allocator@D@2@@std@@VDEVICE@@V?$_Uhash_compare@V?$basic_string@DU?$char_traits@D@std@@V?$allocator@D@2@@std@@U?$hash@V?$basic_string@DU?$char_traits@D@std@@V?$allocator@D@2@@std@@@2@U?$equal_to@V?$basic_string@DU?$char_traits@D@std@@V?$allocator@D@2@@std@@@2@@2@V?$allocator@U?$pair@$$CBV?$basic_string@DU?$char_traits@D@std@@V?$allocator@D@2@@std@@VDEVICE@@@std@@@2@$0A@@std@@@std@@IAEXV?$_List_iterator@V?$_List_val@U?$_List_simple_types@U?$pair@$$CBV?$basic_string@DU?$char_traits@D@std@@V?$allocator@D@2@@std@@VDEVICE@@@std@@@std@@@std@@@2@I@Z 100b73c0 f i dll.obj
 0002:0002a5a0       ?_Free_proxy@?$_Deque_alloc@U?$_Deque_base_types@UFORMULA2_PAIR@@V?$allocator@UFORMULA2_PAIR@@@std@@@std@@@std@@QAEXXZ 100b75a0 f i dll.obj
 0002:0002a690       ?_Free_proxy@?$_Deque_alloc@U?$_Deque_base_types@UFORMULA_PAIR@@V?$allocator@UFORMULA_PAIR@@@std@@@std@@@std@@QAEXXZ 100b7690 f i dll.obj
 0002:0002a780       ?_Free_proxy@?$_String_alloc@U?$_String_base_types@DV?$allocator@D@std@@@std@@@std@@QAEXXZ 100b7780 f i dll.obj
 0002:0002a870       ?_Freenode@?$_List_buy@U?$pair@$$CBV?$basic_string@DU?$char_traits@D@std@@V?$allocator@D@2@@std@@G@std@@V?$allocator@U?$pair@$$CBV?$basic_string@DU?$char_traits@D@std@@V?$allocator@D@2@@std@@G@std@@@2@@std@@QAEXPAU?$_List_node@U?$pair@$$CBV?$basic_string@DU?$char_traits@D@std@@V?$allocator@D@2@@std@@G@std@@PAX@2@@Z 100b7870 f i dll.obj
 0002:0002a960       ?_Freenode@?$_List_buy@U?$pair@$$CBV?$basic_string@DU?$char_traits@D@std@@V?$allocator@D@2@@std@@VDEVICE@@@std@@V?$allocator@U?$pair@$$CBV?$basic_string@DU?$char_traits@D@std@@V?$allocator@D@2@@std@@VDEVICE@@@std@@@2@@std@@QAEXPAU?$_List_node@U?$pair@$$CBV?$basic_string@DU?$char_traits@D@std@@V?$allocator@D@2@@std@@VDEVICE@@@std@@PAX@2@@Z 100b7960 f i dll.obj
 0002:0002aa50       ?_Get_data@?$_Deque_alloc@U?$_Deque_base_types@UFORMULA2_PAIR@@V?$allocator@UFORMULA2_PAIR@@@std@@@std@@@std@@QAEAAV?$_Deque_val@U?$_Deque_simple_types@UFORMULA2_PAIR@@@std@@@2@XZ 100b7a50 f i dll.obj
 0002:0002aaa0       ?_Get_data@?$_Deque_alloc@U?$_Deque_base_types@UFORMULA2_PAIR@@V?$allocator@UFORMULA2_PAIR@@@std@@@std@@@std@@QBEABV?$_Deque_val@U?$_Deque_simple_types@UFORMULA2_PAIR@@@std@@@2@XZ 100b7aa0 f i dll.obj
 0002:0002aaf0       ?_Get_data@?$_Deque_alloc@U?$_Deque_base_types@UFORMULA_PAIR@@V?$allocator@UFORMULA_PAIR@@@std@@@std@@@std@@QAEAAV?$_Deque_val@U?$_Deque_simple_types@UFORMULA_PAIR@@@std@@@2@XZ 100b7af0 f i dll.obj
 0002:0002ab40       ?_Get_data@?$_Deque_alloc@U?$_Deque_base_types@UFORMULA_PAIR@@V?$allocator@UFORMULA_PAIR@@@std@@@std@@@std@@QBEABV?$_Deque_val@U?$_Deque_simple_types@UFORMULA_PAIR@@@std@@@2@XZ 100b7b40 f i dll.obj
 0002:0002ab90       ?_Get_data@?$_List_alloc@U?$_List_base_types@U?$pair@$$CBV?$basic_string@DU?$char_traits@D@std@@V?$allocator@D@2@@std@@G@std@@V?$allocator@U?$pair@$$CBV?$basic_string@DU?$char_traits@D@std@@V?$allocator@D@2@@std@@G@std@@@2@@std@@@std@@QAEAAV?$_List_val@U?$_List_simple_types@U?$pair@$$CBV?$basic_string@DU?$char_traits@D@std@@V?$allocator@D@2@@std@@G@std@@@std@@@2@XZ 100b7b90 f i dll.obj
 0002:0002abe0       ?_Get_data@?$_List_alloc@U?$_List_base_types@U?$pair@$$CBV?$basic_string@DU?$char_traits@D@std@@V?$allocator@D@2@@std@@G@std@@V?$allocator@U?$pair@$$CBV?$basic_string@DU?$char_traits@D@std@@V?$allocator@D@2@@std@@G@std@@@2@@std@@@std@@QBEABV?$_List_val@U?$_List_simple_types@U?$pair@$$CBV?$basic_string@DU?$char_traits@D@std@@V?$allocator@D@2@@std@@G@std@@@std@@@2@XZ 100b7be0 f i dll.obj
 0002:0002ac30       ?_Get_data@?$_List_alloc@U?$_List_base_types@U?$pair@$$CBV?$basic_string@DU?$char_traits@D@std@@V?$allocator@D@2@@std@@VDEVICE@@@std@@V?$allocator@U?$pair@$$CBV?$basic_string@DU?$char_traits@D@std@@V?$allocator@D@2@@std@@VDEVICE@@@std@@@2@@std@@@std@@QAEAAV?$_List_val@U?$_List_simple_types@U?$pair@$$CBV?$basic_string@DU?$char_traits@D@std@@V?$allocator@D@2@@std@@VDEVICE@@@std@@@std@@@2@XZ 100b7c30 f i dll.obj
 0002:0002ac80       ?_Get_data@?$_List_alloc@U?$_List_base_types@U?$pair@$$CBV?$basic_string@DU?$char_traits@D@std@@V?$allocator@D@2@@std@@VDEVICE@@@std@@V?$allocator@U?$pair@$$CBV?$basic_string@DU?$char_traits@D@std@@V?$allocator@D@2@@std@@VDEVICE@@@std@@@2@@std@@@std@@QBEABV?$_List_val@U?$_List_simple_types@U?$pair@$$CBV?$basic_string@DU?$char_traits@D@std@@V?$allocator@D@2@@std@@VDEVICE@@@std@@@std@@@2@XZ 100b7c80 f i dll.obj
 0002:0002acd0       ?_Get_data@?$_String_alloc@U?$_String_base_types@DV?$allocator@D@std@@@std@@@std@@QAEAAV?$_String_val@U?$_Simple_types@D@std@@@2@XZ 100b7cd0 f i dll.obj
 0002:0002ad20       ?_Get_data@?$_String_alloc@U?$_String_base_types@DV?$allocator@D@std@@@std@@@std@@QBEABV?$_String_val@U?$_Simple_types@D@std@@@2@XZ 100b7d20 f i dll.obj
 0002:0002ad70       ?_Get_data@?$_Vector_alloc@U?$_Vec_base_types@V?$_List_unchecked_iterator@V?$_List_val@U?$_List_simple_types@U?$pair@$$CBV?$basic_string@DU?$char_traits@D@std@@V?$allocator@D@2@@std@@G@std@@@std@@@std@@@std@@U?$_Wrap_alloc@V?$allocator@V?$_List_unchecked_iterator@V?$_List_val@U?$_List_simple_types@U?$pair@$$CBV?$basic_string@DU?$char_traits@D@std@@V?$allocator@D@2@@std@@G@std@@@std@@@std@@@std@@@std@@@2@@std@@@std@@QAEAAV?$_Vector_val@U?$_Simple_types@V?$_List_unchecked_iterator@V?$_List_val@U?$_List_simple_types@U?$pair@$$CBV?$basic_string@DU?$char_traits@D@std@@V?$allocator@D@2@@std@@G@std@@@std@@@std@@@std@@@std@@@2@XZ 100b7d70 f i dll.obj
 0002:0002adc0       ?_Get_data@?$_Vector_alloc@U?$_Vec_base_types@V?$_List_unchecked_iterator@V?$_List_val@U?$_List_simple_types@U?$pair@$$CBV?$basic_string@DU?$char_traits@D@std@@V?$allocator@D@2@@std@@G@std@@@std@@@std@@@std@@U?$_Wrap_alloc@V?$allocator@V?$_List_unchecked_iterator@V?$_List_val@U?$_List_simple_types@U?$pair@$$CBV?$basic_string@DU?$char_traits@D@std@@V?$allocator@D@2@@std@@G@std@@@std@@@std@@@std@@@std@@@2@@std@@@std@@QBEABV?$_Vector_val@U?$_Simple_types@V?$_List_unchecked_iterator@V?$_List_val@U?$_List_simple_types@U?$pair@$$CBV?$basic_string@DU?$char_traits@D@std@@V?$allocator@D@2@@std@@G@std@@@std@@@std@@@std@@@std@@@2@XZ 100b7dc0 f i dll.obj
 0002:0002ae10       ?_Get_data@?$_Vector_alloc@U?$_Vec_base_types@V?$_List_unchecked_iterator@V?$_List_val@U?$_List_simple_types@U?$pair@$$CBV?$basic_string@DU?$char_traits@D@std@@V?$allocator@D@2@@std@@VDEVICE@@@std@@@std@@@std@@@std@@U?$_Wrap_alloc@V?$allocator@V?$_List_unchecked_iterator@V?$_List_val@U?$_List_simple_types@U?$pair@$$CBV?$basic_string@DU?$char_traits@D@std@@V?$allocator@D@2@@std@@VDEVICE@@@std@@@std@@@std@@@std@@@std@@@2@@std@@@std@@QAEAAV?$_Vector_val@U?$_Simple_types@V?$_List_unchecked_iterator@V?$_List_val@U?$_List_simple_types@U?$pair@$$CBV?$basic_string@DU?$char_traits@D@std@@V?$allocator@D@2@@std@@VDEVICE@@@std@@@std@@@std@@@std@@@std@@@2@XZ 100b7e10 f i dll.obj
 0002:0002ae60       ?_Get_data@?$_Vector_alloc@U?$_Vec_base_types@V?$_List_unchecked_iterator@V?$_List_val@U?$_List_simple_types@U?$pair@$$CBV?$basic_string@DU?$char_traits@D@std@@V?$allocator@D@2@@std@@VDEVICE@@@std@@@std@@@std@@@std@@U?$_Wrap_alloc@V?$allocator@V?$_List_unchecked_iterator@V?$_List_val@U?$_List_simple_types@U?$pair@$$CBV?$basic_string@DU?$char_traits@D@std@@V?$allocator@D@2@@std@@VDEVICE@@@std@@@std@@@std@@@std@@@std@@@2@@std@@@std@@QBEABV?$_Vector_val@U?$_Simple_types@V?$_List_unchecked_iterator@V?$_List_val@U?$_List_simple_types@U?$pair@$$CBV?$basic_string@DU?$char_traits@D@std@@V?$allocator@D@2@@std@@VDEVICE@@@std@@@std@@@std@@@std@@@std@@@2@XZ 100b7e60 f i dll.obj
 0002:0002aeb0       ?_Get_data@?$_Vector_alloc@U?$_Vec_base_types@V?$basic_string@DU?$char_traits@D@std@@V?$allocator@D@2@@std@@V?$allocator@V?$basic_string@DU?$char_traits@D@std@@V?$allocator@D@2@@std@@@2@@std@@@std@@QAEAAV?$_Vector_val@U?$_Simple_types@V?$basic_string@DU?$char_traits@D@std@@V?$allocator@D@2@@std@@@std@@@2@XZ 100b7eb0 f i dll.obj
 0002:0002af00       ?_Get_data@?$_Vector_alloc@U?$_Vec_base_types@V?$basic_string@DU?$char_traits@D@std@@V?$allocator@D@2@@std@@V?$allocator@V?$basic_string@DU?$char_traits@D@std@@V?$allocator@D@2@@std@@@2@@std@@@std@@QBEABV?$_Vector_val@U?$_Simple_types@V?$basic_string@DU?$char_traits@D@std@@V?$allocator@D@2@@std@@@std@@@2@XZ 100b7f00 f i dll.obj
 0002:0002af50       ?_Get_first@?$_Compressed_pair@U?$_Wrap_alloc@U?$_Wrap_alloc@V?$allocator@V?$_List_unchecked_iterator@V?$_List_val@U?$_List_simple_types@U?$pair@$$CBV?$basic_string@DU?$char_traits@D@std@@V?$allocator@D@2@@std@@G@std@@@std@@@std@@@std@@@std@@@std@@@std@@V?$_Vector_val@U?$_Simple_types@V?$_List_unchecked_iterator@V?$_List_val@U?$_List_simple_types@U?$pair@$$CBV?$basic_string@DU?$char_traits@D@std@@V?$allocator@D@2@@std@@G@std@@@std@@@std@@@std@@@std@@@2@$00@std@@QAEAAU?$_Wrap_alloc@U?$_Wrap_alloc@V?$allocator@V?$_List_unchecked_iterator@V?$_List_val@U?$_List_simple_types@U?$pair@$$CBV?$basic_string@DU?$char_traits@D@std@@V?$allocator@D@2@@std@@G@std@@@std@@@std@@@std@@@std@@@std@@@2@XZ 100b7f50 f i dll.obj
 0002:0002af90       ?_Get_first@?$_Compressed_pair@U?$_Wrap_alloc@U?$_Wrap_alloc@V?$allocator@V?$_List_unchecked_iterator@V?$_List_val@U?$_List_simple_types@U?$pair@$$CBV?$basic_string@DU?$char_traits@D@std@@V?$allocator@D@2@@std@@G@std@@@std@@@std@@@std@@@std@@@std@@@std@@V?$_Vector_val@U?$_Simple_types@V?$_List_unchecked_iterator@V?$_List_val@U?$_List_simple_types@U?$pair@$$CBV?$basic_string@DU?$char_traits@D@std@@V?$allocator@D@2@@std@@G@std@@@std@@@std@@@std@@@std@@@2@$00@std@@QBEABU?$_Wrap_alloc@U?$_Wrap_alloc@V?$allocator@V?$_List_unchecked_iterator@V?$_List_val@U?$_List_simple_types@U?$pair@$$CBV?$basic_string@DU?$char_traits@D@std@@V?$allocator@D@2@@std@@G@std@@@std@@@std@@@std@@@std@@@std@@@2@XZ 100b7f90 f i dll.obj
 0002:0002afd0       ?_Get_first@?$_Compressed_pair@U?$_Wrap_alloc@U?$_Wrap_alloc@V?$allocator@V?$_List_unchecked_iterator@V?$_List_val@U?$_List_simple_types@U?$pair@$$CBV?$basic_string@DU?$char_traits@D@std@@V?$allocator@D@2@@std@@VDEVICE@@@std@@@std@@@std@@@std@@@std@@@std@@@std@@V?$_Vector_val@U?$_Simple_types@V?$_List_unchecked_iterator@V?$_List_val@U?$_List_simple_types@U?$pair@$$CBV?$basic_string@DU?$char_traits@D@std@@V?$allocator@D@2@@std@@VDEVICE@@@std@@@std@@@std@@@std@@@std@@@2@$00@std@@QAEAAU?$_Wrap_alloc@U?$_Wrap_alloc@V?$allocator@V?$_List_unchecked_iterator@V?$_List_val@U?$_List_simple_types@U?$pair@$$CBV?$basic_string@DU?$char_traits@D@std@@V?$allocator@D@2@@std@@VDEVICE@@@std@@@std@@@std@@@std@@@std@@@std@@@2@XZ 100b7fd0 f i dll.obj
 0002:0002b010       ?_Get_first@?$_Compressed_pair@U?$_Wrap_alloc@U?$_Wrap_alloc@V?$allocator@V?$_List_unchecked_iterator@V?$_List_val@U?$_List_simple_types@U?$pair@$$CBV?$basic_string@DU?$char_traits@D@std@@V?$allocator@D@2@@std@@VDEVICE@@@std@@@std@@@std@@@std@@@std@@@std@@@std@@V?$_Vector_val@U?$_Simple_types@V?$_List_unchecked_iterator@V?$_List_val@U?$_List_simple_types@U?$pair@$$CBV?$basic_string@DU?$char_traits@D@std@@V?$allocator@D@2@@std@@VDEVICE@@@std@@@std@@@std@@@std@@@std@@@2@$00@std@@QBEABU?$_Wrap_alloc@U?$_Wrap_alloc@V?$allocator@V?$_List_unchecked_iterator@V?$_List_val@U?$_List_simple_types@U?$pair@$$CBV?$basic_string@DU?$char_traits@D@std@@V?$allocator@D@2@@std@@VDEVICE@@@std@@@std@@@std@@@std@@@std@@@std@@@2@XZ 100b8010 f i dll.obj
 0002:0002b050       ?_Get_first@?$_Compressed_pair@U?$_Wrap_alloc@V?$allocator@D@std@@@std@@V?$_String_val@U?$_Simple_types@D@std@@@2@$00@std@@QAEAAU?$_Wrap_alloc@V?$allocator@D@std@@@2@XZ 100b8050 f i dll.obj
 0002:0002b090       ?_Get_first@?$_Compressed_pair@U?$_Wrap_alloc@V?$allocator@D@std@@@std@@V?$_String_val@U?$_Simple_types@D@std@@@2@$00@std@@QBEABU?$_Wrap_alloc@V?$allocator@D@std@@@2@XZ 100b8090 f i dll.obj
 0002:0002b0d0       ?_Get_first@?$_Compressed_pair@U?$_Wrap_alloc@V?$allocator@U?$_List_node@U?$pair@$$CBV?$basic_string@DU?$char_traits@D@std@@V?$allocator@D@2@@std@@G@std@@PAX@std@@@std@@@std@@V?$_List_val@U?$_List_simple_types@U?$pair@$$CBV?$basic_string@DU?$char_traits@D@std@@V?$allocator@D@2@@std@@G@std@@@std@@@2@$00@std@@QAEAAU?$_Wrap_alloc@V?$allocator@U?$_List_node@U?$pair@$$CBV?$basic_string@DU?$char_traits@D@std@@V?$allocator@D@2@@std@@G@std@@PAX@std@@@std@@@2@XZ 100b80d0 f i dll.obj
 0002:0002b110       ?_Get_first@?$_Compressed_pair@U?$_Wrap_alloc@V?$allocator@U?$_List_node@U?$pair@$$CBV?$basic_string@DU?$char_traits@D@std@@V?$allocator@D@2@@std@@G@std@@PAX@std@@@std@@@std@@V?$_List_val@U?$_List_simple_types@U?$pair@$$CBV?$basic_string@DU?$char_traits@D@std@@V?$allocator@D@2@@std@@G@std@@@std@@@2@$00@std@@QBEABU?$_Wrap_alloc@V?$allocator@U?$_List_node@U?$pair@$$CBV?$basic_string@DU?$char_traits@D@std@@V?$allocator@D@2@@std@@G@std@@PAX@std@@@std@@@2@XZ 100b8110 f i dll.obj
 0002:0002b150       ?_Get_first@?$_Compressed_pair@U?$_Wrap_alloc@V?$allocator@U?$_List_node@U?$pair@$$CBV?$basic_string@DU?$char_traits@D@std@@V?$allocator@D@2@@std@@VDEVICE@@@std@@PAX@std@@@std@@@std@@V?$_List_val@U?$_List_simple_types@U?$pair@$$CBV?$basic_string@DU?$char_traits@D@std@@V?$allocator@D@2@@std@@VDEVICE@@@std@@@std@@@2@$00@std@@QAEAAU?$_Wrap_alloc@V?$allocator@U?$_List_node@U?$pair@$$CBV?$basic_string@DU?$char_traits@D@std@@V?$allocator@D@2@@std@@VDEVICE@@@std@@PAX@std@@@std@@@2@XZ 100b8150 f i dll.obj
 0002:0002b190       ?_Get_first@?$_Compressed_pair@U?$_Wrap_alloc@V?$allocator@U?$_List_node@U?$pair@$$CBV?$basic_string@DU?$char_traits@D@std@@V?$allocator@D@2@@std@@VDEVICE@@@std@@PAX@std@@@std@@@std@@V?$_List_val@U?$_List_simple_types@U?$pair@$$CBV?$basic_string@DU?$char_traits@D@std@@V?$allocator@D@2@@std@@VDEVICE@@@std@@@std@@@2@$00@std@@QBEABU?$_Wrap_alloc@V?$allocator@U?$_List_node@U?$pair@$$CBV?$basic_string@DU?$char_traits@D@std@@V?$allocator@D@2@@std@@VDEVICE@@@std@@PAX@std@@@std@@@2@XZ 100b8190 f i dll.obj
 0002:0002b1d0       ?_Get_first@?$_Compressed_pair@U?$_Wrap_alloc@V?$allocator@UFORMULA2_PAIR@@@std@@@std@@V?$_Deque_val@U?$_Deque_simple_types@UFORMULA2_PAIR@@@std@@@2@$00@std@@QAEAAU?$_Wrap_alloc@V?$allocator@UFORMULA2_PAIR@@@std@@@2@XZ 100b81d0 f i dll.obj
 0002:0002b210       ?_Get_first@?$_Compressed_pair@U?$_Wrap_alloc@V?$allocator@UFORMULA2_PAIR@@@std@@@std@@V?$_Deque_val@U?$_Deque_simple_types@UFORMULA2_PAIR@@@std@@@2@$00@std@@QBEABU?$_Wrap_alloc@V?$allocator@UFORMULA2_PAIR@@@std@@@2@XZ 100b8210 f i dll.obj
 0002:0002b250       ?_Get_first@?$_Compressed_pair@U?$_Wrap_alloc@V?$allocator@UFORMULA_PAIR@@@std@@@std@@V?$_Deque_val@U?$_Deque_simple_types@UFORMULA_PAIR@@@std@@@2@$00@std@@QAEAAU?$_Wrap_alloc@V?$allocator@UFORMULA_PAIR@@@std@@@2@XZ 100b8250 f i dll.obj
 0002:0002b290       ?_Get_first@?$_Compressed_pair@U?$_Wrap_alloc@V?$allocator@UFORMULA_PAIR@@@std@@@std@@V?$_Deque_val@U?$_Deque_simple_types@UFORMULA_PAIR@@@std@@@2@$00@std@@QBEABU?$_Wrap_alloc@V?$allocator@UFORMULA_PAIR@@@std@@@2@XZ 100b8290 f i dll.obj
 0002:0002b2d0       ?_Get_first@?$_Compressed_pair@U?$equal_to@V?$basic_string@DU?$char_traits@D@std@@V?$allocator@D@2@@std@@@std@@M$00@std@@QBEABU?$equal_to@V?$basic_string@DU?$char_traits@D@std@@V?$allocator@D@2@@std@@@2@XZ 100b82d0 f i dll.obj
 0002:0002b310       ?_Get_first@?$_Compressed_pair@U?$hash@V?$basic_string@DU?$char_traits@D@std@@V?$allocator@D@2@@std@@@std@@V?$_Compressed_pair@U?$equal_to@V?$basic_string@DU?$char_traits@D@std@@V?$allocator@D@2@@std@@@std@@M$00@2@$00@std@@QBEABU?$hash@V?$basic_string@DU?$char_traits@D@std@@V?$allocator@D@2@@std@@@2@XZ 100b8310 f i dll.obj
 0002:0002b350       ?_Get_max_bucket_size@?$_Uhash_compare@V?$basic_string@DU?$char_traits@D@std@@V?$allocator@D@2@@std@@U?$hash@V?$basic_string@DU?$char_traits@D@std@@V?$allocator@D@2@@std@@@2@U?$equal_to@V?$basic_string@DU?$char_traits@D@std@@V?$allocator@D@2@@std@@@2@@std@@QBEABMXZ 100b8350 f i dll.obj
 0002:0002b3b0       ?_Get_second@?$_Compressed_pair@U?$_Wrap_alloc@U?$_Wrap_alloc@V?$allocator@V?$_List_unchecked_iterator@V?$_List_val@U?$_List_simple_types@U?$pair@$$CBV?$basic_string@DU?$char_traits@D@std@@V?$allocator@D@2@@std@@G@std@@@std@@@std@@@std@@@std@@@std@@@std@@V?$_Vector_val@U?$_Simple_types@V?$_List_unchecked_iterator@V?$_List_val@U?$_List_simple_types@U?$pair@$$CBV?$basic_string@DU?$char_traits@D@std@@V?$allocator@D@2@@std@@G@std@@@std@@@std@@@std@@@std@@@2@$00@std@@QAEAAV?$_Vector_val@U?$_Simple_types@V?$_List_unchecked_iterator@V?$_List_val@U?$_List_simple_types@U?$pair@$$CBV?$basic_string@DU?$char_traits@D@std@@V?$allocator@D@2@@std@@G@std@@@std@@@std@@@std@@@std@@@2@XZ 100b83b0 f i dll.obj
 0002:0002b3f0       ?_Get_second@?$_Compressed_pair@U?$_Wrap_alloc@U?$_Wrap_alloc@V?$allocator@V?$_List_unchecked_iterator@V?$_List_val@U?$_List_simple_types@U?$pair@$$CBV?$basic_string@DU?$char_traits@D@std@@V?$allocator@D@2@@std@@G@std@@@std@@@std@@@std@@@std@@@std@@@std@@V?$_Vector_val@U?$_Simple_types@V?$_List_unchecked_iterator@V?$_List_val@U?$_List_simple_types@U?$pair@$$CBV?$basic_string@DU?$char_traits@D@std@@V?$allocator@D@2@@std@@G@std@@@std@@@std@@@std@@@std@@@2@$00@std@@QBEABV?$_Vector_val@U?$_Simple_types@V?$_List_unchecked_iterator@V?$_List_val@U?$_List_simple_types@U?$pair@$$CBV?$basic_string@DU?$char_traits@D@std@@V?$allocator@D@2@@std@@G@std@@@std@@@std@@@std@@@std@@@2@XZ 100b83f0 f i dll.obj
 0002:0002b430       ?_Get_second@?$_Compressed_pair@U?$_Wrap_alloc@U?$_Wrap_alloc@V?$allocator@V?$_List_unchecked_iterator@V?$_List_val@U?$_List_simple_types@U?$pair@$$CBV?$basic_string@DU?$char_traits@D@std@@V?$allocator@D@2@@std@@VDEVICE@@@std@@@std@@@std@@@std@@@std@@@std@@@std@@V?$_Vector_val@U?$_Simple_types@V?$_List_unchecked_iterator@V?$_List_val@U?$_List_simple_types@U?$pair@$$CBV?$basic_string@DU?$char_traits@D@std@@V?$allocator@D@2@@std@@VDEVICE@@@std@@@std@@@std@@@std@@@std@@@2@$00@std@@QAEAAV?$_Vector_val@U?$_Simple_types@V?$_List_unchecked_iterator@V?$_List_val@U?$_List_simple_types@U?$pair@$$CBV?$basic_string@DU?$char_traits@D@std@@V?$allocator@D@2@@std@@VDEVICE@@@std@@@std@@@std@@@std@@@std@@@2@XZ 100b8430 f i dll.obj
 0002:0002b470       ?_Get_second@?$_Compressed_pair@U?$_Wrap_alloc@U?$_Wrap_alloc@V?$allocator@V?$_List_unchecked_iterator@V?$_List_val@U?$_List_simple_types@U?$pair@$$CBV?$basic_string@DU?$char_traits@D@std@@V?$allocator@D@2@@std@@VDEVICE@@@std@@@std@@@std@@@std@@@std@@@std@@@std@@V?$_Vector_val@U?$_Simple_types@V?$_List_unchecked_iterator@V?$_List_val@U?$_List_simple_types@U?$pair@$$CBV?$basic_string@DU?$char_traits@D@std@@V?$allocator@D@2@@std@@VDEVICE@@@std@@@std@@@std@@@std@@@std@@@2@$00@std@@QBEABV?$_Vector_val@U?$_Simple_types@V?$_List_unchecked_iterator@V?$_List_val@U?$_List_simple_types@U?$pair@$$CBV?$basic_string@DU?$char_traits@D@std@@V?$allocator@D@2@@std@@VDEVICE@@@std@@@std@@@std@@@std@@@std@@@2@XZ 100b8470 f i dll.obj
 0002:0002b4b0       ?_Get_second@?$_Compressed_pair@U?$_Wrap_alloc@V?$allocator@D@std@@@std@@V?$_String_val@U?$_Simple_types@D@std@@@2@$00@std@@QAEAAV?$_String_val@U?$_Simple_types@D@std@@@2@XZ 100b84b0 f i dll.obj
 0002:0002b4f0       ?_Get_second@?$_Compressed_pair@U?$_Wrap_alloc@V?$allocator@D@std@@@std@@V?$_String_val@U?$_Simple_types@D@std@@@2@$00@std@@QBEABV?$_String_val@U?$_Simple_types@D@std@@@2@XZ 100b84f0 f i dll.obj
 0002:0002b530       ?_Get_second@?$_Compressed_pair@U?$_Wrap_alloc@V?$allocator@U?$_List_node@U?$pair@$$CBV?$basic_string@DU?$char_traits@D@std@@V?$allocator@D@2@@std@@G@std@@PAX@std@@@std@@@std@@V?$_List_val@U?$_List_simple_types@U?$pair@$$CBV?$basic_string@DU?$char_traits@D@std@@V?$allocator@D@2@@std@@G@std@@@std@@@2@$00@std@@QAEAAV?$_List_val@U?$_List_simple_types@U?$pair@$$CBV?$basic_string@DU?$char_traits@D@std@@V?$allocator@D@2@@std@@G@std@@@std@@@2@XZ 100b8530 f i dll.obj
 0002:0002b570       ?_Get_second@?$_Compressed_pair@U?$_Wrap_alloc@V?$allocator@U?$_List_node@U?$pair@$$CBV?$basic_string@DU?$char_traits@D@std@@V?$allocator@D@2@@std@@G@std@@PAX@std@@@std@@@std@@V?$_List_val@U?$_List_simple_types@U?$pair@$$CBV?$basic_string@DU?$char_traits@D@std@@V?$allocator@D@2@@std@@G@std@@@std@@@2@$00@std@@QBEABV?$_List_val@U?$_List_simple_types@U?$pair@$$CBV?$basic_string@DU?$char_traits@D@std@@V?$allocator@D@2@@std@@G@std@@@std@@@2@XZ 100b8570 f i dll.obj
 0002:0002b5b0       ?_Get_second@?$_Compressed_pair@U?$_Wrap_alloc@V?$allocator@U?$_List_node@U?$pair@$$CBV?$basic_string@DU?$char_traits@D@std@@V?$allocator@D@2@@std@@VDEVICE@@@std@@PAX@std@@@std@@@std@@V?$_List_val@U?$_List_simple_types@U?$pair@$$CBV?$basic_string@DU?$char_traits@D@std@@V?$allocator@D@2@@std@@VDEVICE@@@std@@@std@@@2@$00@std@@QAEAAV?$_List_val@U?$_List_simple_types@U?$pair@$$CBV?$basic_string@DU?$char_traits@D@std@@V?$allocator@D@2@@std@@VDEVICE@@@std@@@std@@@2@XZ 100b85b0 f i dll.obj
 0002:0002b5f0       ?_Get_second@?$_Compressed_pair@U?$_Wrap_alloc@V?$allocator@U?$_List_node@U?$pair@$$CBV?$basic_string@DU?$char_traits@D@std@@V?$allocator@D@2@@std@@VDEVICE@@@std@@PAX@std@@@std@@@std@@V?$_List_val@U?$_List_simple_types@U?$pair@$$CBV?$basic_string@DU?$char_traits@D@std@@V?$allocator@D@2@@std@@VDEVICE@@@std@@@std@@@2@$00@std@@QBEABV?$_List_val@U?$_List_simple_types@U?$pair@$$CBV?$basic_string@DU?$char_traits@D@std@@V?$allocator@D@2@@std@@VDEVICE@@@std@@@std@@@2@XZ 100b85f0 f i dll.obj
 0002:0002b630       ?_Get_second@?$_Compressed_pair@U?$_Wrap_alloc@V?$allocator@UFORMULA2_PAIR@@@std@@@std@@V?$_Deque_val@U?$_Deque_simple_types@UFORMULA2_PAIR@@@std@@@2@$00@std@@QAEAAV?$_Deque_val@U?$_Deque_simple_types@UFORMULA2_PAIR@@@std@@@2@XZ 100b8630 f i dll.obj
 0002:0002b670       ?_Get_second@?$_Compressed_pair@U?$_Wrap_alloc@V?$allocator@UFORMULA2_PAIR@@@std@@@std@@V?$_Deque_val@U?$_Deque_simple_types@UFORMULA2_PAIR@@@std@@@2@$00@std@@QBEABV?$_Deque_val@U?$_Deque_simple_types@UFORMULA2_PAIR@@@std@@@2@XZ 100b8670 f i dll.obj
 0002:0002b6b0       ?_Get_second@?$_Compressed_pair@U?$_Wrap_alloc@V?$allocator@UFORMULA_PAIR@@@std@@@std@@V?$_Deque_val@U?$_Deque_simple_types@UFORMULA_PAIR@@@std@@@2@$00@std@@QAEAAV?$_Deque_val@U?$_Deque_simple_types@UFORMULA_PAIR@@@std@@@2@XZ 100b86b0 f i dll.obj
 0002:0002b6f0       ?_Get_second@?$_Compressed_pair@U?$_Wrap_alloc@V?$allocator@UFORMULA_PAIR@@@std@@@std@@V?$_Deque_val@U?$_Deque_simple_types@UFORMULA_PAIR@@@std@@@2@$00@std@@QBEABV?$_Deque_val@U?$_Deque_simple_types@UFORMULA_PAIR@@@std@@@2@XZ 100b86f0 f i dll.obj
 0002:0002b730       ?_Get_second@?$_Compressed_pair@U?$_Wrap_alloc@V?$allocator@V?$basic_string@DU?$char_traits@D@std@@V?$allocator@D@2@@std@@@std@@@std@@V?$_Vector_val@U?$_Simple_types@V?$basic_string@DU?$char_traits@D@std@@V?$allocator@D@2@@std@@@std@@@2@$00@std@@QAEAAV?$_Vector_val@U?$_Simple_types@V?$basic_string@DU?$char_traits@D@std@@V?$allocator@D@2@@std@@@std@@@2@XZ 100b8730 f i dll.obj
 0002:0002b770       ?_Get_second@?$_Compressed_pair@U?$_Wrap_alloc@V?$allocator@V?$basic_string@DU?$char_traits@D@std@@V?$allocator@D@2@@std@@@std@@@std@@V?$_Vector_val@U?$_Simple_types@V?$basic_string@DU?$char_traits@D@std@@V?$allocator@D@2@@std@@@std@@@2@$00@std@@QBEABV?$_Vector_val@U?$_Simple_types@V?$basic_string@DU?$char_traits@D@std@@V?$allocator@D@2@@std@@@std@@@2@XZ 100b8770 f i dll.obj
 0002:0002b7b0       ?_Get_second@?$_Compressed_pair@U?$equal_to@V?$basic_string@DU?$char_traits@D@std@@V?$allocator@D@2@@std@@@std@@M$00@std@@QBEABMXZ 100b87b0 f i dll.obj
 0002:0002b7f0       ?_Get_second@?$_Compressed_pair@U?$hash@V?$basic_string@DU?$char_traits@D@std@@V?$allocator@D@2@@std@@@std@@V?$_Compressed_pair@U?$equal_to@V?$basic_string@DU?$char_traits@D@std@@V?$allocator@D@2@@std@@@std@@M$00@2@$00@std@@QBEABV?$_Compressed_pair@U?$equal_to@V?$basic_string@DU?$char_traits@D@std@@V?$allocator@D@2@@std@@@std@@M$00@2@XZ 100b87f0 f i dll.obj
 0002:0002b830       ?_Getal@?$_Deque_alloc@U?$_Deque_base_types@UFORMULA2_PAIR@@V?$allocator@UFORMULA2_PAIR@@@std@@@std@@@std@@QAEAAU?$_Wrap_alloc@V?$allocator@UFORMULA2_PAIR@@@std@@@2@XZ 100b8830 f i dll.obj
 0002:0002b880       ?_Getal@?$_Deque_alloc@U?$_Deque_base_types@UFORMULA2_PAIR@@V?$allocator@UFORMULA2_PAIR@@@std@@@std@@@std@@QBEABU?$_Wrap_alloc@V?$allocator@UFORMULA2_PAIR@@@std@@@2@XZ 100b8880 f i dll.obj
 0002:0002b8d0       ?_Getal@?$_Deque_alloc@U?$_Deque_base_types@UFORMULA_PAIR@@V?$allocator@UFORMULA_PAIR@@@std@@@std@@@std@@QAEAAU?$_Wrap_alloc@V?$allocator@UFORMULA_PAIR@@@std@@@2@XZ 100b88d0 f i dll.obj
 0002:0002b920       ?_Getal@?$_Deque_alloc@U?$_Deque_base_types@UFORMULA_PAIR@@V?$allocator@UFORMULA_PAIR@@@std@@@std@@@std@@QBEABU?$_Wrap_alloc@V?$allocator@UFORMULA_PAIR@@@std@@@2@XZ 100b8920 f i dll.obj
 0002:0002b970       ?_Getal@?$_List_alloc@U?$_List_base_types@U?$pair@$$CBV?$basic_string@DU?$char_traits@D@std@@V?$allocator@D@2@@std@@G@std@@V?$allocator@U?$pair@$$CBV?$basic_string@DU?$char_traits@D@std@@V?$allocator@D@2@@std@@G@std@@@2@@std@@@std@@QAEAAU?$_Wrap_alloc@V?$allocator@U?$_List_node@U?$pair@$$CBV?$basic_string@DU?$char_traits@D@std@@V?$allocator@D@2@@std@@G@std@@PAX@std@@@std@@@2@XZ 100b8970 f i dll.obj
 0002:0002b9c0       ?_Getal@?$_List_alloc@U?$_List_base_types@U?$pair@$$CBV?$basic_string@DU?$char_traits@D@std@@V?$allocator@D@2@@std@@G@std@@V?$allocator@U?$pair@$$CBV?$basic_string@DU?$char_traits@D@std@@V?$allocator@D@2@@std@@G@std@@@2@@std@@@std@@QBEABU?$_Wrap_alloc@V?$allocator@U?$_List_node@U?$pair@$$CBV?$basic_string@DU?$char_traits@D@std@@V?$allocator@D@2@@std@@G@std@@PAX@std@@@std@@@2@XZ 100b89c0 f i dll.obj
 0002:0002ba10       ?_Getal@?$_List_alloc@U?$_List_base_types@U?$pair@$$CBV?$basic_string@DU?$char_traits@D@std@@V?$allocator@D@2@@std@@VDEVICE@@@std@@V?$allocator@U?$pair@$$CBV?$basic_string@DU?$char_traits@D@std@@V?$allocator@D@2@@std@@VDEVICE@@@std@@@2@@std@@@std@@QAEAAU?$_Wrap_alloc@V?$allocator@U?$_List_node@U?$pair@$$CBV?$basic_string@DU?$char_traits@D@std@@V?$allocator@D@2@@std@@VDEVICE@@@std@@PAX@std@@@std@@@2@XZ 100b8a10 f i dll.obj
 0002:0002ba60       ?_Getal@?$_List_alloc@U?$_List_base_types@U?$pair@$$CBV?$basic_string@DU?$char_traits@D@std@@V?$allocator@D@2@@std@@VDEVICE@@@std@@V?$allocator@U?$pair@$$CBV?$basic_string@DU?$char_traits@D@std@@V?$allocator@D@2@@std@@VDEVICE@@@std@@@2@@std@@@std@@QBEABU?$_Wrap_alloc@V?$allocator@U?$_List_node@U?$pair@$$CBV?$basic_string@DU?$char_traits@D@std@@V?$allocator@D@2@@std@@VDEVICE@@@std@@PAX@std@@@std@@@2@XZ 100b8a60 f i dll.obj
 0002:0002bab0       ?_Getal@?$_String_alloc@U?$_String_base_types@DV?$allocator@D@std@@@std@@@std@@QAEAAU?$_Wrap_alloc@V?$allocator@D@std@@@2@XZ 100b8ab0 f i dll.obj
 0002:0002bb00       ?_Getal@?$_String_alloc@U?$_String_base_types@DV?$allocator@D@std@@@std@@@std@@QBEABU?$_Wrap_alloc@V?$allocator@D@std@@@2@XZ 100b8b00 f i dll.obj
 0002:0002bb50       ?_Getal@?$_Vector_alloc@U?$_Vec_base_types@V?$_List_unchecked_iterator@V?$_List_val@U?$_List_simple_types@U?$pair@$$CBV?$basic_string@DU?$char_traits@D@std@@V?$allocator@D@2@@std@@G@std@@@std@@@std@@@std@@U?$_Wrap_alloc@V?$allocator@V?$_List_unchecked_iterator@V?$_List_val@U?$_List_simple_types@U?$pair@$$CBV?$basic_string@DU?$char_traits@D@std@@V?$allocator@D@2@@std@@G@std@@@std@@@std@@@std@@@std@@@2@@std@@@std@@QAEAAU?$_Wrap_alloc@U?$_Wrap_alloc@V?$allocator@V?$_List_unchecked_iterator@V?$_List_val@U?$_List_simple_types@U?$pair@$$CBV?$basic_string@DU?$char_traits@D@std@@V?$allocator@D@2@@std@@G@std@@@std@@@std@@@std@@@std@@@std@@@2@XZ 100b8b50 f i dll.obj
 0002:0002bba0       ?_Getal@?$_Vector_alloc@U?$_Vec_base_types@V?$_List_unchecked_iterator@V?$_List_val@U?$_List_simple_types@U?$pair@$$CBV?$basic_string@DU?$char_traits@D@std@@V?$allocator@D@2@@std@@G@std@@@std@@@std@@@std@@U?$_Wrap_alloc@V?$allocator@V?$_List_unchecked_iterator@V?$_List_val@U?$_List_simple_types@U?$pair@$$CBV?$basic_string@DU?$char_traits@D@std@@V?$allocator@D@2@@std@@G@std@@@std@@@std@@@std@@@std@@@2@@std@@@std@@QBEABU?$_Wrap_alloc@U?$_Wrap_alloc@V?$allocator@V?$_List_unchecked_iterator@V?$_List_val@U?$_List_simple_types@U?$pair@$$CBV?$basic_string@DU?$char_traits@D@std@@V?$allocator@D@2@@std@@G@std@@@std@@@std@@@std@@@std@@@std@@@2@XZ 100b8ba0 f i dll.obj
 0002:0002bbf0       ?_Getal@?$_Vector_alloc@U?$_Vec_base_types@V?$_List_unchecked_iterator@V?$_List_val@U?$_List_simple_types@U?$pair@$$CBV?$basic_string@DU?$char_traits@D@std@@V?$allocator@D@2@@std@@VDEVICE@@@std@@@std@@@std@@@std@@U?$_Wrap_alloc@V?$allocator@V?$_List_unchecked_iterator@V?$_List_val@U?$_List_simple_types@U?$pair@$$CBV?$basic_string@DU?$char_traits@D@std@@V?$allocator@D@2@@std@@VDEVICE@@@std@@@std@@@std@@@std@@@std@@@2@@std@@@std@@QAEAAU?$_Wrap_alloc@U?$_Wrap_alloc@V?$allocator@V?$_List_unchecked_iterator@V?$_List_val@U?$_List_simple_types@U?$pair@$$CBV?$basic_string@DU?$char_traits@D@std@@V?$allocator@D@2@@std@@VDEVICE@@@std@@@std@@@std@@@std@@@std@@@std@@@2@XZ 100b8bf0 f i dll.obj
 0002:0002bc40       ?_Getal@?$_Vector_alloc@U?$_Vec_base_types@V?$_List_unchecked_iterator@V?$_List_val@U?$_List_simple_types@U?$pair@$$CBV?$basic_string@DU?$char_traits@D@std@@V?$allocator@D@2@@std@@VDEVICE@@@std@@@std@@@std@@@std@@U?$_Wrap_alloc@V?$allocator@V?$_List_unchecked_iterator@V?$_List_val@U?$_List_simple_types@U?$pair@$$CBV?$basic_string@DU?$char_traits@D@std@@V?$allocator@D@2@@std@@VDEVICE@@@std@@@std@@@std@@@std@@@std@@@2@@std@@@std@@QBEABU?$_Wrap_alloc@U?$_Wrap_alloc@V?$allocator@V?$_List_unchecked_iterator@V?$_List_val@U?$_List_simple_types@U?$pair@$$CBV?$basic_string@DU?$char_traits@D@std@@V?$allocator@D@2@@std@@VDEVICE@@@std@@@std@@@std@@@std@@@std@@@std@@@2@XZ 100b8c40 f i dll.obj
 0002:0002bc90       ?_Getblock@?$_Deque_alloc@U?$_Deque_base_types@UFORMULA2_PAIR@@V?$allocator@UFORMULA2_PAIR@@@std@@@std@@@std@@QBEII@Z 100b8c90 f i dll.obj
 0002:0002bcf0       ?_Getblock@?$_Deque_alloc@U?$_Deque_base_types@UFORMULA_PAIR@@V?$allocator@UFORMULA_PAIR@@@std@@@std@@@std@@QBEII@Z 100b8cf0 f i dll.obj
 0002:0002bd50       ?_Getblock@?$_Deque_val@U?$_Deque_simple_types@UFORMULA2_PAIR@@@std@@@std@@QBEII@Z 100b8d50 f i dll.obj
 0002:0002bda0       ?_Getblock@?$_Deque_val@U?$_Deque_simple_types@UFORMULA_PAIR@@@std@@@std@@QBEII@Z 100b8da0 f i dll.obj
 0002:0002bdf0       ?_Getcont@_Iterator_base12@std@@QBEPBU_Container_base12@2@XZ 100b8df0 f i dll.obj
 0002:0002be60       ?_Gethash@?$_Uhash_compare@V?$basic_string@DU?$char_traits@D@std@@V?$allocator@D@2@@std@@U?$hash@V?$basic_string@DU?$char_traits@D@std@@V?$allocator@D@2@@std@@@2@U?$equal_to@V?$basic_string@DU?$char_traits@D@std@@V?$allocator@D@2@@std@@@2@@std@@QBEABU?$hash@V?$basic_string@DU?$char_traits@D@std@@V?$allocator@D@2@@std@@@2@XZ 100b8e60 f i dll.obj
 0002:0002beb0       ?_Getkeyeq@?$_Uhash_compare@V?$basic_string@DU?$char_traits@D@std@@V?$allocator@D@2@@std@@U?$hash@V?$basic_string@DU?$char_traits@D@std@@V?$allocator@D@2@@std@@@2@U?$equal_to@V?$basic_string@DU?$char_traits@D@std@@V?$allocator@D@2@@std@@@2@@std@@QBEABU?$equal_to@V?$basic_string@DU?$char_traits@D@std@@V?$allocator@D@2@@std@@@2@XZ 100b8eb0 f i dll.obj
 0002:0002bf10       ?_Getpfirst@?$_Deque_alloc@U?$_Deque_base_types@UFORMULA2_PAIR@@V?$allocator@UFORMULA2_PAIR@@@std@@@std@@@std@@QBEPAPAU_Iterator_base12@2@XZ 100b8f10 f i dll.obj
 0002:0002bf70       ?_Getpfirst@?$_Deque_alloc@U?$_Deque_base_types@UFORMULA_PAIR@@V?$allocator@UFORMULA_PAIR@@@std@@@std@@@std@@QBEPAPAU_Iterator_base12@2@XZ 100b8f70 f i dll.obj
 0002:0002bfd0       ?_Getpfirst@?$_List_alloc@U?$_List_base_types@U?$pair@$$CBV?$basic_string@DU?$char_traits@D@std@@V?$allocator@D@2@@std@@G@std@@V?$allocator@U?$pair@$$CBV?$basic_string@DU?$char_traits@D@std@@V?$allocator@D@2@@std@@G@std@@@2@@std@@@std@@QBEPAPAU_Iterator_base12@2@XZ 100b8fd0 f i dll.obj
 0002:0002c030       ?_Getpfirst@?$_List_alloc@U?$_List_base_types@U?$pair@$$CBV?$basic_string@DU?$char_traits@D@std@@V?$allocator@D@2@@std@@VDEVICE@@@std@@V?$allocator@U?$pair@$$CBV?$basic_string@DU?$char_traits@D@std@@V?$allocator@D@2@@std@@VDEVICE@@@std@@@2@@std@@@std@@QBEPAPAU_Iterator_base12@2@XZ 100b9030 f i dll.obj
 0002:0002c090       ?_Getpfirst@?$_Vector_alloc@U?$_Vec_base_types@V?$_List_unchecked_iterator@V?$_List_val@U?$_List_simple_types@U?$pair@$$CBV?$basic_string@DU?$char_traits@D@std@@V?$allocator@D@2@@std@@G@std@@@std@@@std@@@std@@U?$_Wrap_alloc@V?$allocator@V?$_List_unchecked_iterator@V?$_List_val@U?$_List_simple_types@U?$pair@$$CBV?$basic_string@DU?$char_traits@D@std@@V?$allocator@D@2@@std@@G@std@@@std@@@std@@@std@@@std@@@2@@std@@@std@@QBEPAPAU_Iterator_base12@2@XZ 100b9090 f i dll.obj
 0002:0002c0f0       ?_Getpfirst@?$_Vector_alloc@U?$_Vec_base_types@V?$_List_unchecked_iterator@V?$_List_val@U?$_List_simple_types@U?$pair@$$CBV?$basic_string@DU?$char_traits@D@std@@V?$allocator@D@2@@std@@VDEVICE@@@std@@@std@@@std@@@std@@U?$_Wrap_alloc@V?$allocator@V?$_List_unchecked_iterator@V?$_List_val@U?$_List_simple_types@U?$pair@$$CBV?$basic_string@DU?$char_traits@D@std@@V?$allocator@D@2@@std@@VDEVICE@@@std@@@std@@@std@@@std@@@std@@@2@@std@@@std@@QBEPAPAU_Iterator_base12@2@XZ 100b90f0 f i dll.obj
 0002:0002c150       ?_Getpfirst@_Container_base12@std@@QBEPAPAU_Iterator_base12@2@XZ 100b9150 f i dll.obj
 0002:0002c1c0       ?_Getpnext@_Iterator_base12@std@@QAEPAPAU12@XZ 100b91c0 f i dll.obj
 0002:0002c200       ?_Grow@?$basic_string@DU?$char_traits@D@std@@V?$allocator@D@2@@std@@QAE_NI_N@Z 100b9200 f i dll.obj
 0002:0002c330       ?_Grow_to@?$vector@V?$_List_unchecked_iterator@V?$_List_val@U?$_List_simple_types@U?$pair@$$CBV?$basic_string@DU?$char_traits@D@std@@V?$allocator@D@2@@std@@G@std@@@std@@@std@@@std@@U?$_Wrap_alloc@V?$allocator@V?$_List_unchecked_iterator@V?$_List_val@U?$_List_simple_types@U?$pair@$$CBV?$basic_string@DU?$char_traits@D@std@@V?$allocator@D@2@@std@@G@std@@@std@@@std@@@std@@@std@@@2@@std@@IBEII@Z 100b9330 f i dll.obj
 0002:0002c3e0       ?_Grow_to@?$vector@V?$_List_unchecked_iterator@V?$_List_val@U?$_List_simple_types@U?$pair@$$CBV?$basic_string@DU?$char_traits@D@std@@V?$allocator@D@2@@std@@VDEVICE@@@std@@@std@@@std@@@std@@U?$_Wrap_alloc@V?$allocator@V?$_List_unchecked_iterator@V?$_List_val@U?$_List_simple_types@U?$pair@$$CBV?$basic_string@DU?$char_traits@D@std@@V?$allocator@D@2@@std@@VDEVICE@@@std@@@std@@@std@@@std@@@std@@@2@@std@@IBEII@Z 100b93e0 f i dll.obj
 0002:0002c490       ?_Growmap@?$deque@UFORMULA2_PAIR@@V?$allocator@UFORMULA2_PAIR@@@std@@@std@@IAEXI@Z 100b9490 f i dll.obj
 0002:0002c820       ?_Growmap@?$deque@UFORMULA_PAIR@@V?$allocator@UFORMULA_PAIR@@@std@@@std@@IAEXI@Z 100b9820 f i dll.obj
 0002:0002cbb0       ?_Hash_seq@std@@YAIPBEI@Z  100b9bb0 f i dll.obj
 0002:0002cc40       ?_Hashval@?$_Hash@V?$_Umap_traits@V?$basic_string@DU?$char_traits@D@std@@V?$allocator@D@2@@std@@GV?$_Uhash_compare@V?$basic_string@DU?$char_traits@D@std@@V?$allocator@D@2@@std@@U?$hash@V?$basic_string@DU?$char_traits@D@std@@V?$allocator@D@2@@std@@@2@U?$equal_to@V?$basic_string@DU?$char_traits@D@std@@V?$allocator@D@2@@std@@@2@@2@V?$allocator@U?$pair@$$CBV?$basic_string@DU?$char_traits@D@std@@V?$allocator@D@2@@std@@G@std@@@2@$0A@@std@@@std@@IBEIABV?$basic_string@DU?$char_traits@D@std@@V?$allocator@D@2@@2@@Z 100b9c40 f i dll.obj
 0002:0002cca0       ?_Hashval@?$_Hash@V?$_Umap_traits@V?$basic_string@DU?$char_traits@D@std@@V?$allocator@D@2@@std@@VDEVICE@@V?$_Uhash_compare@V?$basic_string@DU?$char_traits@D@std@@V?$allocator@D@2@@std@@U?$hash@V?$basic_string@DU?$char_traits@D@std@@V?$allocator@D@2@@std@@@2@U?$equal_to@V?$basic_string@DU?$char_traits@D@std@@V?$allocator@D@2@@std@@@2@@2@V?$allocator@U?$pair@$$CBV?$basic_string@DU?$char_traits@D@std@@V?$allocator@D@2@@std@@VDEVICE@@@std@@@2@$0A@@std@@@std@@IBEIABV?$basic_string@DU?$char_traits@D@std@@V?$allocator@D@2@@2@@Z 100b9ca0 f i dll.obj
 0002:0002cd00       ?_Incsize@?$list@U?$pair@$$CBV?$basic_string@DU?$char_traits@D@std@@V?$allocator@D@2@@std@@G@std@@V?$allocator@U?$pair@$$CBV?$basic_string@DU?$char_traits@D@std@@V?$allocator@D@2@@std@@G@std@@@2@@std@@QAEXI@Z 100b9d00 f i dll.obj
 0002:0002cdb0       ?_Incsize@?$list@U?$pair@$$CBV?$basic_string@DU?$char_traits@D@std@@V?$allocator@D@2@@std@@VDEVICE@@@std@@V?$allocator@U?$pair@$$CBV?$basic_string@DU?$char_traits@D@std@@V?$allocator@D@2@@std@@VDEVICE@@@std@@@2@@std@@QAEXI@Z 100b9db0 f i dll.obj
 0002:0002ce60       ?_Init@?$_Hash@V?$_Umap_traits@V?$basic_string@DU?$char_traits@D@std@@V?$allocator@D@2@@std@@GV?$_Uhash_compare@V?$basic_string@DU?$char_traits@D@std@@V?$allocator@D@2@@std@@U?$hash@V?$basic_string@DU?$char_traits@D@std@@V?$allocator@D@2@@std@@@2@U?$equal_to@V?$basic_string@DU?$char_traits@D@std@@V?$allocator@D@2@@std@@@2@@2@V?$allocator@U?$pair@$$CBV?$basic_string@DU?$char_traits@D@std@@V?$allocator@D@2@@std@@G@std@@@2@$0A@@std@@@std@@IAEXI@Z 100b9e60 f i dll.obj
 0002:0002cf00       ?_Init@?$_Hash@V?$_Umap_traits@V?$basic_string@DU?$char_traits@D@std@@V?$allocator@D@2@@std@@VDEVICE@@V?$_Uhash_compare@V?$basic_string@DU?$char_traits@D@std@@V?$allocator@D@2@@std@@U?$hash@V?$basic_string@DU?$char_traits@D@std@@V?$allocator@D@2@@std@@@2@U?$equal_to@V?$basic_string@DU?$char_traits@D@std@@V?$allocator@D@2@@std@@@2@@2@V?$allocator@U?$pair@$$CBV?$basic_string@DU?$char_traits@D@std@@V?$allocator@D@2@@std@@VDEVICE@@@std@@@2@$0A@@std@@@std@@IAEXI@Z 100b9f00 f i dll.obj
 0002:0002cfa0       ?_Insert_bucket@?$_Hash@V?$_Umap_traits@V?$basic_string@DU?$char_traits@D@std@@V?$allocator@D@2@@std@@GV?$_Uhash_compare@V?$basic_string@DU?$char_traits@D@std@@V?$allocator@D@2@@std@@U?$hash@V?$basic_string@DU?$char_traits@D@std@@V?$allocator@D@2@@std@@@2@U?$equal_to@V?$basic_string@DU?$char_traits@D@std@@V?$allocator@D@2@@std@@@2@@2@V?$allocator@U?$pair@$$CBV?$basic_string@DU?$char_traits@D@std@@V?$allocator@D@2@@std@@G@std@@@2@$0A@@std@@@std@@IAEXV?$_List_unchecked_iterator@V?$_List_val@U?$_List_simple_types@U?$pair@$$CBV?$basic_string@DU?$char_traits@D@std@@V?$allocator@D@2@@std@@G@std@@@std@@@std@@@2@0I@Z 100b9fa0 f i dll.obj
 0002:0002d0d0       ?_Insert_bucket@?$_Hash@V?$_Umap_traits@V?$basic_string@DU?$char_traits@D@std@@V?$allocator@D@2@@std@@VDEVICE@@V?$_Uhash_compare@V?$basic_string@DU?$char_traits@D@std@@V?$allocator@D@2@@std@@U?$hash@V?$basic_string@DU?$char_traits@D@std@@V?$allocator@D@2@@std@@@2@U?$equal_to@V?$basic_string@DU?$char_traits@D@std@@V?$allocator@D@2@@std@@@2@@2@V?$allocator@U?$pair@$$CBV?$basic_string@DU?$char_traits@D@std@@V?$allocator@D@2@@std@@VDEVICE@@@std@@@2@$0A@@std@@@std@@IAEXV?$_List_unchecked_iterator@V?$_List_val@U?$_List_simple_types@U?$pair@$$CBV?$basic_string@DU?$char_traits@D@std@@V?$allocator@D@2@@std@@VDEVICE@@@std@@@std@@@std@@@2@0I@Z 100ba0d0 f i dll.obj
 0002:0002d200       ?_Insert_n@?$vector@V?$_List_unchecked_iterator@V?$_List_val@U?$_List_simple_types@U?$pair@$$CBV?$basic_string@DU?$char_traits@D@std@@V?$allocator@D@2@@std@@G@std@@@std@@@std@@@std@@U?$_Wrap_alloc@V?$allocator@V?$_List_unchecked_iterator@V?$_List_val@U?$_List_simple_types@U?$pair@$$CBV?$basic_string@DU?$char_traits@D@std@@V?$allocator@D@2@@std@@G@std@@@std@@@std@@@std@@@std@@@2@@std@@IAE?AV?$_Vector_iterator@V?$_Vector_val@U?$_Simple_types@V?$_List_unchecked_iterator@V?$_List_val@U?$_List_simple_types@U?$pair@$$CBV?$basic_string@DU?$char_traits@D@std@@V?$allocator@D@2@@std@@G@std@@@std@@@std@@@std@@@std@@@std@@@2@V?$_Vector_const_iterator@V?$_Vector_val@U?$_Simple_types@V?$_List_unchecked_iterator@V?$_List_val@U?$_List_simple_types@U?$pair@$$CBV?$basic_string@DU?$char_traits@D@std@@V?$allocator@D@2@@std@@G@std@@@std@@@std@@@std@@@std@@@std@@@2@IABV?$_List_unchecked_iterator@V?$_List_val@U?$_List_simple_types@U?$pair@$$CBV?$basic_string@DU?$char_traits@D@std@@V?$allocator@D@2@@std@@G@std@@@std@@@std@@@2@@Z 100ba200 f i dll.obj
 0002:0002d8c0       ?_Insert_n@?$vector@V?$_List_unchecked_iterator@V?$_List_val@U?$_List_simple_types@U?$pair@$$CBV?$basic_string@DU?$char_traits@D@std@@V?$allocator@D@2@@std@@VDEVICE@@@std@@@std@@@std@@@std@@U?$_Wrap_alloc@V?$allocator@V?$_List_unchecked_iterator@V?$_List_val@U?$_List_simple_types@U?$pair@$$CBV?$basic_string@DU?$char_traits@D@std@@V?$allocator@D@2@@std@@VDEVICE@@@std@@@std@@@std@@@std@@@std@@@2@@std@@IAE?AV?$_Vector_iterator@V?$_Vector_val@U?$_Simple_types@V?$_List_unchecked_iterator@V?$_List_val@U?$_List_simple_types@U?$pair@$$CBV?$basic_string@DU?$char_traits@D@std@@V?$allocator@D@2@@std@@VDEVICE@@@std@@@std@@@std@@@std@@@std@@@std@@@2@V?$_Vector_const_iterator@V?$_Vector_val@U?$_Simple_types@V?$_List_unchecked_iterator@V?$_List_val@U?$_List_simple_types@U?$pair@$$CBV?$basic_string@DU?$char_traits@D@std@@V?$allocator@D@2@@std@@VDEVICE@@@std@@@std@@@std@@@std@@@std@@@std@@@2@IABV?$_List_unchecked_iterator@V?$_List_val@U?$_List_simple_types@U?$pair@$$CBV?$basic_string@DU?$char_traits@D@std@@V?$allocator@D@2@@std@@VDEVICE@@@std@@@std@@@std@@@2@@Z 100ba8c0 f i dll.obj
 0002:0002df80       ?_Inside@?$basic_string@DU?$char_traits@D@std@@V?$allocator@D@2@@std@@QAE_NPBD@Z 100baf80 f i dll.obj
 0002:0002e010       ?_Make_iter@?$_Hash@V?$_Umap_traits@V?$basic_string@DU?$char_traits@D@std@@V?$allocator@D@2@@std@@GV?$_Uhash_compare@V?$basic_string@DU?$char_traits@D@std@@V?$allocator@D@2@@std@@U?$hash@V?$basic_string@DU?$char_traits@D@std@@V?$allocator@D@2@@std@@@2@U?$equal_to@V?$basic_string@DU?$char_traits@D@std@@V?$allocator@D@2@@std@@@2@@2@V?$allocator@U?$pair@$$CBV?$basic_string@DU?$char_traits@D@std@@V?$allocator@D@2@@std@@G@std@@@2@$0A@@std@@@std@@QBE?AV?$_List_iterator@V?$_List_val@U?$_List_simple_types@U?$pair@$$CBV?$basic_string@DU?$char_traits@D@std@@V?$allocator@D@2@@std@@G@std@@@std@@@std@@@2@V?$_List_const_iterator@V?$_List_val@U?$_List_simple_types@U?$pair@$$CBV?$basic_string@DU?$char_traits@D@std@@V?$allocator@D@2@@std@@G@std@@@std@@@std@@@2@@Z 100bb010 f i dll.obj
 0002:0002e110       ?_Make_iter@?$_Hash@V?$_Umap_traits@V?$basic_string@DU?$char_traits@D@std@@V?$allocator@D@2@@std@@GV?$_Uhash_compare@V?$basic_string@DU?$char_traits@D@std@@V?$allocator@D@2@@std@@U?$hash@V?$basic_string@DU?$char_traits@D@std@@V?$allocator@D@2@@std@@@2@U?$equal_to@V?$basic_string@DU?$char_traits@D@std@@V?$allocator@D@2@@std@@@2@@2@V?$allocator@U?$pair@$$CBV?$basic_string@DU?$char_traits@D@std@@V?$allocator@D@2@@std@@G@std@@@2@$0A@@std@@@std@@QBE?AV?$_List_iterator@V?$_List_val@U?$_List_simple_types@U?$pair@$$CBV?$basic_string@DU?$char_traits@D@std@@V?$allocator@D@2@@std@@G@std@@@std@@@std@@@2@V?$_List_unchecked_const_iterator@V?$_List_val@U?$_List_simple_types@U?$pair@$$CBV?$basic_string@DU?$char_traits@D@std@@V?$allocator@D@2@@std@@G@std@@@std@@@std@@U_Iterator_base0@2@@2@@Z 100bb110 f i dll.obj
 0002:0002e1a0       ?_Make_iter@?$_Hash@V?$_Umap_traits@V?$basic_string@DU?$char_traits@D@std@@V?$allocator@D@2@@std@@VDEVICE@@V?$_Uhash_compare@V?$basic_string@DU?$char_traits@D@std@@V?$allocator@D@2@@std@@U?$hash@V?$basic_string@DU?$char_traits@D@std@@V?$allocator@D@2@@std@@@2@U?$equal_to@V?$basic_string@DU?$char_traits@D@std@@V?$allocator@D@2@@std@@@2@@2@V?$allocator@U?$pair@$$CBV?$basic_string@DU?$char_traits@D@std@@V?$allocator@D@2@@std@@VDEVICE@@@std@@@2@$0A@@std@@@std@@QBE?AV?$_List_iterator@V?$_List_val@U?$_List_simple_types@U?$pair@$$CBV?$basic_string@DU?$char_traits@D@std@@V?$allocator@D@2@@std@@VDEVICE@@@std@@@std@@@std@@@2@V?$_List_const_iterator@V?$_List_val@U?$_List_simple_types@U?$pair@$$CBV?$basic_string@DU?$char_traits@D@std@@V?$allocator@D@2@@std@@VDEVICE@@@std@@@std@@@std@@@2@@Z 100bb1a0 f i dll.obj
 0002:0002e2a0       ?_Make_iter@?$_Hash@V?$_Umap_traits@V?$basic_string@DU?$char_traits@D@std@@V?$allocator@D@2@@std@@VDEVICE@@V?$_Uhash_compare@V?$basic_string@DU?$char_traits@D@std@@V?$allocator@D@2@@std@@U?$hash@V?$basic_string@DU?$char_traits@D@std@@V?$allocator@D@2@@std@@@2@U?$equal_to@V?$basic_string@DU?$char_traits@D@std@@V?$allocator@D@2@@std@@@2@@2@V?$allocator@U?$pair@$$CBV?$basic_string@DU?$char_traits@D@std@@V?$allocator@D@2@@std@@VDEVICE@@@std@@@2@$0A@@std@@@std@@QBE?AV?$_List_iterator@V?$_List_val@U?$_List_simple_types@U?$pair@$$CBV?$basic_string@DU?$char_traits@D@std@@V?$allocator@D@2@@std@@VDEVICE@@@std@@@std@@@std@@@2@V?$_List_unchecked_const_iterator@V?$_List_val@U?$_List_simple_types@U?$pair@$$CBV?$basic_string@DU?$char_traits@D@std@@V?$allocator@D@2@@std@@VDEVICE@@@std@@@std@@@std@@U_Iterator_base0@2@@2@@Z 100bb2a0 f i dll.obj
 0002:0002e330       ?_Make_iter@?$deque@UFORMULA2_PAIR@@V?$allocator@UFORMULA2_PAIR@@@std@@@std@@QBE?AV?$_Deque_iterator@V?$_Deque_val@U?$_Deque_simple_types@UFORMULA2_PAIR@@@std@@@std@@@2@V?$_Deque_const_iterator@V?$_Deque_val@U?$_Deque_simple_types@UFORMULA2_PAIR@@@std@@@std@@@2@@Z 100bb330 f i dll.obj
 0002:0002e410       ?_Make_iter@?$deque@UFORMULA_PAIR@@V?$allocator@UFORMULA_PAIR@@@std@@@std@@QBE?AV?$_Deque_iterator@V?$_Deque_val@U?$_Deque_simple_types@UFORMULA_PAIR@@@std@@@std@@@2@V?$_Deque_const_iterator@V?$_Deque_val@U?$_Deque_simple_types@UFORMULA_PAIR@@@std@@@std@@@2@@Z 100bb410 f i dll.obj
 0002:0002e4f0       ?_Make_iter@?$list@U?$pair@$$CBV?$basic_string@DU?$char_traits@D@std@@V?$allocator@D@2@@std@@G@std@@V?$allocator@U?$pair@$$CBV?$basic_string@DU?$char_traits@D@std@@V?$allocator@D@2@@std@@G@std@@@2@@std@@QBE?AV?$_List_iterator@V?$_List_val@U?$_List_simple_types@U?$pair@$$CBV?$basic_string@DU?$char_traits@D@std@@V?$allocator@D@2@@std@@G@std@@@std@@@std@@@2@V?$_List_const_iterator@V?$_List_val@U?$_List_simple_types@U?$pair@$$CBV?$basic_string@DU?$char_traits@D@std@@V?$allocator@D@2@@std@@G@std@@@std@@@std@@@2@@Z 100bb4f0 f i dll.obj
 0002:0002e5a0       ?_Make_iter@?$list@U?$pair@$$CBV?$basic_string@DU?$char_traits@D@std@@V?$allocator@D@2@@std@@G@std@@V?$allocator@U?$pair@$$CBV?$basic_string@DU?$char_traits@D@std@@V?$allocator@D@2@@std@@G@std@@@2@@std@@QBE?AV?$_List_iterator@V?$_List_val@U?$_List_simple_types@U?$pair@$$CBV?$basic_string@DU?$char_traits@D@std@@V?$allocator@D@2@@std@@G@std@@@std@@@std@@@2@V?$_List_unchecked_const_iterator@V?$_List_val@U?$_List_simple_types@U?$pair@$$CBV?$basic_string@DU?$char_traits@D@std@@V?$allocator@D@2@@std@@G@std@@@std@@@std@@U_Iterator_base0@2@@2@@Z 100bb5a0 f i dll.obj
 0002:0002e630       ?_Make_iter@?$list@U?$pair@$$CBV?$basic_string@DU?$char_traits@D@std@@V?$allocator@D@2@@std@@VDEVICE@@@std@@V?$allocator@U?$pair@$$CBV?$basic_string@DU?$char_traits@D@std@@V?$allocator@D@2@@std@@VDEVICE@@@std@@@2@@std@@QBE?AV?$_List_iterator@V?$_List_val@U?$_List_simple_types@U?$pair@$$CBV?$basic_string@DU?$char_traits@D@std@@V?$allocator@D@2@@std@@VDEVICE@@@std@@@std@@@std@@@2@V?$_List_const_iterator@V?$_List_val@U?$_List_simple_types@U?$pair@$$CBV?$basic_string@DU?$char_traits@D@std@@V?$allocator@D@2@@std@@VDEVICE@@@std@@@std@@@std@@@2@@Z 100bb630 f i dll.obj
 0002:0002e6e0       ?_Make_iter@?$list@U?$pair@$$CBV?$basic_string@DU?$char_traits@D@std@@V?$allocator@D@2@@std@@VDEVICE@@@std@@V?$allocator@U?$pair@$$CBV?$basic_string@DU?$char_traits@D@std@@V?$allocator@D@2@@std@@VDEVICE@@@std@@@2@@std@@QBE?AV?$_List_iterator@V?$_List_val@U?$_List_simple_types@U?$pair@$$CBV?$basic_string@DU?$char_traits@D@std@@V?$allocator@D@2@@std@@VDEVICE@@@std@@@std@@@std@@@2@V?$_List_unchecked_const_iterator@V?$_List_val@U?$_List_simple_types@U?$pair@$$CBV?$basic_string@DU?$char_traits@D@std@@V?$allocator@D@2@@std@@VDEVICE@@@std@@@std@@@std@@U_Iterator_base0@2@@2@@Z 100bb6e0 f i dll.obj
 0002:0002e770       ?_Map@?$_Deque_alloc@U?$_Deque_base_types@UFORMULA2_PAIR@@V?$allocator@UFORMULA2_PAIR@@@std@@@std@@@std@@QAEAAPAPAUFORMULA2_PAIR@@XZ 100bb770 f i dll.obj
 0002:0002e7d0       ?_Map@?$_Deque_alloc@U?$_Deque_base_types@UFORMULA_PAIR@@V?$allocator@UFORMULA_PAIR@@@std@@@std@@@std@@QAEAAPAPAUFORMULA_PAIR@@XZ 100bb7d0 f i dll.obj
 0002:0002e830       ?_Mapsize@?$_Deque_alloc@U?$_Deque_base_types@UFORMULA2_PAIR@@V?$allocator@UFORMULA2_PAIR@@@std@@@std@@@std@@QAEAAIXZ 100bb830 f i dll.obj
 0002:0002e890       ?_Mapsize@?$_Deque_alloc@U?$_Deque_base_types@UFORMULA_PAIR@@V?$allocator@UFORMULA_PAIR@@@std@@@std@@@std@@QAEAAIXZ 100bb890 f i dll.obj
 0002:0002e8f0       ?_Max_bucket_size@?$_Hash@V?$_Umap_traits@V?$basic_string@DU?$char_traits@D@std@@V?$allocator@D@2@@std@@GV?$_Uhash_compare@V?$basic_string@DU?$char_traits@D@std@@V?$allocator@D@2@@std@@U?$hash@V?$basic_string@DU?$char_traits@D@std@@V?$allocator@D@2@@std@@@2@U?$equal_to@V?$basic_string@DU?$char_traits@D@std@@V?$allocator@D@2@@std@@@2@@2@V?$allocator@U?$pair@$$CBV?$basic_string@DU?$char_traits@D@std@@V?$allocator@D@2@@std@@G@std@@@2@$0A@@std@@@std@@IBEABMXZ 100bb8f0 f i dll.obj
 0002:0002e940       ?_Max_bucket_size@?$_Hash@V?$_Umap_traits@V?$basic_string@DU?$char_traits@D@std@@V?$allocator@D@2@@std@@VDEVICE@@V?$_Uhash_compare@V?$basic_string@DU?$char_traits@D@std@@V?$allocator@D@2@@std@@U?$hash@V?$basic_string@DU?$char_traits@D@std@@V?$allocator@D@2@@std@@@2@U?$equal_to@V?$basic_string@DU?$char_traits@D@std@@V?$allocator@D@2@@std@@@2@@2@V?$allocator@U?$pair@$$CBV?$basic_string@DU?$char_traits@D@std@@V?$allocator@D@2@@std@@VDEVICE@@@std@@@2@$0A@@std@@@std@@IBEABMXZ 100bb940 f i dll.obj
 0002:0002e990       ?_Myend@?$_Vector_alloc@U?$_Vec_base_types@V?$_List_unchecked_iterator@V?$_List_val@U?$_List_simple_types@U?$pair@$$CBV?$basic_string@DU?$char_traits@D@std@@V?$allocator@D@2@@std@@G@std@@@std@@@std@@@std@@U?$_Wrap_alloc@V?$allocator@V?$_List_unchecked_iterator@V?$_List_val@U?$_List_simple_types@U?$pair@$$CBV?$basic_string@DU?$char_traits@D@std@@V?$allocator@D@2@@std@@G@std@@@std@@@std@@@std@@@std@@@2@@std@@@std@@QAEAAPAV?$_List_unchecked_iterator@V?$_List_val@U?$_List_simple_types@U?$pair@$$CBV?$basic_string@DU?$char_traits@D@std@@V?$allocator@D@2@@std@@G@std@@@std@@@std@@@2@XZ 100bb990 f i dll.obj
 0002:0002e9f0       ?_Myend@?$_Vector_alloc@U?$_Vec_base_types@V?$_List_unchecked_iterator@V?$_List_val@U?$_List_simple_types@U?$pair@$$CBV?$basic_string@DU?$char_traits@D@std@@V?$allocator@D@2@@std@@G@std@@@std@@@std@@@std@@U?$_Wrap_alloc@V?$allocator@V?$_List_unchecked_iterator@V?$_List_val@U?$_List_simple_types@U?$pair@$$CBV?$basic_string@DU?$char_traits@D@std@@V?$allocator@D@2@@std@@G@std@@@std@@@std@@@std@@@std@@@2@@std@@@std@@QBEABQAV?$_List_unchecked_iterator@V?$_List_val@U?$_List_simple_types@U?$pair@$$CBV?$basic_string@DU?$char_traits@D@std@@V?$allocator@D@2@@std@@G@std@@@std@@@std@@@2@XZ 100bb9f0 f i dll.obj
 0002:0002ea50       ?_Myend@?$_Vector_alloc@U?$_Vec_base_types@V?$_List_unchecked_iterator@V?$_List_val@U?$_List_simple_types@U?$pair@$$CBV?$basic_string@DU?$char_traits@D@std@@V?$allocator@D@2@@std@@VDEVICE@@@std@@@std@@@std@@@std@@U?$_Wrap_alloc@V?$allocator@V?$_List_unchecked_iterator@V?$_List_val@U?$_List_simple_types@U?$pair@$$CBV?$basic_string@DU?$char_traits@D@std@@V?$allocator@D@2@@std@@VDEVICE@@@std@@@std@@@std@@@std@@@std@@@2@@std@@@std@@QAEAAPAV?$_List_unchecked_iterator@V?$_List_val@U?$_List_simple_types@U?$pair@$$CBV?$basic_string@DU?$char_traits@D@std@@V?$allocator@D@2@@std@@VDEVICE@@@std@@@std@@@std@@@2@XZ 100bba50 f i dll.obj
 0002:0002eab0       ?_Myend@?$_Vector_alloc@U?$_Vec_base_types@V?$_List_unchecked_iterator@V?$_List_val@U?$_List_simple_types@U?$pair@$$CBV?$basic_string@DU?$char_traits@D@std@@V?$allocator@D@2@@std@@VDEVICE@@@std@@@std@@@std@@@std@@U?$_Wrap_alloc@V?$allocator@V?$_List_unchecked_iterator@V?$_List_val@U?$_List_simple_types@U?$pair@$$CBV?$basic_string@DU?$char_traits@D@std@@V?$allocator@D@2@@std@@VDEVICE@@@std@@@std@@@std@@@std@@@std@@@2@@std@@@std@@QBEABQAV?$_List_unchecked_iterator@V?$_List_val@U?$_List_simple_types@U?$pair@$$CBV?$basic_string@DU?$char_traits@D@std@@V?$allocator@D@2@@std@@VDEVICE@@@std@@@std@@@std@@@2@XZ 100bbab0 f i dll.obj
 0002:0002eb10       ?_Myfirst@?$_Vector_alloc@U?$_Vec_base_types@V?$_List_unchecked_iterator@V?$_List_val@U?$_List_simple_types@U?$pair@$$CBV?$basic_string@DU?$char_traits@D@std@@V?$allocator@D@2@@std@@G@std@@@std@@@std@@@std@@U?$_Wrap_alloc@V?$allocator@V?$_List_unchecked_iterator@V?$_List_val@U?$_List_simple_types@U?$pair@$$CBV?$basic_string@DU?$char_traits@D@std@@V?$allocator@D@2@@std@@G@std@@@std@@@std@@@std@@@std@@@2@@std@@@std@@QAEAAPAV?$_List_unchecked_iterator@V?$_List_val@U?$_List_simple_types@U?$pair@$$CBV?$basic_string@DU?$char_traits@D@std@@V?$allocator@D@2@@std@@G@std@@@std@@@std@@@2@XZ 100bbb10 f i dll.obj
 0002:0002eb70       ?_Myfirst@?$_Vector_alloc@U?$_Vec_base_types@V?$_List_unchecked_iterator@V?$_List_val@U?$_List_simple_types@U?$pair@$$CBV?$basic_string@DU?$char_traits@D@std@@V?$allocator@D@2@@std@@G@std@@@std@@@std@@@std@@U?$_Wrap_alloc@V?$allocator@V?$_List_unchecked_iterator@V?$_List_val@U?$_List_simple_types@U?$pair@$$CBV?$basic_string@DU?$char_traits@D@std@@V?$allocator@D@2@@std@@G@std@@@std@@@std@@@std@@@std@@@2@@std@@@std@@QBEABQAV?$_List_unchecked_iterator@V?$_List_val@U?$_List_simple_types@U?$pair@$$CBV?$basic_string@DU?$char_traits@D@std@@V?$allocator@D@2@@std@@G@std@@@std@@@std@@@2@XZ 100bbb70 f i dll.obj
 0002:0002ebd0       ?_Myfirst@?$_Vector_alloc@U?$_Vec_base_types@V?$_List_unchecked_iterator@V?$_List_val@U?$_List_simple_types@U?$pair@$$CBV?$basic_string@DU?$char_traits@D@std@@V?$allocator@D@2@@std@@VDEVICE@@@std@@@std@@@std@@@std@@U?$_Wrap_alloc@V?$allocator@V?$_List_unchecked_iterator@V?$_List_val@U?$_List_simple_types@U?$pair@$$CBV?$basic_string@DU?$char_traits@D@std@@V?$allocator@D@2@@std@@VDEVICE@@@std@@@std@@@std@@@std@@@std@@@2@@std@@@std@@QAEAAPAV?$_List_unchecked_iterator@V?$_List_val@U?$_List_simple_types@U?$pair@$$CBV?$basic_string@DU?$char_traits@D@std@@V?$allocator@D@2@@std@@VDEVICE@@@std@@@std@@@std@@@2@XZ 100bbbd0 f i dll.obj
 0002:0002ec30       ?_Myfirst@?$_Vector_alloc@U?$_Vec_base_types@V?$_List_unchecked_iterator@V?$_List_val@U?$_List_simple_types@U?$pair@$$CBV?$basic_string@DU?$char_traits@D@std@@V?$allocator@D@2@@std@@VDEVICE@@@std@@@std@@@std@@@std@@U?$_Wrap_alloc@V?$allocator@V?$_List_unchecked_iterator@V?$_List_val@U?$_List_simple_types@U?$pair@$$CBV?$basic_string@DU?$char_traits@D@std@@V?$allocator@D@2@@std@@VDEVICE@@@std@@@std@@@std@@@std@@@std@@@2@@std@@@std@@QBEABQAV?$_List_unchecked_iterator@V?$_List_val@U?$_List_simple_types@U?$pair@$$CBV?$basic_string@DU?$char_traits@D@std@@V?$allocator@D@2@@std@@VDEVICE@@@std@@@std@@@std@@@2@XZ 100bbc30 f i dll.obj
 0002:0002ec90       ?_Myfirst@?$_Vector_alloc@U?$_Vec_base_types@V?$basic_string@DU?$char_traits@D@std@@V?$allocator@D@2@@std@@V?$allocator@V?$basic_string@DU?$char_traits@D@std@@V?$allocator@D@2@@std@@@2@@std@@@std@@QAEAAPAV?$basic_string@DU?$char_traits@D@std@@V?$allocator@D@2@@2@XZ 100bbc90 f i dll.obj
 0002:0002ecf0       ?_Myfirst@?$_Vector_alloc@U?$_Vec_base_types@V?$basic_string@DU?$char_traits@D@std@@V?$allocator@D@2@@std@@V?$allocator@V?$basic_string@DU?$char_traits@D@std@@V?$allocator@D@2@@std@@@2@@std@@@std@@QBEABQAV?$basic_string@DU?$char_traits@D@std@@V?$allocator@D@2@@2@XZ 100bbcf0 f i dll.obj
 0002:0002ed50       ?_Myhead@?$_List_alloc@U?$_List_base_types@U?$pair@$$CBV?$basic_string@DU?$char_traits@D@std@@V?$allocator@D@2@@std@@G@std@@V?$allocator@U?$pair@$$CBV?$basic_string@DU?$char_traits@D@std@@V?$allocator@D@2@@std@@G@std@@@2@@std@@@std@@QAEAAPAU?$_List_node@U?$pair@$$CBV?$basic_string@DU?$char_traits@D@std@@V?$allocator@D@2@@std@@G@std@@PAX@2@XZ 100bbd50 f i dll.obj
 0002:0002edb0       ?_Myhead@?$_List_alloc@U?$_List_base_types@U?$pair@$$CBV?$basic_string@DU?$char_traits@D@std@@V?$allocator@D@2@@std@@VDEVICE@@@std@@V?$allocator@U?$pair@$$CBV?$basic_string@DU?$char_traits@D@std@@V?$allocator@D@2@@std@@VDEVICE@@@std@@@2@@std@@@std@@QAEAAPAU?$_List_node@U?$pair@$$CBV?$basic_string@DU?$char_traits@D@std@@V?$allocator@D@2@@std@@VDEVICE@@@std@@PAX@2@XZ 100bbdb0 f i dll.obj
 0002:0002ee10       ?_Mylast@?$_Vector_alloc@U?$_Vec_base_types@V?$_List_unchecked_iterator@V?$_List_val@U?$_List_simple_types@U?$pair@$$CBV?$basic_string@DU?$char_traits@D@std@@V?$allocator@D@2@@std@@G@std@@@std@@@std@@@std@@U?$_Wrap_alloc@V?$allocator@V?$_List_unchecked_iterator@V?$_List_val@U?$_List_simple_types@U?$pair@$$CBV?$basic_string@DU?$char_traits@D@std@@V?$allocator@D@2@@std@@G@std@@@std@@@std@@@std@@@std@@@2@@std@@@std@@QAEAAPAV?$_List_unchecked_iterator@V?$_List_val@U?$_List_simple_types@U?$pair@$$CBV?$basic_string@DU?$char_traits@D@std@@V?$allocator@D@2@@std@@G@std@@@std@@@std@@@2@XZ 100bbe10 f i dll.obj
 0002:0002ee70       ?_Mylast@?$_Vector_alloc@U?$_Vec_base_types@V?$_List_unchecked_iterator@V?$_List_val@U?$_List_simple_types@U?$pair@$$CBV?$basic_string@DU?$char_traits@D@std@@V?$allocator@D@2@@std@@G@std@@@std@@@std@@@std@@U?$_Wrap_alloc@V?$allocator@V?$_List_unchecked_iterator@V?$_List_val@U?$_List_simple_types@U?$pair@$$CBV?$basic_string@DU?$char_traits@D@std@@V?$allocator@D@2@@std@@G@std@@@std@@@std@@@std@@@std@@@2@@std@@@std@@QBEABQAV?$_List_unchecked_iterator@V?$_List_val@U?$_List_simple_types@U?$pair@$$CBV?$basic_string@DU?$char_traits@D@std@@V?$allocator@D@2@@std@@G@std@@@std@@@std@@@2@XZ 100bbe70 f i dll.obj
 0002:0002eed0       ?_Mylast@?$_Vector_alloc@U?$_Vec_base_types@V?$_List_unchecked_iterator@V?$_List_val@U?$_List_simple_types@U?$pair@$$CBV?$basic_string@DU?$char_traits@D@std@@V?$allocator@D@2@@std@@VDEVICE@@@std@@@std@@@std@@@std@@U?$_Wrap_alloc@V?$allocator@V?$_List_unchecked_iterator@V?$_List_val@U?$_List_simple_types@U?$pair@$$CBV?$basic_string@DU?$char_traits@D@std@@V?$allocator@D@2@@std@@VDEVICE@@@std@@@std@@@std@@@std@@@std@@@2@@std@@@std@@QAEAAPAV?$_List_unchecked_iterator@V?$_List_val@U?$_List_simple_types@U?$pair@$$CBV?$basic_string@DU?$char_traits@D@std@@V?$allocator@D@2@@std@@VDEVICE@@@std@@@std@@@std@@@2@XZ 100bbed0 f i dll.obj
 0002:0002ef30       ?_Mylast@?$_Vector_alloc@U?$_Vec_base_types@V?$_List_unchecked_iterator@V?$_List_val@U?$_List_simple_types@U?$pair@$$CBV?$basic_string@DU?$char_traits@D@std@@V?$allocator@D@2@@std@@VDEVICE@@@std@@@std@@@std@@@std@@U?$_Wrap_alloc@V?$allocator@V?$_List_unchecked_iterator@V?$_List_val@U?$_List_simple_types@U?$pair@$$CBV?$basic_string@DU?$char_traits@D@std@@V?$allocator@D@2@@std@@VDEVICE@@@std@@@std@@@std@@@std@@@std@@@2@@std@@@std@@QBEABQAV?$_List_unchecked_iterator@V?$_List_val@U?$_List_simple_types@U?$pair@$$CBV?$basic_string@DU?$char_traits@D@std@@V?$allocator@D@2@@std@@VDEVICE@@@std@@@std@@@std@@@2@XZ 100bbf30 f i dll.obj
 0002:0002ef90       ?_Mylast@?$_Vector_alloc@U?$_Vec_base_types@V?$basic_string@DU?$char_traits@D@std@@V?$allocator@D@2@@std@@V?$allocator@V?$basic_string@DU?$char_traits@D@std@@V?$allocator@D@2@@std@@@2@@std@@@std@@QBEABQAV?$basic_string@DU?$char_traits@D@std@@V?$allocator@D@2@@2@XZ 100bbf90 f i dll.obj
 0002:0002eff0       ?_Mynode@?$_List_unchecked_const_iterator@V?$_List_val@U?$_List_simple_types@U?$pair@$$CBV?$basic_string@DU?$char_traits@D@std@@V?$allocator@D@2@@std@@G@std@@@std@@@std@@U_Iterator_base0@2@@std@@QBEPAU?$_List_node@U?$pair@$$CBV?$basic_string@DU?$char_traits@D@std@@V?$allocator@D@2@@std@@G@std@@PAX@2@XZ 100bbff0 f i dll.obj
 0002:0002f030       ?_Mynode@?$_List_unchecked_const_iterator@V?$_List_val@U?$_List_simple_types@U?$pair@$$CBV?$basic_string@DU?$char_traits@D@std@@V?$allocator@D@2@@std@@G@std@@@std@@@std@@U_Iterator_base12@2@@std@@QBEPAU?$_List_node@U?$pair@$$CBV?$basic_string@DU?$char_traits@D@std@@V?$allocator@D@2@@std@@G@std@@PAX@2@XZ 100bc030 f i dll.obj
 0002:0002f070       ?_Mynode@?$_List_unchecked_const_iterator@V?$_List_val@U?$_List_simple_types@U?$pair@$$CBV?$basic_string@DU?$char_traits@D@std@@V?$allocator@D@2@@std@@VDEVICE@@@std@@@std@@@std@@U_Iterator_base0@2@@std@@QBEPAU?$_List_node@U?$pair@$$CBV?$basic_string@DU?$char_traits@D@std@@V?$allocator@D@2@@std@@VDEVICE@@@std@@PAX@2@XZ 100bc070 f i dll.obj
 0002:0002f0b0       ?_Mynode@?$_List_unchecked_const_iterator@V?$_List_val@U?$_List_simple_types@U?$pair@$$CBV?$basic_string@DU?$char_traits@D@std@@V?$allocator@D@2@@std@@VDEVICE@@@std@@@std@@@std@@U_Iterator_base12@2@@std@@QBEPAU?$_List_node@U?$pair@$$CBV?$basic_string@DU?$char_traits@D@std@@V?$allocator@D@2@@std@@VDEVICE@@@std@@PAX@2@XZ 100bc0b0 f i dll.obj
 0002:0002f0f0       ?_Myoff@?$_Deque_alloc@U?$_Deque_base_types@UFORMULA2_PAIR@@V?$allocator@UFORMULA2_PAIR@@@std@@@std@@@std@@QAEAAIXZ 100bc0f0 f i dll.obj
 0002:0002f150       ?_Myoff@?$_Deque_alloc@U?$_Deque_base_types@UFORMULA2_PAIR@@V?$allocator@UFORMULA2_PAIR@@@std@@@std@@@std@@QBEABIXZ 100bc150 f i dll.obj
 0002:0002f1b0       ?_Myoff@?$_Deque_alloc@U?$_Deque_base_types@UFORMULA_PAIR@@V?$allocator@UFORMULA_PAIR@@@std@@@std@@@std@@QAEAAIXZ 100bc1b0 f i dll.obj
 0002:0002f210       ?_Myoff@?$_Deque_alloc@U?$_Deque_base_types@UFORMULA_PAIR@@V?$allocator@UFORMULA_PAIR@@@std@@@std@@@std@@QBEABIXZ 100bc210 f i dll.obj
 0002:0002f270       ?_Myproxy@?$_Deque_alloc@U?$_Deque_base_types@UFORMULA2_PAIR@@V?$allocator@UFORMULA2_PAIR@@@std@@@std@@@std@@QAEAAPAU_Container_proxy@2@XZ 100bc270 f i dll.obj
 0002:0002f2c0       ?_Myproxy@?$_Deque_alloc@U?$_Deque_base_types@UFORMULA_PAIR@@V?$allocator@UFORMULA_PAIR@@@std@@@std@@@std@@QAEAAPAU_Container_proxy@2@XZ 100bc2c0 f i dll.obj
 0002:0002f310       ?_Myproxy@?$_String_alloc@U?$_String_base_types@DV?$allocator@D@std@@@std@@@std@@QAEAAPAU_Container_proxy@2@XZ 100bc310 f i dll.obj
 0002:0002f360       ?_Myptr@?$_String_alloc@U?$_String_base_types@DV?$allocator@D@std@@@std@@@std@@QAEPADXZ 100bc360 f i dll.obj
 0002:0002f3c0       ?_Myptr@?$_String_alloc@U?$_String_base_types@DV?$allocator@D@std@@@std@@@std@@QBEPBDXZ 100bc3c0 f i dll.obj
 0002:0002f420       ?_Myptr@?$_String_val@U?$_Simple_types@D@std@@@std@@QAEPADXZ 100bc420 f i dll.obj
 0002:0002f4b0       ?_Myptr@?$_String_val@U?$_Simple_types@D@std@@@std@@QBEPBDXZ 100bc4b0 f i dll.obj
 0002:0002f540       ?_Myres@?$_String_alloc@U?$_String_base_types@DV?$allocator@D@std@@@std@@@std@@QAEAAIXZ 100bc540 f i dll.obj
 0002:0002f5a0       ?_Mysize@?$_Deque_alloc@U?$_Deque_base_types@UFORMULA2_PAIR@@V?$allocator@UFORMULA2_PAIR@@@std@@@std@@@std@@QAEAAIXZ 100bc5a0 f i dll.obj
 0002:0002f600       ?_Mysize@?$_Deque_alloc@U?$_Deque_base_types@UFORMULA2_PAIR@@V?$allocator@UFORMULA2_PAIR@@@std@@@std@@@std@@QBEABIXZ 100bc600 f i dll.obj
 0002:0002f660       ?_Mysize@?$_Deque_alloc@U?$_Deque_base_types@UFORMULA_PAIR@@V?$allocator@UFORMULA_PAIR@@@std@@@std@@@std@@QAEAAIXZ 100bc660 f i dll.obj
 0002:0002f6c0       ?_Mysize@?$_Deque_alloc@U?$_Deque_base_types@UFORMULA_PAIR@@V?$allocator@UFORMULA_PAIR@@@std@@@std@@@std@@QBEABIXZ 100bc6c0 f i dll.obj
 0002:0002f720       ?_Mysize@?$_List_alloc@U?$_List_base_types@U?$pair@$$CBV?$basic_string@DU?$char_traits@D@std@@V?$allocator@D@2@@std@@G@std@@V?$allocator@U?$pair@$$CBV?$basic_string@DU?$char_traits@D@std@@V?$allocator@D@2@@std@@G@std@@@2@@std@@@std@@QAEAAIXZ 100bc720 f i dll.obj
 0002:0002f780       ?_Mysize@?$_List_alloc@U?$_List_base_types@U?$pair@$$CBV?$basic_string@DU?$char_traits@D@std@@V?$allocator@D@2@@std@@G@std@@V?$allocator@U?$pair@$$CBV?$basic_string@DU?$char_traits@D@std@@V?$allocator@D@2@@std@@G@std@@@2@@std@@@std@@QBEABIXZ 100bc780 f i dll.obj
 0002:0002f7e0       ?_Mysize@?$_List_alloc@U?$_List_base_types@U?$pair@$$CBV?$basic_string@DU?$char_traits@D@std@@V?$allocator@D@2@@std@@VDEVICE@@@std@@V?$allocator@U?$pair@$$CBV?$basic_string@DU?$char_traits@D@std@@V?$allocator@D@2@@std@@VDEVICE@@@std@@@2@@std@@@std@@QAEAAIXZ 100bc7e0 f i dll.obj
 0002:0002f840       ?_Mysize@?$_List_alloc@U?$_List_base_types@U?$pair@$$CBV?$basic_string@DU?$char_traits@D@std@@V?$allocator@D@2@@std@@VDEVICE@@@std@@V?$allocator@U?$pair@$$CBV?$basic_string@DU?$char_traits@D@std@@V?$allocator@D@2@@std@@VDEVICE@@@std@@@2@@std@@@std@@QBEABIXZ 100bc840 f i dll.obj
 0002:0002f8a0       ?_Mysize@?$_String_alloc@U?$_String_base_types@DV?$allocator@D@std@@@std@@@std@@QAEAAIXZ 100bc8a0 f i dll.obj
 0002:0002f900       ?_Mysize@?$_String_alloc@U?$_String_base_types@DV?$allocator@D@std@@@std@@@std@@QBEABIXZ 100bc900 f i dll.obj
 0002:0002f960       ?_Myval@?$_List_alloc@U?$_List_base_types@U?$pair@$$CBV?$basic_string@DU?$char_traits@D@std@@V?$allocator@D@2@@std@@G@std@@V?$allocator@U?$pair@$$CBV?$basic_string@DU?$char_traits@D@std@@V?$allocator@D@2@@std@@G@std@@@2@@std@@@std@@SAAAU?$pair@$$CBV?$basic_string@DU?$char_traits@D@std@@V?$allocator@D@2@@std@@G@2@PAU?$_List_node@U?$pair@$$CBV?$basic_string@DU?$char_traits@D@std@@V?$allocator@D@2@@std@@G@std@@PAX@2@@Z 100bc960 f i dll.obj
 0002:0002f9b0       ?_Myval@?$_List_alloc@U?$_List_base_types@U?$pair@$$CBV?$basic_string@DU?$char_traits@D@std@@V?$allocator@D@2@@std@@VDEVICE@@@std@@V?$allocator@U?$pair@$$CBV?$basic_string@DU?$char_traits@D@std@@V?$allocator@D@2@@std@@VDEVICE@@@std@@@2@@std@@@std@@SAAAU?$pair@$$CBV?$basic_string@DU?$char_traits@D@std@@V?$allocator@D@2@@std@@VDEVICE@@@2@PAU?$_List_node@U?$pair@$$CBV?$basic_string@DU?$char_traits@D@std@@V?$allocator@D@2@@std@@VDEVICE@@@std@@PAX@2@@Z 100bc9b0 f i dll.obj
 0002:0002fa00       ?_Myval@?$_List_val@U?$_List_simple_types@U?$pair@$$CBV?$basic_string@DU?$char_traits@D@std@@V?$allocator@D@2@@std@@G@std@@@std@@@std@@SAAAU?$pair@$$CBV?$basic_string@DU?$char_traits@D@std@@V?$allocator@D@2@@std@@G@2@PAU?$_List_node@U?$pair@$$CBV?$basic_string@DU?$char_traits@D@std@@V?$allocator@D@2@@std@@G@std@@PAX@2@@Z 100bca00 f i dll.obj
 0002:0002fa40       ?_Myval@?$_List_val@U?$_List_simple_types@U?$pair@$$CBV?$basic_string@DU?$char_traits@D@std@@V?$allocator@D@2@@std@@VDEVICE@@@std@@@std@@@std@@SAAAU?$pair@$$CBV?$basic_string@DU?$char_traits@D@std@@V?$allocator@D@2@@std@@VDEVICE@@@2@PAU?$_List_node@U?$pair@$$CBV?$basic_string@DU?$char_traits@D@std@@V?$allocator@D@2@@std@@VDEVICE@@@std@@PAX@2@@Z 100bca40 f i dll.obj
 0002:0002fa80       ?_Nextnode@?$_List_alloc@U?$_List_base_types@U?$pair@$$CBV?$basic_string@DU?$char_traits@D@std@@V?$allocator@D@2@@std@@G@std@@V?$allocator@U?$pair@$$CBV?$basic_string@DU?$char_traits@D@std@@V?$allocator@D@2@@std@@G@std@@@2@@std@@@std@@SAAAPAU?$_List_node@U?$pair@$$CBV?$basic_string@DU?$char_traits@D@std@@V?$allocator@D@2@@std@@G@std@@PAX@2@PAU32@@Z 100bca80 f i dll.obj
 0002:0002fad0       ?_Nextnode@?$_List_alloc@U?$_List_base_types@U?$pair@$$CBV?$basic_string@DU?$char_traits@D@std@@V?$allocator@D@2@@std@@VDEVICE@@@std@@V?$allocator@U?$pair@$$CBV?$basic_string@DU?$char_traits@D@std@@V?$allocator@D@2@@std@@VDEVICE@@@std@@@2@@std@@@std@@SAAAPAU?$_List_node@U?$pair@$$CBV?$basic_string@DU?$char_traits@D@std@@V?$allocator@D@2@@std@@VDEVICE@@@std@@PAX@2@PAU32@@Z 100bcad0 f i dll.obj
 0002:0002fb20       ?_Nextnode@?$_List_val@U?$_List_simple_types@U?$pair@$$CBV?$basic_string@DU?$char_traits@D@std@@V?$allocator@D@2@@std@@G@std@@@std@@@std@@SAAAPAU?$_List_node@U?$pair@$$CBV?$basic_string@DU?$char_traits@D@std@@V?$allocator@D@2@@std@@G@std@@PAX@2@PAU32@@Z 100bcb20 f i dll.obj
 0002:0002fb60       ?_Nextnode@?$_List_val@U?$_List_simple_types@U?$pair@$$CBV?$basic_string@DU?$char_traits@D@std@@V?$allocator@D@2@@std@@VDEVICE@@@std@@@std@@@std@@SAAAPAU?$_List_node@U?$pair@$$CBV?$basic_string@DU?$char_traits@D@std@@V?$allocator@D@2@@std@@VDEVICE@@@std@@PAX@2@PAU32@@Z 100bcb60 f i dll.obj
 0002:0002fba0       ?_Orphan_all@?$_Deque_alloc@U?$_Deque_base_types@UFORMULA2_PAIR@@V?$allocator@UFORMULA2_PAIR@@@std@@@std@@@std@@QAEXXZ 100bcba0 f i dll.obj
 0002:0002fc00       ?_Orphan_all@?$_Deque_alloc@U?$_Deque_base_types@UFORMULA_PAIR@@V?$allocator@UFORMULA_PAIR@@@std@@@std@@@std@@QAEXXZ 100bcc00 f i dll.obj
 0002:0002fc60       ?_Orphan_all@?$_String_alloc@U?$_String_base_types@DV?$allocator@D@std@@@std@@@std@@QAEXXZ 100bcc60 f i dll.obj
 0002:0002fcc0       ?_Orphan_all@?$_Vector_alloc@U?$_Vec_base_types@V?$_List_unchecked_iterator@V?$_List_val@U?$_List_simple_types@U?$pair@$$CBV?$basic_string@DU?$char_traits@D@std@@V?$allocator@D@2@@std@@G@std@@@std@@@std@@@std@@U?$_Wrap_alloc@V?$allocator@V?$_List_unchecked_iterator@V?$_List_val@U?$_List_simple_types@U?$pair@$$CBV?$basic_string@DU?$char_traits@D@std@@V?$allocator@D@2@@std@@G@std@@@std@@@std@@@std@@@std@@@2@@std@@@std@@QAEXXZ 100bccc0 f i dll.obj
 0002:0002fd20       ?_Orphan_all@?$_Vector_alloc@U?$_Vec_base_types@V?$_List_unchecked_iterator@V?$_List_val@U?$_List_simple_types@U?$pair@$$CBV?$basic_string@DU?$char_traits@D@std@@V?$allocator@D@2@@std@@VDEVICE@@@std@@@std@@@std@@@std@@U?$_Wrap_alloc@V?$allocator@V?$_List_unchecked_iterator@V?$_List_val@U?$_List_simple_types@U?$pair@$$CBV?$basic_string@DU?$char_traits@D@std@@V?$allocator@D@2@@std@@VDEVICE@@@std@@@std@@@std@@@std@@@std@@@2@@std@@@std@@QAEXXZ 100bcd20 f i dll.obj
 0002:0002fd80       ?_Orphan_all@_Container_base12@std@@QAEXXZ 100bcd80 f i dll.obj
 0002:0002fe90       ?_Orphan_me@_Iterator_base12@std@@QAEXXZ 100bce90 f i dll.obj
 0002:0002ff60       ?_Orphan_off@?$deque@UFORMULA2_PAIR@@V?$allocator@UFORMULA2_PAIR@@@std@@@std@@IBEXI@Z 100bcf60 f i dll.obj
 0002:00030140       ?_Orphan_off@?$deque@UFORMULA_PAIR@@V?$allocator@UFORMULA_PAIR@@@std@@@std@@IBEXI@Z 100bd140 f i dll.obj
 0002:00030320       ?_Orphan_ptr@?$list@U?$pair@$$CBV?$basic_string@DU?$char_traits@D@std@@V?$allocator@D@2@@std@@G@std@@V?$allocator@U?$pair@$$CBV?$basic_string@DU?$char_traits@D@std@@V?$allocator@D@2@@std@@G@std@@@2@@std@@QAEXPAU?$_List_node@U?$pair@$$CBV?$basic_string@DU?$char_traits@D@std@@V?$allocator@D@2@@std@@G@std@@PAX@2@@Z 100bd320 f i dll.obj
 0002:000304a0       ?_Orphan_ptr@?$list@U?$pair@$$CBV?$basic_string@DU?$char_traits@D@std@@V?$allocator@D@2@@std@@VDEVICE@@@std@@V?$allocator@U?$pair@$$CBV?$basic_string@DU?$char_traits@D@std@@V?$allocator@D@2@@std@@VDEVICE@@@std@@@2@@std@@QAEXPAU?$_List_node@U?$pair@$$CBV?$basic_string@DU?$char_traits@D@std@@V?$allocator@D@2@@std@@VDEVICE@@@std@@PAX@2@@Z 100bd4a0 f i dll.obj
 0002:00030620       ?_Orphan_range@?$vector@V?$_List_unchecked_iterator@V?$_List_val@U?$_List_simple_types@U?$pair@$$CBV?$basic_string@DU?$char_traits@D@std@@V?$allocator@D@2@@std@@G@std@@@std@@@std@@@std@@U?$_Wrap_alloc@V?$allocator@V?$_List_unchecked_iterator@V?$_List_val@U?$_List_simple_types@U?$pair@$$CBV?$basic_string@DU?$char_traits@D@std@@V?$allocator@D@2@@std@@G@std@@@std@@@std@@@std@@@std@@@2@@std@@IBEXPAV?$_List_unchecked_iterator@V?$_List_val@U?$_List_simple_types@U?$pair@$$CBV?$basic_string@DU?$char_traits@D@std@@V?$allocator@D@2@@std@@G@std@@@std@@@std@@@2@0@Z 100bd620 f i dll.obj
 0002:00030790       ?_Orphan_range@?$vector@V?$_List_unchecked_iterator@V?$_List_val@U?$_List_simple_types@U?$pair@$$CBV?$basic_string@DU?$char_traits@D@std@@V?$allocator@D@2@@std@@VDEVICE@@@std@@@std@@@std@@@std@@U?$_Wrap_alloc@V?$allocator@V?$_List_unchecked_iterator@V?$_List_val@U?$_List_simple_types@U?$pair@$$CBV?$basic_string@DU?$char_traits@D@std@@V?$allocator@D@2@@std@@VDEVICE@@@std@@@std@@@std@@@std@@@std@@@2@@std@@IBEXPAV?$_List_unchecked_iterator@V?$_List_val@U?$_List_simple_types@U?$pair@$$CBV?$basic_string@DU?$char_traits@D@std@@V?$allocator@D@2@@std@@VDEVICE@@@std@@@std@@@std@@@2@0@Z 100bd790 f i dll.obj
 0002:00030900       ?_Prevnode@?$_List_alloc@U?$_List_base_types@U?$pair@$$CBV?$basic_string@DU?$char_traits@D@std@@V?$allocator@D@2@@std@@G@std@@V?$allocator@U?$pair@$$CBV?$basic_string@DU?$char_traits@D@std@@V?$allocator@D@2@@std@@G@std@@@2@@std@@@std@@SAAAPAU?$_List_node@U?$pair@$$CBV?$basic_string@DU?$char_traits@D@std@@V?$allocator@D@2@@std@@G@std@@PAX@2@PAU32@@Z 100bd900 f i dll.obj
 0002:00030950       ?_Prevnode@?$_List_alloc@U?$_List_base_types@U?$pair@$$CBV?$basic_string@DU?$char_traits@D@std@@V?$allocator@D@2@@std@@VDEVICE@@@std@@V?$allocator@U?$pair@$$CBV?$basic_string@DU?$char_traits@D@std@@V?$allocator@D@2@@std@@VDEVICE@@@std@@@2@@std@@@std@@SAAAPAU?$_List_node@U?$pair@$$CBV?$basic_string@DU?$char_traits@D@std@@V?$allocator@D@2@@std@@VDEVICE@@@std@@PAX@2@PAU32@@Z 100bd950 f i dll.obj
 0002:000309a0       ?_Prevnode@?$_List_val@U?$_List_simple_types@U?$pair@$$CBV?$basic_string@DU?$char_traits@D@std@@V?$allocator@D@2@@std@@G@std@@@std@@@std@@SAAAPAU?$_List_node@U?$pair@$$CBV?$basic_string@DU?$char_traits@D@std@@V?$allocator@D@2@@std@@G@std@@PAX@2@PAU32@@Z 100bd9a0 f i dll.obj
 0002:000309e0       ?_Prevnode@?$_List_val@U?$_List_simple_types@U?$pair@$$CBV?$basic_string@DU?$char_traits@D@std@@V?$allocator@D@2@@std@@VDEVICE@@@std@@@std@@@std@@SAAAPAU?$_List_node@U?$pair@$$CBV?$basic_string@DU?$char_traits@D@std@@V?$allocator@D@2@@std@@VDEVICE@@@std@@PAX@2@PAU32@@Z 100bd9e0 f i dll.obj
 0002:00030a20       ?_Reallocate@?$vector@V?$_List_unchecked_iterator@V?$_List_val@U?$_List_simple_types@U?$pair@$$CBV?$basic_string@DU?$char_traits@D@std@@V?$allocator@D@2@@std@@G@std@@@std@@@std@@@std@@U?$_Wrap_alloc@V?$allocator@V?$_List_unchecked_iterator@V?$_List_val@U?$_List_simple_types@U?$pair@$$CBV?$basic_string@DU?$char_traits@D@std@@V?$allocator@D@2@@std@@G@std@@@std@@@std@@@std@@@std@@@2@@std@@IAEXI@Z 100bda20 f i dll.obj
 0002:00030c10       ?_Reallocate@?$vector@V?$_List_unchecked_iterator@V?$_List_val@U?$_List_simple_types@U?$pair@$$CBV?$basic_string@DU?$char_traits@D@std@@V?$allocator@D@2@@std@@VDEVICE@@@std@@@std@@@std@@@std@@U?$_Wrap_alloc@V?$allocator@V?$_List_unchecked_iterator@V?$_List_val@U?$_List_simple_types@U?$pair@$$CBV?$basic_string@DU?$char_traits@D@std@@V?$allocator@D@2@@std@@VDEVICE@@@std@@@std@@@std@@@std@@@std@@@2@@std@@IAEXI@Z 100bdc10 f i dll.obj
 0002:00030e00       ?_Rechecked@?$_Deque_iterator@V?$_Deque_val@U?$_Deque_simple_types@UFORMULA2_PAIR@@@std@@@std@@@std@@QAEAAV12@V?$_Deque_unchecked_iterator@V?$_Deque_val@U?$_Deque_simple_types@UFORMULA2_PAIR@@@std@@@std@@@2@@Z 100bde00 f i dll.obj
 0002:00030e50       ?_Rechecked@?$_Deque_iterator@V?$_Deque_val@U?$_Deque_simple_types@UFORMULA_PAIR@@@std@@@std@@@std@@QAEAAV12@V?$_Deque_unchecked_iterator@V?$_Deque_val@U?$_Deque_simple_types@UFORMULA_PAIR@@@std@@@std@@@2@@Z 100bde50 f i dll.obj
 0002:00030ea0       ?_Reinsert@?$_Hash@V?$_Umap_traits@V?$basic_string@DU?$char_traits@D@std@@V?$allocator@D@2@@std@@GV?$_Uhash_compare@V?$basic_string@DU?$char_traits@D@std@@V?$allocator@D@2@@std@@U?$hash@V?$basic_string@DU?$char_traits@D@std@@V?$allocator@D@2@@std@@@2@U?$equal_to@V?$basic_string@DU?$char_traits@D@std@@V?$allocator@D@2@@std@@@2@@2@V?$allocator@U?$pair@$$CBV?$basic_string@DU?$char_traits@D@std@@V?$allocator@D@2@@std@@G@std@@@2@$0A@@std@@@std@@IAEXXZ 100bdea0 f i dll.obj
 0002:00030fe0       ?_Reinsert@?$_Hash@V?$_Umap_traits@V?$basic_string@DU?$char_traits@D@std@@V?$allocator@D@2@@std@@VDEVICE@@V?$_Uhash_compare@V?$basic_string@DU?$char_traits@D@std@@V?$allocator@D@2@@std@@U?$hash@V?$basic_string@DU?$char_traits@D@std@@V?$allocator@D@2@@std@@@2@U?$equal_to@V?$basic_string@DU?$char_traits@D@std@@V?$allocator@D@2@@std@@@2@@2@V?$allocator@U?$pair@$$CBV?$basic_string@DU?$char_traits@D@std@@V?$allocator@D@2@@std@@VDEVICE@@@std@@@2@$0A@@std@@@std@@IAEXXZ 100bdfe0 f i dll.obj
 0002:00031120       ?_Setcont@?$_Deque_const_iterator@V?$_Deque_val@U?$_Deque_simple_types@UFORMULA2_PAIR@@@std@@@std@@@std@@QAEXPBV?$_Deque_val@U?$_Deque_simple_types@UFORMULA2_PAIR@@@std@@@2@@Z 100be120 f i dll.obj
 0002:00031180       ?_Setcont@?$_Deque_const_iterator@V?$_Deque_val@U?$_Deque_simple_types@UFORMULA_PAIR@@@std@@@std@@@std@@QAEXPBV?$_Deque_val@U?$_Deque_simple_types@UFORMULA_PAIR@@@std@@@2@@Z 100be180 f i dll.obj
 0002:000311e0       ?_Tidy@?$basic_string@DU?$char_traits@D@std@@V?$allocator@D@2@@std@@QAEX_NI@Z 100be1e0 f i dll.obj
 0002:00031300       ?_Tidy@?$deque@UFORMULA2_PAIR@@V?$allocator@UFORMULA2_PAIR@@@std@@@std@@IAEXXZ 100be300 f i dll.obj
 0002:000314b0       ?_Tidy@?$deque@UFORMULA_PAIR@@V?$allocator@UFORMULA_PAIR@@@std@@@std@@IAEXXZ 100be4b0 f i dll.obj
 0002:00031660       ?_Traits_compare@?$basic_string@DU?$char_traits@D@std@@V?$allocator@D@2@@std@@SAHQBDI0I@Z 100be660 f i dll.obj
 0002:00031720       ?_Ufill@?$vector@V?$_List_unchecked_iterator@V?$_List_val@U?$_List_simple_types@U?$pair@$$CBV?$basic_string@DU?$char_traits@D@std@@V?$allocator@D@2@@std@@G@std@@@std@@@std@@@std@@U?$_Wrap_alloc@V?$allocator@V?$_List_unchecked_iterator@V?$_List_val@U?$_List_simple_types@U?$pair@$$CBV?$basic_string@DU?$char_traits@D@std@@V?$allocator@D@2@@std@@G@std@@@std@@@std@@@std@@@std@@@2@@std@@IAEPAV?$_List_unchecked_iterator@V?$_List_val@U?$_List_simple_types@U?$pair@$$CBV?$basic_string@DU?$char_traits@D@std@@V?$allocator@D@2@@std@@G@std@@@std@@@std@@@2@PAV32@IPBV32@@Z 100be720 f i dll.obj
 0002:000317a0       ?_Ufill@?$vector@V?$_List_unchecked_iterator@V?$_List_val@U?$_List_simple_types@U?$pair@$$CBV?$basic_string@DU?$char_traits@D@std@@V?$allocator@D@2@@std@@VDEVICE@@@std@@@std@@@std@@@std@@U?$_Wrap_alloc@V?$allocator@V?$_List_unchecked_iterator@V?$_List_val@U?$_List_simple_types@U?$pair@$$CBV?$basic_string@DU?$char_traits@D@std@@V?$allocator@D@2@@std@@VDEVICE@@@std@@@std@@@std@@@std@@@std@@@2@@std@@IAEPAV?$_List_unchecked_iterator@V?$_List_val@U?$_List_simple_types@U?$pair@$$CBV?$basic_string@DU?$char_traits@D@std@@V?$allocator@D@2@@std@@VDEVICE@@@std@@@std@@@std@@@2@PAV32@IPBV32@@Z 100be7a0 f i dll.obj
 0002:00031820       ?_Unchecked@?$_Deque_const_iterator@V?$_Deque_val@U?$_Deque_simple_types@UFORMULA2_PAIR@@@std@@@std@@@std@@QBE?AV?$_Deque_unchecked_const_iterator@V?$_Deque_val@U?$_Deque_simple_types@UFORMULA2_PAIR@@@std@@@std@@@2@XZ 100be820 f i dll.obj
 0002:00031890       ?_Unchecked@?$_Deque_const_iterator@V?$_Deque_val@U?$_Deque_simple_types@UFORMULA_PAIR@@@std@@@std@@@std@@QBE?AV?$_Deque_unchecked_const_iterator@V?$_Deque_val@U?$_Deque_simple_types@UFORMULA_PAIR@@@std@@@std@@@2@XZ 100be890 f i dll.obj
 0002:00031900       ?_Unchecked@?$_Deque_iterator@V?$_Deque_val@U?$_Deque_simple_types@UFORMULA2_PAIR@@@std@@@std@@@std@@QBE?AV?$_Deque_unchecked_iterator@V?$_Deque_val@U?$_Deque_simple_types@UFORMULA2_PAIR@@@std@@@std@@@2@XZ 100be900 f i dll.obj
 0002:00031970       ?_Unchecked@?$_Deque_iterator@V?$_Deque_val@U?$_Deque_simple_types@UFORMULA_PAIR@@@std@@@std@@@std@@QBE?AV?$_Deque_unchecked_iterator@V?$_Deque_val@U?$_Deque_simple_types@UFORMULA_PAIR@@@std@@@std@@@2@XZ 100be970 f i dll.obj
 0002:000319e0       ?_Unchecked@?$_List_iterator@V?$_List_val@U?$_List_simple_types@U?$pair@$$CBV?$basic_string@DU?$char_traits@D@std@@V?$allocator@D@2@@std@@G@std@@@std@@@std@@@std@@QBE?AV?$_List_unchecked_iterator@V?$_List_val@U?$_List_simple_types@U?$pair@$$CBV?$basic_string@DU?$char_traits@D@std@@V?$allocator@D@2@@std@@G@std@@@std@@@std@@@2@XZ 100be9e0 f i dll.obj
 0002:00031a50       ?_Unchecked@?$_List_iterator@V?$_List_val@U?$_List_simple_types@U?$pair@$$CBV?$basic_string@DU?$char_traits@D@std@@V?$allocator@D@2@@std@@VDEVICE@@@std@@@std@@@std@@@std@@QBE?AV?$_List_unchecked_iterator@V?$_List_val@U?$_List_simple_types@U?$pair@$$CBV?$basic_string@DU?$char_traits@D@std@@V?$allocator@D@2@@std@@VDEVICE@@@std@@@std@@@std@@@2@XZ 100bea50 f i dll.obj
 0002:00031ac0       ?_Unchecked_begin@?$_Hash@V?$_Umap_traits@V?$basic_string@DU?$char_traits@D@std@@V?$allocator@D@2@@std@@GV?$_Uhash_compare@V?$basic_string@DU?$char_traits@D@std@@V?$allocator@D@2@@std@@U?$hash@V?$basic_string@DU?$char_traits@D@std@@V?$allocator@D@2@@std@@@2@U?$equal_to@V?$basic_string@DU?$char_traits@D@std@@V?$allocator@D@2@@std@@@2@@2@V?$allocator@U?$pair@$$CBV?$basic_string@DU?$char_traits@D@std@@V?$allocator@D@2@@std@@G@std@@@2@$0A@@std@@@std@@QAE?AV?$_List_unchecked_iterator@V?$_List_val@U?$_List_simple_types@U?$pair@$$CBV?$basic_string@DU?$char_traits@D@std@@V?$allocator@D@2@@std@@G@std@@@std@@@std@@@2@XZ 100beac0 f i dll.obj
 0002:00031b20       ?_Unchecked_begin@?$_Hash@V?$_Umap_traits@V?$basic_string@DU?$char_traits@D@std@@V?$allocator@D@2@@std@@VDEVICE@@V?$_Uhash_compare@V?$basic_string@DU?$char_traits@D@std@@V?$allocator@D@2@@std@@U?$hash@V?$basic_string@DU?$char_traits@D@std@@V?$allocator@D@2@@std@@@2@U?$equal_to@V?$basic_string@DU?$char_traits@D@std@@V?$allocator@D@2@@std@@@2@@2@V?$allocator@U?$pair@$$CBV?$basic_string@DU?$char_traits@D@std@@V?$allocator@D@2@@std@@VDEVICE@@@std@@@2@$0A@@std@@@std@@QAE?AV?$_List_unchecked_iterator@V?$_List_val@U?$_List_simple_types@U?$pair@$$CBV?$basic_string@DU?$char_traits@D@std@@V?$allocator@D@2@@std@@VDEVICE@@@std@@@std@@@std@@@2@XZ 100beb20 f i dll.obj
 0002:00031b80       ?_Unchecked_begin@?$list@U?$pair@$$CBV?$basic_string@DU?$char_traits@D@std@@V?$allocator@D@2@@std@@G@std@@V?$allocator@U?$pair@$$CBV?$basic_string@DU?$char_traits@D@std@@V?$allocator@D@2@@std@@G@std@@@2@@std@@QAE?AV?$_List_unchecked_iterator@V?$_List_val@U?$_List_simple_types@U?$pair@$$CBV?$basic_string@DU?$char_traits@D@std@@V?$allocator@D@2@@std@@G@std@@@std@@@std@@@2@XZ 100beb80 f i dll.obj
 0002:00031c00       ?_Unchecked_begin@?$list@U?$pair@$$CBV?$basic_string@DU?$char_traits@D@std@@V?$allocator@D@2@@std@@VDEVICE@@@std@@V?$allocator@U?$pair@$$CBV?$basic_string@DU?$char_traits@D@std@@V?$allocator@D@2@@std@@VDEVICE@@@std@@@2@@std@@QAE?AV?$_List_unchecked_iterator@V?$_List_val@U?$_List_simple_types@U?$pair@$$CBV?$basic_string@DU?$char_traits@D@std@@V?$allocator@D@2@@std@@VDEVICE@@@std@@@std@@@std@@@2@XZ 100bec00 f i dll.obj
 0002:00031c80       ?_Unchecked_end@?$_Hash@V?$_Umap_traits@V?$basic_string@DU?$char_traits@D@std@@V?$allocator@D@2@@std@@GV?$_Uhash_compare@V?$basic_string@DU?$char_traits@D@std@@V?$allocator@D@2@@std@@U?$hash@V?$basic_string@DU?$char_traits@D@std@@V?$allocator@D@2@@std@@@2@U?$equal_to@V?$basic_string@DU?$char_traits@D@std@@V?$allocator@D@2@@std@@@2@@2@V?$allocator@U?$pair@$$CBV?$basic_string@DU?$char_traits@D@std@@V?$allocator@D@2@@std@@G@std@@@2@$0A@@std@@@std@@QAE?AV?$_List_unchecked_iterator@V?$_List_val@U?$_List_simple_types@U?$pair@$$CBV?$basic_string@DU?$char_traits@D@std@@V?$allocator@D@2@@std@@G@std@@@std@@@std@@@2@XZ 100bec80 f i dll.obj
 0002:00031ce0       ?_Unchecked_end@?$_Hash@V?$_Umap_traits@V?$basic_string@DU?$char_traits@D@std@@V?$allocator@D@2@@std@@VDEVICE@@V?$_Uhash_compare@V?$basic_string@DU?$char_traits@D@std@@V?$allocator@D@2@@std@@U?$hash@V?$basic_string@DU?$char_traits@D@std@@V?$allocator@D@2@@std@@@2@U?$equal_to@V?$basic_string@DU?$char_traits@D@std@@V?$allocator@D@2@@std@@@2@@2@V?$allocator@U?$pair@$$CBV?$basic_string@DU?$char_traits@D@std@@V?$allocator@D@2@@std@@VDEVICE@@@std@@@2@$0A@@std@@@std@@QAE?AV?$_List_unchecked_iterator@V?$_List_val@U?$_List_simple_types@U?$pair@$$CBV?$basic_string@DU?$char_traits@D@std@@V?$allocator@D@2@@std@@VDEVICE@@@std@@@std@@@std@@@2@XZ 100bece0 f i dll.obj
 0002:00031d40       ?_Unchecked_end@?$list@U?$pair@$$CBV?$basic_string@DU?$char_traits@D@std@@V?$allocator@D@2@@std@@G@std@@V?$allocator@U?$pair@$$CBV?$basic_string@DU?$char_traits@D@std@@V?$allocator@D@2@@std@@G@std@@@2@@std@@QAE?AV?$_List_unchecked_iterator@V?$_List_val@U?$_List_simple_types@U?$pair@$$CBV?$basic_string@DU?$char_traits@D@std@@V?$allocator@D@2@@std@@G@std@@@std@@@std@@@2@XZ 100bed40 f i dll.obj
 0002:00031db0       ?_Unchecked_end@?$list@U?$pair@$$CBV?$basic_string@DU?$char_traits@D@std@@V?$allocator@D@2@@std@@VDEVICE@@@std@@V?$allocator@U?$pair@$$CBV?$basic_string@DU?$char_traits@D@std@@V?$allocator@D@2@@std@@VDEVICE@@@std@@@2@@std@@QAE?AV?$_List_unchecked_iterator@V?$_List_val@U?$_List_simple_types@U?$pair@$$CBV?$basic_string@DU?$char_traits@D@std@@V?$allocator@D@2@@std@@VDEVICE@@@std@@@std@@@std@@@2@XZ 100bedb0 f i dll.obj
 0002:00031e20       ?_Unchecked_splice@?$list@U?$pair@$$CBV?$basic_string@DU?$char_traits@D@std@@V?$allocator@D@2@@std@@G@std@@V?$allocator@U?$pair@$$CBV?$basic_string@DU?$char_traits@D@std@@V?$allocator@D@2@@std@@G@std@@@2@@std@@QAEXV?$_List_unchecked_const_iterator@V?$_List_val@U?$_List_simple_types@U?$pair@$$CBV?$basic_string@DU?$char_traits@D@std@@V?$allocator@D@2@@std@@G@std@@@std@@@std@@U_Iterator_base0@2@@2@00@Z 100bee20 f i dll.obj
 0002:00031fa0       ?_Unchecked_splice@?$list@U?$pair@$$CBV?$basic_string@DU?$char_traits@D@std@@V?$allocator@D@2@@std@@VDEVICE@@@std@@V?$allocator@U?$pair@$$CBV?$basic_string@DU?$char_traits@D@std@@V?$allocator@D@2@@std@@VDEVICE@@@std@@@2@@std@@QAEXV?$_List_unchecked_const_iterator@V?$_List_val@U?$_List_simple_types@U?$pair@$$CBV?$basic_string@DU?$char_traits@D@std@@V?$allocator@D@2@@std@@VDEVICE@@@std@@@std@@@std@@U_Iterator_base0@2@@2@00@Z 100befa0 f i dll.obj
 0002:00032120       ?_Unlinknode@?$list@U?$pair@$$CBV?$basic_string@DU?$char_traits@D@std@@V?$allocator@D@2@@std@@G@std@@V?$allocator@U?$pair@$$CBV?$basic_string@DU?$char_traits@D@std@@V?$allocator@D@2@@std@@G@std@@@2@@std@@QAEPAU?$_List_node@U?$pair@$$CBV?$basic_string@DU?$char_traits@D@std@@V?$allocator@D@2@@std@@G@std@@PAX@2@V?$_List_const_iterator@V?$_List_val@U?$_List_simple_types@U?$pair@$$CBV?$basic_string@DU?$char_traits@D@std@@V?$allocator@D@2@@std@@G@std@@@std@@@std@@@2@@Z 100bf120 f i dll.obj
 0002:000322d0       ?_Unlinknode@?$list@U?$pair@$$CBV?$basic_string@DU?$char_traits@D@std@@V?$allocator@D@2@@std@@VDEVICE@@@std@@V?$allocator@U?$pair@$$CBV?$basic_string@DU?$char_traits@D@std@@V?$allocator@D@2@@std@@VDEVICE@@@std@@@2@@std@@QAEPAU?$_List_node@U?$pair@$$CBV?$basic_string@DU?$char_traits@D@std@@V?$allocator@D@2@@std@@VDEVICE@@@std@@PAX@2@V?$_List_const_iterator@V?$_List_val@U?$_List_simple_types@U?$pair@$$CBV?$basic_string@DU?$char_traits@D@std@@V?$allocator@D@2@@std@@VDEVICE@@@std@@@std@@@std@@@2@@Z 100bf2d0 f i dll.obj
 0002:00032480       ?_Unused_capacity@?$vector@V?$_List_unchecked_iterator@V?$_List_val@U?$_List_simple_types@U?$pair@$$CBV?$basic_string@DU?$char_traits@D@std@@V?$allocator@D@2@@std@@G@std@@@std@@@std@@@std@@U?$_Wrap_alloc@V?$allocator@V?$_List_unchecked_iterator@V?$_List_val@U?$_List_simple_types@U?$pair@$$CBV?$basic_string@DU?$char_traits@D@std@@V?$allocator@D@2@@std@@G@std@@@std@@@std@@@std@@@std@@@2@@std@@QBEIXZ 100bf480 f i dll.obj
 0002:000324f0       ?_Unused_capacity@?$vector@V?$_List_unchecked_iterator@V?$_List_val@U?$_List_simple_types@U?$pair@$$CBV?$basic_string@DU?$char_traits@D@std@@V?$allocator@D@2@@std@@VDEVICE@@@std@@@std@@@std@@@std@@U?$_Wrap_alloc@V?$allocator@V?$_List_unchecked_iterator@V?$_List_val@U?$_List_simple_types@U?$pair@$$CBV?$basic_string@DU?$char_traits@D@std@@V?$allocator@D@2@@std@@VDEVICE@@@std@@@std@@@std@@@std@@@std@@@2@@std@@QBEIXZ 100bf4f0 f i dll.obj
 0002:00032560       ?_Vec_hi@?$_Hash@V?$_Umap_traits@V?$basic_string@DU?$char_traits@D@std@@V?$allocator@D@2@@std@@GV?$_Uhash_compare@V?$basic_string@DU?$char_traits@D@std@@V?$allocator@D@2@@std@@U?$hash@V?$basic_string@DU?$char_traits@D@std@@V?$allocator@D@2@@std@@@2@U?$equal_to@V?$basic_string@DU?$char_traits@D@std@@V?$allocator@D@2@@std@@@2@@2@V?$allocator@U?$pair@$$CBV?$basic_string@DU?$char_traits@D@std@@V?$allocator@D@2@@std@@G@std@@@2@$0A@@std@@@std@@IAEAAV?$_List_unchecked_iterator@V?$_List_val@U?$_List_simple_types@U?$pair@$$CBV?$basic_string@DU?$char_traits@D@std@@V?$allocator@D@2@@std@@G@std@@@std@@@std@@@2@I@Z 100bf560 f i dll.obj
 0002:000325c0       ?_Vec_hi@?$_Hash@V?$_Umap_traits@V?$basic_string@DU?$char_traits@D@std@@V?$allocator@D@2@@std@@VDEVICE@@V?$_Uhash_compare@V?$basic_string@DU?$char_traits@D@std@@V?$allocator@D@2@@std@@U?$hash@V?$basic_string@DU?$char_traits@D@std@@V?$allocator@D@2@@std@@@2@U?$equal_to@V?$basic_string@DU?$char_traits@D@std@@V?$allocator@D@2@@std@@@2@@2@V?$allocator@U?$pair@$$CBV?$basic_string@DU?$char_traits@D@std@@V?$allocator@D@2@@std@@VDEVICE@@@std@@@2@$0A@@std@@@std@@IAEAAV?$_List_unchecked_iterator@V?$_List_val@U?$_List_simple_types@U?$pair@$$CBV?$basic_string@DU?$char_traits@D@std@@V?$allocator@D@2@@std@@VDEVICE@@@std@@@std@@@std@@@2@I@Z 100bf5c0 f i dll.obj
 0002:00032620       ?_Vec_lo@?$_Hash@V?$_Umap_traits@V?$basic_string@DU?$char_traits@D@std@@V?$allocator@D@2@@std@@GV?$_Uhash_compare@V?$basic_string@DU?$char_traits@D@std@@V?$allocator@D@2@@std@@U?$hash@V?$basic_string@DU?$char_traits@D@std@@V?$allocator@D@2@@std@@@2@U?$equal_to@V?$basic_string@DU?$char_traits@D@std@@V?$allocator@D@2@@std@@@2@@2@V?$allocator@U?$pair@$$CBV?$basic_string@DU?$char_traits@D@std@@V?$allocator@D@2@@std@@G@std@@@2@$0A@@std@@@std@@IAEAAV?$_List_unchecked_iterator@V?$_List_val@U?$_List_simple_types@U?$pair@$$CBV?$basic_string@DU?$char_traits@D@std@@V?$allocator@D@2@@std@@G@std@@@std@@@std@@@2@I@Z 100bf620 f i dll.obj
 0002:00032680       ?_Vec_lo@?$_Hash@V?$_Umap_traits@V?$basic_string@DU?$char_traits@D@std@@V?$allocator@D@2@@std@@VDEVICE@@V?$_Uhash_compare@V?$basic_string@DU?$char_traits@D@std@@V?$allocator@D@2@@std@@U?$hash@V?$basic_string@DU?$char_traits@D@std@@V?$allocator@D@2@@std@@@2@U?$equal_to@V?$basic_string@DU?$char_traits@D@std@@V?$allocator@D@2@@std@@@2@@2@V?$allocator@U?$pair@$$CBV?$basic_string@DU?$char_traits@D@std@@V?$allocator@D@2@@std@@VDEVICE@@@std@@@2@$0A@@std@@@std@@IAEAAV?$_List_unchecked_iterator@V?$_List_val@U?$_List_simple_types@U?$pair@$$CBV?$basic_string@DU?$char_traits@D@std@@V?$allocator@D@2@@std@@VDEVICE@@@std@@@std@@@std@@@2@I@Z 100bf680 f i dll.obj
 0002:000326e0       ?_Xlen@?$basic_string@DU?$char_traits@D@std@@V?$allocator@D@2@@std@@QBEXXZ 100bf6e0 f i dll.obj
 0002:00032740       ?_Xlen@?$deque@UFORMULA2_PAIR@@V?$allocator@UFORMULA2_PAIR@@@std@@@std@@IBEXXZ 100bf740 f i dll.obj
 0002:000327a0       ?_Xlen@?$deque@UFORMULA_PAIR@@V?$allocator@UFORMULA_PAIR@@@std@@@std@@IBEXXZ 100bf7a0 f i dll.obj
 0002:00032800       ?_Xlen@?$vector@V?$_List_unchecked_iterator@V?$_List_val@U?$_List_simple_types@U?$pair@$$CBV?$basic_string@DU?$char_traits@D@std@@V?$allocator@D@2@@std@@G@std@@@std@@@std@@@std@@U?$_Wrap_alloc@V?$allocator@V?$_List_unchecked_iterator@V?$_List_val@U?$_List_simple_types@U?$pair@$$CBV?$basic_string@DU?$char_traits@D@std@@V?$allocator@D@2@@std@@G@std@@@std@@@std@@@std@@@std@@@2@@std@@IBEXXZ 100bf800 f i dll.obj
 0002:00032860       ?_Xlen@?$vector@V?$_List_unchecked_iterator@V?$_List_val@U?$_List_simple_types@U?$pair@$$CBV?$basic_string@DU?$char_traits@D@std@@V?$allocator@D@2@@std@@VDEVICE@@@std@@@std@@@std@@@std@@U?$_Wrap_alloc@V?$allocator@V?$_List_unchecked_iterator@V?$_List_val@U?$_List_simple_types@U?$pair@$$CBV?$basic_string@DU?$char_traits@D@std@@V?$allocator@D@2@@std@@VDEVICE@@@std@@@std@@@std@@@std@@@std@@@2@@std@@IBEXXZ 100bf860 f i dll.obj
 0002:000328c0       ?_Xran@?$basic_string@DU?$char_traits@D@std@@V?$allocator@D@2@@std@@QBEXXZ 100bf8c0 f i dll.obj
 0002:00032920       ?__empty_global_delete@@YAXPAX@Z 100bf920 f i dll.obj
 0002:00032950       ?__empty_global_delete@@YAXPAXI@Z 100bf950 f i dll.obj
 0002:00032980       ?address@?$_Wrap_alloc@V?$allocator@U_Container_proxy@std@@@std@@@std@@QBEPAU_Container_proxy@2@AAU32@@Z 100bf980 f i dll.obj
 0002:000329e0       ?allocate@?$_Wrap_alloc@U?$_Wrap_alloc@V?$allocator@V?$_List_unchecked_iterator@V?$_List_val@U?$_List_simple_types@U?$pair@$$CBV?$basic_string@DU?$char_traits@D@std@@V?$allocator@D@2@@std@@G@std@@@std@@@std@@@std@@@std@@@std@@@std@@QAEPAV?$_List_unchecked_iterator@V?$_List_val@U?$_List_simple_types@U?$pair@$$CBV?$basic_string@DU?$char_traits@D@std@@V?$allocator@D@2@@std@@G@std@@@std@@@std@@@2@I@Z 100bf9e0 f i dll.obj
 0002:00032a40       ?allocate@?$_Wrap_alloc@U?$_Wrap_alloc@V?$allocator@V?$_List_unchecked_iterator@V?$_List_val@U?$_List_simple_types@U?$pair@$$CBV?$basic_string@DU?$char_traits@D@std@@V?$allocator@D@2@@std@@VDEVICE@@@std@@@std@@@std@@@std@@@std@@@std@@@std@@QAEPAV?$_List_unchecked_iterator@V?$_List_val@U?$_List_simple_types@U?$pair@$$CBV?$basic_string@DU?$char_traits@D@std@@V?$allocator@D@2@@std@@VDEVICE@@@std@@@std@@@std@@@2@I@Z 100bfa40 f i dll.obj
 0002:00032aa0       ?allocate@?$_Wrap_alloc@V?$allocator@D@std@@@std@@QAEPADI@Z 100bfaa0 f i dll.obj
 0002:00032b00       ?allocate@?$_Wrap_alloc@V?$allocator@PAUFORMULA2_PAIR@@@std@@@std@@QAEPAPAUFORMULA2_PAIR@@I@Z 100bfb00 f i dll.obj
 0002:00032b60       ?allocate@?$_Wrap_alloc@V?$allocator@PAUFORMULA_PAIR@@@std@@@std@@QAEPAPAUFORMULA_PAIR@@I@Z 100bfb60 f i dll.obj
 0002:00032bc0       ?allocate@?$_Wrap_alloc@V?$allocator@U?$_List_node@U?$pair@$$CBV?$basic_string@DU?$char_traits@D@std@@V?$allocator@D@2@@std@@G@std@@PAX@std@@@std@@@std@@QAEPAU?$_List_node@U?$pair@$$CBV?$basic_string@DU?$char_traits@D@std@@V?$allocator@D@2@@std@@G@std@@PAX@2@I@Z 100bfbc0 f i dll.obj
 0002:00032c20       ?allocate@?$_Wrap_alloc@V?$allocator@U?$_List_node@U?$pair@$$CBV?$basic_string@DU?$char_traits@D@std@@V?$allocator@D@2@@std@@VDEVICE@@@std@@PAX@std@@@std@@@std@@QAEPAU?$_List_node@U?$pair@$$CBV?$basic_string@DU?$char_traits@D@std@@V?$allocator@D@2@@std@@VDEVICE@@@std@@PAX@2@I@Z 100bfc20 f i dll.obj
 0002:00032c80       ?allocate@?$_Wrap_alloc@V?$allocator@UFORMULA2_PAIR@@@std@@@std@@QAEPAUFORMULA2_PAIR@@I@Z 100bfc80 f i dll.obj
 0002:00032ce0       ?allocate@?$_Wrap_alloc@V?$allocator@UFORMULA_PAIR@@@std@@@std@@QAEPAUFORMULA_PAIR@@I@Z 100bfce0 f i dll.obj
 0002:00032d40       ?allocate@?$_Wrap_alloc@V?$allocator@U_Container_proxy@std@@@std@@@std@@QAEPAU_Container_proxy@2@I@Z 100bfd40 f i dll.obj
 0002:00032da0       ?allocate@?$_Wrap_alloc@V?$allocator@V?$_List_unchecked_iterator@V?$_List_val@U?$_List_simple_types@U?$pair@$$CBV?$basic_string@DU?$char_traits@D@std@@V?$allocator@D@2@@std@@G@std@@@std@@@std@@@std@@@std@@@std@@QAEPAV?$_List_unchecked_iterator@V?$_List_val@U?$_List_simple_types@U?$pair@$$CBV?$basic_string@DU?$char_traits@D@std@@V?$allocator@D@2@@std@@G@std@@@std@@@std@@@2@I@Z 100bfda0 f i dll.obj
 0002:00032e00       ?allocate@?$_Wrap_alloc@V?$allocator@V?$_List_unchecked_iterator@V?$_List_val@U?$_List_simple_types@U?$pair@$$CBV?$basic_string@DU?$char_traits@D@std@@V?$allocator@D@2@@std@@VDEVICE@@@std@@@std@@@std@@@std@@@std@@@std@@QAEPAV?$_List_unchecked_iterator@V?$_List_val@U?$_List_simple_types@U?$pair@$$CBV?$basic_string@DU?$char_traits@D@std@@V?$allocator@D@2@@std@@VDEVICE@@@std@@@std@@@std@@@2@I@Z 100bfe00 f i dll.obj
 0002:00032e60       ?allocate@?$allocator@D@std@@QAEPADI@Z 100bfe60 f i dll.obj
 0002:00032ec0       ?allocate@?$allocator@PAUFORMULA2_PAIR@@@std@@QAEPAPAUFORMULA2_PAIR@@I@Z 100bfec0 f i dll.obj
 0002:00032f20       ?allocate@?$allocator@PAUFORMULA_PAIR@@@std@@QAEPAPAUFORMULA_PAIR@@I@Z 100bff20 f i dll.obj
 0002:00032f80       ?allocate@?$allocator@U?$_List_node@U?$pair@$$CBV?$basic_string@DU?$char_traits@D@std@@V?$allocator@D@2@@std@@G@std@@PAX@std@@@std@@QAEPAU?$_List_node@U?$pair@$$CBV?$basic_string@DU?$char_traits@D@std@@V?$allocator@D@2@@std@@G@std@@PAX@2@I@Z 100bff80 f i dll.obj
 0002:00032fe0       ?allocate@?$allocator@U?$_List_node@U?$pair@$$CBV?$basic_string@DU?$char_traits@D@std@@V?$allocator@D@2@@std@@VDEVICE@@@std@@PAX@std@@@std@@QAEPAU?$_List_node@U?$pair@$$CBV?$basic_string@DU?$char_traits@D@std@@V?$allocator@D@2@@std@@VDEVICE@@@std@@PAX@2@I@Z 100bffe0 f i dll.obj
 0002:00033040       ?allocate@?$allocator@UFORMULA2_PAIR@@@std@@QAEPAUFORMULA2_PAIR@@I@Z 100c0040 f i dll.obj
 0002:000330a0       ?allocate@?$allocator@UFORMULA_PAIR@@@std@@QAEPAUFORMULA_PAIR@@I@Z 100c00a0 f i dll.obj
 0002:00033100       ?allocate@?$allocator@U_Container_proxy@std@@@std@@QAEPAU_Container_proxy@2@I@Z 100c0100 f i dll.obj
 0002:00033160       ?allocate@?$allocator@V?$_List_unchecked_iterator@V?$_List_val@U?$_List_simple_types@U?$pair@$$CBV?$basic_string@DU?$char_traits@D@std@@V?$allocator@D@2@@std@@G@std@@@std@@@std@@@std@@@std@@QAEPAV?$_List_unchecked_iterator@V?$_List_val@U?$_List_simple_types@U?$pair@$$CBV?$basic_string@DU?$char_traits@D@std@@V?$allocator@D@2@@std@@G@std@@@std@@@std@@@2@I@Z 100c0160 f i dll.obj
 0002:000331c0       ?allocate@?$allocator@V?$_List_unchecked_iterator@V?$_List_val@U?$_List_simple_types@U?$pair@$$CBV?$basic_string@DU?$char_traits@D@std@@V?$allocator@D@2@@std@@VDEVICE@@@std@@@std@@@std@@@std@@@std@@QAEPAV?$_List_unchecked_iterator@V?$_List_val@U?$_List_simple_types@U?$pair@$$CBV?$basic_string@DU?$char_traits@D@std@@V?$allocator@D@2@@std@@VDEVICE@@@std@@@std@@@std@@@2@I@Z 100c01c0 f i dll.obj
 0002:00033220       ?assign@?$basic_string@DU?$char_traits@D@std@@V?$allocator@D@2@@std@@QAEAAV12@ABV12@@Z 100c0220 f i dll.obj
 0002:00033280       ?assign@?$basic_string@DU?$char_traits@D@std@@V?$allocator@D@2@@std@@QAEAAV12@ABV12@II@Z 100c0280 f i dll.obj
 0002:00033380       ?assign@?$basic_string@DU?$char_traits@D@std@@V?$allocator@D@2@@std@@QAEAAV12@PBD@Z 100c0380 f i dll.obj
 0002:00033410       ?assign@?$basic_string@DU?$char_traits@D@std@@V?$allocator@D@2@@std@@QAEAAV12@PBDI@Z 100c0410 f i dll.obj
 0002:00033530       ?assign@?$char_traits@D@std@@SAXAADABD@Z 100c0530 f i dll.obj
 0002:00033570       ?assign@?$vector@V?$_List_unchecked_iterator@V?$_List_val@U?$_List_simple_types@U?$pair@$$CBV?$basic_string@DU?$char_traits@D@std@@V?$allocator@D@2@@std@@G@std@@@std@@@std@@@std@@U?$_Wrap_alloc@V?$allocator@V?$_List_unchecked_iterator@V?$_List_val@U?$_List_simple_types@U?$pair@$$CBV?$basic_string@DU?$char_traits@D@std@@V?$allocator@D@2@@std@@G@std@@@std@@@std@@@std@@@std@@@2@@std@@QAEXIABV?$_List_unchecked_iterator@V?$_List_val@U?$_List_simple_types@U?$pair@$$CBV?$basic_string@DU?$char_traits@D@std@@V?$allocator@D@2@@std@@G@std@@@std@@@std@@@2@@Z 100c0570 f i dll.obj
 0002:000336a0       ?assign@?$vector@V?$_List_unchecked_iterator@V?$_List_val@U?$_List_simple_types@U?$pair@$$CBV?$basic_string@DU?$char_traits@D@std@@V?$allocator@D@2@@std@@VDEVICE@@@std@@@std@@@std@@@std@@U?$_Wrap_alloc@V?$allocator@V?$_List_unchecked_iterator@V?$_List_val@U?$_List_simple_types@U?$pair@$$CBV?$basic_string@DU?$char_traits@D@std@@V?$allocator@D@2@@std@@VDEVICE@@@std@@@std@@@std@@@std@@@std@@@2@@std@@QAEXIABV?$_List_unchecked_iterator@V?$_List_val@U?$_List_simple_types@U?$pair@$$CBV?$basic_string@DU?$char_traits@D@std@@V?$allocator@D@2@@std@@VDEVICE@@@std@@@std@@@std@@@2@@Z 100c06a0 f i dll.obj
 0002:000337d0       ?begin@?$_Hash@V?$_Umap_traits@V?$basic_string@DU?$char_traits@D@std@@V?$allocator@D@2@@std@@GV?$_Uhash_compare@V?$basic_string@DU?$char_traits@D@std@@V?$allocator@D@2@@std@@U?$hash@V?$basic_string@DU?$char_traits@D@std@@V?$allocator@D@2@@std@@@2@U?$equal_to@V?$basic_string@DU?$char_traits@D@std@@V?$allocator@D@2@@std@@@2@@2@V?$allocator@U?$pair@$$CBV?$basic_string@DU?$char_traits@D@std@@V?$allocator@D@2@@std@@G@std@@@2@$0A@@std@@@std@@QAE?AV?$_List_iterator@V?$_List_val@U?$_List_simple_types@U?$pair@$$CBV?$basic_string@DU?$char_traits@D@std@@V?$allocator@D@2@@std@@G@std@@@std@@@std@@@2@XZ 100c07d0 f i dll.obj
 0002:00033830       ?begin@?$deque@UFORMULA2_PAIR@@V?$allocator@UFORMULA2_PAIR@@@std@@@std@@QAE?AV?$_Deque_iterator@V?$_Deque_val@U?$_Deque_simple_types@UFORMULA2_PAIR@@@std@@@std@@@2@XZ 100c0830 f i dll.obj
 0002:000338e0       ?begin@?$deque@UFORMULA2_PAIR@@V?$allocator@UFORMULA2_PAIR@@@std@@@std@@QBE?AV?$_Deque_const_iterator@V?$_Deque_val@U?$_Deque_simple_types@UFORMULA2_PAIR@@@std@@@std@@@2@XZ 100c08e0 f i dll.obj
 0002:00033990       ?begin@?$deque@UFORMULA_PAIR@@V?$allocator@UFORMULA_PAIR@@@std@@@std@@QAE?AV?$_Deque_iterator@V?$_Deque_val@U?$_Deque_simple_types@UFORMULA_PAIR@@@std@@@std@@@2@XZ 100c0990 f i dll.obj
 0002:00033a40       ?begin@?$deque@UFORMULA_PAIR@@V?$allocator@UFORMULA_PAIR@@@std@@@std@@QBE?AV?$_Deque_const_iterator@V?$_Deque_val@U?$_Deque_simple_types@UFORMULA_PAIR@@@std@@@std@@@2@XZ 100c0a40 f i dll.obj
 0002:00033af0       ?begin@?$list@U?$pair@$$CBV?$basic_string@DU?$char_traits@D@std@@V?$allocator@D@2@@std@@G@std@@V?$allocator@U?$pair@$$CBV?$basic_string@DU?$char_traits@D@std@@V?$allocator@D@2@@std@@G@std@@@2@@std@@QAE?AV?$_List_iterator@V?$_List_val@U?$_List_simple_types@U?$pair@$$CBV?$basic_string@DU?$char_traits@D@std@@V?$allocator@D@2@@std@@G@std@@@std@@@std@@@2@XZ 100c0af0 f i dll.obj
 0002:00033ba0       ?begin@?$list@U?$pair@$$CBV?$basic_string@DU?$char_traits@D@std@@V?$allocator@D@2@@std@@VDEVICE@@@std@@V?$allocator@U?$pair@$$CBV?$basic_string@DU?$char_traits@D@std@@V?$allocator@D@2@@std@@VDEVICE@@@std@@@2@@std@@QAE?AV?$_List_iterator@V?$_List_val@U?$_List_simple_types@U?$pair@$$CBV?$basic_string@DU?$char_traits@D@std@@V?$allocator@D@2@@std@@VDEVICE@@@std@@@std@@@std@@@2@XZ 100c0ba0 f i dll.obj
 0002:00033c50       ?begin@?$vector@V?$_List_unchecked_iterator@V?$_List_val@U?$_List_simple_types@U?$pair@$$CBV?$basic_string@DU?$char_traits@D@std@@V?$allocator@D@2@@std@@G@std@@@std@@@std@@@std@@U?$_Wrap_alloc@V?$allocator@V?$_List_unchecked_iterator@V?$_List_val@U?$_List_simple_types@U?$pair@$$CBV?$basic_string@DU?$char_traits@D@std@@V?$allocator@D@2@@std@@G@std@@@std@@@std@@@std@@@std@@@2@@std@@QAE?AV?$_Vector_iterator@V?$_Vector_val@U?$_Simple_types@V?$_List_unchecked_iterator@V?$_List_val@U?$_List_simple_types@U?$pair@$$CBV?$basic_string@DU?$char_traits@D@std@@V?$allocator@D@2@@std@@G@std@@@std@@@std@@@std@@@std@@@std@@@2@XZ 100c0c50 f i dll.obj
 0002:00033d00       ?begin@?$vector@V?$_List_unchecked_iterator@V?$_List_val@U?$_List_simple_types@U?$pair@$$CBV?$basic_string@DU?$char_traits@D@std@@V?$allocator@D@2@@std@@VDEVICE@@@std@@@std@@@std@@@std@@U?$_Wrap_alloc@V?$allocator@V?$_List_unchecked_iterator@V?$_List_val@U?$_List_simple_types@U?$pair@$$CBV?$basic_string@DU?$char_traits@D@std@@V?$allocator@D@2@@std@@VDEVICE@@@std@@@std@@@std@@@std@@@std@@@2@@std@@QAE?AV?$_Vector_iterator@V?$_Vector_val@U?$_Simple_types@V?$_List_unchecked_iterator@V?$_List_val@U?$_List_simple_types@U?$pair@$$CBV?$basic_string@DU?$char_traits@D@std@@V?$allocator@D@2@@std@@VDEVICE@@@std@@@std@@@std@@@std@@@std@@@std@@@2@XZ 100c0d00 f i dll.obj
 0002:00033db0       ?bucket_count@?$_Hash@V?$_Umap_traits@V?$basic_string@DU?$char_traits@D@std@@V?$allocator@D@2@@std@@GV?$_Uhash_compare@V?$basic_string@DU?$char_traits@D@std@@V?$allocator@D@2@@std@@U?$hash@V?$basic_string@DU?$char_traits@D@std@@V?$allocator@D@2@@std@@@2@U?$equal_to@V?$basic_string@DU?$char_traits@D@std@@V?$allocator@D@2@@std@@@2@@2@V?$allocator@U?$pair@$$CBV?$basic_string@DU?$char_traits@D@std@@V?$allocator@D@2@@std@@G@std@@@2@$0A@@std@@@std@@QBEIXZ 100c0db0 f i dll.obj
 0002:00033df0       ?bucket_count@?$_Hash@V?$_Umap_traits@V?$basic_string@DU?$char_traits@D@std@@V?$allocator@D@2@@std@@VDEVICE@@V?$_Uhash_compare@V?$basic_string@DU?$char_traits@D@std@@V?$allocator@D@2@@std@@U?$hash@V?$basic_string@DU?$char_traits@D@std@@V?$allocator@D@2@@std@@@2@U?$equal_to@V?$basic_string@DU?$char_traits@D@std@@V?$allocator@D@2@@std@@@2@@2@V?$allocator@U?$pair@$$CBV?$basic_string@DU?$char_traits@D@std@@V?$allocator@D@2@@std@@VDEVICE@@@std@@@2@$0A@@std@@@std@@QBEIXZ 100c0df0 f i dll.obj
 0002:00033e30       ?c_str@?$basic_string@DU?$char_traits@D@std@@V?$allocator@D@2@@std@@QBEPBDXZ 100c0e30 f i dll.obj
 0002:00033ec0       ?capacity@?$vector@V?$_List_unchecked_iterator@V?$_List_val@U?$_List_simple_types@U?$pair@$$CBV?$basic_string@DU?$char_traits@D@std@@V?$allocator@D@2@@std@@G@std@@@std@@@std@@@std@@U?$_Wrap_alloc@V?$allocator@V?$_List_unchecked_iterator@V?$_List_val@U?$_List_simple_types@U?$pair@$$CBV?$basic_string@DU?$char_traits@D@std@@V?$allocator@D@2@@std@@G@std@@@std@@@std@@@std@@@std@@@2@@std@@QBEIXZ 100c0ec0 f i dll.obj
 0002:00033f30       ?capacity@?$vector@V?$_List_unchecked_iterator@V?$_List_val@U?$_List_simple_types@U?$pair@$$CBV?$basic_string@DU?$char_traits@D@std@@V?$allocator@D@2@@std@@VDEVICE@@@std@@@std@@@std@@@std@@U?$_Wrap_alloc@V?$allocator@V?$_List_unchecked_iterator@V?$_List_val@U?$_List_simple_types@U?$pair@$$CBV?$basic_string@DU?$char_traits@D@std@@V?$allocator@D@2@@std@@VDEVICE@@@std@@@std@@@std@@@std@@@std@@@2@@std@@QBEIXZ 100c0f30 f i dll.obj
 0002:00033fa0       ?clear@?$_Hash@V?$_Umap_traits@V?$basic_string@DU?$char_traits@D@std@@V?$allocator@D@2@@std@@GV?$_Uhash_compare@V?$basic_string@DU?$char_traits@D@std@@V?$allocator@D@2@@std@@U?$hash@V?$basic_string@DU?$char_traits@D@std@@V?$allocator@D@2@@std@@@2@U?$equal_to@V?$basic_string@DU?$char_traits@D@std@@V?$allocator@D@2@@std@@@2@@2@V?$allocator@U?$pair@$$CBV?$basic_string@DU?$char_traits@D@std@@V?$allocator@D@2@@std@@G@std@@@2@$0A@@std@@@std@@QAEXXZ 100c0fa0 f i dll.obj
 0002:00034040       ?clear@?$deque@UFORMULA2_PAIR@@V?$allocator@UFORMULA2_PAIR@@@std@@@std@@QAEXXZ 100c1040 f i dll.obj
 0002:000340d0       ?clear@?$deque@UFORMULA_PAIR@@V?$allocator@UFORMULA_PAIR@@@std@@@std@@QAEXXZ 100c10d0 f i dll.obj
 0002:00034160       ?clear@?$list@U?$pair@$$CBV?$basic_string@DU?$char_traits@D@std@@V?$allocator@D@2@@std@@G@std@@V?$allocator@U?$pair@$$CBV?$basic_string@DU?$char_traits@D@std@@V?$allocator@D@2@@std@@G@std@@@2@@std@@QAEXXZ 100c1160 f i dll.obj
 0002:000342b0       ?clear@?$vector@V?$_List_unchecked_iterator@V?$_List_val@U?$_List_simple_types@U?$pair@$$CBV?$basic_string@DU?$char_traits@D@std@@V?$allocator@D@2@@std@@G@std@@@std@@@std@@@std@@U?$_Wrap_alloc@V?$allocator@V?$_List_unchecked_iterator@V?$_List_val@U?$_List_simple_types@U?$pair@$$CBV?$basic_string@DU?$char_traits@D@std@@V?$allocator@D@2@@std@@G@std@@@std@@@std@@@std@@@std@@@2@@std@@QAEXXZ 100c12b0 f i dll.obj
 0002:00034380       ?clear@?$vector@V?$_List_unchecked_iterator@V?$_List_val@U?$_List_simple_types@U?$pair@$$CBV?$basic_string@DU?$char_traits@D@std@@V?$allocator@D@2@@std@@VDEVICE@@@std@@@std@@@std@@@std@@U?$_Wrap_alloc@V?$allocator@V?$_List_unchecked_iterator@V?$_List_val@U?$_List_simple_types@U?$pair@$$CBV?$basic_string@DU?$char_traits@D@std@@V?$allocator@D@2@@std@@VDEVICE@@@std@@@std@@@std@@@std@@@std@@@2@@std@@QAEXXZ 100c1380 f i dll.obj
 0002:00034450       ?compare@?$basic_string@DU?$char_traits@D@std@@V?$allocator@D@2@@std@@QBEHABV12@@Z 100c1450 f i dll.obj
 0002:00034510       ?compare@?$char_traits@D@std@@SAHPBD0I@Z 100c1510 f i dll.obj
 0002:00034590       ?copy@?$char_traits@D@std@@SAPADPADPBDI@Z 100c1590 f i dll.obj
 0002:00034610       ?deallocate@?$_Wrap_alloc@U?$_Wrap_alloc@V?$allocator@V?$_List_unchecked_iterator@V?$_List_val@U?$_List_simple_types@U?$pair@$$CBV?$basic_string@DU?$char_traits@D@std@@V?$allocator@D@2@@std@@G@std@@@std@@@std@@@std@@@std@@@std@@@std@@QAEXPAV?$_List_unchecked_iterator@V?$_List_val@U?$_List_simple_types@U?$pair@$$CBV?$basic_string@DU?$char_traits@D@std@@V?$allocator@D@2@@std@@G@std@@@std@@@std@@@2@I@Z 100c1610 f i dll.obj
 0002:00034670       ?deallocate@?$_Wrap_alloc@U?$_Wrap_alloc@V?$allocator@V?$_List_unchecked_iterator@V?$_List_val@U?$_List_simple_types@U?$pair@$$CBV?$basic_string@DU?$char_traits@D@std@@V?$allocator@D@2@@std@@VDEVICE@@@std@@@std@@@std@@@std@@@std@@@std@@@std@@QAEXPAV?$_List_unchecked_iterator@V?$_List_val@U?$_List_simple_types@U?$pair@$$CBV?$basic_string@DU?$char_traits@D@std@@V?$allocator@D@2@@std@@VDEVICE@@@std@@@std@@@std@@@2@I@Z 100c1670 f i dll.obj
 0002:000346d0       ?deallocate@?$_Wrap_alloc@V?$allocator@D@std@@@std@@QAEXPADI@Z 100c16d0 f i dll.obj
 0002:00034730       ?deallocate@?$_Wrap_alloc@V?$allocator@PAUFORMULA2_PAIR@@@std@@@std@@QAEXPAPAUFORMULA2_PAIR@@I@Z 100c1730 f i dll.obj
 0002:00034790       ?deallocate@?$_Wrap_alloc@V?$allocator@PAUFORMULA_PAIR@@@std@@@std@@QAEXPAPAUFORMULA_PAIR@@I@Z 100c1790 f i dll.obj
 0002:000347f0       ?deallocate@?$_Wrap_alloc@V?$allocator@U?$_List_node@U?$pair@$$CBV?$basic_string@DU?$char_traits@D@std@@V?$allocator@D@2@@std@@G@std@@PAX@std@@@std@@@std@@QAEXPAU?$_List_node@U?$pair@$$CBV?$basic_string@DU?$char_traits@D@std@@V?$allocator@D@2@@std@@G@std@@PAX@2@I@Z 100c17f0 f i dll.obj
 0002:00034850       ?deallocate@?$_Wrap_alloc@V?$allocator@U?$_List_node@U?$pair@$$CBV?$basic_string@DU?$char_traits@D@std@@V?$allocator@D@2@@std@@VDEVICE@@@std@@PAX@std@@@std@@@std@@QAEXPAU?$_List_node@U?$pair@$$CBV?$basic_string@DU?$char_traits@D@std@@V?$allocator@D@2@@std@@VDEVICE@@@std@@PAX@2@I@Z 100c1850 f i dll.obj
 0002:000348b0       ?deallocate@?$_Wrap_alloc@V?$allocator@UFORMULA2_PAIR@@@std@@@std@@QAEXPAUFORMULA2_PAIR@@I@Z 100c18b0 f i dll.obj
 0002:00034910       ?deallocate@?$_Wrap_alloc@V?$allocator@UFORMULA_PAIR@@@std@@@std@@QAEXPAUFORMULA_PAIR@@I@Z 100c1910 f i dll.obj
 0002:00034970       ?deallocate@?$_Wrap_alloc@V?$allocator@U_Container_proxy@std@@@std@@@std@@QAEXPAU_Container_proxy@2@I@Z 100c1970 f i dll.obj
 0002:000349d0       ?deallocate@?$_Wrap_alloc@V?$allocator@V?$_List_unchecked_iterator@V?$_List_val@U?$_List_simple_types@U?$pair@$$CBV?$basic_string@DU?$char_traits@D@std@@V?$allocator@D@2@@std@@G@std@@@std@@@std@@@std@@@std@@@std@@QAEXPAV?$_List_unchecked_iterator@V?$_List_val@U?$_List_simple_types@U?$pair@$$CBV?$basic_string@DU?$char_traits@D@std@@V?$allocator@D@2@@std@@G@std@@@std@@@std@@@2@I@Z 100c19d0 f i dll.obj
 0002:00034a30       ?deallocate@?$_Wrap_alloc@V?$allocator@V?$_List_unchecked_iterator@V?$_List_val@U?$_List_simple_types@U?$pair@$$CBV?$basic_string@DU?$char_traits@D@std@@V?$allocator@D@2@@std@@VDEVICE@@@std@@@std@@@std@@@std@@@std@@@std@@QAEXPAV?$_List_unchecked_iterator@V?$_List_val@U?$_List_simple_types@U?$pair@$$CBV?$basic_string@DU?$char_traits@D@std@@V?$allocator@D@2@@std@@VDEVICE@@@std@@@std@@@std@@@2@I@Z 100c1a30 f i dll.obj
 0002:00034a90       ?deallocate@?$allocator@D@std@@QAEXPADI@Z 100c1a90 f i dll.obj
 0002:00034af0       ?deallocate@?$allocator@PAUFORMULA2_PAIR@@@std@@QAEXPAPAUFORMULA2_PAIR@@I@Z 100c1af0 f i dll.obj
 0002:00034b50       ?deallocate@?$allocator@PAUFORMULA_PAIR@@@std@@QAEXPAPAUFORMULA_PAIR@@I@Z 100c1b50 f i dll.obj
 0002:00034bb0       ?deallocate@?$allocator@U?$_List_node@U?$pair@$$CBV?$basic_string@DU?$char_traits@D@std@@V?$allocator@D@2@@std@@G@std@@PAX@std@@@std@@QAEXPAU?$_List_node@U?$pair@$$CBV?$basic_string@DU?$char_traits@D@std@@V?$allocator@D@2@@std@@G@std@@PAX@2@I@Z 100c1bb0 f i dll.obj
 0002:00034c10       ?deallocate@?$allocator@U?$_List_node@U?$pair@$$CBV?$basic_string@DU?$char_traits@D@std@@V?$allocator@D@2@@std@@VDEVICE@@@std@@PAX@std@@@std@@QAEXPAU?$_List_node@U?$pair@$$CBV?$basic_string@DU?$char_traits@D@std@@V?$allocator@D@2@@std@@VDEVICE@@@std@@PAX@2@I@Z 100c1c10 f i dll.obj
 0002:00034c80       ?deallocate@?$allocator@UFORMULA2_PAIR@@@std@@QAEXPAUFORMULA2_PAIR@@I@Z 100c1c80 f i dll.obj
 0002:00034ce0       ?deallocate@?$allocator@UFORMULA_PAIR@@@std@@QAEXPAUFORMULA_PAIR@@I@Z 100c1ce0 f i dll.obj
 0002:00034d40       ?deallocate@?$allocator@U_Container_proxy@std@@@std@@QAEXPAU_Container_proxy@2@I@Z 100c1d40 f i dll.obj
 0002:00034da0       ?deallocate@?$allocator@V?$_List_unchecked_iterator@V?$_List_val@U?$_List_simple_types@U?$pair@$$CBV?$basic_string@DU?$char_traits@D@std@@V?$allocator@D@2@@std@@G@std@@@std@@@std@@@std@@@std@@QAEXPAV?$_List_unchecked_iterator@V?$_List_val@U?$_List_simple_types@U?$pair@$$CBV?$basic_string@DU?$char_traits@D@std@@V?$allocator@D@2@@std@@G@std@@@std@@@std@@@2@I@Z 100c1da0 f i dll.obj
 0002:00034e00       ?deallocate@?$allocator@V?$_List_unchecked_iterator@V?$_List_val@U?$_List_simple_types@U?$pair@$$CBV?$basic_string@DU?$char_traits@D@std@@V?$allocator@D@2@@std@@VDEVICE@@@std@@@std@@@std@@@std@@@std@@QAEXPAV?$_List_unchecked_iterator@V?$_List_val@U?$_List_simple_types@U?$pair@$$CBV?$basic_string@DU?$char_traits@D@std@@V?$allocator@D@2@@std@@VDEVICE@@@std@@@std@@@std@@@2@I@Z 100c1e00 f i dll.obj
 0002:00034e60       ?dec_factor@Physics@@QAEXXZ 100c1e60 f i dll.obj
 0002:00034f40       ?empty@?$deque@UFORMULA2_PAIR@@V?$allocator@UFORMULA2_PAIR@@@std@@@std@@QBE_NXZ 100c1f40 f i dll.obj
 0002:00034fc0       ?empty@?$deque@UFORMULA_PAIR@@V?$allocator@UFORMULA_PAIR@@@std@@@std@@QBE_NXZ 100c1fc0 f i dll.obj
 0002:00035040       ?end@?$_Hash@V?$_Umap_traits@V?$basic_string@DU?$char_traits@D@std@@V?$allocator@D@2@@std@@GV?$_Uhash_compare@V?$basic_string@DU?$char_traits@D@std@@V?$allocator@D@2@@std@@U?$hash@V?$basic_string@DU?$char_traits@D@std@@V?$allocator@D@2@@std@@@2@U?$equal_to@V?$basic_string@DU?$char_traits@D@std@@V?$allocator@D@2@@std@@@2@@2@V?$allocator@U?$pair@$$CBV?$basic_string@DU?$char_traits@D@std@@V?$allocator@D@2@@std@@G@std@@@2@$0A@@std@@@std@@QAE?AV?$_List_iterator@V?$_List_val@U?$_List_simple_types@U?$pair@$$CBV?$basic_string@DU?$char_traits@D@std@@V?$allocator@D@2@@std@@G@std@@@std@@@std@@@2@XZ 100c2040 f i dll.obj
 0002:000350a0       ?end@?$_Hash@V?$_Umap_traits@V?$basic_string@DU?$char_traits@D@std@@V?$allocator@D@2@@std@@VDEVICE@@V?$_Uhash_compare@V?$basic_string@DU?$char_traits@D@std@@V?$allocator@D@2@@std@@U?$hash@V?$basic_string@DU?$char_traits@D@std@@V?$allocator@D@2@@std@@@2@U?$equal_to@V?$basic_string@DU?$char_traits@D@std@@V?$allocator@D@2@@std@@@2@@2@V?$allocator@U?$pair@$$CBV?$basic_string@DU?$char_traits@D@std@@V?$allocator@D@2@@std@@VDEVICE@@@std@@@2@$0A@@std@@@std@@QAE?AV?$_List_iterator@V?$_List_val@U?$_List_simple_types@U?$pair@$$CBV?$basic_string@DU?$char_traits@D@std@@V?$allocator@D@2@@std@@VDEVICE@@@std@@@std@@@std@@@2@XZ 100c20a0 f i dll.obj
 0002:00035100       ?end@?$deque@UFORMULA2_PAIR@@V?$allocator@UFORMULA2_PAIR@@@std@@@std@@QAE?AV?$_Deque_iterator@V?$_Deque_val@U?$_Deque_simple_types@UFORMULA2_PAIR@@@std@@@std@@@2@XZ 100c2100 f i dll.obj
 0002:000351c0       ?end@?$deque@UFORMULA2_PAIR@@V?$allocator@UFORMULA2_PAIR@@@std@@@std@@QBE?AV?$_Deque_const_iterator@V?$_Deque_val@U?$_Deque_simple_types@UFORMULA2_PAIR@@@std@@@std@@@2@XZ 100c21c0 f i dll.obj
 0002:00035280       ?end@?$deque@UFORMULA_PAIR@@V?$allocator@UFORMULA_PAIR@@@std@@@std@@QAE?AV?$_Deque_iterator@V?$_Deque_val@U?$_Deque_simple_types@UFORMULA_PAIR@@@std@@@std@@@2@XZ 100c2280 f i dll.obj
 0002:00035340       ?end@?$deque@UFORMULA_PAIR@@V?$allocator@UFORMULA_PAIR@@@std@@@std@@QBE?AV?$_Deque_const_iterator@V?$_Deque_val@U?$_Deque_simple_types@UFORMULA_PAIR@@@std@@@std@@@2@XZ 100c2340 f i dll.obj
 0002:00035400       ?end@?$list@U?$pair@$$CBV?$basic_string@DU?$char_traits@D@std@@V?$allocator@D@2@@std@@G@std@@V?$allocator@U?$pair@$$CBV?$basic_string@DU?$char_traits@D@std@@V?$allocator@D@2@@std@@G@std@@@2@@std@@QAE?AV?$_List_iterator@V?$_List_val@U?$_List_simple_types@U?$pair@$$CBV?$basic_string@DU?$char_traits@D@std@@V?$allocator@D@2@@std@@G@std@@@std@@@std@@@2@XZ 100c2400 f i dll.obj
 0002:000354b0       ?end@?$list@U?$pair@$$CBV?$basic_string@DU?$char_traits@D@std@@V?$allocator@D@2@@std@@VDEVICE@@@std@@V?$allocator@U?$pair@$$CBV?$basic_string@DU?$char_traits@D@std@@V?$allocator@D@2@@std@@VDEVICE@@@std@@@2@@std@@QAE?AV?$_List_iterator@V?$_List_val@U?$_List_simple_types@U?$pair@$$CBV?$basic_string@DU?$char_traits@D@std@@V?$allocator@D@2@@std@@VDEVICE@@@std@@@std@@@std@@@2@XZ 100c24b0 f i dll.obj
 0002:00035560       ?equal_range@?$_Hash@V?$_Umap_traits@V?$basic_string@DU?$char_traits@D@std@@V?$allocator@D@2@@std@@GV?$_Uhash_compare@V?$basic_string@DU?$char_traits@D@std@@V?$allocator@D@2@@std@@U?$hash@V?$basic_string@DU?$char_traits@D@std@@V?$allocator@D@2@@std@@@2@U?$equal_to@V?$basic_string@DU?$char_traits@D@std@@V?$allocator@D@2@@std@@@2@@2@V?$allocator@U?$pair@$$CBV?$basic_string@DU?$char_traits@D@std@@V?$allocator@D@2@@std@@G@std@@@2@$0A@@std@@@std@@QAE?AU?$pair@V?$_List_iterator@V?$_List_val@U?$_List_simple_types@U?$pair@$$CBV?$basic_string@DU?$char_traits@D@std@@V?$allocator@D@2@@std@@G@std@@@std@@@std@@@std@@V12@@2@ABV?$basic_string@DU?$char_traits@D@std@@V?$allocator@D@2@@2@@Z 100c2560 f i dll.obj
 0002:00035910       ?erase@?$_Hash@V?$_Umap_traits@V?$basic_string@DU?$char_traits@D@std@@V?$allocator@D@2@@std@@GV?$_Uhash_compare@V?$basic_string@DU?$char_traits@D@std@@V?$allocator@D@2@@std@@U?$hash@V?$basic_string@DU?$char_traits@D@std@@V?$allocator@D@2@@std@@@2@U?$equal_to@V?$basic_string@DU?$char_traits@D@std@@V?$allocator@D@2@@std@@@2@@2@V?$allocator@U?$pair@$$CBV?$basic_string@DU?$char_traits@D@std@@V?$allocator@D@2@@std@@G@std@@@2@$0A@@std@@@std@@QAE?AV?$_List_iterator@V?$_List_val@U?$_List_simple_types@U?$pair@$$CBV?$basic_string@DU?$char_traits@D@std@@V?$allocator@D@2@@std@@G@std@@@std@@@std@@@2@V?$_List_const_iterator@V?$_List_val@U?$_List_simple_types@U?$pair@$$CBV?$basic_string@DU?$char_traits@D@std@@V?$allocator@D@2@@std@@G@std@@@std@@@std@@@2@0@Z 100c2910 f i dll.obj
 0002:00035cc0       ?erase@?$_Hash@V?$_Umap_traits@V?$basic_string@DU?$char_traits@D@std@@V?$allocator@D@2@@std@@GV?$_Uhash_compare@V?$basic_string@DU?$char_traits@D@std@@V?$allocator@D@2@@std@@U?$hash@V?$basic_string@DU?$char_traits@D@std@@V?$allocator@D@2@@std@@@2@U?$equal_to@V?$basic_string@DU?$char_traits@D@std@@V?$allocator@D@2@@std@@@2@@2@V?$allocator@U?$pair@$$CBV?$basic_string@DU?$char_traits@D@std@@V?$allocator@D@2@@std@@G@std@@@2@$0A@@std@@@std@@QAE?AV?$_List_iterator@V?$_List_val@U?$_List_simple_types@U?$pair@$$CBV?$basic_string@DU?$char_traits@D@std@@V?$allocator@D@2@@std@@G@std@@@std@@@std@@@2@V?$_List_const_iterator@V?$_List_val@U?$_List_simple_types@U?$pair@$$CBV?$basic_string@DU?$char_traits@D@std@@V?$allocator@D@2@@std@@G@std@@@std@@@std@@@2@@Z 100c2cc0 f i dll.obj
 0002:00035e40       ?erase@?$_Hash@V?$_Umap_traits@V?$basic_string@DU?$char_traits@D@std@@V?$allocator@D@2@@std@@GV?$_Uhash_compare@V?$basic_string@DU?$char_traits@D@std@@V?$allocator@D@2@@std@@U?$hash@V?$basic_string@DU?$char_traits@D@std@@V?$allocator@D@2@@std@@@2@U?$equal_to@V?$basic_string@DU?$char_traits@D@std@@V?$allocator@D@2@@std@@@2@@2@V?$allocator@U?$pair@$$CBV?$basic_string@DU?$char_traits@D@std@@V?$allocator@D@2@@std@@G@std@@@2@$0A@@std@@@std@@QAEIABV?$basic_string@DU?$char_traits@D@std@@V?$allocator@D@2@@2@@Z 100c2e40 f i dll.obj
 0002:00036030       ?erase@?$_Hash@V?$_Umap_traits@V?$basic_string@DU?$char_traits@D@std@@V?$allocator@D@2@@std@@VDEVICE@@V?$_Uhash_compare@V?$basic_string@DU?$char_traits@D@std@@V?$allocator@D@2@@std@@U?$hash@V?$basic_string@DU?$char_traits@D@std@@V?$allocator@D@2@@std@@@2@U?$equal_to@V?$basic_string@DU?$char_traits@D@std@@V?$allocator@D@2@@std@@@2@@2@V?$allocator@U?$pair@$$CBV?$basic_string@DU?$char_traits@D@std@@V?$allocator@D@2@@std@@VDEVICE@@@std@@@2@$0A@@std@@@std@@QAE?AV?$_List_iterator@V?$_List_val@U?$_List_simple_types@U?$pair@$$CBV?$basic_string@DU?$char_traits@D@std@@V?$allocator@D@2@@std@@VDEVICE@@@std@@@std@@@std@@@2@V?$_List_const_iterator@V?$_List_val@U?$_List_simple_types@U?$pair@$$CBV?$basic_string@DU?$char_traits@D@std@@V?$allocator@D@2@@std@@VDEVICE@@@std@@@std@@@std@@@2@@Z 100c3030 f i dll.obj
 0002:000361b0       ?erase@?$basic_string@DU?$char_traits@D@std@@V?$allocator@D@2@@std@@QAEAAV12@I@Z 100c31b0 f i dll.obj
 0002:00036220       ?erase@?$basic_string@DU?$char_traits@D@std@@V?$allocator@D@2@@std@@QAEAAV12@II@Z 100c3220 f i dll.obj
 0002:00036300       ?erase@?$deque@UFORMULA2_PAIR@@V?$allocator@UFORMULA2_PAIR@@@std@@@std@@QAE?AV?$_Deque_iterator@V?$_Deque_val@U?$_Deque_simple_types@UFORMULA2_PAIR@@@std@@@std@@@2@V?$_Deque_const_iterator@V?$_Deque_val@U?$_Deque_simple_types@UFORMULA2_PAIR@@@std@@@std@@@2@0@Z 100c3300 f i dll.obj
 0002:00036a10       ?erase@?$deque@UFORMULA_PAIR@@V?$allocator@UFORMULA_PAIR@@@std@@@std@@QAE?AV?$_Deque_iterator@V?$_Deque_val@U?$_Deque_simple_types@UFORMULA_PAIR@@@std@@@std@@@2@V?$_Deque_const_iterator@V?$_Deque_val@U?$_Deque_simple_types@UFORMULA_PAIR@@@std@@@std@@@2@0@Z 100c3a10 f i dll.obj
 0002:00037120       ?erase@?$list@U?$pair@$$CBV?$basic_string@DU?$char_traits@D@std@@V?$allocator@D@2@@std@@G@std@@V?$allocator@U?$pair@$$CBV?$basic_string@DU?$char_traits@D@std@@V?$allocator@D@2@@std@@G@std@@@2@@std@@QAE?AV?$_List_iterator@V?$_List_val@U?$_List_simple_types@U?$pair@$$CBV?$basic_string@DU?$char_traits@D@std@@V?$allocator@D@2@@std@@G@std@@@std@@@std@@@2@V?$_List_const_iterator@V?$_List_val@U?$_List_simple_types@U?$pair@$$CBV?$basic_string@DU?$char_traits@D@std@@V?$allocator@D@2@@std@@G@std@@@std@@@std@@@2@@Z 100c4120 f i dll.obj
 0002:00037260       ?erase@?$list@U?$pair@$$CBV?$basic_string@DU?$char_traits@D@std@@V?$allocator@D@2@@std@@VDEVICE@@@std@@V?$allocator@U?$pair@$$CBV?$basic_string@DU?$char_traits@D@std@@V?$allocator@D@2@@std@@VDEVICE@@@std@@@2@@std@@QAE?AV?$_List_iterator@V?$_List_val@U?$_List_simple_types@U?$pair@$$CBV?$basic_string@DU?$char_traits@D@std@@V?$allocator@D@2@@std@@VDEVICE@@@std@@@std@@@std@@@2@V?$_List_const_iterator@V?$_List_val@U?$_List_simple_types@U?$pair@$$CBV?$basic_string@DU?$char_traits@D@std@@V?$allocator@D@2@@std@@VDEVICE@@@std@@@std@@@std@@@2@@Z 100c4260 f i dll.obj
 0002:000373a0       ?find@?$_Hash@V?$_Umap_traits@V?$basic_string@DU?$char_traits@D@std@@V?$allocator@D@2@@std@@GV?$_Uhash_compare@V?$basic_string@DU?$char_traits@D@std@@V?$allocator@D@2@@std@@U?$hash@V?$basic_string@DU?$char_traits@D@std@@V?$allocator@D@2@@std@@@2@U?$equal_to@V?$basic_string@DU?$char_traits@D@std@@V?$allocator@D@2@@std@@@2@@2@V?$allocator@U?$pair@$$CBV?$basic_string@DU?$char_traits@D@std@@V?$allocator@D@2@@std@@G@std@@@2@$0A@@std@@@std@@QAE?AV?$_List_iterator@V?$_List_val@U?$_List_simple_types@U?$pair@$$CBV?$basic_string@DU?$char_traits@D@std@@V?$allocator@D@2@@std@@G@std@@@std@@@std@@@2@ABV?$basic_string@DU?$char_traits@D@std@@V?$allocator@D@2@@2@@Z 100c43a0 f i dll.obj
 0002:00037420       ?find@?$_Hash@V?$_Umap_traits@V?$basic_string@DU?$char_traits@D@std@@V?$allocator@D@2@@std@@VDEVICE@@V?$_Uhash_compare@V?$basic_string@DU?$char_traits@D@std@@V?$allocator@D@2@@std@@U?$hash@V?$basic_string@DU?$char_traits@D@std@@V?$allocator@D@2@@std@@@2@U?$equal_to@V?$basic_string@DU?$char_traits@D@std@@V?$allocator@D@2@@std@@@2@@2@V?$allocator@U?$pair@$$CBV?$basic_string@DU?$char_traits@D@std@@V?$allocator@D@2@@std@@VDEVICE@@@std@@@2@$0A@@std@@@std@@QAE?AV?$_List_iterator@V?$_List_val@U?$_List_simple_types@U?$pair@$$CBV?$basic_string@DU?$char_traits@D@std@@V?$allocator@D@2@@std@@VDEVICE@@@std@@@std@@@std@@@2@ABV?$basic_string@DU?$char_traits@D@std@@V?$allocator@D@2@@2@@Z 100c4420 f i dll.obj
 0002:000374a0       ?front@?$list@U?$pair@$$CBV?$basic_string@DU?$char_traits@D@std@@V?$allocator@D@2@@std@@G@std@@V?$allocator@U?$pair@$$CBV?$basic_string@DU?$char_traits@D@std@@V?$allocator@D@2@@std@@G@std@@@2@@std@@QAEAAU?$pair@$$CBV?$basic_string@DU?$char_traits@D@std@@V?$allocator@D@2@@std@@G@2@XZ 100c44a0 f i dll.obj
 0002:00037580       ?front@?$list@U?$pair@$$CBV?$basic_string@DU?$char_traits@D@std@@V?$allocator@D@2@@std@@VDEVICE@@@std@@V?$allocator@U?$pair@$$CBV?$basic_string@DU?$char_traits@D@std@@V?$allocator@D@2@@std@@VDEVICE@@@std@@@2@@std@@QAEAAU?$pair@$$CBV?$basic_string@DU?$char_traits@D@std@@V?$allocator@D@2@@std@@VDEVICE@@@2@XZ 100c4580 f i dll.obj
 0002:00037660       ?getGrade@Physics@@QAENXZ  100c4660 f i dll.obj
 0002:000376a0       ?getPortNumber@Ctsrv@RACERMATE@@QAEHXZ 100c46a0 f i dll.obj
 0002:000376e0       ?getWindForceConstant@Physics@@QAENXZ 100c46e0 f i dll.obj
 0002:00037720       ?getWindPowerConstant@Physics@@QAENXZ 100c4720 f i dll.obj
 0002:00037760       ?get_avg_watts@Formula@@QAEMXZ 100c4760 f i dll.obj
 0002:000377a0       ?get_avg_watts@qtFormula@@QAEMXZ 100c47a0 f i dll.obj
 0002:000377e0       ?get_filename@fatalError@@QAEPBDXZ 100c47e0 f i dll.obj
 0002:00037820       ?get_ftp@Formula@@QAEMXZ   100c4820 f i dll.obj
 0002:00037860       ?get_ftp@qtFormula@@QAEMXZ 100c4860 f i dll.obj
 0002:000378a0       ?get_line@fatalError@@QAEHXZ 100c48a0 f i dll.obj
 0002:000378e0       ?get_maxdq@Formula@@QAEMXZ 100c48e0 f i dll.obj
 0002:00037930       ?get_maxdq@qtFormula@@QAEMXZ 100c4930 f i dll.obj
 0002:00037980       ?get_measured_ergo_watts@Physics@@QAENXZ 100c4980 f i dll.obj
 0002:000379c0       ?get_scanning_for_devices@ANT@RACERMATE@@QAE_NXZ 100c49c0 f i dll.obj
 0002:00037a00       ?get_str@fatalError@@QAEPBDXZ 100c4a00 f i dll.obj
 0002:00037a40       ?get_watts_factor@Physics@@QAENXZ 100c4a40 f i dll.obj
 0002:00037a80       ?get_x_if@Formula@@QAEMXZ  100c4a80 f i dll.obj
 0002:00037ac0       ?get_x_if@qtFormula@@QAEMXZ 100c4ac0 f i dll.obj
 0002:00037b00       ?get_x_np@Formula@@QAEMXZ  100c4b00 f i dll.obj
 0002:00037b40       ?get_x_np@qtFormula@@QAEMXZ 100c4b40 f i dll.obj
 0002:00037b80       ?get_x_tss@Formula@@QAEMXZ 100c4b80 f i dll.obj
 0002:00037bc0       ?get_x_tss@qtFormula@@QAEMXZ 100c4bc0 f i dll.obj
 0002:00037c00       ?getfval@LPFilter@@QAENXZ  100c4c00 f i dll.obj
 0002:00037c40       ?getwhat@EV@@QAE?AW4EnumDeviceType@@XZ 100c4c40 f i dll.obj
 0002:00037c80       ?inc_factor@Physics@@QAEXXZ 100c4c80 f i dll.obj
 0002:00037d70       ?insert@?$vector@V?$_List_unchecked_iterator@V?$_List_val@U?$_List_simple_types@U?$pair@$$CBV?$basic_string@DU?$char_traits@D@std@@V?$allocator@D@2@@std@@G@std@@@std@@@std@@@std@@U?$_Wrap_alloc@V?$allocator@V?$_List_unchecked_iterator@V?$_List_val@U?$_List_simple_types@U?$pair@$$CBV?$basic_string@DU?$char_traits@D@std@@V?$allocator@D@2@@std@@G@std@@@std@@@std@@@std@@@std@@@2@@std@@QAE?AV?$_Vector_iterator@V?$_Vector_val@U?$_Simple_types@V?$_List_unchecked_iterator@V?$_List_val@U?$_List_simple_types@U?$pair@$$CBV?$basic_string@DU?$char_traits@D@std@@V?$allocator@D@2@@std@@G@std@@@std@@@std@@@std@@@std@@@std@@@2@V?$_Vector_const_iterator@V?$_Vector_val@U?$_Simple_types@V?$_List_unchecked_iterator@V?$_List_val@U?$_List_simple_types@U?$pair@$$CBV?$basic_string@DU?$char_traits@D@std@@V?$allocator@D@2@@std@@G@std@@@std@@@std@@@std@@@std@@@std@@@2@IABV?$_List_unchecked_iterator@V?$_List_val@U?$_List_simple_types@U?$pair@$$CBV?$basic_string@DU?$char_traits@D@std@@V?$allocator@D@2@@std@@G@std@@@std@@@std@@@2@@Z 100c4d70 f i dll.obj
 0002:00037e70       ?insert@?$vector@V?$_List_unchecked_iterator@V?$_List_val@U?$_List_simple_types@U?$pair@$$CBV?$basic_string@DU?$char_traits@D@std@@V?$allocator@D@2@@std@@VDEVICE@@@std@@@std@@@std@@@std@@U?$_Wrap_alloc@V?$allocator@V?$_List_unchecked_iterator@V?$_List_val@U?$_List_simple_types@U?$pair@$$CBV?$basic_string@DU?$char_traits@D@std@@V?$allocator@D@2@@std@@VDEVICE@@@std@@@std@@@std@@@std@@@std@@@2@@std@@QAE?AV?$_Vector_iterator@V?$_Vector_val@U?$_Simple_types@V?$_List_unchecked_iterator@V?$_List_val@U?$_List_simple_types@U?$pair@$$CBV?$basic_string@DU?$char_traits@D@std@@V?$allocator@D@2@@std@@VDEVICE@@@std@@@std@@@std@@@std@@@std@@@std@@@2@V?$_Vector_const_iterator@V?$_Vector_val@U?$_Simple_types@V?$_List_unchecked_iterator@V?$_List_val@U?$_List_simple_types@U?$pair@$$CBV?$basic_string@DU?$char_traits@D@std@@V?$allocator@D@2@@std@@VDEVICE@@@std@@@std@@@std@@@std@@@std@@@std@@@2@IABV?$_List_unchecked_iterator@V?$_List_val@U?$_List_simple_types@U?$pair@$$CBV?$basic_string@DU?$char_traits@D@std@@V?$allocator@D@2@@std@@VDEVICE@@@std@@@std@@@std@@@2@@Z 100c4e70 f i dll.obj
 0002:00037f70       ?is_connected_x@EV@@QAE_NXZ 100c4f70 f i dll.obj
 0002:00037fc0       ?is_listening@ANT@RACERMATE@@QAE_NXZ 100c4fc0 f i dll.obj
 0002:00038000       ?is_paused@Physics@@QAE_NXZ 100c5000 f i dll.obj
 0002:00038040       ?length@?$char_traits@D@std@@SAIPBD@Z 100c5040 f i dll.obj
 0002:000380c0       ?load_factor@?$_Hash@V?$_Umap_traits@V?$basic_string@DU?$char_traits@D@std@@V?$allocator@D@2@@std@@GV?$_Uhash_compare@V?$basic_string@DU?$char_traits@D@std@@V?$allocator@D@2@@std@@U?$hash@V?$basic_string@DU?$char_traits@D@std@@V?$allocator@D@2@@std@@@2@U?$equal_to@V?$basic_string@DU?$char_traits@D@std@@V?$allocator@D@2@@std@@@2@@2@V?$allocator@U?$pair@$$CBV?$basic_string@DU?$char_traits@D@std@@V?$allocator@D@2@@std@@G@std@@@2@$0A@@std@@@std@@QBEMXZ 100c50c0 f i dll.obj
 0002:000381c0       ?load_factor@?$_Hash@V?$_Umap_traits@V?$basic_string@DU?$char_traits@D@std@@V?$allocator@D@2@@std@@VDEVICE@@V?$_Uhash_compare@V?$basic_string@DU?$char_traits@D@std@@V?$allocator@D@2@@std@@U?$hash@V?$basic_string@DU?$char_traits@D@std@@V?$allocator@D@2@@std@@@2@U?$equal_to@V?$basic_string@DU?$char_traits@D@std@@V?$allocator@D@2@@std@@@2@@2@V?$allocator@U?$pair@$$CBV?$basic_string@DU?$char_traits@D@std@@V?$allocator@D@2@@std@@VDEVICE@@@std@@@2@$0A@@std@@@std@@QBEMXZ 100c51c0 f i dll.obj
 0002:000382c0       ?lower_bound@?$_Hash@V?$_Umap_traits@V?$basic_string@DU?$char_traits@D@std@@V?$allocator@D@2@@std@@GV?$_Uhash_compare@V?$basic_string@DU?$char_traits@D@std@@V?$allocator@D@2@@std@@U?$hash@V?$basic_string@DU?$char_traits@D@std@@V?$allocator@D@2@@std@@@2@U?$equal_to@V?$basic_string@DU?$char_traits@D@std@@V?$allocator@D@2@@std@@@2@@2@V?$allocator@U?$pair@$$CBV?$basic_string@DU?$char_traits@D@std@@V?$allocator@D@2@@std@@G@std@@@2@$0A@@std@@@std@@QAE?AV?$_List_iterator@V?$_List_val@U?$_List_simple_types@U?$pair@$$CBV?$basic_string@DU?$char_traits@D@std@@V?$allocator@D@2@@std@@G@std@@@std@@@std@@@2@ABV?$basic_string@DU?$char_traits@D@std@@V?$allocator@D@2@@2@@Z 100c52c0 f i dll.obj
 0002:000385d0       ?lower_bound@?$_Hash@V?$_Umap_traits@V?$basic_string@DU?$char_traits@D@std@@V?$allocator@D@2@@std@@VDEVICE@@V?$_Uhash_compare@V?$basic_string@DU?$char_traits@D@std@@V?$allocator@D@2@@std@@U?$hash@V?$basic_string@DU?$char_traits@D@std@@V?$allocator@D@2@@std@@@2@U?$equal_to@V?$basic_string@DU?$char_traits@D@std@@V?$allocator@D@2@@std@@@2@@2@V?$allocator@U?$pair@$$CBV?$basic_string@DU?$char_traits@D@std@@V?$allocator@D@2@@std@@VDEVICE@@@std@@@2@$0A@@std@@@std@@QAE?AV?$_List_iterator@V?$_List_val@U?$_List_simple_types@U?$pair@$$CBV?$basic_string@DU?$char_traits@D@std@@V?$allocator@D@2@@std@@VDEVICE@@@std@@@std@@@std@@@2@ABV?$basic_string@DU?$char_traits@D@std@@V?$allocator@D@2@@2@@Z 100c55d0 f i dll.obj
 0002:000388e0       ?max_load_factor@?$_Hash@V?$_Umap_traits@V?$basic_string@DU?$char_traits@D@std@@V?$allocator@D@2@@std@@GV?$_Uhash_compare@V?$basic_string@DU?$char_traits@D@std@@V?$allocator@D@2@@std@@U?$hash@V?$basic_string@DU?$char_traits@D@std@@V?$allocator@D@2@@std@@@2@U?$equal_to@V?$basic_string@DU?$char_traits@D@std@@V?$allocator@D@2@@std@@@2@@2@V?$allocator@U?$pair@$$CBV?$basic_string@DU?$char_traits@D@std@@V?$allocator@D@2@@std@@G@std@@@2@$0A@@std@@@std@@QBEMXZ 100c58e0 f i dll.obj
 0002:00038950       ?max_load_factor@?$_Hash@V?$_Umap_traits@V?$basic_string@DU?$char_traits@D@std@@V?$allocator@D@2@@std@@VDEVICE@@V?$_Uhash_compare@V?$basic_string@DU?$char_traits@D@std@@V?$allocator@D@2@@std@@U?$hash@V?$basic_string@DU?$char_traits@D@std@@V?$allocator@D@2@@std@@@2@U?$equal_to@V?$basic_string@DU?$char_traits@D@std@@V?$allocator@D@2@@std@@@2@@2@V?$allocator@U?$pair@$$CBV?$basic_string@DU?$char_traits@D@std@@V?$allocator@D@2@@std@@VDEVICE@@@std@@@2@$0A@@std@@@std@@QBEMXZ 100c5950 f i dll.obj
 0002:000389c0       ?max_size@?$_Wrap_alloc@U?$_Wrap_alloc@V?$allocator@V?$_List_unchecked_iterator@V?$_List_val@U?$_List_simple_types@U?$pair@$$CBV?$basic_string@DU?$char_traits@D@std@@V?$allocator@D@2@@std@@G@std@@@std@@@std@@@std@@@std@@@std@@@std@@QBEIU_Nil@2@@Z 100c59c0 f i dll.obj
 0002:00038a20       ?max_size@?$_Wrap_alloc@U?$_Wrap_alloc@V?$allocator@V?$_List_unchecked_iterator@V?$_List_val@U?$_List_simple_types@U?$pair@$$CBV?$basic_string@DU?$char_traits@D@std@@V?$allocator@D@2@@std@@VDEVICE@@@std@@@std@@@std@@@std@@@std@@@std@@@std@@QBEIU_Nil@2@@Z 100c5a20 f i dll.obj
 0002:00038a80       ?max_size@?$_Wrap_alloc@V?$allocator@D@std@@@std@@QBEIU_Nil@2@@Z 100c5a80 f i dll.obj
 0002:00038ae0       ?max_size@?$_Wrap_alloc@V?$allocator@U?$_List_node@U?$pair@$$CBV?$basic_string@DU?$char_traits@D@std@@V?$allocator@D@2@@std@@G@std@@PAX@std@@@std@@@std@@QBEIU_Nil@2@@Z 100c5ae0 f i dll.obj
 0002:00038b40       ?max_size@?$_Wrap_alloc@V?$allocator@U?$_List_node@U?$pair@$$CBV?$basic_string@DU?$char_traits@D@std@@V?$allocator@D@2@@std@@VDEVICE@@@std@@PAX@std@@@std@@@std@@QBEIU_Nil@2@@Z 100c5b40 f i dll.obj
 0002:00038ba0       ?max_size@?$_Wrap_alloc@V?$allocator@UFORMULA2_PAIR@@@std@@@std@@QBEIU_Nil@2@@Z 100c5ba0 f i dll.obj
 0002:00038c00       ?max_size@?$_Wrap_alloc@V?$allocator@UFORMULA_PAIR@@@std@@@std@@QBEIU_Nil@2@@Z 100c5c00 f i dll.obj
 0002:00038c60       ?max_size@?$_Wrap_alloc@V?$allocator@V?$_List_unchecked_iterator@V?$_List_val@U?$_List_simple_types@U?$pair@$$CBV?$basic_string@DU?$char_traits@D@std@@V?$allocator@D@2@@std@@G@std@@@std@@@std@@@std@@@std@@@std@@QBEIU_Nil@2@@Z 100c5c60 f i dll.obj
 0002:00038cc0       ?max_size@?$_Wrap_alloc@V?$allocator@V?$_List_unchecked_iterator@V?$_List_val@U?$_List_simple_types@U?$pair@$$CBV?$basic_string@DU?$char_traits@D@std@@V?$allocator@D@2@@std@@VDEVICE@@@std@@@std@@@std@@@std@@@std@@@std@@QBEIU_Nil@2@@Z 100c5cc0 f i dll.obj
 0002:00038d20       ?max_size@?$allocator@D@std@@QBEIXZ 100c5d20 f i dll.obj
 0002:00038d60       ?max_size@?$allocator@U?$_List_node@U?$pair@$$CBV?$basic_string@DU?$char_traits@D@std@@V?$allocator@D@2@@std@@G@std@@PAX@std@@@std@@QBEIXZ 100c5d60 f i dll.obj
 0002:00038da0       ?max_size@?$allocator@U?$_List_node@U?$pair@$$CBV?$basic_string@DU?$char_traits@D@std@@V?$allocator@D@2@@std@@VDEVICE@@@std@@PAX@std@@@std@@QBEIXZ 100c5da0 f i dll.obj
 0002:00038de0       ?max_size@?$allocator@UFORMULA2_PAIR@@@std@@QBEIXZ 100c5de0 f i dll.obj
 0002:00038e20       ?max_size@?$allocator@UFORMULA_PAIR@@@std@@QBEIXZ 100c5e20 f i dll.obj
 0002:00038e60       ?max_size@?$allocator@V?$_List_unchecked_iterator@V?$_List_val@U?$_List_simple_types@U?$pair@$$CBV?$basic_string@DU?$char_traits@D@std@@V?$allocator@D@2@@std@@G@std@@@std@@@std@@@std@@@std@@QBEIXZ 100c5e60 f i dll.obj
 0002:00038ea0       ?max_size@?$allocator@V?$_List_unchecked_iterator@V?$_List_val@U?$_List_simple_types@U?$pair@$$CBV?$basic_string@DU?$char_traits@D@std@@V?$allocator@D@2@@std@@VDEVICE@@@std@@@std@@@std@@@std@@@std@@QBEIXZ 100c5ea0 f i dll.obj
 0002:00038ee0       ?max_size@?$allocator_traits@U?$_Wrap_alloc@V?$allocator@V?$_List_unchecked_iterator@V?$_List_val@U?$_List_simple_types@U?$pair@$$CBV?$basic_string@DU?$char_traits@D@std@@V?$allocator@D@2@@std@@G@std@@@std@@@std@@@std@@@std@@@std@@@std@@SAIABU?$_Wrap_alloc@V?$allocator@V?$_List_unchecked_iterator@V?$_List_val@U?$_List_simple_types@U?$pair@$$CBV?$basic_string@DU?$char_traits@D@std@@V?$allocator@D@2@@std@@G@std@@@std@@@std@@@std@@@std@@@2@@Z 100c5ee0 f i dll.obj
 0002:00038f30       ?max_size@?$allocator_traits@U?$_Wrap_alloc@V?$allocator@V?$_List_unchecked_iterator@V?$_List_val@U?$_List_simple_types@U?$pair@$$CBV?$basic_string@DU?$char_traits@D@std@@V?$allocator@D@2@@std@@VDEVICE@@@std@@@std@@@std@@@std@@@std@@@std@@@std@@SAIABU?$_Wrap_alloc@V?$allocator@V?$_List_unchecked_iterator@V?$_List_val@U?$_List_simple_types@U?$pair@$$CBV?$basic_string@DU?$char_traits@D@std@@V?$allocator@D@2@@std@@VDEVICE@@@std@@@std@@@std@@@std@@@std@@@2@@Z 100c5f30 f i dll.obj
 0002:00038f80       ?max_size@?$allocator_traits@V?$allocator@D@std@@@std@@SAIABV?$allocator@D@2@@Z 100c5f80 f i dll.obj
 0002:00038fd0       ?max_size@?$allocator_traits@V?$allocator@U?$_List_node@U?$pair@$$CBV?$basic_string@DU?$char_traits@D@std@@V?$allocator@D@2@@std@@G@std@@PAX@std@@@std@@@std@@SAIABV?$allocator@U?$_List_node@U?$pair@$$CBV?$basic_string@DU?$char_traits@D@std@@V?$allocator@D@2@@std@@G@std@@PAX@std@@@2@@Z 100c5fd0 f i dll.obj
 0002:00039020       ?max_size@?$allocator_traits@V?$allocator@U?$_List_node@U?$pair@$$CBV?$basic_string@DU?$char_traits@D@std@@V?$allocator@D@2@@std@@VDEVICE@@@std@@PAX@std@@@std@@@std@@SAIABV?$allocator@U?$_List_node@U?$pair@$$CBV?$basic_string@DU?$char_traits@D@std@@V?$allocator@D@2@@std@@VDEVICE@@@std@@PAX@std@@@2@@Z 100c6020 f i dll.obj
 0002:00039070       ?max_size@?$allocator_traits@V?$allocator@UFORMULA2_PAIR@@@std@@@std@@SAIABV?$allocator@UFORMULA2_PAIR@@@2@@Z 100c6070 f i dll.obj
 0002:000390c0       ?max_size@?$allocator_traits@V?$allocator@UFORMULA_PAIR@@@std@@@std@@SAIABV?$allocator@UFORMULA_PAIR@@@2@@Z 100c60c0 f i dll.obj
 0002:00039110       ?max_size@?$allocator_traits@V?$allocator@V?$_List_unchecked_iterator@V?$_List_val@U?$_List_simple_types@U?$pair@$$CBV?$basic_string@DU?$char_traits@D@std@@V?$allocator@D@2@@std@@G@std@@@std@@@std@@@std@@@std@@@std@@SAIABV?$allocator@V?$_List_unchecked_iterator@V?$_List_val@U?$_List_simple_types@U?$pair@$$CBV?$basic_string@DU?$char_traits@D@std@@V?$allocator@D@2@@std@@G@std@@@std@@@std@@@std@@@2@@Z 100c6110 f i dll.obj
 0002:00039160       ?max_size@?$allocator_traits@V?$allocator@V?$_List_unchecked_iterator@V?$_List_val@U?$_List_simple_types@U?$pair@$$CBV?$basic_string@DU?$char_traits@D@std@@V?$allocator@D@2@@std@@VDEVICE@@@std@@@std@@@std@@@std@@@std@@@std@@SAIABV?$allocator@V?$_List_unchecked_iterator@V?$_List_val@U?$_List_simple_types@U?$pair@$$CBV?$basic_string@DU?$char_traits@D@std@@V?$allocator@D@2@@std@@VDEVICE@@@std@@@std@@@std@@@std@@@2@@Z 100c6160 f i dll.obj
 0002:000391b0       ?max_size@?$basic_string@DU?$char_traits@D@std@@V?$allocator@D@2@@std@@QBEIXZ 100c61b0 f i dll.obj
 0002:00039250       ?max_size@?$deque@UFORMULA2_PAIR@@V?$allocator@UFORMULA2_PAIR@@@std@@@std@@QBEIXZ 100c6250 f i dll.obj
 0002:000392c0       ?max_size@?$deque@UFORMULA_PAIR@@V?$allocator@UFORMULA_PAIR@@@std@@@std@@QBEIXZ 100c62c0 f i dll.obj
 0002:00039330       ?max_size@?$list@U?$pair@$$CBV?$basic_string@DU?$char_traits@D@std@@V?$allocator@D@2@@std@@G@std@@V?$allocator@U?$pair@$$CBV?$basic_string@DU?$char_traits@D@std@@V?$allocator@D@2@@std@@G@std@@@2@@std@@QBEIXZ 100c6330 f i dll.obj
 0002:000393a0       ?max_size@?$list@U?$pair@$$CBV?$basic_string@DU?$char_traits@D@std@@V?$allocator@D@2@@std@@VDEVICE@@@std@@V?$allocator@U?$pair@$$CBV?$basic_string@DU?$char_traits@D@std@@V?$allocator@D@2@@std@@VDEVICE@@@std@@@2@@std@@QBEIXZ 100c63a0 f i dll.obj
 0002:00039410       ?max_size@?$vector@V?$_List_unchecked_iterator@V?$_List_val@U?$_List_simple_types@U?$pair@$$CBV?$basic_string@DU?$char_traits@D@std@@V?$allocator@D@2@@std@@G@std@@@std@@@std@@@std@@U?$_Wrap_alloc@V?$allocator@V?$_List_unchecked_iterator@V?$_List_val@U?$_List_simple_types@U?$pair@$$CBV?$basic_string@DU?$char_traits@D@std@@V?$allocator@D@2@@std@@G@std@@@std@@@std@@@std@@@std@@@2@@std@@QBEIXZ 100c6410 f i dll.obj
 0002:00039480       ?max_size@?$vector@V?$_List_unchecked_iterator@V?$_List_val@U?$_List_simple_types@U?$pair@$$CBV?$basic_string@DU?$char_traits@D@std@@V?$allocator@D@2@@std@@VDEVICE@@@std@@@std@@@std@@@std@@U?$_Wrap_alloc@V?$allocator@V?$_List_unchecked_iterator@V?$_List_val@U?$_List_simple_types@U?$pair@$$CBV?$basic_string@DU?$char_traits@D@std@@V?$allocator@D@2@@std@@VDEVICE@@@std@@@std@@@std@@@std@@@std@@@2@@std@@QBEIXZ 100c6480 f i dll.obj
 0002:000394f0       ?move@?$char_traits@D@std@@SAPADPADPBDI@Z 100c64f0 f i dll.obj
 0002:00039580       ?pointer_to@?$pointer_traits@PAU?$pair@$$CBV?$basic_string@DU?$char_traits@D@std@@V?$allocator@D@2@@std@@G@std@@@std@@SAPAU?$pair@$$CBV?$basic_string@DU?$char_traits@D@std@@V?$allocator@D@2@@std@@G@2@AAU32@@Z 100c6580 f i dll.obj
 0002:000395d0       ?pointer_to@?$pointer_traits@PAU?$pair@$$CBV?$basic_string@DU?$char_traits@D@std@@V?$allocator@D@2@@std@@VDEVICE@@@std@@@std@@SAPAU?$pair@$$CBV?$basic_string@DU?$char_traits@D@std@@V?$allocator@D@2@@std@@VDEVICE@@@2@AAU32@@Z 100c65d0 f i dll.obj
 0002:00039620       ?pointer_to@?$pointer_traits@PAU_Container_proxy@std@@@std@@SAPAU_Container_proxy@2@AAU32@@Z 100c6620 f i dll.obj
 0002:00039670       ?pop_back@?$deque@UFORMULA2_PAIR@@V?$allocator@UFORMULA2_PAIR@@@std@@@std@@QAEXXZ 100c6670 f i dll.obj
 0002:000397d0       ?pop_back@?$deque@UFORMULA_PAIR@@V?$allocator@UFORMULA_PAIR@@@std@@@std@@QAEXXZ 100c67d0 f i dll.obj
 0002:00039930       ?pop_front@?$deque@UFORMULA2_PAIR@@V?$allocator@UFORMULA2_PAIR@@@std@@@std@@QAEXXZ 100c6930 f i dll.obj
 0002:00039ab0       ?pop_front@?$deque@UFORMULA_PAIR@@V?$allocator@UFORMULA_PAIR@@@std@@@std@@QAEXXZ 100c6ab0 f i dll.obj
 0002:00039c30       ?push_back@?$deque@UFORMULA2_PAIR@@V?$allocator@UFORMULA2_PAIR@@@std@@@std@@QAEXABUFORMULA2_PAIR@@@Z 100c6c30 f i dll.obj
 0002:00039e10       ?push_back@?$deque@UFORMULA_PAIR@@V?$allocator@UFORMULA_PAIR@@@std@@@std@@QAEXABUFORMULA_PAIR@@@Z 100c6e10 f i dll.obj
 0002:00039ff0       ?push_front@?$deque@UFORMULA2_PAIR@@V?$allocator@UFORMULA2_PAIR@@@std@@@std@@QAEXABUFORMULA2_PAIR@@@Z 100c6ff0 f i dll.obj
 0002:0003a200       ?push_front@?$deque@UFORMULA_PAIR@@V?$allocator@UFORMULA_PAIR@@@std@@@std@@QAEXABUFORMULA_PAIR@@@Z 100c7200 f i dll.obj
 0002:0003a410       ?reserve@?$vector@V?$_List_unchecked_iterator@V?$_List_val@U?$_List_simple_types@U?$pair@$$CBV?$basic_string@DU?$char_traits@D@std@@V?$allocator@D@2@@std@@G@std@@@std@@@std@@@std@@U?$_Wrap_alloc@V?$allocator@V?$_List_unchecked_iterator@V?$_List_val@U?$_List_simple_types@U?$pair@$$CBV?$basic_string@DU?$char_traits@D@std@@V?$allocator@D@2@@std@@G@std@@@std@@@std@@@std@@@std@@@2@@std@@QAEXI@Z 100c7410 f i dll.obj
 0002:0003a490       ?reserve@?$vector@V?$_List_unchecked_iterator@V?$_List_val@U?$_List_simple_types@U?$pair@$$CBV?$basic_string@DU?$char_traits@D@std@@V?$allocator@D@2@@std@@VDEVICE@@@std@@@std@@@std@@@std@@U?$_Wrap_alloc@V?$allocator@V?$_List_unchecked_iterator@V?$_List_val@U?$_List_simple_types@U?$pair@$$CBV?$basic_string@DU?$char_traits@D@std@@V?$allocator@D@2@@std@@VDEVICE@@@std@@@std@@@std@@@std@@@std@@@2@@std@@QAEXI@Z 100c7490 f i dll.obj
 0002:0003a510       ?select_on_container_copy_construction@?$_Wrap_alloc@V?$allocator@UFORMULA2_PAIR@@@std@@@std@@QBE?AU12@U_Nil@2@@Z 100c7510 f i dll.obj
 0002:0003a580       ?select_on_container_copy_construction@?$_Wrap_alloc@V?$allocator@UFORMULA_PAIR@@@std@@@std@@QBE?AU12@U_Nil@2@@Z 100c7580 f i dll.obj
 0002:0003a5f0       ?select_on_container_copy_construction@?$allocator_traits@V?$allocator@UFORMULA2_PAIR@@@std@@@std@@SA?AV?$allocator@UFORMULA2_PAIR@@@2@ABV32@@Z 100c75f0 f i dll.obj
 0002:0003a650       ?select_on_container_copy_construction@?$allocator_traits@V?$allocator@UFORMULA_PAIR@@@std@@@std@@SA?AV?$allocator@UFORMULA_PAIR@@@2@ABV32@@Z 100c7650 f i dll.obj
 0002:0003a6b0       ?set_file_mode_x@EV@@QAEX_N@Z 100c76b0 f i dll.obj
 0002:0003a700       ?set_ftp@Formula@@QAEXM@Z  100c7700 f i dll.obj
 0002:0003a750       ?set_ftp@qtFormula@@QAEXM@Z 100c7750 f i dll.obj
 0002:0003a7a0       ?set_paused@Physics@@QAEX_N@Z 100c77a0 f i dll.obj
 0002:0003a7f0       ?set_watts_factor@Physics@@QAEXN@Z 100c77f0 f i dll.obj
 0002:0003a8f0       ?setflip@Physics@@QAEX_N@Z 100c78f0 f i dll.obj
 0002:0003a940       ?setifgain@Physics@@QAEXN@Z 100c7940 f i dll.obj
 0002:0003a990       ?setwgif@Physics@@QAEX_N@Z 100c7990 f i dll.obj
 0002:0003a9e0       ?size@?$_Hash@V?$_Umap_traits@V?$basic_string@DU?$char_traits@D@std@@V?$allocator@D@2@@std@@GV?$_Uhash_compare@V?$basic_string@DU?$char_traits@D@std@@V?$allocator@D@2@@std@@U?$hash@V?$basic_string@DU?$char_traits@D@std@@V?$allocator@D@2@@std@@@2@U?$equal_to@V?$basic_string@DU?$char_traits@D@std@@V?$allocator@D@2@@std@@@2@@2@V?$allocator@U?$pair@$$CBV?$basic_string@DU?$char_traits@D@std@@V?$allocator@D@2@@std@@G@std@@@2@$0A@@std@@@std@@QBEIXZ 100c79e0 f i dll.obj
 0002:0003aa40       ?size@?$_Hash@V?$_Umap_traits@V?$basic_string@DU?$char_traits@D@std@@V?$allocator@D@2@@std@@VDEVICE@@V?$_Uhash_compare@V?$basic_string@DU?$char_traits@D@std@@V?$allocator@D@2@@std@@U?$hash@V?$basic_string@DU?$char_traits@D@std@@V?$allocator@D@2@@std@@@2@U?$equal_to@V?$basic_string@DU?$char_traits@D@std@@V?$allocator@D@2@@std@@@2@@2@V?$allocator@U?$pair@$$CBV?$basic_string@DU?$char_traits@D@std@@V?$allocator@D@2@@std@@VDEVICE@@@std@@@2@$0A@@std@@@std@@QBEIXZ 100c7a40 f i dll.obj
 0002:0003aaa0       ?size@?$basic_string@DU?$char_traits@D@std@@V?$allocator@D@2@@std@@QBEIXZ 100c7aa0 f i dll.obj
 0002:0003ab00       ?size@?$list@U?$pair@$$CBV?$basic_string@DU?$char_traits@D@std@@V?$allocator@D@2@@std@@G@std@@V?$allocator@U?$pair@$$CBV?$basic_string@DU?$char_traits@D@std@@V?$allocator@D@2@@std@@G@std@@@2@@std@@QBEIXZ 100c7b00 f i dll.obj
 0002:0003ab60       ?size@?$list@U?$pair@$$CBV?$basic_string@DU?$char_traits@D@std@@V?$allocator@D@2@@std@@VDEVICE@@@std@@V?$allocator@U?$pair@$$CBV?$basic_string@DU?$char_traits@D@std@@V?$allocator@D@2@@std@@VDEVICE@@@std@@@2@@std@@QBEIXZ 100c7b60 f i dll.obj
 0002:0003abc0       ?size@?$vector@V?$_List_unchecked_iterator@V?$_List_val@U?$_List_simple_types@U?$pair@$$CBV?$basic_string@DU?$char_traits@D@std@@V?$allocator@D@2@@std@@G@std@@@std@@@std@@@std@@U?$_Wrap_alloc@V?$allocator@V?$_List_unchecked_iterator@V?$_List_val@U?$_List_simple_types@U?$pair@$$CBV?$basic_string@DU?$char_traits@D@std@@V?$allocator@D@2@@std@@G@std@@@std@@@std@@@std@@@std@@@2@@std@@QBEIXZ 100c7bc0 f i dll.obj
 0002:0003ac30       ?size@?$vector@V?$_List_unchecked_iterator@V?$_List_val@U?$_List_simple_types@U?$pair@$$CBV?$basic_string@DU?$char_traits@D@std@@V?$allocator@D@2@@std@@VDEVICE@@@std@@@std@@@std@@@std@@U?$_Wrap_alloc@V?$allocator@V?$_List_unchecked_iterator@V?$_List_val@U?$_List_simple_types@U?$pair@$$CBV?$basic_string@DU?$char_traits@D@std@@V?$allocator@D@2@@std@@VDEVICE@@@std@@@std@@@std@@@std@@@std@@@2@@std@@QBEIXZ 100c7c30 f i dll.obj
 0002:0003aca0       ?size@?$vector@V?$basic_string@DU?$char_traits@D@std@@V?$allocator@D@2@@std@@V?$allocator@V?$basic_string@DU?$char_traits@D@std@@V?$allocator@D@2@@std@@@2@@std@@QBEIXZ 100c7ca0 f i dll.obj
 0002:0003ad10       ?strstr@@YAPADQADQBD@Z     100c7d10 f i dll.obj
 0002:0003ad70       ?tr@ANT@RACERMATE@@SA?AVQString@@PBD0H@Z 100c7d70 f i dll.obj
 0002:0003ae00       ?tr@Ctsrv@RACERMATE@@SA?AVQString@@PBD0H@Z 100c7e00 f i dll.obj
 0002:0003ae90       ?trUtf8@ANT@RACERMATE@@SA?AVQString@@PBD0H@Z 100c7e90 f i dll.obj
 0002:0003af20       ?trUtf8@Ctsrv@RACERMATE@@SA?AVQString@@PBD0H@Z 100c7f20 f i dll.obj
 0002:0003afb0       ?update_velotron_current@@YAHPBDG@Z 100c7fb0 f   dll.obj
 0002:0003b1c0       _Enablelogs                100c81c0 f   dll.obj
 0002:0003b310       _EndRecalibrationMode      100c8310 f   dll.obj
 0002:0003b860       _GetAPIVersion             100c8860 f   dll.obj
 0002:0003b8a0       _GetCalibration            100c88a0 f   dll.obj
 0002:0003bd70       _GetCurrentVTGear          100c8d70 f   dll.obj
 0002:0003c000       _GetFirmWareVersion        100c9000 f   dll.obj
 0002:0003c300       _GetHandleBarButtons       100c9300 f i dll.obj
 0002:0003c870       _GetIsCalibrated           100c9870 f   dll.obj
 0002:0003c9d0       _GetRacerMateDeviceID      100c99d0 f   dll.obj
 0002:0003d080       _GetTrainerData            100ca080 f i dll.obj
 0002:0003d830       _ResetAlltoIdle            100ca830 f   dll.obj
 0002:0003d860       _ResetAverages             100ca860 f   dll.obj
 0002:0003d990       _ResettoIdle               100ca990 f   dll.obj
 0002:0003dd10       _SetErgModeLoad            100cad10 f   dll.obj
 0002:0003dd40       _SetHRBeepBounds           100cad40 f   dll.obj
 0002:0003e0c0       _SetRecalibrationMode      100cb0c0 f   dll.obj
 0002:0003e550       _SetSlope                  100cb550 f   dll.obj
 0002:0003e7b0       _SetVelotronParameters     100cb7b0 f   dll.obj
 0002:0003ec50       _Setlogfilepath            100cbc50 f   dll.obj
 0002:0003ed20       ___local_stdio_printf_options 100cbd20 f i dll.obj
 0002:0003ed60       ___local_stdio_scanf_options 100cbd60 f i dll.obj
 0002:0003eda0       __vfprintf_l               100cbda0 f i dll.obj
 0002:0003ee20       __vsnprintf_l              100cbe20 f i dll.obj
 0002:0003eed0       __vsprintf_l               100cbed0 f i dll.obj
 0002:0003ef30       __vsscanf_l                100cbf30 f i dll.obj
 0002:0003efb0       _associate                 100cbfb0 f   dll.obj
 0002:0003f050       _calc_tp                   100cc050 f i dll.obj
 0002:0003f210       _getPortNames              100cc210 f   dll.obj
 0002:0003f2e0       _get_ant_hr                100cc2e0 f   dll.obj
 0002:0003f350       _get_ant_sensors           100cc350 f   dll.obj
 0002:0003f3b0       _get_ant_sensors_string    100cc3b0 f   dll.obj
 0002:0003f410       _get_average_bars          100cc410 f i dll.obj
 0002:0003f6c0       _get_bars                  100cc6c0 f i dll.obj
 0002:0003f950       _get_build_date            100cc950 f   dll.obj
 0002:0003f9c0       _get_calories              100cc9c0 f i dll.obj
 0002:0003faf0       _get_computrainer_mode     100ccaf0 f   dll.obj
 0002:0003fc80       _get_comstats              100ccc80 f   dll.obj
 0002:0003fd90       _get_dll_version           100ccd90 f   dll.obj
 0002:0003fdd0       _get_errstr                100ccdd0 f   dll.obj
 0002:0003fed0       _get_if                    100cced0 f i dll.obj
 0002:00040000       _get_n_devices             100cd000 f   dll.obj
 0002:00040050       _get_n_udp_clients         100cd050 f   dll.obj
 0002:000400b0       _get_np                    100cd0b0 f i dll.obj
 0002:000401e0       _get_pp                    100cd1e0 f i dll.obj
 0002:00040310       _get_rs232_ports           100cd310 f   dll.obj
 0002:00040640       _get_ss_data               100cd640 f i dll.obj
 0002:00040b70       _get_status_bits           100cdb70 f   dll.obj
 0002:00040e00       _get_trainer_type          100cde00 f   dll.obj
 0002:00040e40       _get_tss                   100cde40 f i dll.obj
 0002:00040f70       _get_udp_trainers          100cdf70 f   dll.obj
 0002:00040fd0       _get_udpkey                100cdfd0 f   dll.obj
 0002:00041180       _printf                    100ce180 f i dll.obj
 0002:00041210       _racermate_close           100ce210 f   dll.obj
 0002:000413b0       _racermate_init            100ce3b0 f   dll.obj
 0002:000414a0       _resetTrainer              100ce4a0 f   dll.obj
 0002:00041590       _setGear                   100ce590 f   dll.obj
 0002:000416c0       _setPause                  100ce6c0 f   dll.obj
 0002:00041800       _set_draftwind             100ce800 f   dll.obj
 0002:00041940       _set_ftp                   100ce940 f i dll.obj
 0002:00041a40       _set_wind                  100cea40 f   dll.obj
 0002:00041b80       _sprintf                   100ceb80 f i dll.obj
 0002:00041c00       _sscanf                    100cec00 f i dll.obj
 0002:00041c80       _startTrainer              100cec80 f   dll.obj
 0002:00042de0       _start_ant                 100cfde0 f   dll.obj
 0002:00042fb0       _start_server              100cffb0 f   dll.obj
 0002:00043190       _start_trainer             100d0190 f   dll.obj
 0002:000434c0       _stopTrainer               100d04c0 f   dll.obj
 0002:00043850       _stop_ant                  100d0850 f   dll.obj
 0002:00043910       _stop_server               100d0910 f   dll.obj
 0002:000439e0       _unassociate               100d09e0 f   dll.obj
 0002:00043a80       ??$?0AAU?$_Wrap_alloc@U?$_Wrap_alloc@V?$allocator@V?$_List_unchecked_iterator@V?$_List_val@U?$_List_simple_types@U?$pair@$$CBV?$basic_string@DU?$char_traits@D@std@@V?$allocator@D@2@@std@@G@std@@@std@@@std@@@std@@@std@@@std@@@std@@@?$_Wrap_alloc@U?$_Wrap_alloc@V?$allocator@U_Container_proxy@std@@@std@@@std@@@std@@QAE@AAU?$_Wrap_alloc@U?$_Wrap_alloc@V?$allocator@V?$_List_unchecked_iterator@V?$_List_val@U?$_List_simple_types@U?$pair@$$CBV?$basic_string@DU?$char_traits@D@std@@V?$allocator@D@2@@std@@G@std@@@std@@@std@@@std@@@std@@@std@@@1@@Z 100d0a80 f i dll_globals.obj
 0002:00043af0       ??$?0AAU?$_Wrap_alloc@U?$_Wrap_alloc@V?$allocator@V?$_List_unchecked_iterator@V?$_List_val@U?$_List_simple_types@U?$pair@$$CBV?$basic_string@DU?$char_traits@D@std@@V?$allocator@D@2@@std@@G@std@@@std@@@std@@@std@@@std@@@std@@@std@@@?$_Wrap_alloc@V?$allocator@U_Container_proxy@std@@@std@@@std@@QAE@AAU?$_Wrap_alloc@U?$_Wrap_alloc@V?$allocator@V?$_List_unchecked_iterator@V?$_List_val@U?$_List_simple_types@U?$pair@$$CBV?$basic_string@DU?$char_traits@D@std@@V?$allocator@D@2@@std@@G@std@@@std@@@std@@@std@@@std@@@std@@@1@@Z 100d0af0 f i dll_globals.obj
 0002:00043b60       ??$?0AAU?$_Wrap_alloc@U?$_Wrap_alloc@V?$allocator@V?$_List_unchecked_iterator@V?$_List_val@U?$_List_simple_types@U?$pair@$$CBV?$basic_string@DU?$char_traits@D@std@@V?$allocator@D@2@@std@@VDEVICE@@@std@@@std@@@std@@@std@@@std@@@std@@@std@@@?$_Wrap_alloc@U?$_Wrap_alloc@V?$allocator@U_Container_proxy@std@@@std@@@std@@@std@@QAE@AAU?$_Wrap_alloc@U?$_Wrap_alloc@V?$allocator@V?$_List_unchecked_iterator@V?$_List_val@U?$_List_simple_types@U?$pair@$$CBV?$basic_string@DU?$char_traits@D@std@@V?$allocator@D@2@@std@@VDEVICE@@@std@@@std@@@std@@@std@@@std@@@std@@@1@@Z 100d0b60 f i dll_globals.obj
 0002:00043bd0       ??$?0AAU?$_Wrap_alloc@U?$_Wrap_alloc@V?$allocator@V?$_List_unchecked_iterator@V?$_List_val@U?$_List_simple_types@U?$pair@$$CBV?$basic_string@DU?$char_traits@D@std@@V?$allocator@D@2@@std@@VDEVICE@@@std@@@std@@@std@@@std@@@std@@@std@@@std@@@?$_Wrap_alloc@V?$allocator@U_Container_proxy@std@@@std@@@std@@QAE@AAU?$_Wrap_alloc@U?$_Wrap_alloc@V?$allocator@V?$_List_unchecked_iterator@V?$_List_val@U?$_List_simple_types@U?$pair@$$CBV?$basic_string@DU?$char_traits@D@std@@V?$allocator@D@2@@std@@VDEVICE@@@std@@@std@@@std@@@std@@@std@@@std@@@1@@Z 100d0bd0 f i dll_globals.obj
 0002:00043c40       ??$?0AAU?$_Wrap_alloc@V?$allocator@U?$_List_node@U?$pair@$$CBV?$basic_string@DU?$char_traits@D@std@@V?$allocator@D@2@@std@@G@std@@PAX@std@@@std@@@std@@@?$_Wrap_alloc@V?$allocator@U_Container_proxy@std@@@std@@@std@@QAE@AAU?$_Wrap_alloc@V?$allocator@U?$_List_node@U?$pair@$$CBV?$basic_string@DU?$char_traits@D@std@@V?$allocator@D@2@@std@@G@std@@PAX@std@@@std@@@1@@Z 100d0c40 f i dll_globals.obj
 0002:00043cb0       ??$?0AAU?$_Wrap_alloc@V?$allocator@U?$_List_node@U?$pair@$$CBV?$basic_string@DU?$char_traits@D@std@@V?$allocator@D@2@@std@@VDEVICE@@@std@@PAX@std@@@std@@@std@@@?$_Wrap_alloc@V?$allocator@U_Container_proxy@std@@@std@@@std@@QAE@AAU?$_Wrap_alloc@V?$allocator@U?$_List_node@U?$pair@$$CBV?$basic_string@DU?$char_traits@D@std@@V?$allocator@D@2@@std@@VDEVICE@@@std@@PAX@std@@@std@@@1@@Z 100d0cb0 f i dll_globals.obj
 0002:00043d20       ??$?0AAU?$equal_to@V?$basic_string@DU?$char_traits@D@std@@V?$allocator@D@2@@std@@@std@@M@?$_Compressed_pair@U?$equal_to@V?$basic_string@DU?$char_traits@D@std@@V?$allocator@D@2@@std@@@std@@M$00@std@@QAE@U_One_then_variadic_args_t@1@AAU?$equal_to@V?$basic_string@DU?$char_traits@D@std@@V?$allocator@D@2@@std@@@1@$$QAM@Z 100d0d20 f i dll_globals.obj
 0002:00043da0       ??$?0AAU?$hash@V?$basic_string@DU?$char_traits@D@std@@V?$allocator@D@2@@std@@@std@@U_One_then_variadic_args_t@1@AAU?$equal_to@V?$basic_string@DU?$char_traits@D@std@@V?$allocator@D@2@@std@@@1@M@?$_Compressed_pair@U?$hash@V?$basic_string@DU?$char_traits@D@std@@V?$allocator@D@2@@std@@@std@@V?$_Compressed_pair@U?$equal_to@V?$basic_string@DU?$char_traits@D@std@@V?$allocator@D@2@@std@@@std@@M$00@2@$00@std@@QAE@U_One_then_variadic_args_t@1@AAU?$hash@V?$basic_string@DU?$char_traits@D@std@@V?$allocator@D@2@@std@@@1@$$QAU21@AAU?$equal_to@V?$basic_string@DU?$char_traits@D@std@@V?$allocator@D@2@@std@@@1@$$QAM@Z 100d0da0 f i dll_globals.obj
 0002:00043e40       ??$?0ABU?$_Wrap_alloc@V?$allocator@V?$_List_unchecked_iterator@V?$_List_val@U?$_List_simple_types@U?$pair@$$CBV?$basic_string@DU?$char_traits@D@std@@V?$allocator@D@2@@std@@G@std@@@std@@@std@@@std@@@std@@@std@@$$V@?$_Compressed_pair@U?$_Wrap_alloc@U?$_Wrap_alloc@V?$allocator@V?$_List_unchecked_iterator@V?$_List_val@U?$_List_simple_types@U?$pair@$$CBV?$basic_string@DU?$char_traits@D@std@@V?$allocator@D@2@@std@@G@std@@@std@@@std@@@std@@@std@@@std@@@std@@V?$_Vector_val@U?$_Simple_types@V?$_List_unchecked_iterator@V?$_List_val@U?$_List_simple_types@U?$pair@$$CBV?$basic_string@DU?$char_traits@D@std@@V?$allocator@D@2@@std@@G@std@@@std@@@std@@@std@@@std@@@2@$00@std@@QAE@U_One_then_variadic_args_t@1@ABU?$_Wrap_alloc@V?$allocator@V?$_List_unchecked_iterator@V?$_List_val@U?$_List_simple_types@U?$pair@$$CBV?$basic_string@DU?$char_traits@D@std@@V?$allocator@D@2@@std@@G@std@@@std@@@std@@@std@@@std@@@1@@Z 100d0e40 f i dll_globals.obj
 0002:00043eb0       ??$?0ABU?$_Wrap_alloc@V?$allocator@V?$_List_unchecked_iterator@V?$_List_val@U?$_List_simple_types@U?$pair@$$CBV?$basic_string@DU?$char_traits@D@std@@V?$allocator@D@2@@std@@G@std@@@std@@@std@@@std@@@std@@@std@@@?$_Wrap_alloc@U?$_Wrap_alloc@V?$allocator@V?$_List_unchecked_iterator@V?$_List_val@U?$_List_simple_types@U?$pair@$$CBV?$basic_string@DU?$char_traits@D@std@@V?$allocator@D@2@@std@@G@std@@@std@@@std@@@std@@@std@@@std@@@std@@QAE@ABU?$_Wrap_alloc@V?$allocator@V?$_List_unchecked_iterator@V?$_List_val@U?$_List_simple_types@U?$pair@$$CBV?$basic_string@DU?$char_traits@D@std@@V?$allocator@D@2@@std@@G@std@@@std@@@std@@@std@@@std@@@1@@Z 100d0eb0 f i dll_globals.obj
 0002:00043f20       ??$?0ABU?$_Wrap_alloc@V?$allocator@V?$_List_unchecked_iterator@V?$_List_val@U?$_List_simple_types@U?$pair@$$CBV?$basic_string@DU?$char_traits@D@std@@V?$allocator@D@2@@std@@G@std@@@std@@@std@@@std@@@std@@@std@@X@?$_Vector_alloc@U?$_Vec_base_types@V?$_List_unchecked_iterator@V?$_List_val@U?$_List_simple_types@U?$pair@$$CBV?$basic_string@DU?$char_traits@D@std@@V?$allocator@D@2@@std@@G@std@@@std@@@std@@@std@@U?$_Wrap_alloc@V?$allocator@V?$_List_unchecked_iterator@V?$_List_val@U?$_List_simple_types@U?$pair@$$CBV?$basic_string@DU?$char_traits@D@std@@V?$allocator@D@2@@std@@G@std@@@std@@@std@@@std@@@std@@@2@@std@@@std@@QAE@ABU?$_Wrap_alloc@V?$allocator@V?$_List_unchecked_iterator@V?$_List_val@U?$_List_simple_types@U?$pair@$$CBV?$basic_string@DU?$char_traits@D@std@@V?$allocator@D@2@@std@@G@std@@@std@@@std@@@std@@@std@@@1@@Z 100d0f20 f i dll_globals.obj
 0002:00043fe0       ??$?0ABU?$_Wrap_alloc@V?$allocator@V?$_List_unchecked_iterator@V?$_List_val@U?$_List_simple_types@U?$pair@$$CBV?$basic_string@DU?$char_traits@D@std@@V?$allocator@D@2@@std@@VDEVICE@@@std@@@std@@@std@@@std@@@std@@@std@@$$V@?$_Compressed_pair@U?$_Wrap_alloc@U?$_Wrap_alloc@V?$allocator@V?$_List_unchecked_iterator@V?$_List_val@U?$_List_simple_types@U?$pair@$$CBV?$basic_string@DU?$char_traits@D@std@@V?$allocator@D@2@@std@@VDEVICE@@@std@@@std@@@std@@@std@@@std@@@std@@@std@@V?$_Vector_val@U?$_Simple_types@V?$_List_unchecked_iterator@V?$_List_val@U?$_List_simple_types@U?$pair@$$CBV?$basic_string@DU?$char_traits@D@std@@V?$allocator@D@2@@std@@VDEVICE@@@std@@@std@@@std@@@std@@@std@@@2@$00@std@@QAE@U_One_then_variadic_args_t@1@ABU?$_Wrap_alloc@V?$allocator@V?$_List_unchecked_iterator@V?$_List_val@U?$_List_simple_types@U?$pair@$$CBV?$basic_string@DU?$char_traits@D@std@@V?$allocator@D@2@@std@@VDEVICE@@@std@@@std@@@std@@@std@@@std@@@1@@Z 100d0fe0 f i dll_globals.obj
 0002:00044050       ??$?0ABU?$_Wrap_alloc@V?$allocator@V?$_List_unchecked_iterator@V?$_List_val@U?$_List_simple_types@U?$pair@$$CBV?$basic_string@DU?$char_traits@D@std@@V?$allocator@D@2@@std@@VDEVICE@@@std@@@std@@@std@@@std@@@std@@@std@@@?$_Wrap_alloc@U?$_Wrap_alloc@V?$allocator@V?$_List_unchecked_iterator@V?$_List_val@U?$_List_simple_types@U?$pair@$$CBV?$basic_string@DU?$char_traits@D@std@@V?$allocator@D@2@@std@@VDEVICE@@@std@@@std@@@std@@@std@@@std@@@std@@@std@@QAE@ABU?$_Wrap_alloc@V?$allocator@V?$_List_unchecked_iterator@V?$_List_val@U?$_List_simple_types@U?$pair@$$CBV?$basic_string@DU?$char_traits@D@std@@V?$allocator@D@2@@std@@VDEVICE@@@std@@@std@@@std@@@std@@@std@@@1@@Z 100d1050 f i dll_globals.obj
 0002:000440c0       ??$?0ABU?$_Wrap_alloc@V?$allocator@V?$_List_unchecked_iterator@V?$_List_val@U?$_List_simple_types@U?$pair@$$CBV?$basic_string@DU?$char_traits@D@std@@V?$allocator@D@2@@std@@VDEVICE@@@std@@@std@@@std@@@std@@@std@@@std@@X@?$_Vector_alloc@U?$_Vec_base_types@V?$_List_unchecked_iterator@V?$_List_val@U?$_List_simple_types@U?$pair@$$CBV?$basic_string@DU?$char_traits@D@std@@V?$allocator@D@2@@std@@VDEVICE@@@std@@@std@@@std@@@std@@U?$_Wrap_alloc@V?$allocator@V?$_List_unchecked_iterator@V?$_List_val@U?$_List_simple_types@U?$pair@$$CBV?$basic_string@DU?$char_traits@D@std@@V?$allocator@D@2@@std@@VDEVICE@@@std@@@std@@@std@@@std@@@std@@@2@@std@@@std@@QAE@ABU?$_Wrap_alloc@V?$allocator@V?$_List_unchecked_iterator@V?$_List_val@U?$_List_simple_types@U?$pair@$$CBV?$basic_string@DU?$char_traits@D@std@@V?$allocator@D@2@@std@@VDEVICE@@@std@@@std@@@std@@@std@@@std@@@1@@Z 100d10c0 f i dll_globals.obj
 0002:00044180       ??$?0ABV?$allocator@U?$pair@$$CBV?$basic_string@DU?$char_traits@D@std@@V?$allocator@D@2@@std@@G@std@@@std@@$$V@?$_Compressed_pair@U?$_Wrap_alloc@V?$allocator@U?$_List_node@U?$pair@$$CBV?$basic_string@DU?$char_traits@D@std@@V?$allocator@D@2@@std@@G@std@@PAX@std@@@std@@@std@@V?$_List_val@U?$_List_simple_types@U?$pair@$$CBV?$basic_string@DU?$char_traits@D@std@@V?$allocator@D@2@@std@@G@std@@@std@@@2@$00@std@@QAE@U_One_then_variadic_args_t@1@ABV?$allocator@U?$pair@$$CBV?$basic_string@DU?$char_traits@D@std@@V?$allocator@D@2@@std@@G@std@@@1@@Z 100d1180 f i dll_globals.obj
 0002:000441f0       ??$?0ABV?$allocator@U?$pair@$$CBV?$basic_string@DU?$char_traits@D@std@@V?$allocator@D@2@@std@@G@std@@@std@@@?$_Wrap_alloc@V?$allocator@U?$_List_node@U?$pair@$$CBV?$basic_string@DU?$char_traits@D@std@@V?$allocator@D@2@@std@@G@std@@PAX@std@@@std@@@std@@QAE@ABV?$allocator@U?$pair@$$CBV?$basic_string@DU?$char_traits@D@std@@V?$allocator@D@2@@std@@G@std@@@1@@Z 100d11f0 f i dll_globals.obj
 0002:00044260       ??$?0ABV?$allocator@U?$pair@$$CBV?$basic_string@DU?$char_traits@D@std@@V?$allocator@D@2@@std@@G@std@@@std@@@?$_Wrap_alloc@V?$allocator@V?$_List_unchecked_iterator@V?$_List_val@U?$_List_simple_types@U?$pair@$$CBV?$basic_string@DU?$char_traits@D@std@@V?$allocator@D@2@@std@@G@std@@@std@@@std@@@std@@@std@@@std@@QAE@ABV?$allocator@U?$pair@$$CBV?$basic_string@DU?$char_traits@D@std@@V?$allocator@D@2@@std@@G@std@@@1@@Z 100d1260 f i dll_globals.obj
 0002:000442d0       ??$?0ABV?$allocator@U?$pair@$$CBV?$basic_string@DU?$char_traits@D@std@@V?$allocator@D@2@@std@@G@std@@@std@@X@?$_List_alloc@U?$_List_base_types@U?$pair@$$CBV?$basic_string@DU?$char_traits@D@std@@V?$allocator@D@2@@std@@G@std@@V?$allocator@U?$pair@$$CBV?$basic_string@DU?$char_traits@D@std@@V?$allocator@D@2@@std@@G@std@@@2@@std@@@std@@QAE@ABV?$allocator@U?$pair@$$CBV?$basic_string@DU?$char_traits@D@std@@V?$allocator@D@2@@std@@G@std@@@1@@Z 100d12d0 f i dll_globals.obj
 0002:00044400       ??$?0ABV?$allocator@U?$pair@$$CBV?$basic_string@DU?$char_traits@D@std@@V?$allocator@D@2@@std@@G@std@@@std@@X@?$_List_buy@U?$pair@$$CBV?$basic_string@DU?$char_traits@D@std@@V?$allocator@D@2@@std@@G@std@@V?$allocator@U?$pair@$$CBV?$basic_string@DU?$char_traits@D@std@@V?$allocator@D@2@@std@@G@std@@@2@@std@@QAE@ABV?$allocator@U?$pair@$$CBV?$basic_string@DU?$char_traits@D@std@@V?$allocator@D@2@@std@@G@std@@@1@@Z 100d1400 f i dll_globals.obj
 0002:00044470       ??$?0ABV?$allocator@U?$pair@$$CBV?$basic_string@DU?$char_traits@D@std@@V?$allocator@D@2@@std@@VDEVICE@@@std@@@std@@$$V@?$_Compressed_pair@U?$_Wrap_alloc@V?$allocator@U?$_List_node@U?$pair@$$CBV?$basic_string@DU?$char_traits@D@std@@V?$allocator@D@2@@std@@VDEVICE@@@std@@PAX@std@@@std@@@std@@V?$_List_val@U?$_List_simple_types@U?$pair@$$CBV?$basic_string@DU?$char_traits@D@std@@V?$allocator@D@2@@std@@VDEVICE@@@std@@@std@@@2@$00@std@@QAE@U_One_then_variadic_args_t@1@ABV?$allocator@U?$pair@$$CBV?$basic_string@DU?$char_traits@D@std@@V?$allocator@D@2@@std@@VDEVICE@@@std@@@1@@Z 100d1470 f i dll_globals.obj
 0002:000444e0       ??$?0ABV?$allocator@U?$pair@$$CBV?$basic_string@DU?$char_traits@D@std@@V?$allocator@D@2@@std@@VDEVICE@@@std@@@std@@@?$_Wrap_alloc@V?$allocator@U?$_List_node@U?$pair@$$CBV?$basic_string@DU?$char_traits@D@std@@V?$allocator@D@2@@std@@VDEVICE@@@std@@PAX@std@@@std@@@std@@QAE@ABV?$allocator@U?$pair@$$CBV?$basic_string@DU?$char_traits@D@std@@V?$allocator@D@2@@std@@VDEVICE@@@std@@@1@@Z 100d14e0 f i dll_globals.obj
 0002:00044550       ??$?0ABV?$allocator@U?$pair@$$CBV?$basic_string@DU?$char_traits@D@std@@V?$allocator@D@2@@std@@VDEVICE@@@std@@@std@@@?$_Wrap_alloc@V?$allocator@V?$_List_unchecked_iterator@V?$_List_val@U?$_List_simple_types@U?$pair@$$CBV?$basic_string@DU?$char_traits@D@std@@V?$allocator@D@2@@std@@VDEVICE@@@std@@@std@@@std@@@std@@@std@@@std@@QAE@ABV?$allocator@U?$pair@$$CBV?$basic_string@DU?$char_traits@D@std@@V?$allocator@D@2@@std@@VDEVICE@@@std@@@1@@Z 100d1550 f i dll_globals.obj
 0002:000445c0       ??$?0ABV?$allocator@U?$pair@$$CBV?$basic_string@DU?$char_traits@D@std@@V?$allocator@D@2@@std@@VDEVICE@@@std@@@std@@X@?$_List_alloc@U?$_List_base_types@U?$pair@$$CBV?$basic_string@DU?$char_traits@D@std@@V?$allocator@D@2@@std@@VDEVICE@@@std@@V?$allocator@U?$pair@$$CBV?$basic_string@DU?$char_traits@D@std@@V?$allocator@D@2@@std@@VDEVICE@@@std@@@2@@std@@@std@@QAE@ABV?$allocator@U?$pair@$$CBV?$basic_string@DU?$char_traits@D@std@@V?$allocator@D@2@@std@@VDEVICE@@@std@@@1@@Z 100d15c0 f i dll_globals.obj
 0002:000446f0       ??$?0ABV?$allocator@U?$pair@$$CBV?$basic_string@DU?$char_traits@D@std@@V?$allocator@D@2@@std@@VDEVICE@@@std@@@std@@X@?$_List_buy@U?$pair@$$CBV?$basic_string@DU?$char_traits@D@std@@V?$allocator@D@2@@std@@VDEVICE@@@std@@V?$allocator@U?$pair@$$CBV?$basic_string@DU?$char_traits@D@std@@V?$allocator@D@2@@std@@VDEVICE@@@std@@@2@@std@@QAE@ABV?$allocator@U?$pair@$$CBV?$basic_string@DU?$char_traits@D@std@@V?$allocator@D@2@@std@@VDEVICE@@@std@@@1@@Z 100d16f0 f i dll_globals.obj
 0002:00044760       ??$?0U?$_List_node@U?$pair@$$CBV?$basic_string@DU?$char_traits@D@std@@V?$allocator@D@2@@std@@G@std@@PAX@std@@@?$allocator@U_Container_proxy@std@@@std@@QAE@ABV?$allocator@U?$_List_node@U?$pair@$$CBV?$basic_string@DU?$char_traits@D@std@@V?$allocator@D@2@@std@@G@std@@PAX@std@@@1@@Z 100d1760 f i dll_globals.obj
 0002:000447a0       ??$?0U?$_List_node@U?$pair@$$CBV?$basic_string@DU?$char_traits@D@std@@V?$allocator@D@2@@std@@VDEVICE@@@std@@PAX@std@@@?$allocator@U_Container_proxy@std@@@std@@QAE@ABV?$allocator@U?$_List_node@U?$pair@$$CBV?$basic_string@DU?$char_traits@D@std@@V?$allocator@D@2@@std@@VDEVICE@@@std@@PAX@std@@@1@@Z 100d17a0 f i dll_globals.obj
 0002:000447e0       ??$?0U?$pair@$$CBV?$basic_string@DU?$char_traits@D@std@@V?$allocator@D@2@@std@@G@std@@@?$allocator@U?$_List_node@U?$pair@$$CBV?$basic_string@DU?$char_traits@D@std@@V?$allocator@D@2@@std@@G@std@@PAX@std@@@std@@QAE@ABV?$allocator@U?$pair@$$CBV?$basic_string@DU?$char_traits@D@std@@V?$allocator@D@2@@std@@G@std@@@1@@Z 100d17e0 f i dll_globals.obj
 0002:00044820       ??$?0U?$pair@$$CBV?$basic_string@DU?$char_traits@D@std@@V?$allocator@D@2@@std@@G@std@@@?$allocator@V?$_List_unchecked_iterator@V?$_List_val@U?$_List_simple_types@U?$pair@$$CBV?$basic_string@DU?$char_traits@D@std@@V?$allocator@D@2@@std@@G@std@@@std@@@std@@@std@@@std@@QAE@ABV?$allocator@U?$pair@$$CBV?$basic_string@DU?$char_traits@D@std@@V?$allocator@D@2@@std@@G@std@@@1@@Z 100d1820 f i dll_globals.obj
 0002:00044860       ??$?0U?$pair@$$CBV?$basic_string@DU?$char_traits@D@std@@V?$allocator@D@2@@std@@VDEVICE@@@std@@@?$allocator@U?$_List_node@U?$pair@$$CBV?$basic_string@DU?$char_traits@D@std@@V?$allocator@D@2@@std@@VDEVICE@@@std@@PAX@std@@@std@@QAE@ABV?$allocator@U?$pair@$$CBV?$basic_string@DU?$char_traits@D@std@@V?$allocator@D@2@@std@@VDEVICE@@@std@@@1@@Z 100d1860 f i dll_globals.obj
 0002:000448a0       ??$?0U?$pair@$$CBV?$basic_string@DU?$char_traits@D@std@@V?$allocator@D@2@@std@@VDEVICE@@@std@@@?$allocator@V?$_List_unchecked_iterator@V?$_List_val@U?$_List_simple_types@U?$pair@$$CBV?$basic_string@DU?$char_traits@D@std@@V?$allocator@D@2@@std@@VDEVICE@@@std@@@std@@@std@@@std@@@std@@QAE@ABV?$allocator@U?$pair@$$CBV?$basic_string@DU?$char_traits@D@std@@V?$allocator@D@2@@std@@VDEVICE@@@std@@@1@@Z 100d18a0 f i dll_globals.obj
 0002:000448e0       ??$?0V?$_List_unchecked_iterator@V?$_List_val@U?$_List_simple_types@U?$pair@$$CBV?$basic_string@DU?$char_traits@D@std@@V?$allocator@D@2@@std@@G@std@@@std@@@std@@@std@@@?$allocator@U_Container_proxy@std@@@std@@QAE@ABV?$allocator@V?$_List_unchecked_iterator@V?$_List_val@U?$_List_simple_types@U?$pair@$$CBV?$basic_string@DU?$char_traits@D@std@@V?$allocator@D@2@@std@@G@std@@@std@@@std@@@std@@@1@@Z 100d18e0 f i dll_globals.obj
 0002:00044920       ??$?0V?$_List_unchecked_iterator@V?$_List_val@U?$_List_simple_types@U?$pair@$$CBV?$basic_string@DU?$char_traits@D@std@@V?$allocator@D@2@@std@@VDEVICE@@@std@@@std@@@std@@@std@@@?$allocator@U_Container_proxy@std@@@std@@QAE@ABV?$allocator@V?$_List_unchecked_iterator@V?$_List_val@U?$_List_simple_types@U?$pair@$$CBV?$basic_string@DU?$char_traits@D@std@@V?$allocator@D@2@@std@@VDEVICE@@@std@@@std@@@std@@@std@@@1@@Z 100d1920 f i dll_globals.obj
 0002:00044960       ??$_Construct1@U_Container_proxy@std@@U12@@?$allocator_traits@U?$_Wrap_alloc@V?$allocator@U_Container_proxy@std@@@std@@@std@@@std@@SAXU?$integral_constant@_N$00@1@AAU?$_Wrap_alloc@V?$allocator@U_Container_proxy@std@@@std@@@1@PAU_Container_proxy@1@$$QAU41@@Z 100d1960 f i dll_globals.obj
 0002:00044a10       ??$_Destroy1@U_Container_proxy@std@@@?$allocator_traits@U?$_Wrap_alloc@V?$allocator@U_Container_proxy@std@@@std@@@std@@@std@@SAXAAU?$_Wrap_alloc@V?$allocator@U_Container_proxy@std@@@std@@@1@PAU_Container_proxy@1@U?$integral_constant@_N$00@1@@Z 100d1a10 f i dll_globals.obj
 0002:00044a40       ??$construct@U_Container_proxy@std@@U12@@?$_Wrap_alloc@U?$_Wrap_alloc@V?$allocator@U_Container_proxy@std@@@std@@@std@@@std@@QAEXPAU_Container_proxy@1@$$QAU21@@Z 100d1a40 f i dll_globals.obj
 0002:00044ab0       ??$construct@U_Container_proxy@std@@U12@@?$allocator_traits@U?$_Wrap_alloc@V?$allocator@U_Container_proxy@std@@@std@@@std@@@std@@SAXAAU?$_Wrap_alloc@V?$allocator@U_Container_proxy@std@@@std@@@1@PAU_Container_proxy@1@$$QAU31@@Z 100d1ab0 f i dll_globals.obj
 0002:00044b20       ??$destroy@U_Container_proxy@std@@@?$_Wrap_alloc@U?$_Wrap_alloc@V?$allocator@U_Container_proxy@std@@@std@@@std@@@std@@QAEXPAU_Container_proxy@1@@Z 100d1b20 f i dll_globals.obj
 0002:00044b80       ??$destroy@U_Container_proxy@std@@@?$allocator_traits@U?$_Wrap_alloc@V?$allocator@U_Container_proxy@std@@@std@@@std@@@std@@SAXAAU?$_Wrap_alloc@V?$allocator@U_Container_proxy@std@@@std@@@1@PAU_Container_proxy@1@@Z 100d1b80 f i dll_globals.obj
 0002:00044be0       ??$forward@AAU?$_Wrap_alloc@U?$_Wrap_alloc@V?$allocator@V?$_List_unchecked_iterator@V?$_List_val@U?$_List_simple_types@U?$pair@$$CBV?$basic_string@DU?$char_traits@D@std@@V?$allocator@D@2@@std@@G@std@@@std@@@std@@@std@@@std@@@std@@@std@@@std@@YAAAU?$_Wrap_alloc@U?$_Wrap_alloc@V?$allocator@V?$_List_unchecked_iterator@V?$_List_val@U?$_List_simple_types@U?$pair@$$CBV?$basic_string@DU?$char_traits@D@std@@V?$allocator@D@2@@std@@G@std@@@std@@@std@@@std@@@std@@@std@@@0@AAU10@@Z 100d1be0 f i dll_globals.obj
 0002:00044c20       ??$forward@AAU?$_Wrap_alloc@U?$_Wrap_alloc@V?$allocator@V?$_List_unchecked_iterator@V?$_List_val@U?$_List_simple_types@U?$pair@$$CBV?$basic_string@DU?$char_traits@D@std@@V?$allocator@D@2@@std@@VDEVICE@@@std@@@std@@@std@@@std@@@std@@@std@@@std@@@std@@YAAAU?$_Wrap_alloc@U?$_Wrap_alloc@V?$allocator@V?$_List_unchecked_iterator@V?$_List_val@U?$_List_simple_types@U?$pair@$$CBV?$basic_string@DU?$char_traits@D@std@@V?$allocator@D@2@@std@@VDEVICE@@@std@@@std@@@std@@@std@@@std@@@std@@@0@AAU10@@Z 100d1c20 f i dll_globals.obj
 0002:00044c60       ??$forward@AAU?$_Wrap_alloc@V?$allocator@U?$_List_node@U?$pair@$$CBV?$basic_string@DU?$char_traits@D@std@@V?$allocator@D@2@@std@@G@std@@PAX@std@@@std@@@std@@@std@@YAAAU?$_Wrap_alloc@V?$allocator@U?$_List_node@U?$pair@$$CBV?$basic_string@DU?$char_traits@D@std@@V?$allocator@D@2@@std@@G@std@@PAX@std@@@std@@@0@AAU10@@Z 100d1c60 f i dll_globals.obj
 0002:00044ca0       ??$forward@AAU?$_Wrap_alloc@V?$allocator@U?$_List_node@U?$pair@$$CBV?$basic_string@DU?$char_traits@D@std@@V?$allocator@D@2@@std@@VDEVICE@@@std@@PAX@std@@@std@@@std@@@std@@YAAAU?$_Wrap_alloc@V?$allocator@U?$_List_node@U?$pair@$$CBV?$basic_string@DU?$char_traits@D@std@@V?$allocator@D@2@@std@@VDEVICE@@@std@@PAX@std@@@std@@@0@AAU10@@Z 100d1ca0 f i dll_globals.obj
 0002:00044ce0       ??$forward@AAU?$equal_to@V?$basic_string@DU?$char_traits@D@std@@V?$allocator@D@2@@std@@@std@@@std@@YAAAU?$equal_to@V?$basic_string@DU?$char_traits@D@std@@V?$allocator@D@2@@std@@@0@AAU10@@Z 100d1ce0 f i dll_globals.obj
 0002:00044d20       ??$forward@AAU?$hash@V?$basic_string@DU?$char_traits@D@std@@V?$allocator@D@2@@std@@@std@@@std@@YAAAU?$hash@V?$basic_string@DU?$char_traits@D@std@@V?$allocator@D@2@@std@@@0@AAU10@@Z 100d1d20 f i dll_globals.obj
 0002:00044d60       ??$forward@ABU?$_Wrap_alloc@V?$allocator@V?$_List_unchecked_iterator@V?$_List_val@U?$_List_simple_types@U?$pair@$$CBV?$basic_string@DU?$char_traits@D@std@@V?$allocator@D@2@@std@@G@std@@@std@@@std@@@std@@@std@@@std@@@std@@YAABU?$_Wrap_alloc@V?$allocator@V?$_List_unchecked_iterator@V?$_List_val@U?$_List_simple_types@U?$pair@$$CBV?$basic_string@DU?$char_traits@D@std@@V?$allocator@D@2@@std@@G@std@@@std@@@std@@@std@@@std@@@0@ABU10@@Z 100d1d60 f i dll_globals.obj
 0002:00044da0       ??$forward@ABU?$_Wrap_alloc@V?$allocator@V?$_List_unchecked_iterator@V?$_List_val@U?$_List_simple_types@U?$pair@$$CBV?$basic_string@DU?$char_traits@D@std@@V?$allocator@D@2@@std@@VDEVICE@@@std@@@std@@@std@@@std@@@std@@@std@@@std@@YAABU?$_Wrap_alloc@V?$allocator@V?$_List_unchecked_iterator@V?$_List_val@U?$_List_simple_types@U?$pair@$$CBV?$basic_string@DU?$char_traits@D@std@@V?$allocator@D@2@@std@@VDEVICE@@@std@@@std@@@std@@@std@@@std@@@0@ABU10@@Z 100d1da0 f i dll_globals.obj
 0002:00044de0       ??$forward@ABV?$allocator@U?$pair@$$CBV?$basic_string@DU?$char_traits@D@std@@V?$allocator@D@2@@std@@G@std@@@std@@@std@@YAABV?$allocator@U?$pair@$$CBV?$basic_string@DU?$char_traits@D@std@@V?$allocator@D@2@@std@@G@std@@@0@ABV10@@Z 100d1de0 f i dll_globals.obj
 0002:00044e20       ??$forward@ABV?$allocator@U?$pair@$$CBV?$basic_string@DU?$char_traits@D@std@@V?$allocator@D@2@@std@@VDEVICE@@@std@@@std@@@std@@YAABV?$allocator@U?$pair@$$CBV?$basic_string@DU?$char_traits@D@std@@V?$allocator@D@2@@std@@VDEVICE@@@std@@@0@ABV10@@Z 100d1e20 f i dll_globals.obj
 0002:00044e60       ??$forward@M@std@@YA$$QAMAAM@Z 100d1e60 f i dll_globals.obj
 0002:00044ea0       ??$forward@U_One_then_variadic_args_t@std@@@std@@YA$$QAU_One_then_variadic_args_t@0@AAU10@@Z 100d1ea0 f i dll_globals.obj
 0002:00044ee0       ??0?$_Hash@V?$_Umap_traits@V?$basic_string@DU?$char_traits@D@std@@V?$allocator@D@2@@std@@GV?$_Uhash_compare@V?$basic_string@DU?$char_traits@D@std@@V?$allocator@D@2@@std@@U?$hash@V?$basic_string@DU?$char_traits@D@std@@V?$allocator@D@2@@std@@@2@U?$equal_to@V?$basic_string@DU?$char_traits@D@std@@V?$allocator@D@2@@std@@@2@@2@V?$allocator@U?$pair@$$CBV?$basic_string@DU?$char_traits@D@std@@V?$allocator@D@2@@std@@G@std@@@2@$0A@@std@@@std@@QAE@ABV?$_Uhash_compare@V?$basic_string@DU?$char_traits@D@std@@V?$allocator@D@2@@std@@U?$hash@V?$basic_string@DU?$char_traits@D@std@@V?$allocator@D@2@@std@@@2@U?$equal_to@V?$basic_string@DU?$char_traits@D@std@@V?$allocator@D@2@@std@@@2@@1@ABV?$allocator@U?$pair@$$CBV?$basic_string@DU?$char_traits@D@std@@V?$allocator@D@2@@std@@G@std@@@1@@Z 100d1ee0 f i dll_globals.obj
 0002:00044ff0       ??0?$_Hash@V?$_Umap_traits@V?$basic_string@DU?$char_traits@D@std@@V?$allocator@D@2@@std@@VDEVICE@@V?$_Uhash_compare@V?$basic_string@DU?$char_traits@D@std@@V?$allocator@D@2@@std@@U?$hash@V?$basic_string@DU?$char_traits@D@std@@V?$allocator@D@2@@std@@@2@U?$equal_to@V?$basic_string@DU?$char_traits@D@std@@V?$allocator@D@2@@std@@@2@@2@V?$allocator@U?$pair@$$CBV?$basic_string@DU?$char_traits@D@std@@V?$allocator@D@2@@std@@VDEVICE@@@std@@@2@$0A@@std@@@std@@QAE@ABV?$_Uhash_compare@V?$basic_string@DU?$char_traits@D@std@@V?$allocator@D@2@@std@@U?$hash@V?$basic_string@DU?$char_traits@D@std@@V?$allocator@D@2@@std@@@2@U?$equal_to@V?$basic_string@DU?$char_traits@D@std@@V?$allocator@D@2@@std@@@2@@1@ABV?$allocator@U?$pair@$$CBV?$basic_string@DU?$char_traits@D@std@@V?$allocator@D@2@@std@@VDEVICE@@@std@@@1@@Z 100d1ff0 f i dll_globals.obj
 0002:00045100       ??0?$_List_const_iterator@V?$_List_val@U?$_List_simple_types@U?$pair@$$CBV?$basic_string@DU?$char_traits@D@std@@V?$allocator@D@2@@std@@G@std@@@std@@@std@@@std@@QAE@XZ 100d2100 f i dll_globals.obj
 0002:00045160       ??0?$_List_unchecked_const_iterator@V?$_List_val@U?$_List_simple_types@U?$pair@$$CBV?$basic_string@DU?$char_traits@D@std@@V?$allocator@D@2@@std@@G@std@@@std@@@std@@U_Iterator_base12@2@@std@@QAE@XZ 100d2160 f i dll_globals.obj
 0002:000451c0       ??0?$_List_val@U?$_List_simple_types@U?$pair@$$CBV?$basic_string@DU?$char_traits@D@std@@V?$allocator@D@2@@std@@G@std@@@std@@@std@@QAE@XZ 100d21c0 f i dll_globals.obj
 0002:00045230       ??0?$_List_val@U?$_List_simple_types@U?$pair@$$CBV?$basic_string@DU?$char_traits@D@std@@V?$allocator@D@2@@std@@VDEVICE@@@std@@@std@@@std@@QAE@XZ 100d2230 f i dll_globals.obj
 0002:000452a0       ??0?$_Uhash_compare@V?$basic_string@DU?$char_traits@D@std@@V?$allocator@D@2@@std@@U?$hash@V?$basic_string@DU?$char_traits@D@std@@V?$allocator@D@2@@std@@@2@U?$equal_to@V?$basic_string@DU?$char_traits@D@std@@V?$allocator@D@2@@std@@@2@@std@@QAE@U?$hash@V?$basic_string@DU?$char_traits@D@std@@V?$allocator@D@2@@std@@@1@U?$equal_to@V?$basic_string@DU?$char_traits@D@std@@V?$allocator@D@2@@std@@@1@@Z 100d22a0 f i dll_globals.obj
 0002:00045330       ??0?$_Umap_traits@V?$basic_string@DU?$char_traits@D@std@@V?$allocator@D@2@@std@@GV?$_Uhash_compare@V?$basic_string@DU?$char_traits@D@std@@V?$allocator@D@2@@std@@U?$hash@V?$basic_string@DU?$char_traits@D@std@@V?$allocator@D@2@@std@@@2@U?$equal_to@V?$basic_string@DU?$char_traits@D@std@@V?$allocator@D@2@@std@@@2@@2@V?$allocator@U?$pair@$$CBV?$basic_string@DU?$char_traits@D@std@@V?$allocator@D@2@@std@@G@std@@@2@$0A@@std@@QAE@ABV?$_Uhash_compare@V?$basic_string@DU?$char_traits@D@std@@V?$allocator@D@2@@std@@U?$hash@V?$basic_string@DU?$char_traits@D@std@@V?$allocator@D@2@@std@@@2@U?$equal_to@V?$basic_string@DU?$char_traits@D@std@@V?$allocator@D@2@@std@@@2@@1@@Z 100d2330 f i dll_globals.obj
 0002:00045380       ??0?$_Umap_traits@V?$basic_string@DU?$char_traits@D@std@@V?$allocator@D@2@@std@@VDEVICE@@V?$_Uhash_compare@V?$basic_string@DU?$char_traits@D@std@@V?$allocator@D@2@@std@@U?$hash@V?$basic_string@DU?$char_traits@D@std@@V?$allocator@D@2@@std@@@2@U?$equal_to@V?$basic_string@DU?$char_traits@D@std@@V?$allocator@D@2@@std@@@2@@2@V?$allocator@U?$pair@$$CBV?$basic_string@DU?$char_traits@D@std@@V?$allocator@D@2@@std@@VDEVICE@@@std@@@2@$0A@@std@@QAE@ABV?$_Uhash_compare@V?$basic_string@DU?$char_traits@D@std@@V?$allocator@D@2@@std@@U?$hash@V?$basic_string@DU?$char_traits@D@std@@V?$allocator@D@2@@std@@@2@U?$equal_to@V?$basic_string@DU?$char_traits@D@std@@V?$allocator@D@2@@std@@@2@@1@@Z 100d2380 f i dll_globals.obj
 0002:000453d0       ??0?$_Vector_val@U?$_Simple_types@V?$_List_unchecked_iterator@V?$_List_val@U?$_List_simple_types@U?$pair@$$CBV?$basic_string@DU?$char_traits@D@std@@V?$allocator@D@2@@std@@G@std@@@std@@@std@@@std@@@std@@@std@@QAE@XZ 100d23d0 f i dll_globals.obj
 0002:00045450       ??0?$_Vector_val@U?$_Simple_types@V?$_List_unchecked_iterator@V?$_List_val@U?$_List_simple_types@U?$pair@$$CBV?$basic_string@DU?$char_traits@D@std@@V?$allocator@D@2@@std@@VDEVICE@@@std@@@std@@@std@@@std@@@std@@@std@@QAE@XZ 100d2450 f i dll_globals.obj
 0002:000454d0       ??0?$_Wrap_alloc@V?$allocator@V?$_List_unchecked_iterator@V?$_List_val@U?$_List_simple_types@U?$pair@$$CBV?$basic_string@DU?$char_traits@D@std@@V?$allocator@D@2@@std@@G@std@@@std@@@std@@@std@@@std@@@std@@QAE@ABU01@@Z 100d24d0 f i dll_globals.obj
 0002:00045530       ??0?$_Wrap_alloc@V?$allocator@V?$_List_unchecked_iterator@V?$_List_val@U?$_List_simple_types@U?$pair@$$CBV?$basic_string@DU?$char_traits@D@std@@V?$allocator@D@2@@std@@VDEVICE@@@std@@@std@@@std@@@std@@@std@@@std@@QAE@ABU01@@Z 100d2530 f i dll_globals.obj
 0002:00045590       ??0?$allocator@U?$pair@$$CBV?$basic_string@DU?$char_traits@D@std@@V?$allocator@D@2@@std@@G@std@@@std@@QAE@XZ 100d2590 f i dll_globals.obj
 0002:000455d0       ??0?$allocator@U?$pair@$$CBV?$basic_string@DU?$char_traits@D@std@@V?$allocator@D@2@@std@@VDEVICE@@@std@@@std@@QAE@XZ 100d25d0 f i dll_globals.obj
 0002:00045610       ??0?$allocator@V?$_List_unchecked_iterator@V?$_List_val@U?$_List_simple_types@U?$pair@$$CBV?$basic_string@DU?$char_traits@D@std@@V?$allocator@D@2@@std@@G@std@@@std@@@std@@@std@@@std@@QAE@ABV01@@Z 100d2610 f i dll_globals.obj
 0002:00045650       ??0?$allocator@V?$_List_unchecked_iterator@V?$_List_val@U?$_List_simple_types@U?$pair@$$CBV?$basic_string@DU?$char_traits@D@std@@V?$allocator@D@2@@std@@VDEVICE@@@std@@@std@@@std@@@std@@@std@@QAE@ABV01@@Z 100d2650 f i dll_globals.obj
 0002:00045690       ??0?$list@U?$pair@$$CBV?$basic_string@DU?$char_traits@D@std@@V?$allocator@D@2@@std@@G@std@@V?$allocator@U?$pair@$$CBV?$basic_string@DU?$char_traits@D@std@@V?$allocator@D@2@@std@@G@std@@@2@@std@@QAE@ABV?$allocator@U?$pair@$$CBV?$basic_string@DU?$char_traits@D@std@@V?$allocator@D@2@@std@@G@std@@@1@@Z 100d2690 f i dll_globals.obj
 0002:000456f0       ??0?$list@U?$pair@$$CBV?$basic_string@DU?$char_traits@D@std@@V?$allocator@D@2@@std@@VDEVICE@@@std@@V?$allocator@U?$pair@$$CBV?$basic_string@DU?$char_traits@D@std@@V?$allocator@D@2@@std@@VDEVICE@@@std@@@2@@std@@QAE@ABV?$allocator@U?$pair@$$CBV?$basic_string@DU?$char_traits@D@std@@V?$allocator@D@2@@std@@VDEVICE@@@std@@@1@@Z 100d26f0 f i dll_globals.obj
 0002:00045750       ??0?$unordered_map@V?$basic_string@DU?$char_traits@D@std@@V?$allocator@D@2@@std@@GU?$hash@V?$basic_string@DU?$char_traits@D@std@@V?$allocator@D@2@@std@@@2@U?$equal_to@V?$basic_string@DU?$char_traits@D@std@@V?$allocator@D@2@@std@@@2@V?$allocator@U?$pair@$$CBV?$basic_string@DU?$char_traits@D@std@@V?$allocator@D@2@@std@@G@std@@@2@@std@@QAE@XZ 100d2750 f i dll_globals.obj
 0002:000457e0       ??0?$unordered_map@V?$basic_string@DU?$char_traits@D@std@@V?$allocator@D@2@@std@@VDEVICE@@U?$hash@V?$basic_string@DU?$char_traits@D@std@@V?$allocator@D@2@@std@@@2@U?$equal_to@V?$basic_string@DU?$char_traits@D@std@@V?$allocator@D@2@@std@@@2@V?$allocator@U?$pair@$$CBV?$basic_string@DU?$char_traits@D@std@@V?$allocator@D@2@@std@@VDEVICE@@@std@@@2@@std@@QAE@XZ 100d27e0 f i dll_globals.obj
 0002:00045870       ??0?$vector@V?$_List_unchecked_iterator@V?$_List_val@U?$_List_simple_types@U?$pair@$$CBV?$basic_string@DU?$char_traits@D@std@@V?$allocator@D@2@@std@@G@std@@@std@@@std@@@std@@U?$_Wrap_alloc@V?$allocator@V?$_List_unchecked_iterator@V?$_List_val@U?$_List_simple_types@U?$pair@$$CBV?$basic_string@DU?$char_traits@D@std@@V?$allocator@D@2@@std@@G@std@@@std@@@std@@@std@@@std@@@2@@std@@QAE@ABU?$_Wrap_alloc@V?$allocator@V?$_List_unchecked_iterator@V?$_List_val@U?$_List_simple_types@U?$pair@$$CBV?$basic_string@DU?$char_traits@D@std@@V?$allocator@D@2@@std@@G@std@@@std@@@std@@@std@@@std@@@1@@Z 100d2870 f i dll_globals.obj
 0002:00045900       ??0?$vector@V?$_List_unchecked_iterator@V?$_List_val@U?$_List_simple_types@U?$pair@$$CBV?$basic_string@DU?$char_traits@D@std@@V?$allocator@D@2@@std@@VDEVICE@@@std@@@std@@@std@@@std@@U?$_Wrap_alloc@V?$allocator@V?$_List_unchecked_iterator@V?$_List_val@U?$_List_simple_types@U?$pair@$$CBV?$basic_string@DU?$char_traits@D@std@@V?$allocator@D@2@@std@@VDEVICE@@@std@@@std@@@std@@@std@@@std@@@2@@std@@QAE@ABU?$_Wrap_alloc@V?$allocator@V?$_List_unchecked_iterator@V?$_List_val@U?$_List_simple_types@U?$pair@$$CBV?$basic_string@DU?$char_traits@D@std@@V?$allocator@D@2@@std@@VDEVICE@@@std@@@std@@@std@@@std@@@std@@@1@@Z 100d2900 f i dll_globals.obj
 0002:00045990       ??1?$_Compressed_pair@U?$_Wrap_alloc@U?$_Wrap_alloc@V?$allocator@V?$_List_unchecked_iterator@V?$_List_val@U?$_List_simple_types@U?$pair@$$CBV?$basic_string@DU?$char_traits@D@std@@V?$allocator@D@2@@std@@G@std@@@std@@@std@@@std@@@std@@@std@@@std@@V?$_Vector_val@U?$_Simple_types@V?$_List_unchecked_iterator@V?$_List_val@U?$_List_simple_types@U?$pair@$$CBV?$basic_string@DU?$char_traits@D@std@@V?$allocator@D@2@@std@@G@std@@@std@@@std@@@std@@@std@@@2@$00@std@@QAE@XZ 100d2990 f i dll_globals.obj
 0002:000459e0       ??1?$_Compressed_pair@U?$_Wrap_alloc@U?$_Wrap_alloc@V?$allocator@V?$_List_unchecked_iterator@V?$_List_val@U?$_List_simple_types@U?$pair@$$CBV?$basic_string@DU?$char_traits@D@std@@V?$allocator@D@2@@std@@VDEVICE@@@std@@@std@@@std@@@std@@@std@@@std@@@std@@V?$_Vector_val@U?$_Simple_types@V?$_List_unchecked_iterator@V?$_List_val@U?$_List_simple_types@U?$pair@$$CBV?$basic_string@DU?$char_traits@D@std@@V?$allocator@D@2@@std@@VDEVICE@@@std@@@std@@@std@@@std@@@std@@@2@$00@std@@QAE@XZ 100d29e0 f i dll_globals.obj
 0002:00045a30       ??1?$_Compressed_pair@U?$_Wrap_alloc@V?$allocator@U?$_List_node@U?$pair@$$CBV?$basic_string@DU?$char_traits@D@std@@V?$allocator@D@2@@std@@G@std@@PAX@std@@@std@@@std@@V?$_List_val@U?$_List_simple_types@U?$pair@$$CBV?$basic_string@DU?$char_traits@D@std@@V?$allocator@D@2@@std@@G@std@@@std@@@2@$00@std@@QAE@XZ 100d2a30 f i dll_globals.obj
 0002:00045a80       ??1?$_Compressed_pair@U?$_Wrap_alloc@V?$allocator@U?$_List_node@U?$pair@$$CBV?$basic_string@DU?$char_traits@D@std@@V?$allocator@D@2@@std@@VDEVICE@@@std@@PAX@std@@@std@@@std@@V?$_List_val@U?$_List_simple_types@U?$pair@$$CBV?$basic_string@DU?$char_traits@D@std@@V?$allocator@D@2@@std@@VDEVICE@@@std@@@std@@@2@$00@std@@QAE@XZ 100d2a80 f i dll_globals.obj
 0002:00045ad0       ??1?$_Hash@V?$_Umap_traits@V?$basic_string@DU?$char_traits@D@std@@V?$allocator@D@2@@std@@GV?$_Uhash_compare@V?$basic_string@DU?$char_traits@D@std@@V?$allocator@D@2@@std@@U?$hash@V?$basic_string@DU?$char_traits@D@std@@V?$allocator@D@2@@std@@@2@U?$equal_to@V?$basic_string@DU?$char_traits@D@std@@V?$allocator@D@2@@std@@@2@@2@V?$allocator@U?$pair@$$CBV?$basic_string@DU?$char_traits@D@std@@V?$allocator@D@2@@std@@G@std@@@2@$0A@@std@@@std@@QAE@XZ 100d2ad0 f i dll_globals.obj
 0002:00045b30       ??1?$_Hash@V?$_Umap_traits@V?$basic_string@DU?$char_traits@D@std@@V?$allocator@D@2@@std@@VDEVICE@@V?$_Uhash_compare@V?$basic_string@DU?$char_traits@D@std@@V?$allocator@D@2@@std@@U?$hash@V?$basic_string@DU?$char_traits@D@std@@V?$allocator@D@2@@std@@@2@U?$equal_to@V?$basic_string@DU?$char_traits@D@std@@V?$allocator@D@2@@std@@@2@@2@V?$allocator@U?$pair@$$CBV?$basic_string@DU?$char_traits@D@std@@V?$allocator@D@2@@std@@VDEVICE@@@std@@@2@$0A@@std@@@std@@QAE@XZ 100d2b30 f i dll_globals.obj
 0002:00045b90       ??1?$_List_alloc@U?$_List_base_types@U?$pair@$$CBV?$basic_string@DU?$char_traits@D@std@@V?$allocator@D@2@@std@@G@std@@V?$allocator@U?$pair@$$CBV?$basic_string@DU?$char_traits@D@std@@V?$allocator@D@2@@std@@G@std@@@2@@std@@@std@@QAE@XZ 100d2b90 f i dll_globals.obj
 0002:00045c40       ??1?$_List_alloc@U?$_List_base_types@U?$pair@$$CBV?$basic_string@DU?$char_traits@D@std@@V?$allocator@D@2@@std@@VDEVICE@@@std@@V?$allocator@U?$pair@$$CBV?$basic_string@DU?$char_traits@D@std@@V?$allocator@D@2@@std@@VDEVICE@@@std@@@2@@std@@@std@@QAE@XZ 100d2c40 f i dll_globals.obj
 0002:00045cf0       ??1?$_List_buy@U?$pair@$$CBV?$basic_string@DU?$char_traits@D@std@@V?$allocator@D@2@@std@@G@std@@V?$allocator@U?$pair@$$CBV?$basic_string@DU?$char_traits@D@std@@V?$allocator@D@2@@std@@G@std@@@2@@std@@QAE@XZ 100d2cf0 f i dll_globals.obj
 0002:00045d40       ??1?$_List_buy@U?$pair@$$CBV?$basic_string@DU?$char_traits@D@std@@V?$allocator@D@2@@std@@VDEVICE@@@std@@V?$allocator@U?$pair@$$CBV?$basic_string@DU?$char_traits@D@std@@V?$allocator@D@2@@std@@VDEVICE@@@std@@@2@@std@@QAE@XZ 100d2d40 f i dll_globals.obj
 0002:00045d90       ??1?$_List_val@U?$_List_simple_types@U?$pair@$$CBV?$basic_string@DU?$char_traits@D@std@@V?$allocator@D@2@@std@@G@std@@@std@@@std@@QAE@XZ 100d2d90 f i dll_globals.obj
 0002:00045de0       ??1?$_List_val@U?$_List_simple_types@U?$pair@$$CBV?$basic_string@DU?$char_traits@D@std@@V?$allocator@D@2@@std@@VDEVICE@@@std@@@std@@@std@@QAE@XZ 100d2de0 f i dll_globals.obj
 0002:00045e30       ??1?$_Vector_alloc@U?$_Vec_base_types@V?$_List_unchecked_iterator@V?$_List_val@U?$_List_simple_types@U?$pair@$$CBV?$basic_string@DU?$char_traits@D@std@@V?$allocator@D@2@@std@@G@std@@@std@@@std@@@std@@U?$_Wrap_alloc@V?$allocator@V?$_List_unchecked_iterator@V?$_List_val@U?$_List_simple_types@U?$pair@$$CBV?$basic_string@DU?$char_traits@D@std@@V?$allocator@D@2@@std@@G@std@@@std@@@std@@@std@@@std@@@2@@std@@@std@@QAE@XZ 100d2e30 f i dll_globals.obj
 0002:00045ec0       ??1?$_Vector_alloc@U?$_Vec_base_types@V?$_List_unchecked_iterator@V?$_List_val@U?$_List_simple_types@U?$pair@$$CBV?$basic_string@DU?$char_traits@D@std@@V?$allocator@D@2@@std@@VDEVICE@@@std@@@std@@@std@@@std@@U?$_Wrap_alloc@V?$allocator@V?$_List_unchecked_iterator@V?$_List_val@U?$_List_simple_types@U?$pair@$$CBV?$basic_string@DU?$char_traits@D@std@@V?$allocator@D@2@@std@@VDEVICE@@@std@@@std@@@std@@@std@@@std@@@2@@std@@@std@@QAE@XZ 100d2ec0 f i dll_globals.obj
 0002:00045f50       ??1?$_Vector_val@U?$_Simple_types@V?$_List_unchecked_iterator@V?$_List_val@U?$_List_simple_types@U?$pair@$$CBV?$basic_string@DU?$char_traits@D@std@@V?$allocator@D@2@@std@@G@std@@@std@@@std@@@std@@@std@@@std@@QAE@XZ 100d2f50 f i dll_globals.obj
 0002:00045fa0       ??1?$_Vector_val@U?$_Simple_types@V?$_List_unchecked_iterator@V?$_List_val@U?$_List_simple_types@U?$pair@$$CBV?$basic_string@DU?$char_traits@D@std@@V?$allocator@D@2@@std@@VDEVICE@@@std@@@std@@@std@@@std@@@std@@@std@@QAE@XZ 100d2fa0 f i dll_globals.obj
 0002:00045ff0       ??1?$list@U?$pair@$$CBV?$basic_string@DU?$char_traits@D@std@@V?$allocator@D@2@@std@@G@std@@V?$allocator@U?$pair@$$CBV?$basic_string@DU?$char_traits@D@std@@V?$allocator@D@2@@std@@G@std@@@2@@std@@QAE@XZ 100d2ff0 f i dll_globals.obj
 0002:00046080       ??1?$list@U?$pair@$$CBV?$basic_string@DU?$char_traits@D@std@@V?$allocator@D@2@@std@@VDEVICE@@@std@@V?$allocator@U?$pair@$$CBV?$basic_string@DU?$char_traits@D@std@@V?$allocator@D@2@@std@@VDEVICE@@@std@@@2@@std@@QAE@XZ 100d3080 f i dll_globals.obj
 0002:00046110       ??1?$unordered_map@V?$basic_string@DU?$char_traits@D@std@@V?$allocator@D@2@@std@@GU?$hash@V?$basic_string@DU?$char_traits@D@std@@V?$allocator@D@2@@std@@@2@U?$equal_to@V?$basic_string@DU?$char_traits@D@std@@V?$allocator@D@2@@std@@@2@V?$allocator@U?$pair@$$CBV?$basic_string@DU?$char_traits@D@std@@V?$allocator@D@2@@std@@G@std@@@2@@std@@QAE@XZ 100d3110 f i dll_globals.obj
 0002:00046160       ??1?$unordered_map@V?$basic_string@DU?$char_traits@D@std@@V?$allocator@D@2@@std@@VDEVICE@@U?$hash@V?$basic_string@DU?$char_traits@D@std@@V?$allocator@D@2@@std@@@2@U?$equal_to@V?$basic_string@DU?$char_traits@D@std@@V?$allocator@D@2@@std@@@2@V?$allocator@U?$pair@$$CBV?$basic_string@DU?$char_traits@D@std@@V?$allocator@D@2@@std@@VDEVICE@@@std@@@2@@std@@QAE@XZ 100d3160 f i dll_globals.obj
 0002:000461b0       ??1?$vector@V?$_List_unchecked_iterator@V?$_List_val@U?$_List_simple_types@U?$pair@$$CBV?$basic_string@DU?$char_traits@D@std@@V?$allocator@D@2@@std@@G@std@@@std@@@std@@@std@@U?$_Wrap_alloc@V?$allocator@V?$_List_unchecked_iterator@V?$_List_val@U?$_List_simple_types@U?$pair@$$CBV?$basic_string@DU?$char_traits@D@std@@V?$allocator@D@2@@std@@G@std@@@std@@@std@@@std@@@std@@@2@@std@@QAE@XZ 100d31b0 f i dll_globals.obj
 0002:00046240       ??1?$vector@V?$_List_unchecked_iterator@V?$_List_val@U?$_List_simple_types@U?$pair@$$CBV?$basic_string@DU?$char_traits@D@std@@V?$allocator@D@2@@std@@VDEVICE@@@std@@@std@@@std@@@std@@U?$_Wrap_alloc@V?$allocator@V?$_List_unchecked_iterator@V?$_List_val@U?$_List_simple_types@U?$pair@$$CBV?$basic_string@DU?$char_traits@D@std@@V?$allocator@D@2@@std@@VDEVICE@@@std@@@std@@@std@@@std@@@std@@@2@@std@@QAE@XZ 100d3240 f i dll_globals.obj
 0002:000462d0       ?_Alloc_proxy@?$_List_alloc@U?$_List_base_types@U?$pair@$$CBV?$basic_string@DU?$char_traits@D@std@@V?$allocator@D@2@@std@@G@std@@V?$allocator@U?$pair@$$CBV?$basic_string@DU?$char_traits@D@std@@V?$allocator@D@2@@std@@G@std@@@2@@std@@@std@@QAEXXZ 100d32d0 f i dll_globals.obj
 0002:000463d0       ?_Alloc_proxy@?$_List_alloc@U?$_List_base_types@U?$pair@$$CBV?$basic_string@DU?$char_traits@D@std@@V?$allocator@D@2@@std@@VDEVICE@@@std@@V?$allocator@U?$pair@$$CBV?$basic_string@DU?$char_traits@D@std@@V?$allocator@D@2@@std@@VDEVICE@@@std@@@2@@std@@@std@@QAEXXZ 100d33d0 f i dll_globals.obj
 0002:000464d0       ?_Alloc_proxy@?$_Vector_alloc@U?$_Vec_base_types@V?$_List_unchecked_iterator@V?$_List_val@U?$_List_simple_types@U?$pair@$$CBV?$basic_string@DU?$char_traits@D@std@@V?$allocator@D@2@@std@@G@std@@@std@@@std@@@std@@U?$_Wrap_alloc@V?$allocator@V?$_List_unchecked_iterator@V?$_List_val@U?$_List_simple_types@U?$pair@$$CBV?$basic_string@DU?$char_traits@D@std@@V?$allocator@D@2@@std@@G@std@@@std@@@std@@@std@@@std@@@2@@std@@@std@@QAEXXZ 100d34d0 f i dll_globals.obj
 0002:000465d0       ?_Alloc_proxy@?$_Vector_alloc@U?$_Vec_base_types@V?$_List_unchecked_iterator@V?$_List_val@U?$_List_simple_types@U?$pair@$$CBV?$basic_string@DU?$char_traits@D@std@@V?$allocator@D@2@@std@@VDEVICE@@@std@@@std@@@std@@@std@@U?$_Wrap_alloc@V?$allocator@V?$_List_unchecked_iterator@V?$_List_val@U?$_List_simple_types@U?$pair@$$CBV?$basic_string@DU?$char_traits@D@std@@V?$allocator@D@2@@std@@VDEVICE@@@std@@@std@@@std@@@std@@@std@@@2@@std@@@std@@QAEXXZ 100d35d0 f i dll_globals.obj
 0002:000466d0       ?_Buyheadnode@?$_List_alloc@U?$_List_base_types@U?$pair@$$CBV?$basic_string@DU?$char_traits@D@std@@V?$allocator@D@2@@std@@G@std@@V?$allocator@U?$pair@$$CBV?$basic_string@DU?$char_traits@D@std@@V?$allocator@D@2@@std@@G@std@@@2@@std@@@std@@QAEPAU?$_List_node@U?$pair@$$CBV?$basic_string@DU?$char_traits@D@std@@V?$allocator@D@2@@std@@G@std@@PAX@2@XZ 100d36d0 f i dll_globals.obj
 0002:00046730       ?_Buyheadnode@?$_List_alloc@U?$_List_base_types@U?$pair@$$CBV?$basic_string@DU?$char_traits@D@std@@V?$allocator@D@2@@std@@VDEVICE@@@std@@V?$allocator@U?$pair@$$CBV?$basic_string@DU?$char_traits@D@std@@V?$allocator@D@2@@std@@VDEVICE@@@std@@@2@@std@@@std@@QAEPAU?$_List_node@U?$pair@$$CBV?$basic_string@DU?$char_traits@D@std@@V?$allocator@D@2@@std@@VDEVICE@@@std@@PAX@2@XZ 100d3730 f i dll_globals.obj
 0002:000468b0       ?_Free_proxy@?$_List_alloc@U?$_List_base_types@U?$pair@$$CBV?$basic_string@DU?$char_traits@D@std@@V?$allocator@D@2@@std@@G@std@@V?$allocator@U?$pair@$$CBV?$basic_string@DU?$char_traits@D@std@@V?$allocator@D@2@@std@@G@std@@@2@@std@@@std@@QAEXXZ 100d38b0 f i dll_globals.obj
 0002:000469a0       ?_Free_proxy@?$_List_alloc@U?$_List_base_types@U?$pair@$$CBV?$basic_string@DU?$char_traits@D@std@@V?$allocator@D@2@@std@@VDEVICE@@@std@@V?$allocator@U?$pair@$$CBV?$basic_string@DU?$char_traits@D@std@@V?$allocator@D@2@@std@@VDEVICE@@@std@@@2@@std@@@std@@QAEXXZ 100d39a0 f i dll_globals.obj
 0002:00046a90       ?_Free_proxy@?$_Vector_alloc@U?$_Vec_base_types@V?$_List_unchecked_iterator@V?$_List_val@U?$_List_simple_types@U?$pair@$$CBV?$basic_string@DU?$char_traits@D@std@@V?$allocator@D@2@@std@@G@std@@@std@@@std@@@std@@U?$_Wrap_alloc@V?$allocator@V?$_List_unchecked_iterator@V?$_List_val@U?$_List_simple_types@U?$pair@$$CBV?$basic_string@DU?$char_traits@D@std@@V?$allocator@D@2@@std@@G@std@@@std@@@std@@@std@@@std@@@2@@std@@@std@@QAEXXZ 100d3a90 f i dll_globals.obj
 0002:00046b80       ?_Free_proxy@?$_Vector_alloc@U?$_Vec_base_types@V?$_List_unchecked_iterator@V?$_List_val@U?$_List_simple_types@U?$pair@$$CBV?$basic_string@DU?$char_traits@D@std@@V?$allocator@D@2@@std@@VDEVICE@@@std@@@std@@@std@@@std@@U?$_Wrap_alloc@V?$allocator@V?$_List_unchecked_iterator@V?$_List_val@U?$_List_simple_types@U?$pair@$$CBV?$basic_string@DU?$char_traits@D@std@@V?$allocator@D@2@@std@@VDEVICE@@@std@@@std@@@std@@@std@@@std@@@2@@std@@@std@@QAEXXZ 100d3b80 f i dll_globals.obj
 0002:00046c70       ?_Freeheadnode@?$_List_alloc@U?$_List_base_types@U?$pair@$$CBV?$basic_string@DU?$char_traits@D@std@@V?$allocator@D@2@@std@@G@std@@V?$allocator@U?$pair@$$CBV?$basic_string@DU?$char_traits@D@std@@V?$allocator@D@2@@std@@G@std@@@2@@std@@@std@@QAEXPAU?$_List_node@U?$pair@$$CBV?$basic_string@DU?$char_traits@D@std@@V?$allocator@D@2@@std@@G@std@@PAX@2@@Z 100d3c70 f i dll_globals.obj
 0002:00046d30       ?_Freeheadnode@?$_List_alloc@U?$_List_base_types@U?$pair@$$CBV?$basic_string@DU?$char_traits@D@std@@V?$allocator@D@2@@std@@VDEVICE@@@std@@V?$allocator@U?$pair@$$CBV?$basic_string@DU?$char_traits@D@std@@V?$allocator@D@2@@std@@VDEVICE@@@std@@@2@@std@@@std@@QAEXPAU?$_List_node@U?$pair@$$CBV?$basic_string@DU?$char_traits@D@std@@V?$allocator@D@2@@std@@VDEVICE@@@std@@PAX@2@@Z 100d3d30 f i dll_globals.obj
 0002:00046df0       ?_Get_max_bucket_size@?$_Uhash_compare@V?$basic_string@DU?$char_traits@D@std@@V?$allocator@D@2@@std@@U?$hash@V?$basic_string@DU?$char_traits@D@std@@V?$allocator@D@2@@std@@@2@U?$equal_to@V?$basic_string@DU?$char_traits@D@std@@V?$allocator@D@2@@std@@@2@@std@@QAEAAMXZ 100d3df0 f i dll_globals.obj
 0002:00046e50       ?_Get_second@?$_Compressed_pair@U?$equal_to@V?$basic_string@DU?$char_traits@D@std@@V?$allocator@D@2@@std@@@std@@M$00@std@@QAEAAMXZ 100d3e50 f i dll_globals.obj
 0002:00046e90       ?_Get_second@?$_Compressed_pair@U?$hash@V?$basic_string@DU?$char_traits@D@std@@V?$allocator@D@2@@std@@@std@@V?$_Compressed_pair@U?$equal_to@V?$basic_string@DU?$char_traits@D@std@@V?$allocator@D@2@@std@@@std@@M$00@2@$00@std@@QAEAAV?$_Compressed_pair@U?$equal_to@V?$basic_string@DU?$char_traits@D@std@@V?$allocator@D@2@@std@@@std@@M$00@2@XZ 100d3e90 f i dll_globals.obj
 0002:00046ed0       ?_Max_bucket_size@?$_Hash@V?$_Umap_traits@V?$basic_string@DU?$char_traits@D@std@@V?$allocator@D@2@@std@@GV?$_Uhash_compare@V?$basic_string@DU?$char_traits@D@std@@V?$allocator@D@2@@std@@U?$hash@V?$basic_string@DU?$char_traits@D@std@@V?$allocator@D@2@@std@@@2@U?$equal_to@V?$basic_string@DU?$char_traits@D@std@@V?$allocator@D@2@@std@@@2@@2@V?$allocator@U?$pair@$$CBV?$basic_string@DU?$char_traits@D@std@@V?$allocator@D@2@@std@@G@std@@@2@$0A@@std@@@std@@IAEAAMXZ 100d3ed0 f i dll_globals.obj
 0002:00046f20       ?_Max_bucket_size@?$_Hash@V?$_Umap_traits@V?$basic_string@DU?$char_traits@D@std@@V?$allocator@D@2@@std@@VDEVICE@@V?$_Uhash_compare@V?$basic_string@DU?$char_traits@D@std@@V?$allocator@D@2@@std@@U?$hash@V?$basic_string@DU?$char_traits@D@std@@V?$allocator@D@2@@std@@@2@U?$equal_to@V?$basic_string@DU?$char_traits@D@std@@V?$allocator@D@2@@std@@@2@@2@V?$allocator@U?$pair@$$CBV?$basic_string@DU?$char_traits@D@std@@V?$allocator@D@2@@std@@VDEVICE@@@std@@@2@$0A@@std@@@std@@IAEAAMXZ 100d3f20 f i dll_globals.obj
 0002:00046f70       ?_Myproxy@?$_List_alloc@U?$_List_base_types@U?$pair@$$CBV?$basic_string@DU?$char_traits@D@std@@V?$allocator@D@2@@std@@G@std@@V?$allocator@U?$pair@$$CBV?$basic_string@DU?$char_traits@D@std@@V?$allocator@D@2@@std@@G@std@@@2@@std@@@std@@QAEAAPAU_Container_proxy@2@XZ 100d3f70 f i dll_globals.obj
 0002:00046fc0       ?_Myproxy@?$_List_alloc@U?$_List_base_types@U?$pair@$$CBV?$basic_string@DU?$char_traits@D@std@@V?$allocator@D@2@@std@@VDEVICE@@@std@@V?$allocator@U?$pair@$$CBV?$basic_string@DU?$char_traits@D@std@@V?$allocator@D@2@@std@@VDEVICE@@@std@@@2@@std@@@std@@QAEAAPAU_Container_proxy@2@XZ 100d3fc0 f i dll_globals.obj
 0002:00047010       ?_Myproxy@?$_Vector_alloc@U?$_Vec_base_types@V?$_List_unchecked_iterator@V?$_List_val@U?$_List_simple_types@U?$pair@$$CBV?$basic_string@DU?$char_traits@D@std@@V?$allocator@D@2@@std@@G@std@@@std@@@std@@@std@@U?$_Wrap_alloc@V?$allocator@V?$_List_unchecked_iterator@V?$_List_val@U?$_List_simple_types@U?$pair@$$CBV?$basic_string@DU?$char_traits@D@std@@V?$allocator@D@2@@std@@G@std@@@std@@@std@@@std@@@std@@@2@@std@@@std@@QAEAAPAU_Container_proxy@2@XZ 100d4010 f i dll_globals.obj
 0002:00047060       ?_Myproxy@?$_Vector_alloc@U?$_Vec_base_types@V?$_List_unchecked_iterator@V?$_List_val@U?$_List_simple_types@U?$pair@$$CBV?$basic_string@DU?$char_traits@D@std@@V?$allocator@D@2@@std@@VDEVICE@@@std@@@std@@@std@@@std@@U?$_Wrap_alloc@V?$allocator@V?$_List_unchecked_iterator@V?$_List_val@U?$_List_simple_types@U?$pair@$$CBV?$basic_string@DU?$char_traits@D@std@@V?$allocator@D@2@@std@@VDEVICE@@@std@@@std@@@std@@@std@@@std@@@2@@std@@@std@@QAEAAPAU_Container_proxy@2@XZ 100d4060 f i dll_globals.obj
 0002:000470b0       ?_Orphan_all@?$_List_alloc@U?$_List_base_types@U?$pair@$$CBV?$basic_string@DU?$char_traits@D@std@@V?$allocator@D@2@@std@@G@std@@V?$allocator@U?$pair@$$CBV?$basic_string@DU?$char_traits@D@std@@V?$allocator@D@2@@std@@G@std@@@2@@std@@@std@@QAEXXZ 100d40b0 f i dll_globals.obj
 0002:00047110       ?_Orphan_all@?$_List_alloc@U?$_List_base_types@U?$pair@$$CBV?$basic_string@DU?$char_traits@D@std@@V?$allocator@D@2@@std@@VDEVICE@@@std@@V?$allocator@U?$pair@$$CBV?$basic_string@DU?$char_traits@D@std@@V?$allocator@D@2@@std@@VDEVICE@@@std@@@2@@std@@@std@@QAEXXZ 100d4110 f i dll_globals.obj
 0002:00047170       ?_Tidy@?$list@U?$pair@$$CBV?$basic_string@DU?$char_traits@D@std@@V?$allocator@D@2@@std@@G@std@@V?$allocator@U?$pair@$$CBV?$basic_string@DU?$char_traits@D@std@@V?$allocator@D@2@@std@@G@std@@@2@@std@@QAEXXZ 100d4170 f i dll_globals.obj
 0002:000471c0       ?_Tidy@?$list@U?$pair@$$CBV?$basic_string@DU?$char_traits@D@std@@V?$allocator@D@2@@std@@VDEVICE@@@std@@V?$allocator@U?$pair@$$CBV?$basic_string@DU?$char_traits@D@std@@V?$allocator@D@2@@std@@VDEVICE@@@std@@@2@@std@@QAEXXZ 100d41c0 f i dll_globals.obj
 0002:00047210       ?_Tidy@?$vector@V?$_List_unchecked_iterator@V?$_List_val@U?$_List_simple_types@U?$pair@$$CBV?$basic_string@DU?$char_traits@D@std@@V?$allocator@D@2@@std@@G@std@@@std@@@std@@@std@@U?$_Wrap_alloc@V?$allocator@V?$_List_unchecked_iterator@V?$_List_val@U?$_List_simple_types@U?$pair@$$CBV?$basic_string@DU?$char_traits@D@std@@V?$allocator@D@2@@std@@G@std@@@std@@@std@@@std@@@std@@@2@@std@@IAEXXZ 100d4210 f i dll_globals.obj
 0002:00047310       ?_Tidy@?$vector@V?$_List_unchecked_iterator@V?$_List_val@U?$_List_simple_types@U?$pair@$$CBV?$basic_string@DU?$char_traits@D@std@@V?$allocator@D@2@@std@@VDEVICE@@@std@@@std@@@std@@@std@@U?$_Wrap_alloc@V?$allocator@V?$_List_unchecked_iterator@V?$_List_val@U?$_List_simple_types@U?$pair@$$CBV?$basic_string@DU?$char_traits@D@std@@V?$allocator@D@2@@std@@VDEVICE@@@std@@@std@@@std@@@std@@@std@@@2@@std@@IAEXXZ 100d4310 f i dll_globals.obj
 0002:00047410       ?address@?$_Wrap_alloc@U?$_Wrap_alloc@V?$allocator@U_Container_proxy@std@@@std@@@std@@@std@@QBEPAU_Container_proxy@2@AAU32@@Z 100d4410 f i dll_globals.obj
 0002:00047470       ?allocate@?$_Wrap_alloc@U?$_Wrap_alloc@V?$allocator@U_Container_proxy@std@@@std@@@std@@@std@@QAEPAU_Container_proxy@2@I@Z 100d4470 f i dll_globals.obj
 0002:000474d0       ?clear@?$list@U?$pair@$$CBV?$basic_string@DU?$char_traits@D@std@@V?$allocator@D@2@@std@@VDEVICE@@@std@@V?$allocator@U?$pair@$$CBV?$basic_string@DU?$char_traits@D@std@@V?$allocator@D@2@@std@@VDEVICE@@@std@@@2@@std@@QAEXXZ 100d44d0 f i dll_globals.obj
 0002:00047620       ?deallocate@?$_Wrap_alloc@U?$_Wrap_alloc@V?$allocator@U_Container_proxy@std@@@std@@@std@@@std@@QAEXPAU_Container_proxy@2@I@Z 100d4620 f i dll_globals.obj
 0002:00047680       ??$?0AAU?$_Wrap_alloc@V?$allocator@N@std@@@std@@@?$_Wrap_alloc@V?$allocator@PAN@std@@@std@@QAE@AAU?$_Wrap_alloc@V?$allocator@N@std@@@1@@Z 100d4680 f i ev.obj
 0002:000476f0       ??$?0AAU?$_Wrap_alloc@V?$allocator@N@std@@@std@@@?$_Wrap_alloc@V?$allocator@U_Container_proxy@std@@@std@@@std@@QAE@AAU?$_Wrap_alloc@V?$allocator@N@std@@@1@@Z 100d46f0 f i ev.obj
 0002:00047760       ??$?0N@?$allocator@PAN@std@@QAE@ABV?$allocator@N@1@@Z 100d4760 f i ev.obj
 0002:000477a0       ??$?0N@?$allocator@U_Container_proxy@std@@@std@@QAE@ABV?$allocator@N@1@@Z 100d47a0 f i ev.obj
 0002:000477e0       ??$?0U?$_Wrap_alloc@V?$allocator@N@std@@@std@@$$V@?$_Compressed_pair@U?$_Wrap_alloc@V?$allocator@N@std@@@std@@V?$_Deque_val@U?$_Deque_simple_types@N@std@@@2@$00@std@@QAE@U_One_then_variadic_args_t@1@$$QAU?$_Wrap_alloc@V?$allocator@N@std@@@1@@Z 100d47e0 f i ev.obj
 0002:00047850       ??$?0U?$_Wrap_alloc@V?$allocator@N@std@@@std@@X@?$_Deque_alloc@U?$_Deque_base_types@NV?$allocator@N@std@@@std@@@std@@QAE@$$QAU?$_Wrap_alloc@V?$allocator@N@std@@@1@@Z 100d4850 f i ev.obj
 0002:00047910       ??$?0V?$allocator@N@std@@@?$_Wrap_alloc@V?$allocator@N@std@@@std@@QAE@$$QAV?$allocator@N@1@@Z 100d4910 f i ev.obj
 0002:00047980       ??$?8NN@std@@YA_NABV?$allocator@N@0@0@Z 100d4980 f i ev.obj
 0002:000479b0       ??$?8V?$allocator@N@std@@V01@@std@@YA_NABU?$_Wrap_alloc@V?$allocator@N@std@@@0@0@Z 100d49b0 f i ev.obj
 0002:00047a10       ??$?9V?$allocator@N@std@@V01@@std@@YA_NABU?$_Wrap_alloc@V?$allocator@N@std@@@0@0@Z 100d4a10 f i ev.obj
 0002:00047a90       ??$_Construct@V?$_Deque_const_iterator@V?$_Deque_val@U?$_Deque_simple_types@N@std@@@std@@@std@@@?$deque@NV?$allocator@N@std@@@std@@QAEXV?$_Deque_const_iterator@V?$_Deque_val@U?$_Deque_simple_types@N@std@@@std@@@1@0@Z 100d4a90 f i ev.obj
 0002:00047bd0       ??$_Copy_memmove@PAPANPAPAN@std@@YAPAPANPAPAN00@Z 100d4bd0 f i ev.obj
 0002:00047c60       ??$_Copy_no_deprecate1@V?$_Deque_unchecked_const_iterator@V?$_Deque_val@U?$_Deque_simple_types@N@std@@@std@@@std@@V?$_Deque_iterator@V?$_Deque_val@U?$_Deque_simple_types@N@std@@@std@@@2@@std@@YA?AV?$_Deque_iterator@V?$_Deque_val@U?$_Deque_simple_types@N@std@@@std@@@0@V?$_Deque_unchecked_const_iterator@V?$_Deque_val@U?$_Deque_simple_types@N@std@@@std@@@0@0V10@Urandom_access_iterator_tag@0@2@Z 100d4c60 f i ev.obj
 0002:00047de0       ??$_Copy_no_deprecate@V?$_Deque_const_iterator@V?$_Deque_val@U?$_Deque_simple_types@N@std@@@std@@@std@@V?$_Deque_iterator@V?$_Deque_val@U?$_Deque_simple_types@N@std@@@std@@@2@@std@@YA?AV?$_Deque_iterator@V?$_Deque_val@U?$_Deque_simple_types@N@std@@@std@@@0@V?$_Deque_const_iterator@V?$_Deque_val@U?$_Deque_simple_types@N@std@@@std@@@0@0V10@@Z 100d4de0 f i ev.obj
 0002:00048040       ??$_Copy_unchecked1@V?$_Deque_unchecked_const_iterator@V?$_Deque_val@U?$_Deque_simple_types@N@std@@@std@@@std@@V?$_Deque_unchecked_iterator@V?$_Deque_val@U?$_Deque_simple_types@N@std@@@std@@@2@@std@@YA?AV?$_Deque_unchecked_iterator@V?$_Deque_val@U?$_Deque_simple_types@N@std@@@std@@@0@V?$_Deque_unchecked_const_iterator@V?$_Deque_val@U?$_Deque_simple_types@N@std@@@std@@@0@0V10@U_General_ptr_iterator_tag@0@@Z 100d5040 f i ev.obj
 0002:000480f0       ??$_Copy_unchecked@V?$_Deque_unchecked_const_iterator@V?$_Deque_val@U?$_Deque_simple_types@N@std@@@std@@@std@@V?$_Deque_unchecked_iterator@V?$_Deque_val@U?$_Deque_simple_types@N@std@@@std@@@2@@std@@YA?AV?$_Deque_unchecked_iterator@V?$_Deque_val@U?$_Deque_simple_types@N@std@@@std@@@0@V?$_Deque_unchecked_const_iterator@V?$_Deque_val@U?$_Deque_simple_types@N@std@@@std@@@0@0V10@@Z 100d50f0 f i ev.obj
 0002:00048190       ??$_Debug_pointer@V?$_Deque_const_iterator@V?$_Deque_val@U?$_Deque_simple_types@N@std@@@std@@@std@@@std@@YAXAAV?$_Deque_const_iterator@V?$_Deque_val@U?$_Deque_simple_types@N@std@@@std@@@0@PB_WI@Z 100d5190 f i ev.obj
 0002:000481c0       ??$_Debug_pointer@V?$_Deque_iterator@V?$_Deque_val@U?$_Deque_simple_types@N@std@@@std@@@std@@@std@@YAXAAV?$_Deque_iterator@V?$_Deque_val@U?$_Deque_simple_types@N@std@@@std@@@0@PB_WI@Z 100d51c0 f i ev.obj
 0002:000481f0       ??$_Debug_range2@V?$_Deque_const_iterator@V?$_Deque_val@U?$_Deque_simple_types@N@std@@@std@@@std@@@std@@YAXV?$_Deque_const_iterator@V?$_Deque_val@U?$_Deque_simple_types@N@std@@@std@@@0@0PB_WIUrandom_access_iterator_tag@0@@Z 100d51f0 f i ev.obj
 0002:00048320       ??$_Debug_range2@V?$_Deque_iterator@V?$_Deque_val@U?$_Deque_simple_types@N@std@@@std@@@std@@@std@@YAXV?$_Deque_iterator@V?$_Deque_val@U?$_Deque_simple_types@N@std@@@std@@@0@0PB_WIUrandom_access_iterator_tag@0@@Z 100d5320 f i ev.obj
 0002:00048450       ??$_Debug_range@V?$_Deque_const_iterator@V?$_Deque_val@U?$_Deque_simple_types@N@std@@@std@@@std@@@std@@YAXV?$_Deque_const_iterator@V?$_Deque_val@U?$_Deque_simple_types@N@std@@@std@@@0@0PB_WI@Z 100d5450 f i ev.obj
 0002:00048570       ??$_Debug_range@V?$_Deque_iterator@V?$_Deque_val@U?$_Deque_simple_types@N@std@@@std@@@std@@@std@@YAXV?$_Deque_iterator@V?$_Deque_val@U?$_Deque_simple_types@N@std@@@std@@@0@0PB_WI@Z 100d5570 f i ev.obj
 0002:00048690       ??$_Debug_range_ptr2@V?$_Deque_const_iterator@V?$_Deque_val@U?$_Deque_simple_types@N@std@@@std@@@std@@V?$_Deque_iterator@V?$_Deque_val@U?$_Deque_simple_types@N@std@@@std@@@2@@std@@YAXV?$_Deque_const_iterator@V?$_Deque_val@U?$_Deque_simple_types@N@std@@@std@@@0@0AAV?$_Deque_iterator@V?$_Deque_val@U?$_Deque_simple_types@N@std@@@std@@@0@PB_WIUrandom_access_iterator_tag@0@@Z 100d5690 f i ev.obj
 0002:000487d0       ??$_Debug_range_ptr2@V?$_Deque_iterator@V?$_Deque_val@U?$_Deque_simple_types@N@std@@@std@@@std@@V12@@std@@YAXV?$_Deque_iterator@V?$_Deque_val@U?$_Deque_simple_types@N@std@@@std@@@0@0AAV10@PB_WIUrandom_access_iterator_tag@0@@Z 100d57d0 f i ev.obj
 0002:00048910       ??$_Debug_range_ptr@V?$_Deque_const_iterator@V?$_Deque_val@U?$_Deque_simple_types@N@std@@@std@@@std@@V?$_Deque_iterator@V?$_Deque_val@U?$_Deque_simple_types@N@std@@@std@@@2@@std@@YAXV?$_Deque_const_iterator@V?$_Deque_val@U?$_Deque_simple_types@N@std@@@std@@@0@0AAV?$_Deque_iterator@V?$_Deque_val@U?$_Deque_simple_types@N@std@@@std@@@0@PB_WI@Z 100d5910 f i ev.obj
 0002:00048a40       ??$_Debug_range_ptr@V?$_Deque_iterator@V?$_Deque_val@U?$_Deque_simple_types@N@std@@@std@@@std@@V12@@std@@YAXV?$_Deque_iterator@V?$_Deque_val@U?$_Deque_simple_types@N@std@@@std@@@0@0AAV10@PB_WI@Z 100d5a40 f i ev.obj
 0002:00048b70       ??$_Destroy_range1@V?$allocator@PAN@std@@PAPAN@std@@YAXPAPAN0AAU?$_Wrap_alloc@V?$allocator@PAN@std@@@0@U?$integral_constant@_N$00@0@@Z 100d5b70 f i ev.obj
 0002:00048ba0       ??$_Destroy_range@V?$allocator@PAN@std@@PAPAN@std@@YAXPAPAN0AAU?$_Wrap_alloc@V?$allocator@PAN@std@@@0@@Z 100d5ba0 f i ev.obj
 0002:00048c10       ??$_Is_checked@V?$_Deque_iterator@V?$_Deque_val@U?$_Deque_simple_types@N@std@@@std@@@std@@@std@@YA?AU?$integral_constant@_N$00@0@V?$_Deque_iterator@V?$_Deque_val@U?$_Deque_simple_types@N@std@@@std@@@0@@Z 100d5c10 f i ev.obj
 0002:00048c80       ??$_Move_backward1@V?$_Deque_unchecked_iterator@V?$_Deque_val@U?$_Deque_simple_types@N@std@@@std@@@std@@V?$_Deque_iterator@V?$_Deque_val@U?$_Deque_simple_types@N@std@@@std@@@2@@std@@YA?AV?$_Deque_iterator@V?$_Deque_val@U?$_Deque_simple_types@N@std@@@std@@@0@V?$_Deque_unchecked_iterator@V?$_Deque_val@U?$_Deque_simple_types@N@std@@@std@@@0@0V10@Urandom_access_iterator_tag@0@2@Z 100d5c80 f i ev.obj
 0002:00048e00       ??$_Move_backward_unchecked1@V?$_Deque_unchecked_iterator@V?$_Deque_val@U?$_Deque_simple_types@N@std@@@std@@@std@@V12@@std@@YA?AV?$_Deque_unchecked_iterator@V?$_Deque_val@U?$_Deque_simple_types@N@std@@@std@@@0@V10@00U_General_ptr_iterator_tag@0@@Z 100d5e00 f i ev.obj
 0002:00048eb0       ??$_Move_backward_unchecked@V?$_Deque_unchecked_iterator@V?$_Deque_val@U?$_Deque_simple_types@N@std@@@std@@@std@@V12@@std@@YA?AV?$_Deque_unchecked_iterator@V?$_Deque_val@U?$_Deque_simple_types@N@std@@@std@@@0@V10@00@Z 100d5eb0 f i ev.obj
 0002:00048f50       ??$_Move_no_deprecate1@V?$_Deque_unchecked_iterator@V?$_Deque_val@U?$_Deque_simple_types@N@std@@@std@@@std@@V?$_Deque_iterator@V?$_Deque_val@U?$_Deque_simple_types@N@std@@@std@@@2@@std@@YA?AV?$_Deque_iterator@V?$_Deque_val@U?$_Deque_simple_types@N@std@@@std@@@0@V?$_Deque_unchecked_iterator@V?$_Deque_val@U?$_Deque_simple_types@N@std@@@std@@@0@0V10@Urandom_access_iterator_tag@0@2@Z 100d5f50 f i ev.obj
 0002:000490d0       ??$_Move_no_deprecate@V?$_Deque_iterator@V?$_Deque_val@U?$_Deque_simple_types@N@std@@@std@@@std@@V12@@std@@YA?AV?$_Deque_iterator@V?$_Deque_val@U?$_Deque_simple_types@N@std@@@std@@@0@V10@00@Z 100d60d0 f i ev.obj
 0002:00049330       ??$_Move_unchecked1@V?$_Deque_unchecked_iterator@V?$_Deque_val@U?$_Deque_simple_types@N@std@@@std@@@std@@V12@@std@@YA?AV?$_Deque_unchecked_iterator@V?$_Deque_val@U?$_Deque_simple_types@N@std@@@std@@@0@V10@00U_General_ptr_iterator_tag@0@@Z 100d6330 f i ev.obj
 0002:000493e0       ??$_Move_unchecked@V?$_Deque_unchecked_iterator@V?$_Deque_val@U?$_Deque_simple_types@N@std@@@std@@@std@@V12@@std@@YA?AV?$_Deque_unchecked_iterator@V?$_Deque_val@U?$_Deque_simple_types@N@std@@@std@@@0@V10@00@Z 100d63e0 f i ev.obj
 0002:00049480       ??$_Pocca@U?$_Wrap_alloc@V?$allocator@N@std@@@std@@@std@@YAXAAU?$_Wrap_alloc@V?$allocator@N@std@@@0@ABU10@@Z 100d6480 f i ev.obj
 0002:00049510       ??$_Pocca@U?$_Wrap_alloc@V?$allocator@N@std@@@std@@@std@@YAXAAU?$_Wrap_alloc@V?$allocator@N@std@@@0@ABU10@U?$integral_constant@_N$0A@@0@@Z 100d6510 f i ev.obj
 0002:00049540       ??$_Ptr_copy_cat@PANPAN@std@@YA?AU_Really_trivial_ptr_iterator_tag@0@ABQAPAN0@Z 100d6540 f i ev.obj
 0002:00049580       ??$_Ptr_copy_cat@V?$_Deque_unchecked_const_iterator@V?$_Deque_val@U?$_Deque_simple_types@N@std@@@std@@@std@@V?$_Deque_unchecked_iterator@V?$_Deque_val@U?$_Deque_simple_types@N@std@@@std@@@2@@std@@YA?AU_General_ptr_iterator_tag@0@ABV?$_Deque_unchecked_const_iterator@V?$_Deque_val@U?$_Deque_simple_types@N@std@@@std@@@0@ABV?$_Deque_unchecked_iterator@V?$_Deque_val@U?$_Deque_simple_types@N@std@@@std@@@0@@Z 100d6580 f i ev.obj
 0002:000495c0       ??$_Ptr_move_cat@V?$_Deque_unchecked_iterator@V?$_Deque_val@U?$_Deque_simple_types@N@std@@@std@@@std@@V12@@std@@YA?AU_General_ptr_iterator_tag@0@ABV?$_Deque_unchecked_iterator@V?$_Deque_val@U?$_Deque_simple_types@N@std@@@std@@@0@0@Z 100d65c0 f i ev.obj
 0002:00049600       ??$_Rechecked@PAPANPAPAN@std@@YAAAPAPANAAPAPANPAPAN@Z 100d6600 f i ev.obj
 0002:00049640       ??$_Rechecked@V?$_Deque_val@U?$_Deque_simple_types@N@std@@@std@@@std@@YAAAV?$_Deque_iterator@V?$_Deque_val@U?$_Deque_simple_types@N@std@@@std@@@0@AAV10@V?$_Deque_unchecked_iterator@V?$_Deque_val@U?$_Deque_simple_types@N@std@@@std@@@0@@Z 100d6640 f i ev.obj
 0002:000496a0       ??$_Reverse_unchecked@V?$_Deque_unchecked_iterator@V?$_Deque_val@U?$_Deque_simple_types@N@std@@@std@@@std@@@std@@YAXV?$_Deque_unchecked_iterator@V?$_Deque_val@U?$_Deque_simple_types@N@std@@@std@@@0@0@Z 100d66a0 f i ev.obj
 0002:00049750       ??$_Rotate_unchecked1@V?$_Deque_unchecked_iterator@V?$_Deque_val@U?$_Deque_simple_types@N@std@@@std@@@std@@@std@@YA?AV?$_Deque_unchecked_iterator@V?$_Deque_val@U?$_Deque_simple_types@N@std@@@std@@@0@V10@00Urandom_access_iterator_tag@0@@Z 100d6750 f i ev.obj
 0002:00049810       ??$_Rotate_unchecked@V?$_Deque_unchecked_iterator@V?$_Deque_val@U?$_Deque_simple_types@N@std@@@std@@@std@@@std@@YA?AV?$_Deque_unchecked_iterator@V?$_Deque_val@U?$_Deque_simple_types@N@std@@@std@@@0@V10@00@Z 100d6810 f i ev.obj
 0002:00049900       ??$_Unchecked@PAPAN@std@@YAPAPANPAPAN@Z 100d6900 f i ev.obj
 0002:00049940       ??$_Unchecked@V?$_Deque_val@U?$_Deque_simple_types@N@std@@@std@@@std@@YA?AV?$_Deque_unchecked_const_iterator@V?$_Deque_val@U?$_Deque_simple_types@N@std@@@std@@@0@V?$_Deque_const_iterator@V?$_Deque_val@U?$_Deque_simple_types@N@std@@@std@@@0@@Z 100d6940 f i ev.obj
 0002:000499f0       ??$_Unchecked@V?$_Deque_val@U?$_Deque_simple_types@N@std@@@std@@@std@@YA?AV?$_Deque_unchecked_iterator@V?$_Deque_val@U?$_Deque_simple_types@N@std@@@std@@@0@V?$_Deque_iterator@V?$_Deque_val@U?$_Deque_simple_types@N@std@@@std@@@0@@Z 100d69f0 f i ev.obj
 0002:00049aa0       ??$_Unfancy@N@std@@YAPANPAN@Z 100d6aa0 f i ev.obj
 0002:00049ae0       ??$_Uninitialized_copy@PAPANPAPANV?$allocator@PAN@std@@@std@@YAPAPANPAPAN00AAU?$_Wrap_alloc@V?$allocator@PAN@std@@@0@@Z 100d6ae0 f i ev.obj
 0002:00049b80       ??$_Uninitialized_copy_al_unchecked1@PANPANV?$allocator@PAN@std@@@std@@YAPAPANPAPAN00AAU?$_Wrap_alloc@V?$allocator@PAN@std@@@0@U_Really_trivial_ptr_iterator_tag@0@U?$integral_constant@_N$00@0@@Z 100d6b80 f i ev.obj
 0002:00049be0       ??$_Uninitialized_copy_al_unchecked@PAPANPAPANV?$allocator@PAN@std@@@std@@YAPAPANPAPAN00AAU?$_Wrap_alloc@V?$allocator@PAN@std@@@0@@Z 100d6be0 f i ev.obj
 0002:00049c70       ??$_Uninitialized_default_fill_n1@PAPANIV?$allocator@PAN@std@@@std@@YAXPAPANIAAU?$_Wrap_alloc@V?$allocator@PAN@std@@@0@U?$integral_constant@_N$00@0@@Z 100d6c70 f i ev.obj
 0002:00049cd0       ??$_Uninitialized_default_fill_n@PAPANIV?$allocator@PAN@std@@@std@@YAXPAPANIAAU?$_Wrap_alloc@V?$allocator@PAN@std@@@0@@Z 100d6cd0 f i ev.obj
 0002:00049d40       ??$addressof@PAN@std@@YAPAPANAAPAN@Z 100d6d40 f i ev.obj
 0002:00049d80       ??$construct@NABN@?$_Wrap_alloc@V?$allocator@N@std@@@std@@QAEXPANABN@Z 100d6d80 f i ev.obj
 0002:00049df0       ??$construct@NABN@?$allocator@N@std@@QAEXPANABN@Z 100d6df0 f i ev.obj
 0002:00049ea0       ??$construct@NABN@?$allocator_traits@V?$allocator@N@std@@@std@@SAXAAV?$allocator@N@1@PANABN@Z 100d6ea0 f i ev.obj
 0002:00049f00       ??$copy@V?$_Deque_const_iterator@V?$_Deque_val@U?$_Deque_simple_types@N@std@@@std@@@std@@V?$_Deque_iterator@V?$_Deque_val@U?$_Deque_simple_types@N@std@@@std@@@2@@std@@YA?AV?$_Deque_iterator@V?$_Deque_val@U?$_Deque_simple_types@N@std@@@std@@@0@V?$_Deque_const_iterator@V?$_Deque_val@U?$_Deque_simple_types@N@std@@@std@@@0@0V10@@Z 100d6f00 f i ev.obj
 0002:0004a0d0       ??$destroy@N@?$_Wrap_alloc@V?$allocator@N@std@@@std@@QAEXPAN@Z 100d70d0 f i ev.obj
 0002:0004a130       ??$destroy@N@?$allocator@N@std@@QAEXPAN@Z 100d7130 f i ev.obj
 0002:0004a170       ??$destroy@N@?$allocator_traits@V?$allocator@N@std@@@std@@SAXAAV?$allocator@N@1@PAN@Z 100d7170 f i ev.obj
 0002:0004a1c0       ??$destroy@PAN@?$_Wrap_alloc@V?$allocator@N@std@@@std@@QAEXPAPAN@Z 100d71c0 f i ev.obj
 0002:0004a220       ??$destroy@PAN@?$allocator@N@std@@QAEXPAPAN@Z 100d7220 f i ev.obj
 0002:0004a260       ??$destroy@PAN@?$allocator_traits@V?$allocator@N@std@@@std@@SAXAAV?$allocator@N@1@PAPAN@Z 100d7260 f i ev.obj
 0002:0004a2b0       ??$emplace_back@ABN@?$deque@NV?$allocator@N@std@@@std@@QAEXABN@Z 100d72b0 f i ev.obj
 0002:0004a490       ??$forward@AAU?$_Wrap_alloc@V?$allocator@N@std@@@std@@@std@@YAAAU?$_Wrap_alloc@V?$allocator@N@std@@@0@AAU10@@Z 100d7490 f i ev.obj
 0002:0004a4d0       ??$forward@ABN@std@@YAABNABN@Z 100d74d0 f i ev.obj
 0002:0004a510       ??$forward@U?$_Wrap_alloc@V?$allocator@N@std@@@std@@@std@@YA$$QAU?$_Wrap_alloc@V?$allocator@N@std@@@0@AAU10@@Z 100d7510 f i ev.obj
 0002:0004a550       ??$forward@V?$allocator@N@std@@@std@@YA$$QAV?$allocator@N@0@AAV10@@Z 100d7550 f i ev.obj
 0002:0004a590       ??$insert@V?$_Deque_const_iterator@V?$_Deque_val@U?$_Deque_simple_types@N@std@@@std@@@std@@@?$deque@NV?$allocator@N@std@@@std@@QAE?AV?$_Deque_iterator@V?$_Deque_val@U?$_Deque_simple_types@N@std@@@std@@@1@V?$_Deque_const_iterator@V?$_Deque_val@U?$_Deque_simple_types@N@std@@@std@@@1@00@Z 100d7590 f i ev.obj
 0002:0004ace0       ??$iter_swap@V?$_Deque_unchecked_iterator@V?$_Deque_val@U?$_Deque_simple_types@N@std@@@std@@@std@@V12@@std@@YAXV?$_Deque_unchecked_iterator@V?$_Deque_val@U?$_Deque_simple_types@N@std@@@std@@@0@0@Z 100d7ce0 f i ev.obj
 0002:0004ad40       ??$move@AAN@std@@YA$$QANAAN@Z 100d7d40 f i ev.obj
 0002:0004ad80       ??$move@AAU?$_Wrap_alloc@V?$allocator@N@std@@@std@@@std@@YA$$QAU?$_Wrap_alloc@V?$allocator@N@std@@@0@AAU10@@Z 100d7d80 f i ev.obj
 0002:0004adc0       ??$move@V?$_Deque_iterator@V?$_Deque_val@U?$_Deque_simple_types@N@std@@@std@@@std@@V12@@std@@YA?AV?$_Deque_iterator@V?$_Deque_val@U?$_Deque_simple_types@N@std@@@std@@@0@V10@00@Z 100d7dc0 f i ev.obj
 0002:0004af90       ??$move_backward@V?$_Deque_iterator@V?$_Deque_val@U?$_Deque_simple_types@N@std@@@std@@@std@@V12@@std@@YA?AV?$_Deque_iterator@V?$_Deque_val@U?$_Deque_simple_types@N@std@@@std@@@0@V10@00@Z 100d7f90 f i ev.obj
 0002:0004b240       ??$reverse@V?$_Deque_iterator@V?$_Deque_val@U?$_Deque_simple_types@N@std@@@std@@@std@@@std@@YAXV?$_Deque_iterator@V?$_Deque_val@U?$_Deque_simple_types@N@std@@@std@@@0@0@Z 100d8240 f i ev.obj
 0002:0004b3f0       ??$rotate@V?$_Deque_iterator@V?$_Deque_val@U?$_Deque_simple_types@N@std@@@std@@@std@@@std@@YA?AV?$_Deque_iterator@V?$_Deque_val@U?$_Deque_simple_types@N@std@@@std@@@0@V10@00@Z 100d83f0 f i ev.obj
 0002:0004b6d0       ??$swap@NX@std@@YAXAAN0@Z  100d86d0 f i ev.obj
 0002:0004b7a0       ??0?$_Deque_const_iterator@V?$_Deque_val@U?$_Deque_simple_types@N@std@@@std@@@std@@QAE@$$QAV01@@Z 100d87a0 f i ev.obj
 0002:0004b810       ??0?$_Deque_const_iterator@V?$_Deque_val@U?$_Deque_simple_types@N@std@@@std@@@std@@QAE@ABV01@@Z 100d8810 f i ev.obj
 0002:0004b880       ??0?$_Deque_const_iterator@V?$_Deque_val@U?$_Deque_simple_types@N@std@@@std@@@std@@QAE@IPBU_Container_base12@1@@Z 100d8880 f i ev.obj
 0002:0004b940       ??0?$_Deque_iterator@V?$_Deque_val@U?$_Deque_simple_types@N@std@@@std@@@std@@QAE@ABV01@@Z 100d8940 f i ev.obj
 0002:0004b9a0       ??0?$_Deque_iterator@V?$_Deque_val@U?$_Deque_simple_types@N@std@@@std@@@std@@QAE@IPBU_Container_base12@1@@Z 100d89a0 f i ev.obj
 0002:0004ba00       ??0?$_Deque_unchecked_const_iterator@V?$_Deque_val@U?$_Deque_simple_types@N@std@@@std@@@std@@QAE@IPBU_Container_base12@1@@Z 100d8a00 f i ev.obj
 0002:0004ba50       ??0?$_Deque_unchecked_iterator@V?$_Deque_val@U?$_Deque_simple_types@N@std@@@std@@@std@@QAE@IPBU_Container_base12@1@@Z 100d8a50 f i ev.obj
 0002:0004bab0       ??0?$_Deque_val@U?$_Deque_simple_types@N@std@@@std@@QAE@XZ 100d8ab0 f i ev.obj
 0002:0004bb40       ??0?$_Wrap_alloc@V?$allocator@N@std@@@std@@QAE@$$QAU01@@Z 100d8b40 f i ev.obj
 0002:0004bbb0       ??0?$allocator@N@std@@QAE@ABV01@@Z 100d8bb0 f i ev.obj
 0002:0004bbf0       ??0?$deque@NV?$allocator@N@std@@@std@@QAE@ABV01@@Z 100d8bf0 f i ev.obj
 0002:0004bd00       ??0EV@@QAE@PBD@Z           100d8d00 f   ev.obj
 0002:0004c9a0       ??0EV@@QAE@PBDW4EnumDeviceType@@VRIDER_DATA@@PAUPARAMS@Bike@@PAVCourse@@W4LoggingType@@@Z 100d99a0 f   ev.obj
 0002:0004d640       ??0Heartrate@@QAE@ABV0@@Z  100da640 f i ev.obj
 0002:0004dab0       ??0mutex@tthread@@QAE@XZ   100daab0 f i ev.obj
 0002:0004db20       ??1?$_Compressed_pair@U?$_Wrap_alloc@V?$allocator@N@std@@@std@@V?$_Deque_val@U?$_Deque_simple_types@N@std@@@2@$00@std@@QAE@XZ 100dab20 f i ev.obj
 0002:0004db70       ??1?$_Deque_alloc@U?$_Deque_base_types@NV?$allocator@N@std@@@std@@@std@@QAE@XZ 100dab70 f i ev.obj
 0002:0004dc00       ??1?$_Deque_const_iterator@V?$_Deque_val@U?$_Deque_simple_types@N@std@@@std@@@std@@QAE@XZ 100dac00 f i ev.obj
 0002:0004dc50       ??1?$_Deque_iterator@V?$_Deque_val@U?$_Deque_simple_types@N@std@@@std@@@std@@QAE@XZ 100dac50 f i ev.obj
 0002:0004dca0       ??1?$_Deque_val@U?$_Deque_simple_types@N@std@@@std@@QAE@XZ 100daca0 f i ev.obj
 0002:0004dcf0       ??1EV@@QAE@XZ              100dacf0 f   ev.obj
 0002:0004e170       ??1mutex@tthread@@QAE@XZ   100db170 f i ev.obj
 0002:0004e1d0       ??4?$deque@NV?$allocator@N@std@@@std@@QAEAAV01@ABV01@@Z 100db1d0 f i ev.obj
 0002:0004e6c0       ??4Heartrate@@QAEAAV0@ABV0@@Z 100db6c0 f i ev.obj
 0002:0004eb40       ??4RIDER_DATA@@QAEAAV0@ABV0@@Z 100dbb40 f i ev.obj
 0002:0004ec80       ??8?$_Deque_const_iterator@V?$_Deque_val@U?$_Deque_simple_types@N@std@@@std@@@std@@QBE_NABV01@@Z 100dbc80 f i ev.obj
 0002:0004ed10       ??8?$_Deque_unchecked_const_iterator@V?$_Deque_val@U?$_Deque_simple_types@N@std@@@std@@@std@@QBE_NABV01@@Z 100dbd10 f i ev.obj
 0002:0004ed80       ??9?$_Deque_const_iterator@V?$_Deque_val@U?$_Deque_simple_types@N@std@@@std@@@std@@QBE_NABV01@@Z 100dbd80 f i ev.obj
 0002:0004ee10       ??9?$_Deque_unchecked_const_iterator@V?$_Deque_val@U?$_Deque_simple_types@N@std@@@std@@@std@@QBE_NABV01@@Z 100dbe10 f i ev.obj
 0002:0004eea0       ??D?$_Deque_const_iterator@V?$_Deque_val@U?$_Deque_simple_types@N@std@@@std@@@std@@QBEABNXZ 100dbea0 f i ev.obj
 0002:0004f020       ??D?$_Deque_unchecked_const_iterator@V?$_Deque_val@U?$_Deque_simple_types@N@std@@@std@@@std@@QBEABNXZ 100dc020 f i ev.obj
 0002:0004f0b0       ??D?$_Deque_unchecked_iterator@V?$_Deque_val@U?$_Deque_simple_types@N@std@@@std@@@std@@QBEAANXZ 100dc0b0 f i ev.obj
 0002:0004f100       ??E?$_Deque_const_iterator@V?$_Deque_val@U?$_Deque_simple_types@N@std@@@std@@@std@@QAEAAV01@XZ 100dc100 f i ev.obj
 0002:0004f240       ??E?$_Deque_unchecked_const_iterator@V?$_Deque_val@U?$_Deque_simple_types@N@std@@@std@@@std@@QAEAAV01@XZ 100dc240 f i ev.obj
 0002:0004f290       ??E?$_Deque_unchecked_iterator@V?$_Deque_val@U?$_Deque_simple_types@N@std@@@std@@@std@@QAEAAV01@XZ 100dc290 f i ev.obj
 0002:0004f2f0       ??F?$_Deque_unchecked_const_iterator@V?$_Deque_val@U?$_Deque_simple_types@N@std@@@std@@@std@@QAEAAV01@XZ 100dc2f0 f i ev.obj
 0002:0004f340       ??F?$_Deque_unchecked_iterator@V?$_Deque_val@U?$_Deque_simple_types@N@std@@@std@@@std@@QAEAAV01@XZ 100dc340 f i ev.obj
 0002:0004f3a0       ??G?$_Deque_const_iterator@V?$_Deque_val@U?$_Deque_simple_types@N@std@@@std@@@std@@QBEHABV01@@Z 100dc3a0 f i ev.obj
 0002:0004f450       ??G?$_Deque_iterator@V?$_Deque_val@U?$_Deque_simple_types@N@std@@@std@@@std@@QBE?AV01@H@Z 100dc450 f i ev.obj
 0002:0004f570       ??G?$_Deque_iterator@V?$_Deque_val@U?$_Deque_simple_types@N@std@@@std@@@std@@QBEHABV?$_Deque_const_iterator@V?$_Deque_val@U?$_Deque_simple_types@N@std@@@std@@@1@@Z 100dc570 f i ev.obj
 0002:0004f5d0       ??G?$_Deque_unchecked_const_iterator@V?$_Deque_val@U?$_Deque_simple_types@N@std@@@std@@@std@@QBEHABV01@@Z 100dc5d0 f i ev.obj
 0002:0004f660       ??G?$_Deque_unchecked_iterator@V?$_Deque_val@U?$_Deque_simple_types@N@std@@@std@@@std@@QBEHABV?$_Deque_unchecked_const_iterator@V?$_Deque_val@U?$_Deque_simple_types@N@std@@@std@@@1@@Z 100dc660 f i ev.obj
 0002:0004f6c0       ??H?$_Deque_const_iterator@V?$_Deque_val@U?$_Deque_simple_types@N@std@@@std@@@std@@QBE?AV01@H@Z 100dc6c0 f i ev.obj
 0002:0004f7e0       ??H?$_Deque_iterator@V?$_Deque_val@U?$_Deque_simple_types@N@std@@@std@@@std@@QBE?AV01@H@Z 100dc7e0 f i ev.obj
 0002:0004f900       ??H?$_Deque_unchecked_iterator@V?$_Deque_val@U?$_Deque_simple_types@N@std@@@std@@@std@@QBE?AV01@H@Z 100dc900 f i ev.obj
 0002:0004f9b0       ??M?$_Deque_const_iterator@V?$_Deque_val@U?$_Deque_simple_types@N@std@@@std@@@std@@QBE_NABV01@@Z 100dc9b0 f i ev.obj
 0002:0004fa40       ??Y?$_Deque_const_iterator@V?$_Deque_val@U?$_Deque_simple_types@N@std@@@std@@@std@@QAEAAV01@H@Z 100dca40 f i ev.obj
 0002:0004fba0       ??Y?$_Deque_iterator@V?$_Deque_val@U?$_Deque_simple_types@N@std@@@std@@@std@@QAEAAV01@H@Z 100dcba0 f i ev.obj
 0002:0004fbf0       ??Y?$_Deque_unchecked_const_iterator@V?$_Deque_val@U?$_Deque_simple_types@N@std@@@std@@@std@@QAEAAV01@H@Z 100dcbf0 f i ev.obj
 0002:0004fc40       ??Y?$_Deque_unchecked_iterator@V?$_Deque_val@U?$_Deque_simple_types@N@std@@@std@@@std@@QAEAAV01@H@Z 100dcc40 f i ev.obj
 0002:0004fca0       ??Z?$_Deque_iterator@V?$_Deque_val@U?$_Deque_simple_types@N@std@@@std@@@std@@QAEAAV01@H@Z 100dcca0 f i ev.obj
 0002:0004fd00       ??_Gthread@tthread@@QAEPAXI@Z 100dcd00 f i ev.obj
 0002:0004fd70       ?TimerProc@EV@@CGXIIKKK@Z  100dcd70 f   ev.obj
 0002:0004fe40       ?_Alloc_proxy@?$_Deque_alloc@U?$_Deque_base_types@NV?$allocator@N@std@@@std@@@std@@QAEXXZ 100dce40 f i ev.obj
 0002:0004ff40       ?_Compat@?$_Deque_const_iterator@V?$_Deque_val@U?$_Deque_simple_types@N@std@@@std@@@std@@QBEXABV12@@Z 100dcf40 f i ev.obj
 0002:00050050       ?_Copy_alloc@?$_Deque_alloc@U?$_Deque_base_types@NV?$allocator@N@std@@@std@@@std@@QAEXABU?$_Wrap_alloc@V?$allocator@N@std@@@2@@Z 100dd050 f i ev.obj
 0002:00050280       ?_Free_proxy@?$_Deque_alloc@U?$_Deque_base_types@NV?$allocator@N@std@@@std@@@std@@QAEXXZ 100dd280 f i ev.obj
 0002:00050370       ?_Get_data@?$_Deque_alloc@U?$_Deque_base_types@NV?$allocator@N@std@@@std@@@std@@QAEAAV?$_Deque_val@U?$_Deque_simple_types@N@std@@@2@XZ 100dd370 f i ev.obj
 0002:000503c0       ?_Get_data@?$_Deque_alloc@U?$_Deque_base_types@NV?$allocator@N@std@@@std@@@std@@QBEABV?$_Deque_val@U?$_Deque_simple_types@N@std@@@2@XZ 100dd3c0 f i ev.obj
 0002:00050410       ?_Get_first@?$_Compressed_pair@U?$_Wrap_alloc@V?$allocator@N@std@@@std@@V?$_Deque_val@U?$_Deque_simple_types@N@std@@@2@$00@std@@QAEAAU?$_Wrap_alloc@V?$allocator@N@std@@@2@XZ 100dd410 f i ev.obj
 0002:00050450       ?_Get_first@?$_Compressed_pair@U?$_Wrap_alloc@V?$allocator@N@std@@@std@@V?$_Deque_val@U?$_Deque_simple_types@N@std@@@2@$00@std@@QBEABU?$_Wrap_alloc@V?$allocator@N@std@@@2@XZ 100dd450 f i ev.obj
 0002:00050490       ?_Get_second@?$_Compressed_pair@U?$_Wrap_alloc@V?$allocator@N@std@@@std@@V?$_Deque_val@U?$_Deque_simple_types@N@std@@@2@$00@std@@QAEAAV?$_Deque_val@U?$_Deque_simple_types@N@std@@@2@XZ 100dd490 f i ev.obj
 0002:000504d0       ?_Get_second@?$_Compressed_pair@U?$_Wrap_alloc@V?$allocator@N@std@@@std@@V?$_Deque_val@U?$_Deque_simple_types@N@std@@@2@$00@std@@QBEABV?$_Deque_val@U?$_Deque_simple_types@N@std@@@2@XZ 100dd4d0 f i ev.obj
 0002:00050510       ?_Getal@?$_Deque_alloc@U?$_Deque_base_types@NV?$allocator@N@std@@@std@@@std@@QAEAAU?$_Wrap_alloc@V?$allocator@N@std@@@2@XZ 100dd510 f i ev.obj
 0002:00050560       ?_Getal@?$_Deque_alloc@U?$_Deque_base_types@NV?$allocator@N@std@@@std@@@std@@QBEABU?$_Wrap_alloc@V?$allocator@N@std@@@2@XZ 100dd560 f i ev.obj
 0002:000505b0       ?_Getblock@?$_Deque_alloc@U?$_Deque_base_types@NV?$allocator@N@std@@@std@@@std@@QBEII@Z 100dd5b0 f i ev.obj
 0002:00050610       ?_Getblock@?$_Deque_val@U?$_Deque_simple_types@N@std@@@std@@QBEII@Z 100dd610 f i ev.obj
 0002:00050660       ?_Getpfirst@?$_Deque_alloc@U?$_Deque_base_types@NV?$allocator@N@std@@@std@@@std@@QBEPAPAU_Iterator_base12@2@XZ 100dd660 f i ev.obj
 0002:000506c0       ?_Growmap@?$deque@NV?$allocator@N@std@@@std@@IAEXI@Z 100dd6c0 f i ev.obj
 0002:00050a50       ?_Make_iter@?$deque@NV?$allocator@N@std@@@std@@QBE?AV?$_Deque_iterator@V?$_Deque_val@U?$_Deque_simple_types@N@std@@@std@@@2@V?$_Deque_const_iterator@V?$_Deque_val@U?$_Deque_simple_types@N@std@@@std@@@2@@Z 100dda50 f i ev.obj
 0002:00050b30       ?_Map@?$_Deque_alloc@U?$_Deque_base_types@NV?$allocator@N@std@@@std@@@std@@QAEAAPAPANXZ 100ddb30 f i ev.obj
 0002:00050b90       ?_Mapsize@?$_Deque_alloc@U?$_Deque_base_types@NV?$allocator@N@std@@@std@@@std@@QAEAAIXZ 100ddb90 f i ev.obj
 0002:00050bf0       ?_Myoff@?$_Deque_alloc@U?$_Deque_base_types@NV?$allocator@N@std@@@std@@@std@@QAEAAIXZ 100ddbf0 f i ev.obj
 0002:00050c50       ?_Myoff@?$_Deque_alloc@U?$_Deque_base_types@NV?$allocator@N@std@@@std@@@std@@QBEABIXZ 100ddc50 f i ev.obj
 0002:00050cb0       ?_Myproxy@?$_Deque_alloc@U?$_Deque_base_types@NV?$allocator@N@std@@@std@@@std@@QAEAAPAU_Container_proxy@2@XZ 100ddcb0 f i ev.obj
 0002:00050d00       ?_Mysize@?$_Deque_alloc@U?$_Deque_base_types@NV?$allocator@N@std@@@std@@@std@@QAEAAIXZ 100ddd00 f i ev.obj
 0002:00050d60       ?_Mysize@?$_Deque_alloc@U?$_Deque_base_types@NV?$allocator@N@std@@@std@@@std@@QBEABIXZ 100ddd60 f i ev.obj
 0002:00050dc0       ?_Orphan_all@?$_Deque_alloc@U?$_Deque_base_types@NV?$allocator@N@std@@@std@@@std@@QAEXXZ 100dddc0 f i ev.obj
 0002:00050e20       ?_Orphan_off@?$deque@NV?$allocator@N@std@@@std@@IBEXI@Z 100dde20 f i ev.obj
 0002:00051000       ?_Rechecked@?$_Deque_iterator@V?$_Deque_val@U?$_Deque_simple_types@N@std@@@std@@@std@@QAEAAV12@V?$_Deque_unchecked_iterator@V?$_Deque_val@U?$_Deque_simple_types@N@std@@@std@@@2@@Z 100de000 f i ev.obj
 0002:00051050       ?_Setcont@?$_Deque_const_iterator@V?$_Deque_val@U?$_Deque_simple_types@N@std@@@std@@@std@@QAEXPBV?$_Deque_val@U?$_Deque_simple_types@N@std@@@2@@Z 100de050 f i ev.obj
 0002:000510b0       ?_Tidy@?$deque@NV?$allocator@N@std@@@std@@IAEXXZ 100de0b0 f i ev.obj
 0002:00051260       ?_Unchecked@?$_Deque_const_iterator@V?$_Deque_val@U?$_Deque_simple_types@N@std@@@std@@@std@@QBE?AV?$_Deque_unchecked_const_iterator@V?$_Deque_val@U?$_Deque_simple_types@N@std@@@std@@@2@XZ 100de260 f i ev.obj
 0002:000512d0       ?_Unchecked@?$_Deque_iterator@V?$_Deque_val@U?$_Deque_simple_types@N@std@@@std@@@std@@QBE?AV?$_Deque_unchecked_iterator@V?$_Deque_val@U?$_Deque_simple_types@N@std@@@std@@@2@XZ 100de2d0 f i ev.obj
 0002:00051340       ?_Xlen@?$deque@NV?$allocator@N@std@@@std@@IBEXXZ 100de340 f i ev.obj
 0002:000513a0       ?allocate@?$_Wrap_alloc@V?$allocator@N@std@@@std@@QAEPANI@Z 100de3a0 f i ev.obj
 0002:00051400       ?allocate@?$_Wrap_alloc@V?$allocator@PAN@std@@@std@@QAEPAPANI@Z 100de400 f i ev.obj
 0002:00051460       ?allocate@?$allocator@N@std@@QAEPANI@Z 100de460 f i ev.obj
 0002:000514c0       ?allocate@?$allocator@PAN@std@@QAEPAPANI@Z 100de4c0 f i ev.obj
 0002:00051520       ?begin@?$deque@NV?$allocator@N@std@@@std@@QAE?AV?$_Deque_iterator@V?$_Deque_val@U?$_Deque_simple_types@N@std@@@std@@@2@XZ 100de520 f i ev.obj
 0002:000515d0       ?begin@?$deque@NV?$allocator@N@std@@@std@@QBE?AV?$_Deque_const_iterator@V?$_Deque_val@U?$_Deque_simple_types@N@std@@@std@@@2@XZ 100de5d0 f i ev.obj
 0002:00051680       ?calc_tp_x@EV@@QAEXKM@Z    100de680 f   ev.obj
 0002:00051700       ?clear@?$deque@NV?$allocator@N@std@@@std@@QAEXXZ 100de700 f i ev.obj
 0002:00051790       ?clear_accum_tdc_x@EV@@QAEXXZ 100de790 f   ev.obj
 0002:000517f0       ?deallocate@?$_Wrap_alloc@V?$allocator@N@std@@@std@@QAEXPANI@Z 100de7f0 f i ev.obj
 0002:00051850       ?deallocate@?$_Wrap_alloc@V?$allocator@PAN@std@@@std@@QAEXPAPANI@Z 100de850 f i ev.obj
 0002:000518b0       ?deallocate@?$allocator@N@std@@QAEXPANI@Z 100de8b0 f i ev.obj
 0002:00051910       ?deallocate@?$allocator@PAN@std@@QAEXPAPANI@Z 100de910 f i ev.obj
 0002:00051970       ?empty@?$deque@NV?$allocator@N@std@@@std@@QBE_NXZ 100de970 f i ev.obj
 0002:000519f0       ?end@?$deque@NV?$allocator@N@std@@@std@@QAE?AV?$_Deque_iterator@V?$_Deque_val@U?$_Deque_simple_types@N@std@@@std@@@2@XZ 100de9f0 f i ev.obj
 0002:00051ab0       ?end@?$deque@NV?$allocator@N@std@@@std@@QBE?AV?$_Deque_const_iterator@V?$_Deque_val@U?$_Deque_simple_types@N@std@@@std@@@2@XZ 100deab0 f i ev.obj
 0002:00051b70       ?endCal@EV@@QAEHXZ         100deb70 f   ev.obj
 0002:00051bb0       ?end_cal@EV@@QAEHE@Z       100debb0 f   ev.obj
 0002:00051c30       ?erase@?$deque@NV?$allocator@N@std@@@std@@QAE?AV?$_Deque_iterator@V?$_Deque_val@U?$_Deque_simple_types@N@std@@@std@@@2@V?$_Deque_const_iterator@V?$_Deque_val@U?$_Deque_simple_types@N@std@@@std@@@2@0@Z 100dec30 f i ev.obj
 0002:00052340       ?fastread@EV@@QAEPAUTrainerData@RACERMATE@@XZ 100df340 f   ev.obj
 0002:00052530       ?get_accum_tdc_x@EV@@QAEHXZ 100df530 f   ev.obj
 0002:000525a0       ?get_ant_stick_initialized@EV@@QAE_NXZ 100df5a0 f   ev.obj
 0002:000525e0       ?get_average_bars_x@EV@@QAEPAMXZ 100df5e0 f   ev.obj
 0002:00052650       ?get_bars_x@EV@@QAEPAMXZ   100df650 f   ev.obj
 0002:000526a0       ?get_cal_time_x@EV@@QAEHXZ 100df6a0 f   ev.obj
 0002:000526f0       ?get_calibration_x@EV@@QAEHXZ 100df6f0 f   ev.obj
 0002:00052770       ?get_calories_x@EV@@QAEMXZ 100df770 f   ev.obj
 0002:000527c0       ?get_computrainer_cal@EV@@QAEPBDXZ 100df7c0 f   ev.obj
 0002:000529c0       ?get_computrainer_mode_x@EV@@QAEHXZ 100df9c0 f   ev.obj
 0002:00052a40       ?get_finished@Decoder@@QAE_NXZ 100dfa40 f i ev.obj
 0002:00052a80       ?get_formula@Decoder@@QAEPAVFormula@@XZ 100dfa80 f i ev.obj
 0002:00052ac0       ?get_gear_indices_x@EV@@QAE?AUGEARPAIR@Bike@@XZ 100dfac0 f   ev.obj
 0002:00052b80       ?get_gear_pair@EV@@QAE?AUGEARPAIR@Bike@@XZ 100dfb80 f   ev.obj
 0002:00052c40       ?get_hr_beep_enabled_x@EV@@QAEHXZ 100dfc40 f   ev.obj
 0002:00052ca0       ?get_hr_beep_enabled_x@dataSource@@QAEHXZ 100dfca0 f i ev.obj
 0002:00052d10       ?get_if_x@EV@@QAEMXZ       100dfd10 f   ev.obj
 0002:00052d80       ?get_keys@EV@@QAEHXZ       100dfd80 f   ev.obj
 0002:00052df0       ?get_kgs@Bike@@QAENXZ      100dfdf0 f i ev.obj
 0002:00052e30       ?get_lower_hr_x@EV@@QAEHXZ 100dfe30 f   ev.obj
 0002:00052e90       ?get_lower_hr_x@dataSource@@QAEHXZ 100dfe90 f i ev.obj
 0002:00052f30       ?get_paused@Decoder@@QAE_NXZ 100dff30 f i ev.obj
 0002:00052f70       ?get_pp_x@EV@@QAEMXZ       100dff70 f   ev.obj
 0002:00052fc0       ?get_started@Decoder@@QAE_NXZ 100dffc0 f i ev.obj
 0002:00053000       ?get_status_bits_x@EV@@QAEHXZ 100e0000 f   ev.obj
 0002:00053070       ?get_tss_x@EV@@QAEMXZ      100e0070 f   ev.obj
 0002:000530e0       ?get_upper_hr_x@EV@@QAEHXZ 100e00e0 f   ev.obj
 0002:00053140       ?get_upper_hr_x@dataSource@@QAEHXZ 100e0140 f i ev.obj
 0002:000531e0       ?get_x_bars2@SS@@QAEPAMXZ  100e01e0 f i ev.obj
 0002:00053220       ?get_x_np@EV@@QAEMXZ       100e0220 f   ev.obj
 0002:00053290       ?is_finished_x@dataSource@@QAE_NXZ 100e0290 f i ev.obj
 0002:000532f0       ?is_initialized@dataSource@@QAE_NXZ 100e02f0 f i ev.obj
 0002:00053330       ?is_paused_x@dataSource@@QAE_NXZ 100e0330 f i ev.obj
 0002:00053390       ?is_started_x@dataSource@@QAE_NXZ 100e0390 f i ev.obj
 0002:000533f0       ?keydownfunc@EV@@SAXPAXHH@Z 100e03f0 f   ev.obj
 0002:000535e0       ?keyupfunc@EV@@SAXPAXHH@Z  100e05e0 f   ev.obj
 0002:000537d0       ?max_size@?$_Wrap_alloc@V?$allocator@N@std@@@std@@QBEIU_Nil@2@@Z 100e07d0 f i ev.obj
 0002:00053830       ?max_size@?$allocator@N@std@@QBEIXZ 100e0830 f i ev.obj
 0002:00053870       ?max_size@?$allocator_traits@V?$allocator@N@std@@@std@@SAIABV?$allocator@N@2@@Z 100e0870 f i ev.obj
 0002:000538c0       ?max_size@?$deque@NV?$allocator@N@std@@@std@@QBEIXZ 100e08c0 f i ev.obj
 0002:00053930       ?myread@EV@@QAEPAUTrainerData@RACERMATE@@XZ 100e0930 f   ev.obj
 0002:00053d10       ?pop_back@?$deque@NV?$allocator@N@std@@@std@@QAEXXZ 100e0d10 f i ev.obj
 0002:00053e70       ?pop_front@?$deque@NV?$allocator@N@std@@@std@@QAEXXZ 100e0e70 f i ev.obj
 0002:00053ff0       ?push_back@?$deque@NV?$allocator@N@std@@@std@@QAEXABN@Z 100e0ff0 f i ev.obj
 0002:000541d0       ?push_front@?$deque@NV?$allocator@N@std@@@std@@QAEXABN@Z 100e11d0 f i ev.obj
 0002:000543e0       ?read_ss@EV@@QAEPAUSSDATA@@XZ 100e13e0 f   ev.obj
 0002:000544d0       ?reset@EV@@QAEHXZ          100e14d0 f   ev.obj
 0002:00054580       ?reset_averages@EV@@QAEHXZ 100e1580 f   ev.obj
 0002:00054600       ?select_on_container_copy_construction@?$_Wrap_alloc@V?$allocator@N@std@@@std@@QBE?AU12@U_Nil@2@@Z 100e1600 f i ev.obj
 0002:00054670       ?select_on_container_copy_construction@?$allocator_traits@V?$allocator@N@std@@@std@@SA?AV?$allocator@N@2@ABV32@@Z 100e1670 f i ev.obj
 0002:000546d0       ?send_current@EV@@QAEHG@Z  100e16d0 f   ev.obj
 0002:00054740       ?serverthreadproc@EV@@CAXPAX@Z 100e1740 f   ev.obj
 0002:000549b0       ?setFinished@dataSource@@QAEXXZ 100e19b0 f i ev.obj
 0002:00054a10       ?set_calibrating_x@EV@@QAEX_N@Z 100e1a10 f   ev.obj
 0002:00054aa0       ?set_circumference_x@EV@@QAEXM@Z 100e1aa0 f   ev.obj
 0002:00054ae0       ?set_constant_force_x@EV@@QAEHM@Z 100e1ae0 f   ev.obj
 0002:00054b60       ?set_draft_wind_x@EV@@QAEHM@Z 100e1b60 f   ev.obj
 0002:00054c10       ?set_export@EV@@QAEXPBDH@Z 100e1c10 f   ev.obj
 0002:00054cb0       ?set_finished@Decoder@@QAEX_N@Z 100e1cb0 f i ev.obj
 0002:00054d00       ?set_finished@EV@@QAEX_N@Z 100e1d00 f   ev.obj
 0002:00054d60       ?set_ftp_x@EV@@QAEHM@Z     100e1d60 f   ev.obj
 0002:00054df0       ?set_gear@EV@@QAEHHH@Z     100e1df0 f   ev.obj
 0002:00054e60       ?set_hr_bounds_x@EV@@QAEHHH_N@Z 100e1e60 f   ev.obj
 0002:00054f10       ?set_id@Decoder@@QAEXH@Z   100e1f10 f i ev.obj
 0002:00054f60       ?set_kgs@Bike@@QAEXM@Z     100e1f60 f i ev.obj
 0002:00054fb0       ?set_logging_x@EV@@QAEXW4LoggingType@@@Z 100e1fb0 f   ev.obj
 0002:00055010       ?set_paused@EV@@QAEH_N@Z   100e2010 f   ev.obj
 0002:000550d0       ?set_performance_file_name_x@EV@@QAEXPBD@Z 100e20d0 f   ev.obj
 0002:00055150       ?set_slope@EV@@QAEHMMHM@Z  100e2150 f   ev.obj
 0002:00055410       ?set_version@Decoder@@QAEXG@Z 100e2410 f i ev.obj
 0002:00055460       ?set_watts@EV@@QAEHM@Z     100e2460 f   ev.obj
 0002:000554f0       ?set_wind_x@EV@@QAEHM@Z    100e24f0 f   ev.obj
 0002:00055590       ?start@EV@@QAEX_N@Z        100e2590 f   ev.obj
 0002:00055640       ?startCal_x@EV@@QAEHXZ     100e2640 f   ev.obj
 0002:000556c0       ?start_cal@EV@@QAEHXZ      100e26c0 f   ev.obj
 0002:00055740       ?start_collection_thread@EV@@AAEHXZ 100e2740 f   ev.obj
 0002:00055950       ?stop@EV@@QAEXXZ           100e2950 f   ev.obj
 0002:00055b30       ??$?0U?$integral_constant@_N$00@std@@@_Any_tag@std@@QAE@$$QAU?$integral_constant@_N$00@1@@Z 100e2b30 f i internal.obj
 0002:00055b70       ??$?0V?$allocator@D@std@@@?$_Wrap_alloc@V?$allocator@D@std@@@std@@QAE@$$QAV?$allocator@D@1@@Z 100e2b70 f i internal.obj
 0002:00055be0       ??$_Destroy_range1@V?$allocator@V?$basic_string@DU?$char_traits@D@std@@V?$allocator@D@2@@std@@@std@@PAV?$basic_string@DU?$char_traits@D@std@@V?$allocator@D@2@@2@@std@@YAXPAV?$basic_string@DU?$char_traits@D@std@@V?$allocator@D@2@@0@0AAU?$_Wrap_alloc@V?$allocator@V?$basic_string@DU?$char_traits@D@std@@V?$allocator@D@2@@std@@@std@@@0@U?$integral_constant@_N$0A@@0@@Z 100e2be0 f i internal.obj
 0002:00055c60       ??$_Destroy_range@V?$allocator@V?$basic_string@DU?$char_traits@D@std@@V?$allocator@D@2@@std@@@std@@PAV?$basic_string@DU?$char_traits@D@std@@V?$allocator@D@2@@2@@std@@YAXPAV?$basic_string@DU?$char_traits@D@std@@V?$allocator@D@2@@0@0AAU?$_Wrap_alloc@V?$allocator@V?$basic_string@DU?$char_traits@D@std@@V?$allocator@D@2@@std@@@std@@@0@@Z 100e2c60 f i internal.obj
 0002:00055cd0       ??$_Ptr_move_cat@V?$basic_string@DU?$char_traits@D@std@@V?$allocator@D@2@@std@@V12@@std@@YA?AU_General_ptr_iterator_tag@0@ABQAV?$basic_string@DU?$char_traits@D@std@@V?$allocator@D@2@@0@0@Z 100e2cd0 f i internal.obj
 0002:00055d10       ??$_Rechecked@PAV?$basic_string@DU?$char_traits@D@std@@V?$allocator@D@2@@std@@PAV12@@std@@YAAAPAV?$basic_string@DU?$char_traits@D@std@@V?$allocator@D@2@@0@AAPAV10@PAV10@@Z 100e2d10 f i internal.obj
 0002:00055d50       ??$_Umove@PAV?$basic_string@DU?$char_traits@D@std@@V?$allocator@D@2@@std@@@?$vector@V?$basic_string@DU?$char_traits@D@std@@V?$allocator@D@2@@std@@V?$allocator@V?$basic_string@DU?$char_traits@D@std@@V?$allocator@D@2@@std@@@2@@std@@IAEPAV?$basic_string@DU?$char_traits@D@std@@V?$allocator@D@2@@1@PAV21@00@Z 100e2d50 f i internal.obj
 0002:00055dc0       ??$_Unchecked@PAV?$basic_string@DU?$char_traits@D@std@@V?$allocator@D@2@@std@@@std@@YAPAV?$basic_string@DU?$char_traits@D@std@@V?$allocator@D@2@@0@PAV10@@Z 100e2dc0 f i internal.obj
 0002:00055e00       ??$_Unfancy@V?$basic_string@DU?$char_traits@D@std@@V?$allocator@D@2@@std@@@std@@YAPAV?$basic_string@DU?$char_traits@D@std@@V?$allocator@D@2@@0@PAV10@@Z 100e2e00 f i internal.obj
 0002:00055e40       ??$_Uninitialized_move@PAV?$basic_string@DU?$char_traits@D@std@@V?$allocator@D@2@@std@@PAV12@V?$allocator@V?$basic_string@DU?$char_traits@D@std@@V?$allocator@D@2@@std@@@2@@std@@YAPAV?$basic_string@DU?$char_traits@D@std@@V?$allocator@D@2@@0@PAV10@00AAU?$_Wrap_alloc@V?$allocator@V?$basic_string@DU?$char_traits@D@std@@V?$allocator@D@2@@std@@@std@@@0@@Z 100e2e40 f i internal.obj
 0002:00055ee0       ??$_Uninitialized_move_al_unchecked1@PAV?$basic_string@DU?$char_traits@D@std@@V?$allocator@D@2@@std@@PAV12@V?$allocator@V?$basic_string@DU?$char_traits@D@std@@V?$allocator@D@2@@std@@@2@@std@@YAPAV?$basic_string@DU?$char_traits@D@std@@V?$allocator@D@2@@0@PAV10@00AAU?$_Wrap_alloc@V?$allocator@V?$basic_string@DU?$char_traits@D@std@@V?$allocator@D@2@@std@@@std@@@0@U_General_ptr_iterator_tag@0@U_Any_tag@0@@Z 100e2ee0 f i internal.obj
 0002:00056010       ??$_Uninitialized_move_al_unchecked@PAV?$basic_string@DU?$char_traits@D@std@@V?$allocator@D@2@@std@@PAV12@V?$allocator@V?$basic_string@DU?$char_traits@D@std@@V?$allocator@D@2@@std@@@2@@std@@YAPAV?$basic_string@DU?$char_traits@D@std@@V?$allocator@D@2@@0@PAV10@00AAU?$_Wrap_alloc@V?$allocator@V?$basic_string@DU?$char_traits@D@std@@V?$allocator@D@2@@std@@@std@@@0@@Z 100e3010 f i internal.obj
 0002:000560b0       ??$addressof@V?$basic_string@DU?$char_traits@D@std@@V?$allocator@D@2@@std@@@std@@YAPAV?$basic_string@DU?$char_traits@D@std@@V?$allocator@D@2@@0@AAV10@@Z 100e30b0 f i internal.obj
 0002:000560f0       ??$construct@V?$basic_string@DU?$char_traits@D@std@@V?$allocator@D@2@@std@@V12@@?$_Wrap_alloc@V?$allocator@V?$basic_string@DU?$char_traits@D@std@@V?$allocator@D@2@@std@@@std@@@std@@QAEXPAV?$basic_string@DU?$char_traits@D@std@@V?$allocator@D@2@@1@$$QAV21@@Z 100e30f0 f i internal.obj
 0002:00056160       ??$construct@V?$basic_string@DU?$char_traits@D@std@@V?$allocator@D@2@@std@@V12@@?$allocator@V?$basic_string@DU?$char_traits@D@std@@V?$allocator@D@2@@std@@@std@@QAEXPAV?$basic_string@DU?$char_traits@D@std@@V?$allocator@D@2@@1@$$QAV21@@Z 100e3160 f i internal.obj
 0002:00056200       ??$construct@V?$basic_string@DU?$char_traits@D@std@@V?$allocator@D@2@@std@@V12@@?$allocator_traits@V?$allocator@V?$basic_string@DU?$char_traits@D@std@@V?$allocator@D@2@@std@@@std@@@std@@SAXAAV?$allocator@V?$basic_string@DU?$char_traits@D@std@@V?$allocator@D@2@@std@@@1@PAV?$basic_string@DU?$char_traits@D@std@@V?$allocator@D@2@@1@$$QAV31@@Z 100e3200 f i internal.obj
 0002:00056260       ??$destroy@V?$basic_string@DU?$char_traits@D@std@@V?$allocator@D@2@@std@@@?$_Wrap_alloc@V?$allocator@V?$basic_string@DU?$char_traits@D@std@@V?$allocator@D@2@@std@@@std@@@std@@QAEXPAV?$basic_string@DU?$char_traits@D@std@@V?$allocator@D@2@@1@@Z 100e3260 f i internal.obj
 0002:000562c0       ??$destroy@V?$basic_string@DU?$char_traits@D@std@@V?$allocator@D@2@@std@@@?$allocator@V?$basic_string@DU?$char_traits@D@std@@V?$allocator@D@2@@std@@@std@@QAEXPAV?$basic_string@DU?$char_traits@D@std@@V?$allocator@D@2@@1@@Z 100e32c0 f i internal.obj
 0002:00056320       ??$destroy@V?$basic_string@DU?$char_traits@D@std@@V?$allocator@D@2@@std@@@?$allocator_traits@V?$allocator@V?$basic_string@DU?$char_traits@D@std@@V?$allocator@D@2@@std@@@std@@@std@@SAXAAV?$allocator@V?$basic_string@DU?$char_traits@D@std@@V?$allocator@D@2@@std@@@1@PAV?$basic_string@DU?$char_traits@D@std@@V?$allocator@D@2@@1@@Z 100e3320 f i internal.obj
 0002:00056370       ??$forward@V?$allocator@D@std@@@std@@YA$$QAV?$allocator@D@0@AAV10@@Z 100e3370 f i internal.obj
 0002:000563b0       ??0?$basic_string@DU?$char_traits@D@std@@V?$allocator@D@2@@std@@QAE@ABV01@@Z 100e33b0 f i internal.obj
 0002:000564a0       ??0?$pair@$$CBV?$basic_string@DU?$char_traits@D@std@@V?$allocator@D@2@@std@@VDEVICE@@@std@@QAE@ABU01@@Z 100e34a0 f i internal.obj
 0002:00056560       ??0DEVICE@@QAE@ABV0@@Z     100e3560 f i internal.obj
 0002:00056740       ??4DEVICE@@QAEAAV0@ABV0@@Z 100e3740 f i internal.obj
 0002:00056960       ??9?$_List_const_iterator@V?$_List_val@U?$_List_simple_types@U?$pair@$$CBV?$basic_string@DU?$char_traits@D@std@@V?$allocator@D@2@@std@@VDEVICE@@@std@@@std@@@std@@@std@@QBE_NABV01@@Z 100e3960 f i internal.obj
 0002:000569f0       ??E?$_List_iterator@V?$_List_val@U?$_List_simple_types@U?$pair@$$CBV?$basic_string@DU?$char_traits@D@std@@V?$allocator@D@2@@std@@VDEVICE@@@std@@@std@@@std@@@std@@QAEAAV01@XZ 100e39f0 f i internal.obj
 0002:00056a50       ??_G?$basic_string@DU?$char_traits@D@std@@V?$allocator@D@2@@std@@QAEPAXI@Z 100e3a50 f i internal.obj
 0002:00056be0       ?_Destroy@?$vector@V?$basic_string@DU?$char_traits@D@std@@V?$allocator@D@2@@std@@V?$allocator@V?$basic_string@DU?$char_traits@D@std@@V?$allocator@D@2@@std@@@2@@std@@IAEXPAV?$basic_string@DU?$char_traits@D@std@@V?$allocator@D@2@@2@0@Z 100e3be0 f i internal.obj
 0002:00056c50       ?_Get_first@?$_Compressed_pair@U?$_Wrap_alloc@V?$allocator@V?$basic_string@DU?$char_traits@D@std@@V?$allocator@D@2@@std@@@std@@@std@@V?$_Vector_val@U?$_Simple_types@V?$basic_string@DU?$char_traits@D@std@@V?$allocator@D@2@@std@@@std@@@2@$00@std@@QAEAAU?$_Wrap_alloc@V?$allocator@V?$basic_string@DU?$char_traits@D@std@@V?$allocator@D@2@@std@@@std@@@2@XZ 100e3c50 f i internal.obj
 0002:00056c90       ?_Get_first@?$_Compressed_pair@U?$_Wrap_alloc@V?$allocator@V?$basic_string@DU?$char_traits@D@std@@V?$allocator@D@2@@std@@@std@@@std@@V?$_Vector_val@U?$_Simple_types@V?$basic_string@DU?$char_traits@D@std@@V?$allocator@D@2@@std@@@std@@@2@$00@std@@QBEABU?$_Wrap_alloc@V?$allocator@V?$basic_string@DU?$char_traits@D@std@@V?$allocator@D@2@@std@@@std@@@2@XZ 100e3c90 f i internal.obj
 0002:00056cd0       ?_Getal@?$_Vector_alloc@U?$_Vec_base_types@V?$basic_string@DU?$char_traits@D@std@@V?$allocator@D@2@@std@@V?$allocator@V?$basic_string@DU?$char_traits@D@std@@V?$allocator@D@2@@std@@@2@@std@@@std@@QAEAAU?$_Wrap_alloc@V?$allocator@V?$basic_string@DU?$char_traits@D@std@@V?$allocator@D@2@@std@@@std@@@2@XZ 100e3cd0 f i internal.obj
 0002:00056d20       ?_Getal@?$_Vector_alloc@U?$_Vec_base_types@V?$basic_string@DU?$char_traits@D@std@@V?$allocator@D@2@@std@@V?$allocator@V?$basic_string@DU?$char_traits@D@std@@V?$allocator@D@2@@std@@@2@@std@@@std@@QBEABU?$_Wrap_alloc@V?$allocator@V?$basic_string@DU?$char_traits@D@std@@V?$allocator@D@2@@std@@@std@@@2@XZ 100e3d20 f i internal.obj
 0002:00056d70       ?_Getpfirst@?$_Vector_alloc@U?$_Vec_base_types@V?$basic_string@DU?$char_traits@D@std@@V?$allocator@D@2@@std@@V?$allocator@V?$basic_string@DU?$char_traits@D@std@@V?$allocator@D@2@@std@@@2@@std@@@std@@QBEPAPAU_Iterator_base12@2@XZ 100e3d70 f i internal.obj
 0002:00056dd0       ?_Grow_to@?$vector@V?$basic_string@DU?$char_traits@D@std@@V?$allocator@D@2@@std@@V?$allocator@V?$basic_string@DU?$char_traits@D@std@@V?$allocator@D@2@@std@@@2@@std@@IBEII@Z 100e3dd0 f i internal.obj
 0002:00056e80       ?_Inside@?$vector@V?$basic_string@DU?$char_traits@D@std@@V?$allocator@D@2@@std@@V?$allocator@V?$basic_string@DU?$char_traits@D@std@@V?$allocator@D@2@@std@@@2@@std@@IBE_NPBV?$basic_string@DU?$char_traits@D@std@@V?$allocator@D@2@@2@@Z 100e3e80 f i internal.obj
 0002:00056f30       ?_Myend@?$_Vector_alloc@U?$_Vec_base_types@V?$basic_string@DU?$char_traits@D@std@@V?$allocator@D@2@@std@@V?$allocator@V?$basic_string@DU?$char_traits@D@std@@V?$allocator@D@2@@std@@@2@@std@@@std@@QAEAAPAV?$basic_string@DU?$char_traits@D@std@@V?$allocator@D@2@@2@XZ 100e3f30 f i internal.obj
 0002:00056f90       ?_Myend@?$_Vector_alloc@U?$_Vec_base_types@V?$basic_string@DU?$char_traits@D@std@@V?$allocator@D@2@@std@@V?$allocator@V?$basic_string@DU?$char_traits@D@std@@V?$allocator@D@2@@std@@@2@@std@@@std@@QBEABQAV?$basic_string@DU?$char_traits@D@std@@V?$allocator@D@2@@2@XZ 100e3f90 f i internal.obj
 0002:00056ff0       ?_Mylast@?$_Vector_alloc@U?$_Vec_base_types@V?$basic_string@DU?$char_traits@D@std@@V?$allocator@D@2@@std@@V?$allocator@V?$basic_string@DU?$char_traits@D@std@@V?$allocator@D@2@@std@@@2@@std@@@std@@QAEAAPAV?$basic_string@DU?$char_traits@D@std@@V?$allocator@D@2@@2@XZ 100e3ff0 f i internal.obj
 0002:00057050       ?_Orphan_all@?$_Vector_alloc@U?$_Vec_base_types@V?$basic_string@DU?$char_traits@D@std@@V?$allocator@D@2@@std@@V?$allocator@V?$basic_string@DU?$char_traits@D@std@@V?$allocator@D@2@@std@@@2@@std@@@std@@QAEXXZ 100e4050 f i internal.obj
 0002:000570b0       ?_Orphan_range@?$vector@V?$basic_string@DU?$char_traits@D@std@@V?$allocator@D@2@@std@@V?$allocator@V?$basic_string@DU?$char_traits@D@std@@V?$allocator@D@2@@std@@@2@@std@@IBEXPAV?$basic_string@DU?$char_traits@D@std@@V?$allocator@D@2@@2@0@Z 100e40b0 f i internal.obj
 0002:00057220       ?_Reallocate@?$vector@V?$basic_string@DU?$char_traits@D@std@@V?$allocator@D@2@@std@@V?$allocator@V?$basic_string@DU?$char_traits@D@std@@V?$allocator@D@2@@std@@@2@@std@@IAEXI@Z 100e4220 f i internal.obj
 0002:00057410       ?_Reserve@?$vector@V?$basic_string@DU?$char_traits@D@std@@V?$allocator@D@2@@std@@V?$allocator@V?$basic_string@DU?$char_traits@D@std@@V?$allocator@D@2@@std@@@2@@std@@IAEXI@Z 100e4410 f i internal.obj
 0002:000574c0       ?_Unused_capacity@?$vector@V?$basic_string@DU?$char_traits@D@std@@V?$allocator@D@2@@std@@V?$allocator@V?$basic_string@DU?$char_traits@D@std@@V?$allocator@D@2@@std@@@2@@std@@QBEIXZ 100e44c0 f i internal.obj
 0002:00057530       ?_Xlen@?$vector@V?$basic_string@DU?$char_traits@D@std@@V?$allocator@D@2@@std@@V?$allocator@V?$basic_string@DU?$char_traits@D@std@@V?$allocator@D@2@@std@@@2@@std@@IBEXXZ 100e4530 f i internal.obj
 0002:00057590       ?allocate@?$_Wrap_alloc@V?$allocator@V?$basic_string@DU?$char_traits@D@std@@V?$allocator@D@2@@std@@@std@@@std@@QAEPAV?$basic_string@DU?$char_traits@D@std@@V?$allocator@D@2@@2@I@Z 100e4590 f i internal.obj
 0002:000575f0       ?allocate@?$allocator@V?$basic_string@DU?$char_traits@D@std@@V?$allocator@D@2@@std@@@std@@QAEPAV?$basic_string@DU?$char_traits@D@std@@V?$allocator@D@2@@2@I@Z 100e45f0 f i internal.obj
 0002:00057650       ?ant_timer_proc@@YGXIIKKK@Z 100e4650 f   internal.obj
 0002:00057b40       ?begin@?$_Hash@V?$_Umap_traits@V?$basic_string@DU?$char_traits@D@std@@V?$allocator@D@2@@std@@VDEVICE@@V?$_Uhash_compare@V?$basic_string@DU?$char_traits@D@std@@V?$allocator@D@2@@std@@U?$hash@V?$basic_string@DU?$char_traits@D@std@@V?$allocator@D@2@@std@@@2@U?$equal_to@V?$basic_string@DU?$char_traits@D@std@@V?$allocator@D@2@@std@@@2@@2@V?$allocator@U?$pair@$$CBV?$basic_string@DU?$char_traits@D@std@@V?$allocator@D@2@@std@@VDEVICE@@@std@@@2@$0A@@std@@@std@@QAE?AV?$_List_iterator@V?$_List_val@U?$_List_simple_types@U?$pair@$$CBV?$basic_string@DU?$char_traits@D@std@@V?$allocator@D@2@@std@@VDEVICE@@@std@@@std@@@std@@@2@XZ 100e4b40 f i internal.obj
 0002:00057ba0       ?capacity@?$vector@V?$basic_string@DU?$char_traits@D@std@@V?$allocator@D@2@@std@@V?$allocator@V?$basic_string@DU?$char_traits@D@std@@V?$allocator@D@2@@std@@@2@@std@@QBEIXZ 100e4ba0 f i internal.obj
 0002:00057c10       ?check_dirs@@YAXPBD@Z      100e4c10 f   internal.obj
 0002:00057d20       ?check_for_trainers@@YA?AW4EnumDeviceType@@PBD@Z 100e4d20 f   internal.obj
 0002:00057fe0       ?check_for_windows_rs232_computrainer@@YA?AW4EnumDeviceType@@PBD@Z 100e4fe0 f   internal.obj
 0002:00058a40       ?check_for_windows_rs232_velotron@@YA?AW4EnumDeviceType@@PBD@Z 100e5a40 f   internal.obj
 0002:00059390       ?check_for_windows_server_computrainer@@YA?AW4EnumDeviceType@@PBD@Z 100e6390 f   internal.obj
 0002:00059570       ?check_maps@@YAHPBD@Z      100e6570 f   internal.obj
 0002:000597c0       ?deallocate@?$_Wrap_alloc@V?$allocator@V?$basic_string@DU?$char_traits@D@std@@V?$allocator@D@2@@std@@@std@@@std@@QAEXPAV?$basic_string@DU?$char_traits@D@std@@V?$allocator@D@2@@2@I@Z 100e67c0 f i internal.obj
 0002:00059820       ?deallocate@?$allocator@V?$basic_string@DU?$char_traits@D@std@@V?$allocator@D@2@@std@@@std@@QAEXPAV?$basic_string@DU?$char_traits@D@std@@V?$allocator@D@2@@2@I@Z 100e6820 f i internal.obj
 0002:00059880       ?dump_devices@@YAXXZ       100e6880 f   internal.obj
 0002:000598b0       ?empty@?$vector@V?$basic_string@DU?$char_traits@D@std@@V?$allocator@D@2@@std@@V?$allocator@V?$basic_string@DU?$char_traits@D@std@@V?$allocator@D@2@@std@@@2@@std@@QBE_NXZ 100e68b0 f i internal.obj
 0002:00059940       ?endCal@@YAHPBDH@Z         100e6940 f   internal.obj
 0002:00059b60       ?export_flag_file@@YA_NXZ  100e6b60 f   internal.obj
 0002:00059bf0       ?flush@@YAXPAVLogger@@PAVClient@@KH@Z 100e6bf0 f   internal.obj
 0002:00059c40       ?flush@@YAXPBDPAVLogger@@PAVCtsrv@RACERMATE@@KH@Z 100e6c40 f   internal.obj
 0002:00059c70       ?getBuf@NVRAM@@QAEPATU@1@XZ 100e6c70 f i internal.obj
 0002:00059cb0       ?get_cal_time@@YAHPBDH@Z   100e6cb0 f   internal.obj
 0002:00059e90       ?get_calibration@@YAHPBD@Z 100e6e90 f   internal.obj
 0002:0005a0a0       ?get_computrainer_cal@@YAPBDPBD@Z 100e70a0 f   internal.obj
 0002:0005a6d0       ?get_computrainer_cal_from_thread@@YAPBDPBDH@Z 100e76d0 f   internal.obj
 0002:0005a8b0       ?get_computrainer_firmware@@YAPBDPBD@Z 100e78b0 f   internal.obj
 0002:0005ae80       ?get_computrainer_nv@@YAHPAVDEVICE@@@Z 100e7e80 f   internal.obj
 0002:0005b5d0       ?get_errstr2@@YAPBDH@Z     100e85d0 f   internal.obj
 0002:0005b6d0       ?get_hr_beep_enabled@@YAHPBD@Z 100e86d0 f   internal.obj
 0002:0005b9a0       ?get_lower_hr@@YAHPBD@Z    100e89a0 f   internal.obj
 0002:0005bce0       ?get_upper_hr@@YAHPBD@Z    100e8ce0 f   internal.obj
 0002:0005c020       ?get_velotron_cal@@YAPBDPBD@Z 100e9020 f   internal.obj
 0002:0005c2d0       ?get_velotron_cal_from_thread@@YAPBDPBDH@Z 100e92d0 f   internal.obj
 0002:0005c450       ?get_velotron_firmware@@YAPBDPBD@Z 100e9450 f   internal.obj
 0002:0005c740       ?get_version@Decoder@@QAEGXZ 100e9740 f i internal.obj
 0002:0005c780       ?get_what@@YA?AW4EnumDeviceType@@PBD@Z 100e9780 f   internal.obj
 0002:0005c860       ?haveDevice@@YA_NW4EnumDeviceType@@PBD@Z 100e9860 f   internal.obj
 0002:0005d0c0       ?init_dll@@YAHXZ           100ea0c0 f   internal.obj
 0002:0005d160       ?init_udp_device@@YAXPBD@Z 100ea160 f   internal.obj
 0002:0005d5e0       ?isVelotron@@YA_NPAVSerial@@K@Z 100ea5e0 f   internal.obj
 0002:0005d7c0       ?iscal@@YA_NW4EnumDeviceType@@PBD@Z 100ea7c0 f   internal.obj
 0002:0005d8f0       ?max_size@?$_Wrap_alloc@V?$allocator@V?$basic_string@DU?$char_traits@D@std@@V?$allocator@D@2@@std@@@std@@@std@@QBEIU_Nil@2@@Z 100ea8f0 f i internal.obj
 0002:0005d950       ?max_size@?$allocator@V?$basic_string@DU?$char_traits@D@std@@V?$allocator@D@2@@std@@@std@@QBEIXZ 100ea950 f i internal.obj
 0002:0005d990       ?max_size@?$allocator_traits@V?$allocator@V?$basic_string@DU?$char_traits@D@std@@V?$allocator@D@2@@std@@@std@@@std@@SAIABV?$allocator@V?$basic_string@DU?$char_traits@D@std@@V?$allocator@D@2@@std@@@2@@Z 100ea990 f i internal.obj
 0002:0005d9e0       ?max_size@?$vector@V?$basic_string@DU?$char_traits@D@std@@V?$allocator@D@2@@std@@V?$allocator@V?$basic_string@DU?$char_traits@D@std@@V?$allocator@D@2@@std@@@2@@std@@QBEIXZ 100ea9e0 f i internal.obj
 0002:0005da50       ?pop_back@?$vector@V?$basic_string@DU?$char_traits@D@std@@V?$allocator@D@2@@std@@V?$allocator@V?$basic_string@DU?$char_traits@D@std@@V?$allocator@D@2@@std@@@2@@std@@QAEXXZ 100eaa50 f i internal.obj
 0002:0005db60       ?push_back@?$vector@V?$basic_string@DU?$char_traits@D@std@@V?$allocator@D@2@@std@@V?$allocator@V?$basic_string@DU?$char_traits@D@std@@V?$allocator@D@2@@std@@@2@@std@@QAEX$$QAV?$basic_string@DU?$char_traits@D@std@@V?$allocator@D@2@@2@@Z 100eab60 f i internal.obj
 0002:0005dd90       ?read_computrainer@@YAHPBDPAVClient@@@Z 100ead90 f   internal.obj
 0002:0005e4e0       ?read_computrainer@@YAHPBDPAVSerial@@@Z 100eb4e0 f   internal.obj
 0002:0005ec50       ?read_server_computrainer@@YAHPBD@Z 100ebc50 f   internal.obj
 0002:0005ee30       ?read_velotron@@YAHPAVSerial@@@Z 100ebe30 f   internal.obj
 0002:0005f190       ?scan_for_ant_devices@@YAHXZ 100ec190 f   internal.obj
 0002:0005f1f0       ?select_on_container_copy_construction@?$_Wrap_alloc@V?$allocator@D@std@@@std@@QBE?AU12@U_Nil@2@@Z 100ec1f0 f i internal.obj
 0002:0005f260       ?select_on_container_copy_construction@?$allocator_traits@V?$allocator@D@std@@@std@@SA?AV?$allocator@D@2@ABV32@@Z 100ec260 f i internal.obj
 0002:0005f2c0       ?setShutDownDelay@Serial@@QAEXK@Z 100ec2c0 f i internal.obj
 0002:0005f310       ?set_calibrating@@YAHPBDH@Z 100ec310 f   internal.obj
 0002:0005f480       ?setup_standard_dirs@@YAXPBD@Z 100ec480 f   internal.obj
 0002:0005fc90       ?startCal@@YAHPBDH@Z       100ecc90 f   internal.obj
 0002:0005feb0       ?stop_dll@@YAHXZ           100eceb0 f   internal.obj
 0002:0005ff30       ?sync@@YA?AW4ADJCODE@@PBD0@Z 100ecf30 f   internal.obj
 0002:00060310       ?velotron_exists@@YA_NPBD@Z 100ed310 f   internal.obj
 0002:0006072a       _timeSetEvent@20           100ed72a f   winmm:WINMM.dll
 0002:00060730       _timeKillEvent@4           100ed730 f   winmm:WINMM.dll
 0002:00060736       _timeGetTime@0             100ed736 f   winmm:WINMM.dll
 0002:0006073c       ??0QString@@QAE@PBD@Z      100ed73c f   qt5core:Qt5Core.dll
 0002:00060742       ?tr@QMetaObject@@QBE?AVQString@@PBD0H@Z 100ed742 f   qt5core:Qt5Core.dll
 0002:00060750       ??0qtFormula@@QAE@M@Z      100ed750 f   rmg:qtformula.obj
 0002:000608f0       ??1qtFormula@@UAE@XZ       100ed8f0 f   rmg:qtformula.obj
 0002:00060970       ?reset@qtFormula@@QAEXXZ   100ed970 f   rmg:qtformula.obj
 0002:00060a30       ?calc@qtFormula@@QAEXM@Z   100eda30 f   rmg:qtformula.obj
 0002:00060ed0       ??$?0$$V@?$_Compressed_pair@U?$_Wrap_alloc@V?$allocator@UFORMULA2_PAIR@@@std@@@std@@V?$_Deque_val@U?$_Deque_simple_types@UFORMULA2_PAIR@@@std@@@2@$00@std@@QAE@U_Zero_then_variadic_args_t@1@@Z 100eded0 f i rmg:qtformula.obj
 0002:00060f00       ??$qMax@H@@YAABHABH0@Z     100edf00 f i rmg:qtformula.obj
 0002:00060f40       ??0?$_Deque_alloc@U?$_Deque_base_types@UFORMULA2_PAIR@@V?$allocator@UFORMULA2_PAIR@@@std@@@std@@@std@@QAE@XZ 100edf40 f i rmg:qtformula.obj
 0002:00060fc0       ??0?$_Wrap_alloc@V?$allocator@UFORMULA2_PAIR@@@std@@@std@@QAE@XZ 100edfc0 f i rmg:qtformula.obj
 0002:00060fe0       ??0?$allocator@UFORMULA2_PAIR@@@std@@QAE@XZ 100edfe0 f i rmg:qtformula.obj
 0002:00061000       ??0?$deque@UFORMULA2_PAIR@@V?$allocator@UFORMULA2_PAIR@@@std@@@std@@QAE@XZ 100ee000 f i rmg:qtformula.obj
 0002:00061020       ??1?$deque@UFORMULA2_PAIR@@V?$allocator@UFORMULA2_PAIR@@@std@@@std@@QAE@XZ 100ee020 f i rmg:qtformula.obj
 0002:00061080       ??A?$deque@UFORMULA2_PAIR@@V?$allocator@UFORMULA2_PAIR@@@std@@@std@@QAEAAUFORMULA2_PAIR@@I@Z 100ee080 f i rmg:qtformula.obj
 0002:00061180       ??D?$_Deque_iterator@V?$_Deque_val@U?$_Deque_simple_types@UFORMULA2_PAIR@@@std@@@std@@@std@@QBEAAUFORMULA2_PAIR@@XZ 100ee180 f i rmg:qtformula.obj
 0002:000611a0       ??_GTmr@RACERMATE@@QAEPAXI@Z 100ee1a0 f i rmg:qtformula.obj
 0002:00061210       ?pow@@YAMMH@Z              100ee210 f i rmg:qtformula.obj
 0002:00061260       ?size@?$deque@UFORMULA2_PAIR@@V?$allocator@UFORMULA2_PAIR@@@std@@@std@@QBEIXZ 100ee260 f i rmg:qtformula.obj
 0002:00061280       _powf                      100ee280 f i rmg:qtformula.obj
 0002:000612c0       ??$?0$$V@?$_Compressed_pair@U?$_Wrap_alloc@V?$allocator@V?$basic_string@DU?$char_traits@D@std@@V?$allocator@D@2@@std@@@std@@@std@@V?$_Vector_val@U?$_Simple_types@V?$basic_string@DU?$char_traits@D@std@@V?$allocator@D@2@@std@@@std@@@2@$00@std@@QAE@U_Zero_then_variadic_args_t@1@@Z 100ee2c0 f i rmg:comglobs.obj
 0002:000612f0       ??$?0AAU?$_Wrap_alloc@V?$allocator@V?$basic_string@DU?$char_traits@D@std@@V?$allocator@D@2@@std@@@std@@@std@@@?$_Wrap_alloc@V?$allocator@U_Container_proxy@std@@@std@@@std@@QAE@AAU?$_Wrap_alloc@V?$allocator@V?$basic_string@DU?$char_traits@D@std@@V?$allocator@D@2@@std@@@std@@@1@@Z 100ee2f0 f i rmg:comglobs.obj
 0002:00061320       ??$?0V?$basic_string@DU?$char_traits@D@std@@V?$allocator@D@2@@std@@@?$allocator@U_Container_proxy@std@@@std@@QAE@ABV?$allocator@V?$basic_string@DU?$char_traits@D@std@@V?$allocator@D@2@@std@@@1@@Z 100ee320 f i rmg:comglobs.obj
 0002:00061340       ??$forward@AAU?$_Wrap_alloc@V?$allocator@V?$basic_string@DU?$char_traits@D@std@@V?$allocator@D@2@@std@@@std@@@std@@@std@@YAAAU?$_Wrap_alloc@V?$allocator@V?$basic_string@DU?$char_traits@D@std@@V?$allocator@D@2@@std@@@std@@@0@AAU10@@Z 100ee340 f i rmg:comglobs.obj
 0002:00061350       ??0?$_Vector_alloc@U?$_Vec_base_types@V?$basic_string@DU?$char_traits@D@std@@V?$allocator@D@2@@std@@V?$allocator@V?$basic_string@DU?$char_traits@D@std@@V?$allocator@D@2@@std@@@2@@std@@@std@@QAE@XZ 100ee350 f i rmg:comglobs.obj
 0002:000613d0       ??0?$_Vector_val@U?$_Simple_types@V?$basic_string@DU?$char_traits@D@std@@V?$allocator@D@2@@std@@@std@@@std@@QAE@XZ 100ee3d0 f i rmg:comglobs.obj
 0002:00061420       ??0?$_Wrap_alloc@V?$allocator@V?$basic_string@DU?$char_traits@D@std@@V?$allocator@D@2@@std@@@std@@@std@@QAE@XZ 100ee420 f i rmg:comglobs.obj
 0002:00061440       ??0?$allocator@V?$basic_string@DU?$char_traits@D@std@@V?$allocator@D@2@@std@@@std@@QAE@XZ 100ee440 f i rmg:comglobs.obj
 0002:00061460       ??0?$vector@V?$basic_string@DU?$char_traits@D@std@@V?$allocator@D@2@@std@@V?$allocator@V?$basic_string@DU?$char_traits@D@std@@V?$allocator@D@2@@std@@@2@@std@@QAE@XZ 100ee460 f i rmg:comglobs.obj
 0002:000614b0       ??1?$_Compressed_pair@U?$_Wrap_alloc@V?$allocator@V?$basic_string@DU?$char_traits@D@std@@V?$allocator@D@2@@std@@@std@@@std@@V?$_Vector_val@U?$_Simple_types@V?$basic_string@DU?$char_traits@D@std@@V?$allocator@D@2@@std@@@std@@@2@$00@std@@QAE@XZ 100ee4b0 f i rmg:comglobs.obj
 0002:000614d0       ??1?$_Vector_alloc@U?$_Vec_base_types@V?$basic_string@DU?$char_traits@D@std@@V?$allocator@D@2@@std@@V?$allocator@V?$basic_string@DU?$char_traits@D@std@@V?$allocator@D@2@@std@@@2@@std@@@std@@QAE@XZ 100ee4d0 f i rmg:comglobs.obj
 0002:00061530       ??1?$_Vector_val@U?$_Simple_types@V?$basic_string@DU?$char_traits@D@std@@V?$allocator@D@2@@std@@@std@@@std@@QAE@XZ 100ee530 f i rmg:comglobs.obj
 0002:00061550       ??1?$vector@V?$basic_string@DU?$char_traits@D@std@@V?$allocator@D@2@@std@@V?$allocator@V?$basic_string@DU?$char_traits@D@std@@V?$allocator@D@2@@std@@@2@@std@@QAE@XZ 100ee550 f i rmg:comglobs.obj
 0002:000615b0       ?_Alloc_proxy@?$_Vector_alloc@U?$_Vec_base_types@V?$basic_string@DU?$char_traits@D@std@@V?$allocator@D@2@@std@@V?$allocator@V?$basic_string@DU?$char_traits@D@std@@V?$allocator@D@2@@std@@@2@@std@@@std@@QAEXXZ 100ee5b0 f i rmg:comglobs.obj
 0002:00061640       ?_Free_proxy@?$_Vector_alloc@U?$_Vec_base_types@V?$basic_string@DU?$char_traits@D@std@@V?$allocator@D@2@@std@@V?$allocator@V?$basic_string@DU?$char_traits@D@std@@V?$allocator@D@2@@std@@@2@@std@@@std@@QAEXXZ 100ee640 f i rmg:comglobs.obj
 0002:000616c0       ?_Myproxy@?$_Vector_alloc@U?$_Vec_base_types@V?$basic_string@DU?$char_traits@D@std@@V?$allocator@D@2@@std@@V?$allocator@V?$basic_string@DU?$char_traits@D@std@@V?$allocator@D@2@@std@@@2@@std@@@std@@QAEAAPAU_Container_proxy@2@XZ 100ee6c0 f i rmg:comglobs.obj
 0002:000616e0       ?_Tidy@?$vector@V?$basic_string@DU?$char_traits@D@std@@V?$allocator@D@2@@std@@V?$allocator@V?$basic_string@DU?$char_traits@D@std@@V?$allocator@D@2@@std@@@2@@std@@IAEXXZ 100ee6e0 f i rmg:comglobs.obj
 0002:000617c0       ??0CRF@@QAE@_N@Z           100ee7c0 f   rmg:crf.obj
 0002:000617f0       ??1CRF@@UAE@XZ             100ee7f0 f   rmg:crf.obj
 0002:00061810       ?init@CRF@@QAEXPAE0@Z      100ee810 f   rmg:crf.obj
 0002:00061a40       ?init@CRF@@QAEXXZ          100eea40 f   rmg:crf.obj
 0002:00061df0       ?generate_seedstr@CRF@@QAEXXZ 100eedf0 f   rmg:crf.obj
 0002:00061e00       ?doo@CRF@@QAEXPAEH@Z       100eee00 f   rmg:crf.obj
 0002:00061f40       ?unwind@CRF@@QAEXH@Z       100eef40 f   rmg:crf.obj
 0002:00062000       ?do_file@CRF@@QAE_NPAD0@Z  100ef000 f   rmg:crf.obj
 0002:000620d0       ?initialized@CRF@@QAE_NXZ  100ef0d0 f   rmg:crf.obj
 0002:00062100       ?save_encrypt_state@CRF@@QAEXXZ 100ef100 f   rmg:crf.obj
 0002:00062120       ?restore_encrypt_state@CRF@@QAEXXZ 100ef120 f   rmg:crf.obj
 0002:00062160       ?geti@CRF@@QAEHXZ          100ef160 f   rmg:crf.obj
 0002:00062180       ?getj@CRF@@QAEHXZ          100ef180 f   rmg:crf.obj
 0002:000621a0       ?getstate@CRF@@QAEXPAUTCRF@@@Z 100ef1a0 f   rmg:crf.obj
 0002:000621d0       ?setstate@CRF@@QAEXPAUTCRF@@@Z 100ef1d0 f   rmg:crf.obj
 0002:00062490       ??$?0$$V@?$_Compressed_pair@U?$_Wrap_alloc@V?$allocator@UTCRF@@@std@@@std@@V?$_Deque_val@U?$_Deque_simple_types@UTCRF@@@std@@@2@$00@std@@QAE@U_Zero_then_variadic_args_t@1@@Z 100ef490 f i rmg:crf.obj
 0002:000624c0       ??$?0AAU?$_Wrap_alloc@V?$allocator@UTCRF@@@std@@@std@@@?$_Wrap_alloc@V?$allocator@PAUTCRF@@@std@@@std@@QAE@AAU?$_Wrap_alloc@V?$allocator@UTCRF@@@std@@@1@@Z 100ef4c0 f i rmg:crf.obj
 0002:000624f0       ??$?0AAU?$_Wrap_alloc@V?$allocator@UTCRF@@@std@@@std@@@?$_Wrap_alloc@V?$allocator@U_Container_proxy@std@@@std@@@std@@QAE@AAU?$_Wrap_alloc@V?$allocator@UTCRF@@@std@@@1@@Z 100ef4f0 f i rmg:crf.obj
 0002:00062520       ??$?0UTCRF@@@?$allocator@PAUTCRF@@@std@@QAE@ABV?$allocator@UTCRF@@@1@@Z 100ef520 f i rmg:crf.obj
 0002:00062540       ??$?0UTCRF@@@?$allocator@U_Container_proxy@std@@@std@@QAE@ABV?$allocator@UTCRF@@@1@@Z 100ef540 f i rmg:crf.obj
 0002:00062560       ??$_Copy_memmove@PAPAUTCRF@@PAPAU1@@std@@YAPAPAUTCRF@@PAPAU1@00@Z 100ef560 f i rmg:crf.obj
 0002:000625b0       ??$_Destroy_range1@V?$allocator@PAUTCRF@@@std@@PAPAUTCRF@@@std@@YAXPAPAUTCRF@@0AAU?$_Wrap_alloc@V?$allocator@PAUTCRF@@@std@@@0@U?$integral_constant@_N$00@0@@Z 100ef5b0 f i rmg:crf.obj
 0002:000625c0       ??$_Destroy_range@V?$allocator@PAUTCRF@@@std@@PAPAUTCRF@@@std@@YAXPAPAUTCRF@@0AAU?$_Wrap_alloc@V?$allocator@PAUTCRF@@@std@@@0@@Z 100ef5c0 f i rmg:crf.obj
 0002:000625f0       ??$_Ptr_copy_cat@PAUTCRF@@PAU1@@std@@YA?AU_Really_trivial_ptr_iterator_tag@0@ABQAPAUTCRF@@0@Z 100ef5f0 f i rmg:crf.obj
 0002:00062600       ??$_Rechecked@PAPAUTCRF@@PAPAU1@@std@@YAAAPAPAUTCRF@@AAPAPAU1@PAPAU1@@Z 100ef600 f i rmg:crf.obj
 0002:00062620       ??$_Unchecked@PAPAUTCRF@@@std@@YAPAPAUTCRF@@PAPAU1@@Z 100ef620 f i rmg:crf.obj
 0002:00062630       ??$_Unfancy@UTCRF@@@std@@YAPAUTCRF@@PAU1@@Z 100ef630 f i rmg:crf.obj
 0002:00062640       ??$_Uninitialized_copy@PAPAUTCRF@@PAPAU1@V?$allocator@PAUTCRF@@@std@@@std@@YAPAPAUTCRF@@PAPAU1@00AAU?$_Wrap_alloc@V?$allocator@PAUTCRF@@@std@@@0@@Z 100ef640 f i rmg:crf.obj
 0002:000626a0       ??$_Uninitialized_copy_al_unchecked1@PAUTCRF@@PAU1@V?$allocator@PAUTCRF@@@std@@@std@@YAPAPAUTCRF@@PAPAU1@00AAU?$_Wrap_alloc@V?$allocator@PAUTCRF@@@std@@@0@U_Really_trivial_ptr_iterator_tag@0@U?$integral_constant@_N$00@0@@Z 100ef6a0 f i rmg:crf.obj
 0002:000626c0       ??$_Uninitialized_copy_al_unchecked@PAPAUTCRF@@PAPAU1@V?$allocator@PAUTCRF@@@std@@@std@@YAPAPAUTCRF@@PAPAU1@00AAU?$_Wrap_alloc@V?$allocator@PAUTCRF@@@std@@@0@@Z 100ef6c0 f i rmg:crf.obj
 0002:00062710       ??$_Uninitialized_default_fill_n1@PAPAUTCRF@@IV?$allocator@PAUTCRF@@@std@@@std@@YAXPAPAUTCRF@@IAAU?$_Wrap_alloc@V?$allocator@PAUTCRF@@@std@@@0@U?$integral_constant@_N$00@0@@Z 100ef710 f i rmg:crf.obj
 0002:00062730       ??$_Uninitialized_default_fill_n@PAPAUTCRF@@IV?$allocator@PAUTCRF@@@std@@@std@@YAXPAPAUTCRF@@IAAU?$_Wrap_alloc@V?$allocator@PAUTCRF@@@std@@@0@@Z 100ef730 f i rmg:crf.obj
 0002:00062760       ??$addressof@PAUTCRF@@@std@@YAPAPAUTCRF@@AAPAU1@@Z 100ef760 f i rmg:crf.obj
 0002:00062770       ??$construct@UTCRF@@ABU1@@?$_Wrap_alloc@V?$allocator@UTCRF@@@std@@@std@@QAEXPAUTCRF@@ABU2@@Z 100ef770 f i rmg:crf.obj
 0002:000627b0       ??$construct@UTCRF@@ABU1@@?$allocator@UTCRF@@@std@@QAEXPAUTCRF@@ABU2@@Z 100ef7b0 f i rmg:crf.obj
 0002:00062820       ??$construct@UTCRF@@ABU1@@?$allocator_traits@V?$allocator@UTCRF@@@std@@@std@@SAXAAV?$allocator@UTCRF@@@1@PAUTCRF@@ABU3@@Z 100ef820 f i rmg:crf.obj
 0002:00062850       ??$destroy@PAUTCRF@@@?$_Wrap_alloc@V?$allocator@UTCRF@@@std@@@std@@QAEXPAPAUTCRF@@@Z 100ef850 f i rmg:crf.obj
 0002:00062880       ??$destroy@PAUTCRF@@@?$allocator@UTCRF@@@std@@QAEXPAPAUTCRF@@@Z 100ef880 f i rmg:crf.obj
 0002:00062890       ??$destroy@PAUTCRF@@@?$allocator_traits@V?$allocator@UTCRF@@@std@@@std@@SAXAAV?$allocator@UTCRF@@@1@PAPAUTCRF@@@Z 100ef890 f i rmg:crf.obj
 0002:000628b0       ??$destroy@UTCRF@@@?$_Wrap_alloc@V?$allocator@UTCRF@@@std@@@std@@QAEXPAUTCRF@@@Z 100ef8b0 f i rmg:crf.obj
 0002:000628e0       ??$destroy@UTCRF@@@?$allocator@UTCRF@@@std@@QAEXPAUTCRF@@@Z 100ef8e0 f i rmg:crf.obj
 0002:000628f0       ??$destroy@UTCRF@@@?$allocator_traits@V?$allocator@UTCRF@@@std@@@std@@SAXAAV?$allocator@UTCRF@@@1@PAUTCRF@@@Z 100ef8f0 f i rmg:crf.obj
 0002:00062910       ??$forward@AAU?$_Wrap_alloc@V?$allocator@UTCRF@@@std@@@std@@@std@@YAAAU?$_Wrap_alloc@V?$allocator@UTCRF@@@std@@@0@AAU10@@Z 100ef910 f i rmg:crf.obj
 0002:00062920       ??$forward@ABUTCRF@@@std@@YAABUTCRF@@ABU1@@Z 100ef920 f i rmg:crf.obj
 0002:00062930       ??0?$_Deque_alloc@U?$_Deque_base_types@UTCRF@@V?$allocator@UTCRF@@@std@@@std@@@std@@QAE@XZ 100ef930 f i rmg:crf.obj
 0002:000629b0       ??0?$_Deque_const_iterator@V?$_Deque_val@U?$_Deque_simple_types@UTCRF@@@std@@@std@@@std@@QAE@ABV01@@Z 100ef9b0 f i rmg:crf.obj
 0002:000629f0       ??0?$_Deque_const_iterator@V?$_Deque_val@U?$_Deque_simple_types@UTCRF@@@std@@@std@@@std@@QAE@IPBU_Container_base12@1@@Z 100ef9f0 f i rmg:crf.obj
 0002:00062a70       ??0?$_Deque_iterator@V?$_Deque_val@U?$_Deque_simple_types@UTCRF@@@std@@@std@@@std@@QAE@ABV01@@Z 100efa70 f i rmg:crf.obj
 0002:00062aa0       ??0?$_Deque_iterator@V?$_Deque_val@U?$_Deque_simple_types@UTCRF@@@std@@@std@@@std@@QAE@IPBU_Container_base12@1@@Z 100efaa0 f i rmg:crf.obj
 0002:00062ad0       ??0?$_Deque_val@U?$_Deque_simple_types@UTCRF@@@std@@@std@@QAE@XZ 100efad0 f i rmg:crf.obj
 0002:00062b20       ??0?$_Wrap_alloc@V?$allocator@UTCRF@@@std@@@std@@QAE@XZ 100efb20 f i rmg:crf.obj
 0002:00062b40       ??0?$allocator@UTCRF@@@std@@QAE@XZ 100efb40 f i rmg:crf.obj
 0002:00062b60       ??0?$deque@UTCRF@@V?$allocator@UTCRF@@@std@@@std@@QAE@XZ 100efb60 f i rmg:crf.obj
 0002:00062b80       ??0?$stack@UTCRF@@V?$deque@UTCRF@@V?$allocator@UTCRF@@@std@@@std@@@std@@QAE@XZ 100efb80 f i rmg:crf.obj
 0002:00062ba0       ??1?$_Compressed_pair@U?$_Wrap_alloc@V?$allocator@UTCRF@@@std@@@std@@V?$_Deque_val@U?$_Deque_simple_types@UTCRF@@@std@@@2@$00@std@@QAE@XZ 100efba0 f i rmg:crf.obj
 0002:00062bc0       ??1?$_Deque_alloc@U?$_Deque_base_types@UTCRF@@V?$allocator@UTCRF@@@std@@@std@@@std@@QAE@XZ 100efbc0 f i rmg:crf.obj
 0002:00062c20       ??1?$_Deque_const_iterator@V?$_Deque_val@U?$_Deque_simple_types@UTCRF@@@std@@@std@@@std@@QAE@XZ 100efc20 f i rmg:crf.obj
 0002:00062c40       ??1?$_Deque_iterator@V?$_Deque_val@U?$_Deque_simple_types@UTCRF@@@std@@@std@@@std@@QAE@XZ 100efc40 f i rmg:crf.obj
 0002:00062c60       ??1?$_Deque_val@U?$_Deque_simple_types@UTCRF@@@std@@@std@@QAE@XZ 100efc60 f i rmg:crf.obj
 0002:00062c80       ??1?$deque@UTCRF@@V?$allocator@UTCRF@@@std@@@std@@QAE@XZ 100efc80 f i rmg:crf.obj
 0002:00062ce0       ??1?$stack@UTCRF@@V?$deque@UTCRF@@V?$allocator@UTCRF@@@std@@@std@@@std@@QAE@XZ 100efce0 f i rmg:crf.obj
 0002:00062d00       ??D?$_Deque_const_iterator@V?$_Deque_val@U?$_Deque_simple_types@UTCRF@@@std@@@std@@@std@@QBEABUTCRF@@XZ 100efd00 f i rmg:crf.obj
 0002:00062e20       ??D?$_Deque_iterator@V?$_Deque_val@U?$_Deque_simple_types@UTCRF@@@std@@@std@@@std@@QBEAAUTCRF@@XZ 100efe20 f i rmg:crf.obj
 0002:00062e40       ??G?$_Deque_iterator@V?$_Deque_val@U?$_Deque_simple_types@UTCRF@@@std@@@std@@@std@@QBE?AV01@H@Z 100efe40 f i rmg:crf.obj
 0002:00062ef0       ??Y?$_Deque_iterator@V?$_Deque_val@U?$_Deque_simple_types@UTCRF@@@std@@@std@@@std@@QAEAAV01@H@Z 100efef0 f i rmg:crf.obj
 0002:00062f20       ??Z?$_Deque_iterator@V?$_Deque_val@U?$_Deque_simple_types@UTCRF@@@std@@@std@@@std@@QAEAAV01@H@Z 100eff20 f i rmg:crf.obj
 0002:00062f50       ??_ECRF@@UAEPAXI@Z         100eff50 f i rmg:crf.obj
 0002:00062f50       ??_GCRF@@UAEPAXI@Z         100eff50 f i rmg:crf.obj
 0002:00062f90       ?_Alloc_proxy@?$_Deque_alloc@U?$_Deque_base_types@UTCRF@@V?$allocator@UTCRF@@@std@@@std@@@std@@QAEXXZ 100eff90 f i rmg:crf.obj
 0002:00063020       ?_Free_proxy@?$_Deque_alloc@U?$_Deque_base_types@UTCRF@@V?$allocator@UTCRF@@@std@@@std@@@std@@QAEXXZ 100f0020 f i rmg:crf.obj
 0002:000630a0       ?_Get_data@?$_Deque_alloc@U?$_Deque_base_types@UTCRF@@V?$allocator@UTCRF@@@std@@@std@@@std@@QAEAAV?$_Deque_val@U?$_Deque_simple_types@UTCRF@@@std@@@2@XZ 100f00a0 f i rmg:crf.obj
 0002:000630c0       ?_Get_data@?$_Deque_alloc@U?$_Deque_base_types@UTCRF@@V?$allocator@UTCRF@@@std@@@std@@@std@@QBEABV?$_Deque_val@U?$_Deque_simple_types@UTCRF@@@std@@@2@XZ 100f00c0 f i rmg:crf.obj
 0002:000630e0       ?_Get_first@?$_Compressed_pair@U?$_Wrap_alloc@V?$allocator@UTCRF@@@std@@@std@@V?$_Deque_val@U?$_Deque_simple_types@UTCRF@@@std@@@2@$00@std@@QAEAAU?$_Wrap_alloc@V?$allocator@UTCRF@@@std@@@2@XZ 100f00e0 f i rmg:crf.obj
 0002:00063100       ?_Get_first@?$_Compressed_pair@U?$_Wrap_alloc@V?$allocator@UTCRF@@@std@@@std@@V?$_Deque_val@U?$_Deque_simple_types@UTCRF@@@std@@@2@$00@std@@QBEABU?$_Wrap_alloc@V?$allocator@UTCRF@@@std@@@2@XZ 100f0100 f i rmg:crf.obj
 0002:00063120       ?_Get_second@?$_Compressed_pair@U?$_Wrap_alloc@V?$allocator@UTCRF@@@std@@@std@@V?$_Deque_val@U?$_Deque_simple_types@UTCRF@@@std@@@2@$00@std@@QAEAAV?$_Deque_val@U?$_Deque_simple_types@UTCRF@@@std@@@2@XZ 100f0120 f i rmg:crf.obj
 0002:00063140       ?_Get_second@?$_Compressed_pair@U?$_Wrap_alloc@V?$allocator@UTCRF@@@std@@@std@@V?$_Deque_val@U?$_Deque_simple_types@UTCRF@@@std@@@2@$00@std@@QBEABV?$_Deque_val@U?$_Deque_simple_types@UTCRF@@@std@@@2@XZ 100f0140 f i rmg:crf.obj
 0002:00063160       ?_Getal@?$_Deque_alloc@U?$_Deque_base_types@UTCRF@@V?$allocator@UTCRF@@@std@@@std@@@std@@QAEAAU?$_Wrap_alloc@V?$allocator@UTCRF@@@std@@@2@XZ 100f0160 f i rmg:crf.obj
 0002:00063180       ?_Getal@?$_Deque_alloc@U?$_Deque_base_types@UTCRF@@V?$allocator@UTCRF@@@std@@@std@@@std@@QBEABU?$_Wrap_alloc@V?$allocator@UTCRF@@@std@@@2@XZ 100f0180 f i rmg:crf.obj
 0002:000631a0       ?_Getblock@?$_Deque_alloc@U?$_Deque_base_types@UTCRF@@V?$allocator@UTCRF@@@std@@@std@@@std@@QBEII@Z 100f01a0 f i rmg:crf.obj
 0002:000631d0       ?_Getblock@?$_Deque_val@U?$_Deque_simple_types@UTCRF@@@std@@@std@@QBEII@Z 100f01d0 f i rmg:crf.obj
 0002:000631f0       ?_Getpfirst@?$_Deque_alloc@U?$_Deque_base_types@UTCRF@@V?$allocator@UTCRF@@@std@@@std@@@std@@QBEPAPAU_Iterator_base12@2@XZ 100f01f0 f i rmg:crf.obj
 0002:00063210       ?_Growmap@?$deque@UTCRF@@V?$allocator@UTCRF@@@std@@@std@@IAEXI@Z 100f0210 f i rmg:crf.obj
 0002:00063510       ?_Map@?$_Deque_alloc@U?$_Deque_base_types@UTCRF@@V?$allocator@UTCRF@@@std@@@std@@@std@@QAEAAPAPAUTCRF@@XZ 100f0510 f i rmg:crf.obj
 0002:00063530       ?_Mapsize@?$_Deque_alloc@U?$_Deque_base_types@UTCRF@@V?$allocator@UTCRF@@@std@@@std@@@std@@QAEAAIXZ 100f0530 f i rmg:crf.obj
 0002:00063550       ?_Myoff@?$_Deque_alloc@U?$_Deque_base_types@UTCRF@@V?$allocator@UTCRF@@@std@@@std@@@std@@QAEAAIXZ 100f0550 f i rmg:crf.obj
 0002:00063570       ?_Myoff@?$_Deque_alloc@U?$_Deque_base_types@UTCRF@@V?$allocator@UTCRF@@@std@@@std@@@std@@QBEABIXZ 100f0570 f i rmg:crf.obj
 0002:00063590       ?_Myproxy@?$_Deque_alloc@U?$_Deque_base_types@UTCRF@@V?$allocator@UTCRF@@@std@@@std@@@std@@QAEAAPAU_Container_proxy@2@XZ 100f0590 f i rmg:crf.obj
 0002:000635b0       ?_Mysize@?$_Deque_alloc@U?$_Deque_base_types@UTCRF@@V?$allocator@UTCRF@@@std@@@std@@@std@@QAEAAIXZ 100f05b0 f i rmg:crf.obj
 0002:000635d0       ?_Mysize@?$_Deque_alloc@U?$_Deque_base_types@UTCRF@@V?$allocator@UTCRF@@@std@@@std@@@std@@QBEABIXZ 100f05d0 f i rmg:crf.obj
 0002:000635f0       ?_Orphan_all@?$_Deque_alloc@U?$_Deque_base_types@UTCRF@@V?$allocator@UTCRF@@@std@@@std@@@std@@QAEXXZ 100f05f0 f i rmg:crf.obj
 0002:00063610       ?_Orphan_off@?$deque@UTCRF@@V?$allocator@UTCRF@@@std@@@std@@IBEXI@Z 100f0610 f i rmg:crf.obj
 0002:00063760       ?_Setcont@?$_Deque_const_iterator@V?$_Deque_val@U?$_Deque_simple_types@UTCRF@@@std@@@std@@@std@@QAEXPBV?$_Deque_val@U?$_Deque_simple_types@UTCRF@@@std@@@2@@Z 100f0760 f i rmg:crf.obj
 0002:00063780       ?_Tidy@?$deque@UTCRF@@V?$allocator@UTCRF@@@std@@@std@@IAEXXZ 100f0780 f i rmg:crf.obj
 0002:000638c0       ?_Xlen@?$deque@UTCRF@@V?$allocator@UTCRF@@@std@@@std@@IBEXXZ 100f08c0 f i rmg:crf.obj
 0002:000638e0       ?allocate@?$_Wrap_alloc@V?$allocator@PAUTCRF@@@std@@@std@@QAEPAPAUTCRF@@I@Z 100f08e0 f i rmg:crf.obj
 0002:00063900       ?allocate@?$_Wrap_alloc@V?$allocator@UTCRF@@@std@@@std@@QAEPAUTCRF@@I@Z 100f0900 f i rmg:crf.obj
 0002:00063920       ?allocate@?$allocator@PAUTCRF@@@std@@QAEPAPAUTCRF@@I@Z 100f0920 f i rmg:crf.obj
 0002:00063950       ?allocate@?$allocator@UTCRF@@@std@@QAEPAUTCRF@@I@Z 100f0950 f i rmg:crf.obj
 0002:00063980       ?back@?$deque@UTCRF@@V?$allocator@UTCRF@@@std@@@std@@QAEAAUTCRF@@XZ 100f0980 f i rmg:crf.obj
 0002:00063a40       ?deallocate@?$_Wrap_alloc@V?$allocator@PAUTCRF@@@std@@@std@@QAEXPAPAUTCRF@@I@Z 100f0a40 f i rmg:crf.obj
 0002:00063a70       ?deallocate@?$_Wrap_alloc@V?$allocator@UTCRF@@@std@@@std@@QAEXPAUTCRF@@I@Z 100f0a70 f i rmg:crf.obj
 0002:00063aa0       ?deallocate@?$allocator@PAUTCRF@@@std@@QAEXPAPAUTCRF@@I@Z 100f0aa0 f i rmg:crf.obj
 0002:00063ad0       ?deallocate@?$allocator@UTCRF@@@std@@QAEXPAUTCRF@@I@Z 100f0ad0 f i rmg:crf.obj
 0002:00063b00       ?empty@?$deque@UTCRF@@V?$allocator@UTCRF@@@std@@@std@@QBE_NXZ 100f0b00 f i rmg:crf.obj
 0002:00063b40       ?end@?$deque@UTCRF@@V?$allocator@UTCRF@@@std@@@std@@QAE?AV?$_Deque_iterator@V?$_Deque_val@U?$_Deque_simple_types@UTCRF@@@std@@@std@@@2@XZ 100f0b40 f i rmg:crf.obj
 0002:00063bc0       ?max_size@?$_Wrap_alloc@V?$allocator@UTCRF@@@std@@@std@@QBEIU_Nil@2@@Z 100f0bc0 f i rmg:crf.obj
 0002:00063be0       ?max_size@?$allocator@UTCRF@@@std@@QBEIXZ 100f0be0 f i rmg:crf.obj
 0002:00063c00       ?max_size@?$allocator_traits@V?$allocator@UTCRF@@@std@@@std@@SAIABV?$allocator@UTCRF@@@2@@Z 100f0c00 f i rmg:crf.obj
 0002:00063c10       ?max_size@?$deque@UTCRF@@V?$allocator@UTCRF@@@std@@@std@@QBEIXZ 100f0c10 f i rmg:crf.obj
 0002:00063c40       ?pop@?$stack@UTCRF@@V?$deque@UTCRF@@V?$allocator@UTCRF@@@std@@@std@@@std@@QAEXXZ 100f0c40 f i rmg:crf.obj
 0002:00063c60       ?pop_back@?$deque@UTCRF@@V?$allocator@UTCRF@@@std@@@std@@QAEXXZ 100f0c60 f i rmg:crf.obj
 0002:00063d80       ?push@?$stack@UTCRF@@V?$deque@UTCRF@@V?$allocator@UTCRF@@@std@@@std@@@std@@QAEXABUTCRF@@@Z 100f0d80 f i rmg:crf.obj
 0002:00063da0       ?push_back@?$deque@UTCRF@@V?$allocator@UTCRF@@@std@@@std@@QAEXABUTCRF@@@Z 100f0da0 f i rmg:crf.obj
 0002:00063f30       ?top@?$stack@UTCRF@@V?$deque@UTCRF@@V?$allocator@UTCRF@@@std@@@std@@@std@@QAEAAUTCRF@@XZ 100f0f30 f i rmg:crf.obj
 0002:00063f50       ??0Tmr@RACERMATE@@QAE@PBD@Z 100f0f50 f   rmg:tmr.obj
 0002:00064110       ??1Tmr@RACERMATE@@QAE@XZ   100f1110 f   rmg:tmr.obj
 0002:00064490       ?start@Tmr@RACERMATE@@QAEXXZ 100f1490 f   rmg:tmr.obj
 0002:000644b0       ?stop@Tmr@RACERMATE@@QAEHXZ 100f14b0 f   rmg:tmr.obj
 0002:00064580       ?update@Tmr@RACERMATE@@QAEXXZ 100f1580 f   rmg:tmr.obj
 0002:000648c0       ??$qMax@_J@@YAAB_JAB_J0@Z  100f18c0 f i rmg:tmr.obj
 0002:00064920       ??$qMin@_J@@YAAB_JAB_J0@Z  100f1920 f i rmg:tmr.obj
 0002:00064980       ?logg@Ctsrv@RACERMATE@@AAAXPBDZZ 100f1980 f   ctsrv:ctsrv.obj
 0002:00064a90       ??0Ctsrv@RACERMATE@@QAE@HHPBDHPAVQObject@@@Z 100f1a90 f   ctsrv:ctsrv.obj
 0002:00065260       ??1Ctsrv@RACERMATE@@UAE@XZ 100f2260 f   ctsrv:ctsrv.obj
 0002:00065a80       ?instance@Ctsrv@RACERMATE@@SAPAV12@XZ 100f2a80 f   ctsrv:ctsrv.obj
 0002:00065a90       ?doSomeOtherStuff@Ctsrv@RACERMATE@@QAEXH@Z 100f2a90 f   ctsrv:ctsrv.obj
 0002:00065b50       ?get_devnums@Ctsrv@RACERMATE@@QAEPBDXZ 100f2b50 f   ctsrv:ctsrv.obj
 0002:00065b80       ?get_udpkey_from_devnum@Ctsrv@RACERMATE@@QAEPBDPBD@Z 100f2b80 f   ctsrv:ctsrv.obj
 0002:00065e30       ?get_udpkey_from_appkey@Ctsrv@RACERMATE@@QAEPBDVQString@@@Z 100f2e30 f   ctsrv:ctsrv.obj
 0002:00065e60       ?get_udpclient_names@Ctsrv@RACERMATE@@QAEPBDXZ 100f2e60 f   ctsrv:ctsrv.obj
 0002:00066190       ?get_comstats@Ctsrv@RACERMATE@@QAEPBUCOMSTATS@UDPClient@2@VQString@@@Z 100f3190 f   ctsrv:ctsrv.obj
 0002:00066240       ?get_barinfo@Ctsrv@RACERMATE@@QAEPAVBARINFO@qt_SS@2@VQString@@H@Z 100f3240 f   ctsrv:ctsrv.obj
 0002:00066330       ?send@Ctsrv@RACERMATE@@QAEHHPBEH_N@Z 100f3330 f   ctsrv:ctsrv.obj
 0002:00066340       ?client_is_running@Ctsrv@RACERMATE@@QAE_NH@Z 100f3340 f   ctsrv:ctsrv.obj
 0002:00066380       ?get_nclients@Ctsrv@RACERMATE@@QAEHXZ 100f3380 f   ctsrv:ctsrv.obj
 0002:000663b0       ?get_keys@Ctsrv@RACERMATE@@QAE?AV?$QList@VQString@@@@XZ 100f33b0 f   ctsrv:ctsrv.obj
 0002:000664e0       ?get_devnum@Ctsrv@RACERMATE@@QAEHVQString@@@Z 100f34e0 f   ctsrv:ctsrv.obj
 0002:000665a0       ?have@Ctsrv@RACERMATE@@QAE_NPBD@Z 100f35a0 f   ctsrv:ctsrv.obj
 0002:000665e0       ?calc_tp@Ctsrv@RACERMATE@@QAEXVQString@@M@Z 100f35e0 f   ctsrv:ctsrv.obj
 0002:000666a0       ?get_ss_data@Ctsrv@RACERMATE@@QAE?AUSSDATA@@VQString@@H@Z 100f36a0 f   ctsrv:ctsrv.obj
 0002:000667d0       ?check_udp_keys@Ctsrv@RACERMATE@@QAEHXZ 100f37d0 f   ctsrv:ctsrv.obj
 0002:000667e0       ?setPaused@Ctsrv@RACERMATE@@QAEHVQString@@_N@Z 100f37e0 f   ctsrv:ctsrv.obj
 0002:00066930       ?GetTrainerData@Ctsrv@RACERMATE@@QAE?AUTrainerData@2@PBD@Z 100f3930 f   ctsrv:ctsrv.obj
 0002:00066a90       ?reset_client@Ctsrv@RACERMATE@@QAEHPBD@Z 100f3a90 f   ctsrv:ctsrv.obj
 0002:00066b60       ?set_ergo_mode@Ctsrv@RACERMATE@@QAEHVQString@@HHM@Z 100f3b60 f   ctsrv:ctsrv.obj
 0002:00066c20       ?set_export@Ctsrv@RACERMATE@@QAEXVQString@@PBD@Z 100f3c20 f   ctsrv:ctsrv.obj
 0002:00066cd0       ?set_file_mode@Ctsrv@RACERMATE@@QAEHVQString@@_N@Z 100f3cd0 f   ctsrv:ctsrv.obj
 0002:00066e10       ?get_average_bars@Ctsrv@RACERMATE@@QAEPAMVQString@@@Z 100f3e10 f   ctsrv:ctsrv.obj
 0002:00066f00       ?get_bars@Ctsrv@RACERMATE@@QAEPAMVQString@@@Z 100f3f00 f   ctsrv:ctsrv.obj
 0002:00067000       ?get_ftp@Ctsrv@RACERMATE@@QAEMVQString@@@Z 100f4000 f   ctsrv:ctsrv.obj
 0002:00067100       ?get_handlebar_buttons@Ctsrv@RACERMATE@@QAEHVQString@@@Z 100f4100 f   ctsrv:ctsrv.obj
 0002:000671f0       ?is_client_connected@Ctsrv@RACERMATE@@QAE_NVQString@@@Z 100f41f0 f   ctsrv:ctsrv.obj
 0002:000672b0       ?is_paused@Ctsrv@RACERMATE@@QAE_NVQString@@@Z 100f42b0 f   ctsrv:ctsrv.obj
 0002:00067370       ?reset_averages@Ctsrv@RACERMATE@@QAEHVQString@@@Z 100f4370 f   ctsrv:ctsrv.obj
 0002:000674b0       ?set_ftp@Ctsrv@RACERMATE@@QAEHVQString@@M@Z 100f44b0 f   ctsrv:ctsrv.obj
 0002:000675f0       ?set_hr_bounds@Ctsrv@RACERMATE@@QAEHVQString@@HH_N@Z 100f45f0 f   ctsrv:ctsrv.obj
 0002:00067740       ?set_paused@Ctsrv@RACERMATE@@QAEHVQString@@_N@Z 100f4740 f   ctsrv:ctsrv.obj
 0002:000677e0       ?set_grade@Ctsrv@RACERMATE@@QAEHVQString@@MMMH@Z 100f47e0 f   ctsrv:ctsrv.obj
 0002:000678a0       ?set_slope@Ctsrv@RACERMATE@@QAEHVQString@@MMHM@Z 100f48a0 f   ctsrv:ctsrv.obj
 0002:00067a20       ?start_cal@Ctsrv@RACERMATE@@QAEHVQString@@@Z 100f4a20 f   ctsrv:ctsrv.obj
 0002:00067ad0       ?end_cal@Ctsrv@RACERMATE@@QAEHVQString@@@Z 100f4ad0 f   ctsrv:ctsrv.obj
 0002:00067b80       ?get_watts_factor@Ctsrv@RACERMATE@@QAEMVQString@@@Z 100f4b80 f   ctsrv:ctsrv.obj
 0002:00067cf0       ?setwind@Ctsrv@RACERMATE@@QAEXVQString@@M@Z 100f4cf0 f   ctsrv:ctsrv.obj
 0002:00067e20       ?set_draftwind@Ctsrv@RACERMATE@@QAEXVQString@@M@Z 100f4e20 f   ctsrv:ctsrv.obj
 0002:00067f20       ?setlbs@Ctsrv@RACERMATE@@QAEXVQString@@MM@Z 100f4f20 f   ctsrv:ctsrv.obj
 0002:00067fe0       ?setkgs@Ctsrv@RACERMATE@@QAEXVQString@@MM@Z 100f4fe0 f   ctsrv:ctsrv.obj
 0002:000680a0       ?get_cal@Ctsrv@RACERMATE@@QAEHVQString@@@Z 100f50a0 f   ctsrv:ctsrv.obj
 0002:00068150       ?get_fw@Ctsrv@RACERMATE@@QAEGPBD@Z 100f5150 f   ctsrv:ctsrv.obj
 0002:00068230       ?setStarted@Ctsrv@RACERMATE@@QAEXPBD_N@Z 100f5230 f   ctsrv:ctsrv.obj
 0002:00068240       ?setFinished@Ctsrv@RACERMATE@@QAEXPBD_N@Z 100f5240 f   ctsrv:ctsrv.obj
 0002:00068250       ?get_status_bits@Ctsrv@RACERMATE@@QAEHVQString@@@Z 100f5250 f   ctsrv:ctsrv.obj
 0002:00068300       ?get_appkey@Ctsrv@RACERMATE@@QAE?AVQString@@V3@@Z 100f5300 f   ctsrv:ctsrv.obj
 0002:000683e0       ?handleResults@Ctsrv@RACERMATE@@AAEXABVQString@@@Z 100f53e0 f   ctsrv:ctsrv.obj
 0002:000684a0       ?connected_to_trainer_slot@Ctsrv@RACERMATE@@AAEXVQString@@_N@Z 100f54a0 f   ctsrv:ctsrv.obj
 0002:000685e0       ?data_slot@Ctsrv@RACERMATE@@AAEXVQString@@PAVQT_DATA@2@@Z 100f55e0 f   ctsrv:ctsrv.obj
 0002:00068670       ?ss_slot@Ctsrv@RACERMATE@@AAEXVQString@@PAVSSD@qt_SS@2@@Z 100f5670 f   ctsrv:ctsrv.obj
 0002:00068700       ?rescale_slot@Ctsrv@RACERMATE@@AAEXVQString@@H@Z 100f5700 f   ctsrv:ctsrv.obj
 0002:00068790       ?ArrayToInt@RACERMATE@@YAHVQByteArray@@@Z 100f5790 f   ctsrv:ctsrv.obj
 0002:000697d0       ??$__vcrt_va_start_verify_argument_type@PBD@@YAXXZ 100f67d0 f i ctsrv:ctsrv.obj
 0002:000697e0       ??$atomic@H@?$QAtomicOpsBySize@$03@@CAPAJPAH@Z 100f67e0 f i ctsrv:ctsrv.obj
 0002:000697f0       ??$deref@H@?$QAtomicOpsBySize@$03@@SA_NAAH@Z 100f67f0 f i ctsrv:ctsrv.obj
 0002:00069870       ??$load@H@?$QGenericAtomicOps@U?$QAtomicOpsBySize@$03@@@@SAHABH@Z 100f6870 f i ctsrv:ctsrv.obj
 0002:00069880       ??$move@AAPAUData@QListData@@@std@@YA$$QAPAUData@QListData@@AAPAU12@@Z 100f6880 f i ctsrv:ctsrv.obj
 0002:00069890       ??$move@AAV?$QList@VQString@@@@@std@@YA$$QAV?$QList@VQString@@@@AAV1@@Z 100f6890 f i ctsrv:ctsrv.obj
 0002:000698a0       ??$qSwap@PAUData@QListData@@@@YAXAAPAUData@QListData@@0@Z 100f68a0 f i ctsrv:ctsrv.obj
 0002:000698c0       ??$ref@H@?$QAtomicOpsBySize@$03@@SA_NAAH@Z 100f68c0 f i ctsrv:ctsrv.obj
 0002:00069940       ??$swap@PAUData@QListData@@X@std@@YAXAAPAUData@QListData@@0@Z 100f6940 f i ctsrv:ctsrv.obj
 0002:00069990       ??0?$QFlags@W4OpenModeFlag@QIODevice@@@@QAE@W4OpenModeFlag@QIODevice@@@Z 100f6990 f i ctsrv:ctsrv.obj
 0002:000699b0       ??0?$QFlags@W4ProcessEventsFlag@QEventLoop@@@@QAE@W4ProcessEventsFlag@QEventLoop@@@Z 100f69b0 f i ctsrv:ctsrv.obj
 0002:000699d0       ??0?$QForeachContainer@V?$QList@VQString@@@@@@QAE@ABV?$QList@VQString@@@@@Z 100f69d0 f i ctsrv:ctsrv.obj
 0002:00069a30       ??0?$QHashNode@VQString@@PAVUDPClient@RACERMATE@@@@QAE@ABVQString@@ABQAVUDPClient@RACERMATE@@IPAU0@@Z 100f6a30 f i ctsrv:ctsrv.obj
 0002:00069a80       ??0?$QList@VQString@@@@QAE@$$QAV0@@Z 100f6a80 f i ctsrv:ctsrv.obj
 0002:00069ab0       ??0?$QList@VQString@@@@QAE@ABV0@@Z 100f6ab0 f i ctsrv:ctsrv.obj
 0002:00069bc0       ??0?$QList@VQString@@@@QAE@XZ 100f6bc0 f i ctsrv:ctsrv.obj
 0002:00069be0       ??0const_iterator@?$QHash@VQString@@PAVUDPClient@RACERMATE@@@@QAE@PAX@Z 100f6be0 f i ctsrv:ctsrv.obj
 0002:00069c00       ??0const_iterator@?$QList@VQString@@@@QAE@PAUNode@1@@Z 100f6c00 f i ctsrv:ctsrv.obj
 0002:00069c20       ??1?$QForeachContainer@V?$QList@VQString@@@@@@QAE@XZ 100f6c20 f i ctsrv:ctsrv.obj
 0002:00069c40       ??1?$QHashNode@VQString@@PAVUDPClient@RACERMATE@@@@QAE@XZ 100f6c40 f i ctsrv:ctsrv.obj
 0002:00069c60       ??1?$QList@VQString@@@@QAE@XZ 100f6c60 f i ctsrv:ctsrv.obj
 0002:00069ce0       ??1?$QListSpecialMethods@VQString@@@@IAE@XZ 100f6ce0 f i ctsrv:ctsrv.obj
 0002:00069cf0       ??4?$QList@VQString@@@@QAEAAV0@$$QAV0@@Z 100f6cf0 f i ctsrv:ctsrv.obj
 0002:00069d50       ??8@YA_NPBDABVQString@@@Z  100f6d50 f i ctsrv:ctsrv.obj
 0002:00069db0       ??9const_iterator@?$QHash@VQString@@PAVUDPClient@RACERMATE@@@@QBE_NABV01@@Z 100f6db0 f i ctsrv:ctsrv.obj
 0002:00069df0       ??9const_iterator@?$QList@VQString@@@@QBE_NABV01@@Z 100f6df0 f i ctsrv:ctsrv.obj
 0002:00069e30       ??A?$QHash@VQString@@PAVUDPClient@RACERMATE@@@@QAEAAPAVUDPClient@RACERMATE@@ABVQString@@@Z 100f6e30 f i ctsrv:ctsrv.obj
 0002:00069ee0       ??Dconst_iterator@?$QList@VQString@@@@QBEABVQString@@XZ 100f6ee0 f i ctsrv:ctsrv.obj
 0002:00069f00       ??Econst_iterator@?$QHash@VQString@@PAVUDPClient@RACERMATE@@@@QAEAAV01@XZ 100f6f00 f i ctsrv:ctsrv.obj
 0002:00069f30       ??Econst_iterator@?$QList@VQString@@@@QAEAAV01@XZ 100f6f30 f i ctsrv:ctsrv.obj
 0002:00069f60       ??H@YA?BVQString@@ABV0@PBD@Z 100f6f60 f i ctsrv:ctsrv.obj
 0002:0006a040       ??H@YA?BVQString@@PBDABV0@@Z 100f7040 f i ctsrv:ctsrv.obj
 0002:0006a0f0       ??_ECtsrv@RACERMATE@@UAEPAXI@Z 100f70f0 f i ctsrv:ctsrv.obj
 0002:0006a1d0       ??_G?$QHashNode@VQString@@PAVUDPClient@RACERMATE@@@@QAEPAXI@Z 100f71d0 f i ctsrv:ctsrv.obj
 0002:0006a210       ??_GCtsrv@RACERMATE@@UAEPAXI@Z 100f7210 f i ctsrv:ctsrv.obj
 0002:0006a250       ??_EQCoreApplication@@UAEPAXI@Z 100f7250 f i ctsrv:ctsrv.obj
 0002:0006a250       ??_GQCoreApplication@@UAEPAXI@Z 100f7250 f i ctsrv:ctsrv.obj
 0002:0006a290       ??_GQString@@QAEPAXI@Z     100f7290 f i ctsrv:ctsrv.obj
 0002:0006a2d0       ??_EQThread@@UAEPAXI@Z     100f72d0 f i ctsrv:ctsrv.obj
 0002:0006a2d0       ??_GQThread@@UAEPAXI@Z     100f72d0 f i ctsrv:ctsrv.obj
 0002:0006a310       ??_GSDIRS@RACERMATE@@QAEPAXI@Z 100f7310 f i ctsrv:ctsrv.obj
 0002:0006a380       ?alignOfNode@?$QHash@VQString@@PAVUDPClient@RACERMATE@@@@CAHXZ 100f7380 f i ctsrv:ctsrv.obj
 0002:0006a3c0       ?append@?$QList@VQString@@@@QAEXABVQString@@@Z 100f73c0 f i ctsrv:ctsrv.obj
 0002:0006a590       ?begin@?$QHash@VQString@@PAVUDPClient@RACERMATE@@@@QBE?AVconst_iterator@1@XZ 100f7590 f i ctsrv:ctsrv.obj
 0002:0006a5c0       ?begin@?$QList@VQString@@@@QBE?AVconst_iterator@1@XZ 100f75c0 f i ctsrv:ctsrv.obj
 0002:0006a5f0       ?clear@?$QList@VQString@@@@QAEXXZ 100f75f0 f i ctsrv:ctsrv.obj
 0002:0006a630       ?concrete@?$QHash@VQString@@PAVUDPClient@RACERMATE@@@@CAPAU?$QHashNode@VQString@@PAVUDPClient@RACERMATE@@@@PAUNode@QHashData@@@Z 100f7630 f i ctsrv:ctsrv.obj
 0002:0006a640       ?contains@?$QHash@VQString@@PAVUDPClient@RACERMATE@@@@QBE_NABVQString@@@Z 100f7640 f i ctsrv:ctsrv.obj
 0002:0006a690       ?count@?$QHash@VQString@@PAVUDPClient@RACERMATE@@@@QBEHXZ 100f7690 f i ctsrv:ctsrv.obj
 0002:0006a6b0       ?createNode@?$QHash@VQString@@PAVUDPClient@RACERMATE@@@@AAEPAU?$QHashNode@VQString@@PAVUDPClient@RACERMATE@@@@IABVQString@@ABQAVUDPClient@RACERMATE@@PAPAU2@@Z 100f76b0 f i ctsrv:ctsrv.obj
 0002:0006a7b0       ?dealloc@?$QList@VQString@@@@AAEXPAUData@QListData@@@Z 100f77b0 f i ctsrv:ctsrv.obj
 0002:0006a800       ?deleteNode2@?$QHash@VQString@@PAVUDPClient@RACERMATE@@@@CAXPAUNode@QHashData@@@Z 100f7800 f i ctsrv:ctsrv.obj
 0002:0006a820       ?deref@?$QBasicAtomicInteger@H@@QAE_NXZ 100f7820 f i ctsrv:ctsrv.obj
 0002:0006a840       ?deref@RefCount@QtPrivate@@QAE_NXZ 100f7840 f i ctsrv:ctsrv.obj
 0002:0006a890       ?detach@?$QHash@VQString@@PAVUDPClient@RACERMATE@@@@QAEXXZ 100f7890 f i ctsrv:ctsrv.obj
 0002:0006a8c0       ?detach_helper@?$QHash@VQString@@PAVUDPClient@RACERMATE@@@@AAEXXZ 100f78c0 f i ctsrv:ctsrv.obj
 0002:0006a930       ?detach_helper@?$QList@VQString@@@@AAEXH@Z 100f7930 f i ctsrv:ctsrv.obj
 0002:0006aa40       ?detach_helper_grow@?$QList@VQString@@@@AAEPAUNode@1@HH@Z 100f7a40 f i ctsrv:ctsrv.obj
 0002:0006ac20       ?duplicateNode@?$QHash@VQString@@PAVUDPClient@RACERMATE@@@@CAXPAUNode@QHashData@@PAX@Z 100f7c20 f i ctsrv:ctsrv.obj
 0002:0006ace0       ?end@?$QHash@VQString@@PAVUDPClient@RACERMATE@@@@QBE?AVconst_iterator@1@XZ 100f7ce0 f i ctsrv:ctsrv.obj
 0002:0006ad10       ?end@?$QList@VQString@@@@QBE?AVconst_iterator@1@XZ 100f7d10 f i ctsrv:ctsrv.obj
 0002:0006ad40       ?findNode@?$QHash@VQString@@PAVUDPClient@RACERMATE@@@@ABEPAPAU?$QHashNode@VQString@@PAVUDPClient@RACERMATE@@@@ABVQString@@I@Z 100f7d40 f i ctsrv:ctsrv.obj
 0002:0006ae30       ?findNode@?$QHash@VQString@@PAVUDPClient@RACERMATE@@@@ABEPAPAU?$QHashNode@VQString@@PAVUDPClient@RACERMATE@@@@ABVQString@@PAI@Z 100f7e30 f i ctsrv:ctsrv.obj
 0002:0006aeb0       ?freeData@?$QHash@VQString@@PAVUDPClient@RACERMATE@@@@AAEXPAUQHashData@@@Z 100f7eb0 f i ctsrv:ctsrv.obj
 0002:0006aee0       ?get_debug_dir@SDIRS@RACERMATE@@QBE?AVQString@@XZ 100f7ee0 f i ctsrv:ctsrv.obj
 0002:0006af20       ?isShared@RefCount@QtPrivate@@QBE_NXZ 100f7f20 f i ctsrv:ctsrv.obj
 0002:0006af70       ?is_connected@UDPClient@RACERMATE@@QAE_NXZ 100f7f70 f i ctsrv:ctsrv.obj
 0002:0006af90       ?key@const_iterator@?$QHash@VQString@@PAVUDPClient@RACERMATE@@@@QBEABVQString@@XZ 100f7f90 f i ctsrv:ctsrv.obj
 0002:0006afc0       ?keys@?$QHash@VQString@@PAVUDPClient@RACERMATE@@@@QBE?AV?$QList@VQString@@@@XZ 100f7fc0 f i ctsrv:ctsrv.obj
 0002:0006b0c0       ?load@?$QBasicAtomicInteger@H@@QBEHXZ 100f80c0 f i ctsrv:ctsrv.obj
 0002:0006b0e0       ?node_construct@?$QList@VQString@@@@AAEXPAUNode@1@ABVQString@@@Z 100f80e0 f i ctsrv:ctsrv.obj
 0002:0006b1a0       ?node_copy@?$QList@VQString@@@@AAEXPAUNode@1@00@Z 100f81a0 f i ctsrv:ctsrv.obj
 0002:0006b420       ?node_destruct@?$QList@VQString@@@@AAEXPAUNode@1@0@Z 100f8420 f i ctsrv:ctsrv.obj
 0002:0006b4c0       ?node_destruct@?$QList@VQString@@@@AAEXPAUNode@1@@Z 100f84c0 f i ctsrv:ctsrv.obj
 0002:0006b530       ?qRound@@YAHM@Z            100f8530 f i ctsrv:ctsrv.obj
 0002:0006b5c0       ?qt_noop@@YAXXZ            100f85c0 f i ctsrv:ctsrv.obj
 0002:0006b5d0       ?ref@?$QBasicAtomicInteger@H@@QAE_NXZ 100f85d0 f i ctsrv:ctsrv.obj
 0002:0006b5f0       ?ref@RefCount@QtPrivate@@QAE_NXZ 100f85f0 f i ctsrv:ctsrv.obj
 0002:0006b630       ?reserve@?$QList@VQString@@@@QAEXH@Z 100f8630 f i ctsrv:ctsrv.obj
 0002:0006b690       ?same_key@?$QHashNode@VQString@@PAVUDPClient@RACERMATE@@@@QBE_NIABVQString@@@Z 100f8690 f i ctsrv:ctsrv.obj
 0002:0006b6f0       ?size@?$QHash@VQString@@PAVUDPClient@RACERMATE@@@@QBEHXZ 100f86f0 f i ctsrv:ctsrv.obj
 0002:0006b710       ?swap@?$QList@VQString@@@@QAEXAAV1@@Z 100f8710 f i ctsrv:ctsrv.obj
 0002:0006b740       ?t@Node@?$QList@VQString@@@@QAEAAVQString@@XZ 100f8740 f i ctsrv:ctsrv.obj
 0002:0006b770       _fprintf                   100f8770 f i ctsrv:ctsrv.obj
 0002:0006b7c0       _vsprintf                  100f87c0 f i ctsrv:ctsrv.obj
 0002:0006b7f0       ?metaObject@Ctsrv@RACERMATE@@UBEPBUQMetaObject@@XZ 100f87f0 f   ctsrv:moc_ctsrv.obj
 0002:0006b830       ?qt_metacast@Ctsrv@RACERMATE@@UAEPAXPBD@Z 100f8830 f   ctsrv:moc_ctsrv.obj
 0002:0006b870       ?qt_metacall@Ctsrv@RACERMATE@@UAEHW4Call@QMetaObject@@HPAPAX@Z 100f8870 f   ctsrv:moc_ctsrv.obj
 0002:0006b900       ?qt_static_metacall@Ctsrv@RACERMATE@@CAXPAVQObject@@W4Call@QMetaObject@@HPAPAX@Z 100f8900 f   ctsrv:moc_ctsrv.obj
 0002:0006bbd0       ?ss_signal@Ctsrv@RACERMATE@@QAEXVQString@@PAVSSD@qt_SS@2@@Z 100f8bd0 f   ctsrv:moc_ctsrv.obj
 0002:0006bc60       ?data_signal@Ctsrv@RACERMATE@@QAEXVQString@@PAVQT_DATA@2@@Z 100f8c60 f   ctsrv:moc_ctsrv.obj
 0002:0006bcf0       ?rescale_signal@Ctsrv@RACERMATE@@QAEXVQString@@H@Z 100f8cf0 f   ctsrv:moc_ctsrv.obj
 0002:0006bd80       ?connected_to_trainer_signal@Ctsrv@RACERMATE@@QAEXVQString@@_N@Z 100f8d80 f   ctsrv:moc_ctsrv.obj
 0002:0006bf90       ??C?$QScopedPointer@VQObjectData@@U?$QScopedPointerDeleter@VQObjectData@@@@@@QBEPAVQObjectData@@XZ 100f8f90 f i ctsrv:moc_ctsrv.obj
 0002:0006c020       ??0SDIRS@RACERMATE@@QAE@HVQString@@@Z 100f9020 f   ctsrv:sdirs.obj
 0002:0006c670       ??1SDIRS@RACERMATE@@QAE@XZ 100f9670 f   ctsrv:sdirs.obj
 0002:0006c850       ??0UDPClient@RACERMATE@@QAE@VQString@@HPAVQObject@@@Z 100f9850 f   ctsrv:udp_client.obj
 0002:0006ca00       ??1UDPClient@RACERMATE@@UAE@XZ 100f9a00 f   ctsrv:udp_client.obj
 0002:0006cd30       ?close_log_file@UDPClient@RACERMATE@@QAEXXZ 100f9d30 f   ctsrv:udp_client.obj
 0002:0006cd40       ?process@UDPClient@RACERMATE@@QAEXXZ 100f9d40 f   ctsrv:udp_client.obj
 0002:0006d4c0       ?get_watts_factor@UDPClient@RACERMATE@@QAEMXZ 100fa4c0 f   ctsrv:udp_client.obj
 0002:0006d4f0       ?end_cal@UDPClient@RACERMATE@@QAEHXZ 100fa4f0 f   ctsrv:udp_client.obj
 0002:0006d510       ?get_average_bars@UDPClient@RACERMATE@@QAEPAMXZ 100fa510 f   ctsrv:udp_client.obj
 0002:0006d550       ?get_bars@UDPClient@RACERMATE@@QAEPAMXZ 100fa550 f   ctsrv:udp_client.obj
 0002:0006d590       ?calc_tp@UDPClient@RACERMATE@@QAEXM@Z 100fa590 f   ctsrv:udp_client.obj
 0002:0006d5d0       ?get_ftp@UDPClient@RACERMATE@@QAEMXZ 100fa5d0 f   ctsrv:udp_client.obj
 0002:0006d5e0       ?get_handlebar_buttons@UDPClient@RACERMATE@@QAEHXZ 100fa5e0 f   ctsrv:udp_client.obj
 0002:0006d6d0       ?is_paused@UDPClient@RACERMATE@@QAE_NXZ 100fa6d0 f   ctsrv:udp_client.obj
 0002:0006d740       ?reset_stats@UDPClient@RACERMATE@@QAEHXZ 100fa740 f   ctsrv:udp_client.obj
 0002:0006d750       ?reset@UDPClient@RACERMATE@@QAEHXZ 100fa750 f   ctsrv:udp_client.obj
 0002:0006d770       ?rx@UDPClient@RACERMATE@@QAEHPAEH@Z 100fa770 f   ctsrv:udp_client.obj
 0002:0006d780       ?set_ergo_mode@UDPClient@RACERMATE@@QAEHHGM@Z 100fa780 f   ctsrv:udp_client.obj
 0002:0006d7f0       ?set_export@UDPClient@RACERMATE@@QAEXPBD@Z 100fa7f0 f   ctsrv:udp_client.obj
 0002:0006d880       ?set_file_mode@UDPClient@RACERMATE@@QAEX_N@Z 100fa880 f   ctsrv:udp_client.obj
 0002:0006d8a0       ?set_ftp@UDPClient@RACERMATE@@QAEXM@Z 100fa8a0 f   ctsrv:udp_client.obj
 0002:0006d8b0       ?set_hr_bounds@UDPClient@RACERMATE@@QAEHHH_N@Z 100fa8b0 f   ctsrv:udp_client.obj
 0002:0006d8f0       ?set_paused@UDPClient@RACERMATE@@QAEX_N@Z 100fa8f0 f   ctsrv:udp_client.obj
 0002:0006d9b0       ?start_cal@UDPClient@RACERMATE@@QAEHXZ 100fa9b0 f   ctsrv:udp_client.obj
 0002:0006d9f0       ?set_lbs@UDPClient@RACERMATE@@QAEXMM@Z 100fa9f0 f   ctsrv:udp_client.obj
 0002:0006da30       ?set_kgs@UDPClient@RACERMATE@@QAEXMM@Z 100faa30 f   ctsrv:udp_client.obj
 0002:0006da90       ?get_cal@UDPClient@RACERMATE@@QAEMXZ 100faa90 f   ctsrv:udp_client.obj
 0002:0006dab0       ?get_fw@UDPClient@RACERMATE@@QAEGXZ 100faab0 f   ctsrv:udp_client.obj
 0002:0006dad0       ?get_status_bits@UDPClient@RACERMATE@@QAEHXZ 100faad0 f   ctsrv:udp_client.obj
 0002:0006daf0       ?set_grade@UDPClient@RACERMATE@@AAEHMMMH@Z 100faaf0 f   ctsrv:udp_client.obj
 0002:0006dc10       ?set_wind@UDPClient@RACERMATE@@AAEXM@Z 100fac10 f   ctsrv:udp_client.obj
 0002:0006dc50       ?set_draft_wind@UDPClient@RACERMATE@@AAEXM@Z 100fac50 f   ctsrv:udp_client.obj
 0002:0006dc80       ?GetTrainerData@UDPClient@RACERMATE@@AAE?AUTrainerData@2@H@Z 100fac80 f   ctsrv:udp_client.obj
 0002:0006dd20       ?SETVAL@UDPClient@RACERMATE@@AAEHHHH@Z 100fad20 f   ctsrv:udp_client.obj
 0002:0006dd70       ?send_ctlmsg@UDPClient@RACERMATE@@AAEHH@Z 100fad70 f   ctsrv:udp_client.obj
 0002:0006dfc0       ?gen_devnum@UDPClient@RACERMATE@@AAEHPAEH@Z 100fafc0 f   ctsrv:udp_client.obj
 0002:0006e090       ?gen_hbctl@UDPClient@RACERMATE@@AAEHPAEH@Z 100fb090 f   ctsrv:udp_client.obj
 0002:0006e300       ?get_devnum@UDPClient@RACERMATE@@AAEHH@Z 100fb300 f   ctsrv:udp_client.obj
 0002:0006e3c0       ?decode_ss@UDPClient@RACERMATE@@AAEHH@Z 100fb3c0 f   ctsrv:udp_client.obj
 0002:0006e590       ?decode_slow@UDPClient@RACERMATE@@AAEXHPAUNHBDATA@12@@Z 100fb590 f   ctsrv:udp_client.obj
 0002:0006e760       ?decode_fast@UDPClient@RACERMATE@@AAEXHPAUNHBDATA@12@@Z 100fb760 f   ctsrv:udp_client.obj
 0002:0006e8c0       ?beep@UDPClient@RACERMATE@@AAEXXZ 100fb8c0 f   ctsrv:udp_client.obj
 0002:0006e8d0       ?init@UDPClient@RACERMATE@@AAEHXZ 100fb8d0 f   ctsrv:udp_client.obj
 0002:0006f610       ?updateHardware@UDPClient@RACERMATE@@AAEHXZ 100fc610 f   ctsrv:udp_client.obj
 0002:0006f820       ?hexdump@UDPClient@RACERMATE@@AAEXPAEHVQString@@1@Z 100fc820 f   ctsrv:udp_client.obj
 0002:0006f9d0       ?get_comstats@UDPClient@RACERMATE@@AAEPAUCOMSTATS@12@XZ 100fc9d0 f   ctsrv:udp_client.obj
 0002:0006fa40       ?get_ss_data@UDPClient@RACERMATE@@AAE?AUSSDATA@@H@Z 100fca40 f   ctsrv:udp_client.obj
 0002:0006fb10       ?get_ubermsg@UDPClient@RACERMATE@@AAEHXZ 100fcb10 f   ctsrv:udp_client.obj
 0002:00070af0       ??$?0$$V@?$_Compressed_pair@U?$_Wrap_alloc@V?$allocator@M@std@@@std@@V?$_Vector_val@U?$_Simple_types@M@std@@@2@$00@std@@QAE@U_Zero_then_variadic_args_t@1@@Z 100fdaf0 f i ctsrv:udp_client.obj
 0002:00070b20       ??$?0AAU?$_Wrap_alloc@V?$allocator@M@std@@@std@@@?$_Wrap_alloc@V?$allocator@U_Container_proxy@std@@@std@@@std@@QAE@AAU?$_Wrap_alloc@V?$allocator@M@std@@@1@@Z 100fdb20 f i ctsrv:udp_client.obj
 0002:00070b50       ??$?0M@?$allocator@U_Container_proxy@std@@@std@@QAE@ABV?$allocator@M@1@@Z 100fdb50 f i ctsrv:udp_client.obj
 0002:00070b70       ??$_Destroy_range1@V?$allocator@M@std@@PAM@std@@YAXPAM0AAU?$_Wrap_alloc@V?$allocator@M@std@@@0@U?$integral_constant@_N$00@0@@Z 100fdb70 f i ctsrv:udp_client.obj
 0002:00070b80       ??$_Destroy_range@V?$allocator@M@std@@PAM@std@@YAXPAM0AAU?$_Wrap_alloc@V?$allocator@M@std@@@0@@Z 100fdb80 f i ctsrv:udp_client.obj
 0002:00070bb0       ??$forward@AAU?$_Wrap_alloc@V?$allocator@M@std@@@std@@@std@@YAAAU?$_Wrap_alloc@V?$allocator@M@std@@@0@AAU10@@Z 100fdbb0 f i ctsrv:udp_client.obj
 0002:00070bc0       ??0?$_Vector_alloc@U?$_Vec_base_types@MV?$allocator@M@std@@@std@@@std@@QAE@XZ 100fdbc0 f i ctsrv:udp_client.obj
 0002:00070c40       ??0?$_Vector_val@U?$_Simple_types@M@std@@@std@@QAE@XZ 100fdc40 f i ctsrv:udp_client.obj
 0002:00070c90       ??0?$_Wrap_alloc@V?$allocator@M@std@@@std@@QAE@XZ 100fdc90 f i ctsrv:udp_client.obj
 0002:00070cb0       ??0?$allocator@M@std@@QAE@XZ 100fdcb0 f i ctsrv:udp_client.obj
 0002:00070cd0       ??0?$vector@MV?$allocator@M@std@@@std@@QAE@XZ 100fdcd0 f i ctsrv:udp_client.obj
 0002:00070d20       ??0COMSTATS@UDPClient@RACERMATE@@QAE@XZ 100fdd20 f i ctsrv:udp_client.obj
 0002:00070d70       ??0Rider2@@QAE@XZ          100fdd70 f i ctsrv:udp_client.obj
 0002:00070ee0       ??1?$_Compressed_pair@U?$_Wrap_alloc@V?$allocator@M@std@@@std@@V?$_Vector_val@U?$_Simple_types@M@std@@@2@$00@std@@QAE@XZ 100fdee0 f i ctsrv:udp_client.obj
 0002:00070f00       ??1?$_Vector_alloc@U?$_Vec_base_types@MV?$allocator@M@std@@@std@@@std@@QAE@XZ 100fdf00 f i ctsrv:udp_client.obj
 0002:00070f60       ??1?$_Vector_val@U?$_Simple_types@M@std@@@std@@QAE@XZ 100fdf60 f i ctsrv:udp_client.obj
 0002:00070f80       ??1?$vector@MV?$allocator@M@std@@@std@@QAE@XZ 100fdf80 f i ctsrv:udp_client.obj
 0002:00070fe0       ??1QT_DATA@RACERMATE@@QAE@XZ 100fdfe0 f i ctsrv:udp_client.obj
 0002:00071000       ??1Rider2@@UAE@XZ          100fe000 f i ctsrv:udp_client.obj
 0002:00071040       ??H@YA?BVQString@@ABV0@0@Z 100fe040 f i ctsrv:udp_client.obj
 0002:000710f0       ??_ERider2@@UAEPAXI@Z      100fe0f0 f i ctsrv:udp_client.obj
 0002:000710f0       ??_GRider2@@UAEPAXI@Z      100fe0f0 f i ctsrv:udp_client.obj
 0002:00071130       ??_EUDPClient@RACERMATE@@UAEPAXI@Z 100fe130 f i ctsrv:udp_client.obj
 0002:00071130       ??_GUDPClient@RACERMATE@@UAEPAXI@Z 100fe130 f i ctsrv:udp_client.obj
 0002:00071170       ??_Gqt_SS@RACERMATE@@QAEPAXI@Z 100fe170 f i ctsrv:udp_client.obj
 0002:000711b0       ?_Alloc_proxy@?$_Vector_alloc@U?$_Vec_base_types@MV?$allocator@M@std@@@std@@@std@@QAEXXZ 100fe1b0 f i ctsrv:udp_client.obj
 0002:00071270       ?_Destroy@?$vector@MV?$allocator@M@std@@@std@@IAEXPAM0@Z 100fe270 f i ctsrv:udp_client.obj
 0002:000712a0       ?_Free_proxy@?$_Vector_alloc@U?$_Vec_base_types@MV?$allocator@M@std@@@std@@@std@@QAEXXZ 100fe2a0 f i ctsrv:udp_client.obj
 0002:00071320       ?_Get_data@?$_Vector_alloc@U?$_Vec_base_types@MV?$allocator@M@std@@@std@@@std@@QAEAAV?$_Vector_val@U?$_Simple_types@M@std@@@2@XZ 100fe320 f i ctsrv:udp_client.obj
 0002:00071340       ?_Get_first@?$_Compressed_pair@U?$_Wrap_alloc@V?$allocator@M@std@@@std@@V?$_Vector_val@U?$_Simple_types@M@std@@@2@$00@std@@QAEAAU?$_Wrap_alloc@V?$allocator@M@std@@@2@XZ 100fe340 f i ctsrv:udp_client.obj
 0002:00071360       ?_Get_second@?$_Compressed_pair@U?$_Wrap_alloc@V?$allocator@M@std@@@std@@V?$_Vector_val@U?$_Simple_types@M@std@@@2@$00@std@@QAEAAV?$_Vector_val@U?$_Simple_types@M@std@@@2@XZ 100fe360 f i ctsrv:udp_client.obj
 0002:00071380       ?_Getal@?$_Vector_alloc@U?$_Vec_base_types@MV?$allocator@M@std@@@std@@@std@@QAEAAU?$_Wrap_alloc@V?$allocator@M@std@@@2@XZ 100fe380 f i ctsrv:udp_client.obj
 0002:000713a0       ?_Myend@?$_Vector_alloc@U?$_Vec_base_types@MV?$allocator@M@std@@@std@@@std@@QAEAAPAMXZ 100fe3a0 f i ctsrv:udp_client.obj
 0002:000713c0       ?_Myfirst@?$_Vector_alloc@U?$_Vec_base_types@MV?$allocator@M@std@@@std@@@std@@QAEAAPAMXZ 100fe3c0 f i ctsrv:udp_client.obj
 0002:000713e0       ?_Mylast@?$_Vector_alloc@U?$_Vec_base_types@MV?$allocator@M@std@@@std@@@std@@QAEAAPAMXZ 100fe3e0 f i ctsrv:udp_client.obj
 0002:00071400       ?_Myproxy@?$_Vector_alloc@U?$_Vec_base_types@MV?$allocator@M@std@@@std@@@std@@QAEAAPAU_Container_proxy@2@XZ 100fe400 f i ctsrv:udp_client.obj
 0002:00071420       ?_Orphan_all@?$_Vector_alloc@U?$_Vec_base_types@MV?$allocator@M@std@@@std@@@std@@QAEXXZ 100fe420 f i ctsrv:udp_client.obj
 0002:00071440       ?_Tidy@?$vector@MV?$allocator@M@std@@@std@@IAEXXZ 100fe440 f i ctsrv:udp_client.obj
 0002:00071510       ?deallocate@?$_Wrap_alloc@V?$allocator@M@std@@@std@@QAEXPAMI@Z 100fe510 f i ctsrv:udp_client.obj
 0002:00071540       ?deallocate@?$allocator@M@std@@QAEXPAMI@Z 100fe540 f i ctsrv:udp_client.obj
 0002:00071570       ?get_max_force@qt_SS@RACERMATE@@QAEMXZ 100fe570 f i ctsrv:udp_client.obj
 0002:00071590       ?getavglss@qt_SS@RACERMATE@@QAEMXZ 100fe590 f i ctsrv:udp_client.obj
 0002:000715b0       ?getavgrss@qt_SS@RACERMATE@@QAEMXZ 100fe5b0 f i ctsrv:udp_client.obj
 0002:000715d0       ?getavgss@qt_SS@RACERMATE@@QAEMXZ 100fe5d0 f i ctsrv:udp_client.obj
 0002:000715f0       ?getlata@qt_SS@RACERMATE@@QAEMXZ 100fe5f0 f i ctsrv:udp_client.obj
 0002:00071610       ?getlss@qt_SS@RACERMATE@@QAEMXZ 100fe610 f i ctsrv:udp_client.obj
 0002:00071630       ?getlwatts@qt_SS@RACERMATE@@QAEMXZ 100fe630 f i ctsrv:udp_client.obj
